
/home/lubuntu/Dokument/GitHub/STM32-Computer/Firmware/STM32-Computer-Firmware/CA7/optee-os-3.19.0-r2/optee-os-stm32mp-3.19.0-stm32mp-r2/../build/stm32mp157c-ed1/ldelf/ldelf.elf:     file format elf32-littlearm
/home/lubuntu/Dokument/GitHub/STM32-Computer/Firmware/STM32-Computer-Firmware/CA7/optee-os-3.19.0-r2/optee-os-stm32mp-3.19.0-stm32mp-r2/../build/stm32mp157c-ed1/ldelf/ldelf.elf
architecture: armv7, flags 0x00000150:
HAS_SYMS, DYNAMIC, D_PAGED
start address 0x00000000

Program Header:
0x70000001 off    0x00006780 vaddr 0x00005780 paddr 0x00005780 align 2**2
         filesz 0x00000398 memsz 0x00000398 flags r--
    LOAD off    0x00001000 vaddr 0x00000000 paddr 0x00000000 align 2**12
         filesz 0x00005cc8 memsz 0x00005cc8 flags r-x
    LOAD off    0x00007000 vaddr 0x00006000 paddr 0x00006000 align 2**12
         filesz 0x0000010c memsz 0x00000118 flags rw-
 DYNAMIC off    0x00007000 vaddr 0x00006000 paddr 0x00006000 align 2**2
         filesz 0x00000088 memsz 0x00000088 flags rw-
   STACK off    0x00000000 vaddr 0x00000000 paddr 0x00000000 align 2**4
         filesz 0x00000000 memsz 0x00000000 flags rwx

Dynamic Section:
  HASH                 0x00005c80
  GNU_HASH             0x00005768
  STRTAB               0x00005c7c
  SYMTAB               0x00005c4c
  STRSZ                0x00000001
  SYMENT               0x00000010
  DEBUG                0x00000000
  REL                  0x00005c98
  RELSZ                0x00000030
  RELENT               0x00000008
  FLAGS_1              0x08000000
  RELCOUNT             0x00000003
private flags = 0x5000200: [Version5 EABI] [soft-float ABI]

Sections:
Idx Name          Size      VMA       LMA       File off  Algn
  0 .text         000045c0  00000000  00000000  00001000  2**3
                  CONTENTS, ALLOC, LOAD, READONLY, CODE
  1 .rodata       000011a8  000045c0  000045c0  000055c0  2**0
                  CONTENTS, ALLOC, LOAD, READONLY, DATA
  2 .gnu.hash     00000018  00005768  00005768  00006768  2**2
                  CONTENTS, ALLOC, LOAD, READONLY, DATA
  3 .ARM.exidx    00000398  00005780  00005780  00006780  2**2
                  CONTENTS, ALLOC, LOAD, READONLY, DATA
  4 .ARM.extab    00000134  00005b18  00005b18  00006b18  2**2
                  CONTENTS, ALLOC, LOAD, READONLY, DATA
  5 .dynsym       00000030  00005c4c  00005c4c  00006c4c  2**2
                  CONTENTS, ALLOC, LOAD, READONLY, DATA
  6 .dynstr       00000001  00005c7c  00005c7c  00006c7c  2**0
                  CONTENTS, ALLOC, LOAD, READONLY, DATA
  7 .hash         00000018  00005c80  00005c80  00006c80  2**2
                  CONTENTS, ALLOC, LOAD, READONLY, DATA
  8 .rel.got      00000018  00005c98  00005c98  00006c98  2**2
                  CONTENTS, ALLOC, LOAD, READONLY, DATA
  9 .dynamic      00000088  00006000  00006000  00007000  2**2
                  CONTENTS, ALLOC, LOAD, DATA
 10 .got          00000018  00006088  00006088  00007088  2**2
                  CONTENTS, ALLOC, LOAD, DATA
 11 .data         0000006c  000060a0  000060a0  000070a0  2**2
                  CONTENTS, ALLOC, LOAD, DATA
 12 .bss          0000000c  0000610c  0000610c  0000710c  2**2
                  ALLOC
 13 .ARM.attributes 0000002f  00000000  00000000  0000710c  2**0
                  CONTENTS, READONLY
 14 .comment      00000012  00000000  00000000  0000713b  2**0
                  CONTENTS, READONLY
 15 .debug_line   00009815  00000000  00000000  0000714d  2**0
                  CONTENTS, READONLY, DEBUGGING, OCTETS
 16 .debug_line_str 0000010c  00000000  00000000  00010962  2**0
                  CONTENTS, READONLY, DEBUGGING, OCTETS
 17 .debug_info   0000e129  00000000  00000000  00010a6e  2**0
                  CONTENTS, READONLY, DEBUGGING, OCTETS
 18 .debug_abbrev 00002c73  00000000  00000000  0001eb97  2**0
                  CONTENTS, READONLY, DEBUGGING, OCTETS
 19 .debug_aranges 00000920  00000000  00000000  00021810  2**3
                  CONTENTS, READONLY, DEBUGGING, OCTETS
 20 .debug_str    0001564a  00000000  00000000  00022130  2**0
                  CONTENTS, READONLY, DEBUGGING, OCTETS
 21 .rel.dyn      00000018  00005cb0  00005cb0  00006cb0  2**2
                  CONTENTS, ALLOC, LOAD, READONLY, DATA
 22 .debug_rnglists 00000d91  00000000  00000000  0003777a  2**0
                  CONTENTS, READONLY, DEBUGGING, OCTETS
 23 .debug_loclists 00007eef  00000000  00000000  0003850b  2**0
                  CONTENTS, READONLY, DEBUGGING, OCTETS
 24 .debug_macro  00015aea  00000000  00000000  000403fa  2**0
                  CONTENTS, READONLY, DEBUGGING, OCTETS
 25 .debug_frame  0000113c  00000000  00000000  00055ee4  2**2
                  CONTENTS, READONLY, DEBUGGING, OCTETS
SYMBOL TABLE:
00000000 l    d  .text	00000000 .text
000045c0 l    d  .rodata	00000000 .rodata
00005768 l    d  .gnu.hash	00000000 .gnu.hash
00005780 l    d  .ARM.exidx	00000000 .ARM.exidx
00005b18 l    d  .ARM.extab	00000000 .ARM.extab
00005c4c l    d  .dynsym	00000000 .dynsym
00005c7c l    d  .dynstr	00000000 .dynstr
00005c80 l    d  .hash	00000000 .hash
00005c98 l    d  .rel.got	00000000 .rel.got
00006000 l    d  .dynamic	00000000 .dynamic
00006088 l    d  .got	00000000 .got
000060a0 l    d  .data	00000000 .data
0000610c l    d  .bss	00000000 .bss
00000000 l    d  .ARM.attributes	00000000 .ARM.attributes
00000000 l    d  .comment	00000000 .comment
00000000 l    d  .debug_line	00000000 .debug_line
00000000 l    d  .debug_line_str	00000000 .debug_line_str
00000000 l    d  .debug_info	00000000 .debug_info
00000000 l    d  .debug_abbrev	00000000 .debug_abbrev
00000000 l    d  .debug_aranges	00000000 .debug_aranges
00000000 l    d  .debug_str	00000000 .debug_str
00005cb0 l    d  .rel.dyn	00000000 .rel.dyn
00000000 l    d  .debug_rnglists	00000000 .debug_rnglists
00000000 l    d  .debug_loclists	00000000 .debug_loclists
00000000 l    d  .debug_macro	00000000 .debug_macro
00000000 l    d  .debug_frame	00000000 .debug_frame
00000000 l    df *ABS*	00000000 start_a32.o
0000005c l       .text	00000000 reloc_begin_rel
00000060 l       .text	00000000 reloc_end_rel
00000000 l    df *ABS*	00000000 syscalls_a32.o
00000000 l    df *ABS*	00000000 dl.c
00000000 l    df *ABS*	00000000 main.c
00000200 l     F .text	00000024 dl_entry
00003fdc l     F .text	00000018 print_to_console
00000224 l     F .text	000000d4 dump_ta_state
00004647 l     O .rodata	0000000e __func__.0
0000610c l     O .bss	00000004 mpool_base
00004655 l     O .rodata	00000006 __func__.1
00000000 l    df *ABS*	00000000 sys.c
00000000 l    df *ABS*	00000000 ta_elf.c
000004a0 l     F .text	00000084 check_range
00004fc4 l     O .rodata	0000000c __func__.19
00000524 l     F .text	00000070 check_hashtab
00004f81 l     O .rodata	0000000e __func__.15
00000594 l     F .text	00000044 queue_elf_helper
000005d8 l     F .text	00000090 add_segment
00005023 l     O .rodata	0000000c __func__.24
00000668 l     F .text	00000040 get_pad_begin
0000507a l     O .rodata	0000000e __func__.31
000006a8 l     F .text	0000004c ta_elf_add_bti
0000506b l     O .rodata	0000000f __func__.30
000006f4 l     F .text	00000188 init_elf
0000504e l     O .rodata	00000009 __func__.28
0000087c l     F .text	00000040 close_handle
00004f49 l     O .rodata	0000000d __func__.12
00004052 l     F .text	0000001a print_wrapper
000008bc l     F .text	00000060 check_phdr_in_range.constprop.0
00004fd0 l     O .rodata	00000014 __func__.20
0000091c l     F .text	00000018 _assert_trap.constprop.0
00000934 l     F .text	000000e4 print_seg
00006114 l     O .bss	00000004 ta_stack
00000a18 l     F .text	000000ec copy_section_headers
00004faf l     O .rodata	00000015 __func__.18
00000b04 l     F .text	0000038c populate_segments
00005099 l     O .rodata	00000012 __func__.33
00005088 l     O .rodata	00000011 __func__.32
00000e90 l     F .text	00000380 map_segments
00005041 l     O .rodata	0000000d __func__.27
000060a4 l     O .data	00000004 last_tls_mod_id.26
0000502f l     O .rodata	00000012 __func__.25
00005013 l     O .rodata	00000010 __func__.23
0000406c l     F .text	0000002a read_dyn
00001210 l     F .text	000000a4 save_soname_from_segment
00004f56 l     O .rodata	00000019 __func__.13
000012b4 l     F .text	000002e4 save_symtab
00004f8f l     O .rodata	00000010 __func__.16
00004f9f l     O .rodata	00000010 __func__.17
00004f6f l     O .rodata	00000012 __func__.14
00001598 l     F .text	000000a8 get_init_fini_array.constprop.0
00004e86 l     O .rodata	00000014 __func__.2
00004096 l     F .text	0000005c elf_get_init_fini_array.constprop.0
0000166c l     F .text	00000040 queue_elf
000050b5 l     O .rodata	0000000a __func__.35
000016ac l     F .text	00000114 add_deps_from_segment
00004fe4 l     O .rodata	00000016 __func__.21
000040f2 l     F .text	0000004a add_dependencies
000050bf l     O .rodata	00000011 __func__.36
000050ab l     O .rodata	0000000a __func__.34
00004ffa l     O .rodata	00000019 __func__.22
00005057 l     O .rodata	00000014 __func__.29
00006110 l     O .bss	00000004 ta_stack_size
00004f18 l     O .rodata	00000017 __func__.10
00004eff l     O .rodata	00000019 __func__.9
00004ed7 l     O .rodata	00000012 __func__.6
00004ee9 l     O .rodata	00000016 __func__.8
00004ea3 l     O .rodata	00000021 __func__.4
00004e9a l     O .rodata	00000009 __func__.3
00004e6d l     O .rodata	00000019 __func__.1
00004e5a l     O .rodata	00000013 __func__.0
00004f2f l     O .rodata	0000001a __func__.11
00004ec4 l     O .rodata	00000013 __func__.5
00000000 l    df *ABS*	00000000 ta_elf_rel.c
0000413e l     F .text	0000000c confine_array_index
000022d0 l     F .text	00000150 check_found_sym
00005331 l     O .rodata	00000010 __func__.6
00005325 l     O .rodata	0000000c __func__.5
00002420 l     F .text	000001c0 resolve_sym_helper
00005341 l     O .rodata	00000013 __func__.7
000025e0 l     F .text	00000088 e32_get_sym_name.constprop.0.isra.0
00005307 l     O .rodata	00000011 __func__.3
000026e4 l     F .text	0000006c e32_process_dyn_rel
000052fb l     O .rodata	0000000c __func__.2
000052db l     O .rodata	0000000d __func__.0
00005318 l     O .rodata	0000000d __func__.4
000052e8 l     O .rodata	00000013 __func__.1
00000000 l    df *ABS*	00000000 unwind_arm32.c
0000414a l     F .text	00000028 pop_vsp
00004172 l     F .text	0000003e unwind_exec_read_byte
000053a6 l     O .rodata	0000000b __func__.1
00005395 l     O .rodata	00000011 __func__.0
00000000 l    df *ABS*	00000000 assert.c
00000000 l    df *ABS*	00000000 tee_uuid_from_str.c
00002f6c l     F .text	00000048 parse_hex
00000000 l    df *ABS*	00000000 utee_syscalls_a32.o
00000000 l    df *ABS*	00000000 bget_malloc.c
000041b0 l     F .text	00000020 raw_malloc_return_hook
000041d0 l     F .text	0000000a _assert_trap
000030a4 l     F .text	00000020 bget_buf_size.part.0
000056cb l     O .rodata	0000000e __func__.2
000056ea l     O .rodata	00000005 __func__.8
000056e4 l     O .rodata	00000006 __func__.7
000056df l     O .rodata	00000005 __func__.5
000056d9 l     O .rodata	00000006 __func__.4
000060b0 l     O .data	0000005c malloc_ctx
000035ac l     F .text	000000b8 gen_malloc_add_pool
000056b7 l     O .rodata	00000014 __func__.1
00000000 l    df *ABS*	00000000 memcpy.c
00000000 l    df *ABS*	00000000 arm32_aeabi_ldivmod_a32.o
00000000 l    df *ABS*	00000000 snprintk.c
000037c8 l     F .text	000006dc kprintf.constprop.0
00005738 l     O .rodata	00000011 hexdigits
00005727 l     O .rodata	00000011 HEXDIGITS
00000000 l    df *ABS*	00000000 trace.c
00005763 l     O .rodata	00000005 lvl_strs.1
00000000 l    df *ABS*	00000000 isxdigit.c
00000000 l    df *ABS*	00000000 snprintf.c
00000000 l    df *ABS*	00000000 tolower.c
00000000 l    df *ABS*	00000000 memcmp.c
00000000 l    df *ABS*	00000000 memset.c
00000000 l    df *ABS*	00000000 strcmp.c
00000000 l    df *ABS*	00000000 strcpy.c
00000000 l    df *ABS*	00000000 strnlen.c
00000000 l    df *ABS*	00000000 arm32_aeabi_ldivmod.c
00004392 l     F .text	0000008e ul_div_qr
00000000 l    df *ABS*	00000000 aeabi_unwind.c
00000000 l    df *ABS*	00000000 memchr.c
00000000 l    df *ABS*	00000000 strlen.c
00000000 l    df *ABS*	00000000 trace_ext.c
00000000 l    df *ABS*	00000000 
0000436a l     F .text	00000010 strcpy
00004206 l     F .text	00000008 raw_free
00002668 l     F .text	0000007c ta_elf_resolve_sym
00002fb4 l     F .text	000000c8 tee_uuid_from_str
00004490 l     F .text	0000000e vsnprintk
000042fa l     F .text	0000001e snprintf
00006000 l     O *ABS*	00000000 _DYNAMIC
00002750 l     F .text	00000498 ta_elf_relocate
00001640 l     F .text	0000002c ta_elf_find_elf
000044b8 l     F .text	00000018 trace_printf
000036d4 l     F .text	000000dc memcpy
00003ff4 l     F .text	00000008 sys_return_cleanup
00004318 l     F .text	0000000c tolower
00003664 l     F .text	00000014 malloc
0000404a l     F .text	00000004 sys_remap
00001c0c l     F .text	0000020c ta_elf_print_mappings
000041da l     F .text	0000002c raw_malloc
000032d0 l     F .text	0000005c bgetz
0000041c l     F .text	00000084 __panic
00003ea4 l     F .text	00000138 trace_vprintf
00002f34 l     F .text	00000028 _assert_log
000042de l     F .text	0000001c isxdigit
0000437a l     F .text	00000018 strnlen
00001e68 l     F .text	00000038 ta_elf_stack_trace_a32
00003678 l     F .text	00000020 calloc
00004420 l     F .text	00000040 __ul_divmod
00000174 l     F .text	00000040 dlopen_entry
00004010 l     F .text	00000004 sys_unmap
000044d4 l     F .text	0000001c memchr
00002028 l     F .text	0000016c ta_elf_set_elf_phdr_info
00001bb4 l     F .text	00000058 ta_elf_finalize_mappings
00002230 l     F .text	000000a0 ta_elf_add_library
00003698 l     F .text	0000001c realloc
000001b4 l     F .text	0000004c dlsym_entry
00004324 l     F .text	00000020 memcmp
000036c4 l     F .text	00000010 malloc_add_pool
0000424c l     F .text	00000092 raw_realloc
00002194 l     F .text	0000009c ta_elf_finalize_load_main
00003518 l     F .text	00000094 bpool
00004014 l     F .text	00000008 sys_open_ta_bin
00004344 l     F .text	00000010 memset
00001e18 l     F .text	00000050 find_exidx
00004354 l     F .text	00000016 strcmp
0000401c l     F .text	00000004 sys_close_ta_bin
00002ee8 l     F .text	0000004c print_stack_arm32
0000413c l     F .text	00000002 ta_elf_stack_trace_a64
0000449e l     F .text	0000001a snprintk
00002be8 l     F .text	00000300 unwind_stack_arm32
000030c4 l     F .text	0000020c bget
00003ffc l     F .text	00000014 sys_map_zi
00004020 l     F .text	00000016 sys_map_ta_bin
000002f8 l     F .text	00000124 ldelf
00002f5c l     F .text	00000010 _assert_break
00006088 l     O *ABS*	00000000 _GLOBAL_OFFSET_TABLE_
00001b0c l     F .text	000000a8 ta_elf_load_dependency
00004460 l     F .text	00000030 __vsnprintf
0000404e l     F .text	00000004 sys_gen_random_num
00004500 l     F .text	00000014 trace_ext_puts
00004514 l     F .text	00000006 trace_ext_get_thread_id
00004046 l     F .text	00000004 sys_set_prot
0000420e l     F .text	0000003e raw_calloc
000044f0 l     F .text	00000010 strlen
0000332c l     F .text	000001ec brel
000017c0 l     F .text	0000034c ta_elf_load_main
00001ea0 l     F .text	00000188 ta_elf_set_init_fini_info_compat
00004036 l     F .text	00000010 sys_copy_from_ta_bin
000036b4 l     F .text	00000010 free
00004520 l     F .text	00000010 ___ldelf_map_zi_from_thumb
00004530 l     F .text	00000010 ___ldelf_map_bin_from_thumb
00004540 l     F .text	00000010 ___ldelf_open_bin_from_thumb
00004550 l     F .text	00000010 ___ldelf_close_bin_from_thumb
00004560 l     F .text	00000010 ___ldelf_cp_from_bin_from_thumb
00004570 l     F .text	00000010 ___ldelf_unmap_from_thumb
00004580 l     F .text	00000010 ___ldelf_gen_rnd_num_from_thumb
00004590 l     F .text	00000010 ___ldelf_set_prot_from_thumb
000045a0 l     F .text	00000010 ___ldelf_remap_from_thumb
000045b0 l     F .text	00000010 ___ldelf_log_from_thumb
00005c98 g       .rel.got	00000000 __reloc_begin
00000148 g     F .text	00000018 _ldelf_remap
000044d0 g     F .text	00000002 .hidden __aeabi_unwind_cpp_pr0
000060a8 g     O .data	00000008 .hidden main_elf_queue
00000000 g       .text	00000000 __text_start
00000120 g     F .text	00000014 _ldelf_cp_from_bin
00000078 g     F .text	00000014 _ldelf_return
000037b0 g     F .text	00000018 __aeabi_uldivmod
00000064 g     F .text	00000014 _ldelf_panic
000060a0 g     O .data	00000004 .hidden trace_level
0000467d g     O .rodata	00000003 .hidden trace_ext_prefix
0000008c g     F .text	00000014 _ldelf_log
00000108 g     F .text	00000018 _ldelf_map_bin
00003090 g     F .text	00000014 __utee_panic
0000307c g     F .text	00000014 _utee_panic
00005cc8 g       .rel.dyn	00000000 __reloc_end
00000160 g     F .text	00000014 _ldelf_gen_rnd_num
00000000 g     F .text	00000064 _ldelf_start
000000f4 g     F .text	00000014 _ldelf_close_bin
000045c0 g       .text	00000000 __text_end
000000cc g     F .text	00000014 _ldelf_unmap
000000e0 g     F .text	00000014 _ldelf_open_bin
00000134 g     F .text	00000014 _ldelf_set_prot
000000b4 g     F .text	00000018 _ldelf_map_zi
000044d2 g     F .text	00000002 .hidden __aeabi_unwind_cpp_pr1
000000a0 g     F .text	00000014 __ldelf_panic



Disassembly of section .text:

00000000 <_ldelf_start>:
_ldelf_start():
/home/lubuntu/Dokument/GitHub/STM32-Computer/Firmware/STM32-Computer-Firmware/CA7/optee-os-3.19.0-r2/optee-os-stm32mp-3.19.0-stm32mp-r2/ldelf/start_a32.S:24
       0:	e28f4054 	add	r4, pc, #84	@ 0x54
/home/lubuntu/Dokument/GitHub/STM32-Computer/Firmware/STM32-Computer-Firmware/CA7/optee-os-3.19.0-r2/optee-os-stm32mp-3.19.0-stm32mp-r2/ldelf/start_a32.S:25
       4:	e59f5050 	ldr	r5, [pc, #80]	@ 5c <reloc_begin_rel>
/home/lubuntu/Dokument/GitHub/STM32-Computer/Firmware/STM32-Computer-Firmware/CA7/optee-os-3.19.0-r2/optee-os-stm32mp-3.19.0-stm32mp-r2/ldelf/start_a32.S:26
       8:	e59f6050 	ldr	r6, [pc, #80]	@ 60 <reloc_end_rel>
/home/lubuntu/Dokument/GitHub/STM32-Computer/Firmware/STM32-Computer-Firmware/CA7/optee-os-3.19.0-r2/optee-os-stm32mp-3.19.0-stm32mp-r2/ldelf/start_a32.S:27
       c:	e0855004 	add	r5, r5, r4
/home/lubuntu/Dokument/GitHub/STM32-Computer/Firmware/STM32-Computer-Firmware/CA7/optee-os-3.19.0-r2/optee-os-stm32mp-3.19.0-stm32mp-r2/ldelf/start_a32.S:28
      10:	e0866004 	add	r6, r6, r4
/home/lubuntu/Dokument/GitHub/STM32-Computer/Firmware/STM32-Computer-Firmware/CA7/optee-os-3.19.0-r2/optee-os-stm32mp-3.19.0-stm32mp-r2/ldelf/start_a32.S:29
      14:	e1550006 	cmp	r5, r6
/home/lubuntu/Dokument/GitHub/STM32-Computer/Firmware/STM32-Computer-Firmware/CA7/optee-os-3.19.0-r2/optee-os-stm32mp-3.19.0-stm32mp-r2/ldelf/start_a32.S:30
      18:	0a00000a 	beq	48 <_ldelf_start+0x48>
/home/lubuntu/Dokument/GitHub/STM32-Computer/Firmware/STM32-Computer-Firmware/CA7/optee-os-3.19.0-r2/optee-os-stm32mp-3.19.0-stm32mp-r2/ldelf/start_a32.S:32
      1c:	e24f4024 	sub	r4, pc, #36	@ 0x24
/home/lubuntu/Dokument/GitHub/STM32-Computer/Firmware/STM32-Computer-Firmware/CA7/optee-os-3.19.0-r2/optee-os-stm32mp-3.19.0-stm32mp-r2/ldelf/start_a32.S:35
      20:	e8b50180 	ldm	r5!, {r7, r8}
/home/lubuntu/Dokument/GitHub/STM32-Computer/Firmware/STM32-Computer-Firmware/CA7/optee-os-3.19.0-r2/optee-os-stm32mp-3.19.0-stm32mp-r2/ldelf/start_a32.S:36
      24:	e20880ff 	and	r8, r8, #255	@ 0xff
/home/lubuntu/Dokument/GitHub/STM32-Computer/Firmware/STM32-Computer-Firmware/CA7/optee-os-3.19.0-r2/optee-os-stm32mp-3.19.0-stm32mp-r2/ldelf/start_a32.S:37
      28:	e3580017 	cmp	r8, #23
/home/lubuntu/Dokument/GitHub/STM32-Computer/Firmware/STM32-Computer-Firmware/CA7/optee-os-3.19.0-r2/optee-os-stm32mp-3.19.0-stm32mp-r2/ldelf/start_a32.S:39
      2c:	1a000008 	bne	54 <_ldelf_start+0x54>
/home/lubuntu/Dokument/GitHub/STM32-Computer/Firmware/STM32-Computer-Firmware/CA7/optee-os-3.19.0-r2/optee-os-stm32mp-3.19.0-stm32mp-r2/ldelf/start_a32.S:42
      30:	e0877004 	add	r7, r7, r4
/home/lubuntu/Dokument/GitHub/STM32-Computer/Firmware/STM32-Computer-Firmware/CA7/optee-os-3.19.0-r2/optee-os-stm32mp-3.19.0-stm32mp-r2/ldelf/start_a32.S:43
      34:	e5978000 	ldr	r8, [r7]
/home/lubuntu/Dokument/GitHub/STM32-Computer/Firmware/STM32-Computer-Firmware/CA7/optee-os-3.19.0-r2/optee-os-stm32mp-3.19.0-stm32mp-r2/ldelf/start_a32.S:44
      38:	e0888004 	add	r8, r8, r4
/home/lubuntu/Dokument/GitHub/STM32-Computer/Firmware/STM32-Computer-Firmware/CA7/optee-os-3.19.0-r2/optee-os-stm32mp-3.19.0-stm32mp-r2/ldelf/start_a32.S:45
      3c:	e5878000 	str	r8, [r7]
/home/lubuntu/Dokument/GitHub/STM32-Computer/Firmware/STM32-Computer-Firmware/CA7/optee-os-3.19.0-r2/optee-os-stm32mp-3.19.0-stm32mp-r2/ldelf/start_a32.S:47
      40:	e1550006 	cmp	r5, r6
/home/lubuntu/Dokument/GitHub/STM32-Computer/Firmware/STM32-Computer-Firmware/CA7/optee-os-3.19.0-r2/optee-os-stm32mp-3.19.0-stm32mp-r2/ldelf/start_a32.S:48
      44:	3afffff5 	bcc	20 <_ldelf_start+0x20>
/home/lubuntu/Dokument/GitHub/STM32-Computer/Firmware/STM32-Computer-Firmware/CA7/optee-os-3.19.0-r2/optee-os-stm32mp-3.19.0-stm32mp-r2/ldelf/start_a32.S:50
      48:	fa0000aa 	blx	2f8 <ldelf>
/home/lubuntu/Dokument/GitHub/STM32-Computer/Firmware/STM32-Computer-Firmware/CA7/optee-os-3.19.0-r2/optee-os-stm32mp-3.19.0-stm32mp-r2/ldelf/start_a32.S:51
      4c:	e3a00000 	mov	r0, #0
/home/lubuntu/Dokument/GitHub/STM32-Computer/Firmware/STM32-Computer-Firmware/CA7/optee-os-3.19.0-r2/optee-os-stm32mp-3.19.0-stm32mp-r2/ldelf/start_a32.S:52
      50:	eb000008 	bl	78 <_ldelf_return>
/home/lubuntu/Dokument/GitHub/STM32-Computer/Firmware/STM32-Computer-Firmware/CA7/optee-os-3.19.0-r2/optee-os-stm32mp-3.19.0-stm32mp-r2/ldelf/start_a32.S:53
      54:	e3a00000 	mov	r0, #0
/home/lubuntu/Dokument/GitHub/STM32-Computer/Firmware/STM32-Computer-Firmware/CA7/optee-os-3.19.0-r2/optee-os-stm32mp-3.19.0-stm32mp-r2/ldelf/start_a32.S:54
      58:	eb000001 	bl	64 <_ldelf_panic>

0000005c <reloc_begin_rel>:
      5c:	00005c3c 	.word	0x00005c3c

00000060 <reloc_end_rel>:
      60:	00005c68 	.word	0x00005c68

00000064 <_ldelf_panic>:
_ldelf_panic():
/home/lubuntu/Dokument/GitHub/STM32-Computer/Firmware/STM32-Computer-Firmware/CA7/optee-os-3.19.0-r2/optee-os-stm32mp-3.19.0-stm32mp-r2/ldelf/syscalls_a32.S:41
      64:	e92d4fff 	push	{r0, r1, r2, r3, r4, r5, r6, r7, r8, r9, sl, fp, lr}
/home/lubuntu/Dokument/GitHub/STM32-Computer/Firmware/STM32-Computer-Firmware/CA7/optee-os-3.19.0-r2/optee-os-stm32mp-3.19.0-stm32mp-r2/ldelf/syscalls_a32.S:43
      68:	e1a0e00f 	mov	lr, pc
/home/lubuntu/Dokument/GitHub/STM32-Computer/Firmware/STM32-Computer-Firmware/CA7/optee-os-3.19.0-r2/optee-os-stm32mp-3.19.0-stm32mp-r2/ldelf/syscalls_a32.S:44
      6c:	e52de004 	push	{lr}		@ (str lr, [sp, #-4]!)
/home/lubuntu/Dokument/GitHub/STM32-Computer/Firmware/STM32-Computer-Firmware/CA7/optee-os-3.19.0-r2/optee-os-stm32mp-3.19.0-stm32mp-r2/ldelf/syscalls_a32.S:46
      70:	e1a0100d 	mov	r1, sp
/home/lubuntu/Dokument/GitHub/STM32-Computer/Firmware/STM32-Computer-Firmware/CA7/optee-os-3.19.0-r2/optee-os-stm32mp-3.19.0-stm32mp-r2/ldelf/syscalls_a32.S:47
      74:	eb000009 	bl	a0 <__ldelf_panic>

00000078 <_ldelf_return>:
_ldelf_return():
/home/lubuntu/Dokument/GitHub/STM32-Computer/Firmware/STM32-Computer-Firmware/CA7/optee-os-3.19.0-r2/optee-os-stm32mp-3.19.0-stm32mp-r2/ldelf/syscalls_asm.S:9
      78:	e92d40e0 	push	{r5, r6, r7, lr}
      7c:	e3a07000 	mov	r7, #0
      80:	e3a06000 	mov	r6, #0
      84:	ef000000 	svc	0x00000000
      88:	e8bd80e0 	pop	{r5, r6, r7, pc}

0000008c <_ldelf_log>:
_ldelf_log():
/home/lubuntu/Dokument/GitHub/STM32-Computer/Firmware/STM32-Computer-Firmware/CA7/optee-os-3.19.0-r2/optee-os-stm32mp-3.19.0-stm32mp-r2/ldelf/syscalls_asm.S:10
      8c:	e92d40e0 	push	{r5, r6, r7, lr}
      90:	e3a07001 	mov	r7, #1
      94:	e3a06000 	mov	r6, #0
      98:	ef000000 	svc	0x00000000
      9c:	e8bd80e0 	pop	{r5, r6, r7, pc}

000000a0 <__ldelf_panic>:
__ldelf_panic():
/home/lubuntu/Dokument/GitHub/STM32-Computer/Firmware/STM32-Computer-Firmware/CA7/optee-os-3.19.0-r2/optee-os-stm32mp-3.19.0-stm32mp-r2/ldelf/syscalls_asm.S:11
      a0:	e92d40e0 	push	{r5, r6, r7, lr}
      a4:	e3a07002 	mov	r7, #2
      a8:	e3a06000 	mov	r6, #0
      ac:	ef000000 	svc	0x00000000
      b0:	e8bd80e0 	pop	{r5, r6, r7, pc}

000000b4 <_ldelf_map_zi>:
_ldelf_map_zi():
/home/lubuntu/Dokument/GitHub/STM32-Computer/Firmware/STM32-Computer-Firmware/CA7/optee-os-3.19.0-r2/optee-os-stm32mp-3.19.0-stm32mp-r2/ldelf/syscalls_asm.S:12
      b4:	e92d40e0 	push	{r5, r6, r7, lr}
      b8:	e3a07003 	mov	r7, #3
      bc:	e3a06002 	mov	r6, #2
      c0:	e28d5010 	add	r5, sp, #16
      c4:	ef000000 	svc	0x00000000
      c8:	e8bd80e0 	pop	{r5, r6, r7, pc}

000000cc <_ldelf_unmap>:
_ldelf_unmap():
/home/lubuntu/Dokument/GitHub/STM32-Computer/Firmware/STM32-Computer-Firmware/CA7/optee-os-3.19.0-r2/optee-os-stm32mp-3.19.0-stm32mp-r2/ldelf/syscalls_asm.S:13
      cc:	e92d40e0 	push	{r5, r6, r7, lr}
      d0:	e3a07004 	mov	r7, #4
      d4:	e3a06000 	mov	r6, #0
      d8:	ef000000 	svc	0x00000000
      dc:	e8bd80e0 	pop	{r5, r6, r7, pc}

000000e0 <_ldelf_open_bin>:
_ldelf_open_bin():
/home/lubuntu/Dokument/GitHub/STM32-Computer/Firmware/STM32-Computer-Firmware/CA7/optee-os-3.19.0-r2/optee-os-stm32mp-3.19.0-stm32mp-r2/ldelf/syscalls_asm.S:14
      e0:	e92d40e0 	push	{r5, r6, r7, lr}
      e4:	e3a07005 	mov	r7, #5
      e8:	e3a06000 	mov	r6, #0
      ec:	ef000000 	svc	0x00000000
      f0:	e8bd80e0 	pop	{r5, r6, r7, pc}

000000f4 <_ldelf_close_bin>:
_ldelf_close_bin():
/home/lubuntu/Dokument/GitHub/STM32-Computer/Firmware/STM32-Computer-Firmware/CA7/optee-os-3.19.0-r2/optee-os-stm32mp-3.19.0-stm32mp-r2/ldelf/syscalls_asm.S:15
      f4:	e92d40e0 	push	{r5, r6, r7, lr}
      f8:	e3a07006 	mov	r7, #6
      fc:	e3a06000 	mov	r6, #0
     100:	ef000000 	svc	0x00000000
     104:	e8bd80e0 	pop	{r5, r6, r7, pc}

00000108 <_ldelf_map_bin>:
_ldelf_map_bin():
/home/lubuntu/Dokument/GitHub/STM32-Computer/Firmware/STM32-Computer-Firmware/CA7/optee-os-3.19.0-r2/optee-os-stm32mp-3.19.0-stm32mp-r2/ldelf/syscalls_asm.S:16
     108:	e92d40e0 	push	{r5, r6, r7, lr}
     10c:	e3a07007 	mov	r7, #7
     110:	e3a06004 	mov	r6, #4
     114:	e28d5010 	add	r5, sp, #16
     118:	ef000000 	svc	0x00000000
     11c:	e8bd80e0 	pop	{r5, r6, r7, pc}

00000120 <_ldelf_cp_from_bin>:
_ldelf_cp_from_bin():
/home/lubuntu/Dokument/GitHub/STM32-Computer/Firmware/STM32-Computer-Firmware/CA7/optee-os-3.19.0-r2/optee-os-stm32mp-3.19.0-stm32mp-r2/ldelf/syscalls_asm.S:17
     120:	e92d40e0 	push	{r5, r6, r7, lr}
     124:	e3a07008 	mov	r7, #8
     128:	e3a06000 	mov	r6, #0
     12c:	ef000000 	svc	0x00000000
     130:	e8bd80e0 	pop	{r5, r6, r7, pc}

00000134 <_ldelf_set_prot>:
_ldelf_set_prot():
/home/lubuntu/Dokument/GitHub/STM32-Computer/Firmware/STM32-Computer-Firmware/CA7/optee-os-3.19.0-r2/optee-os-stm32mp-3.19.0-stm32mp-r2/ldelf/syscalls_asm.S:18
     134:	e92d40e0 	push	{r5, r6, r7, lr}
     138:	e3a07009 	mov	r7, #9
     13c:	e3a06000 	mov	r6, #0
     140:	ef000000 	svc	0x00000000
     144:	e8bd80e0 	pop	{r5, r6, r7, pc}

00000148 <_ldelf_remap>:
_ldelf_remap():
/home/lubuntu/Dokument/GitHub/STM32-Computer/Firmware/STM32-Computer-Firmware/CA7/optee-os-3.19.0-r2/optee-os-stm32mp-3.19.0-stm32mp-r2/ldelf/syscalls_asm.S:19
     148:	e92d40e0 	push	{r5, r6, r7, lr}
     14c:	e3a0700a 	mov	r7, #10
     150:	e3a06003 	mov	r6, #3
     154:	e28d5010 	add	r5, sp, #16
     158:	ef000000 	svc	0x00000000
     15c:	e8bd80e0 	pop	{r5, r6, r7, pc}

00000160 <_ldelf_gen_rnd_num>:
_ldelf_gen_rnd_num():
/home/lubuntu/Dokument/GitHub/STM32-Computer/Firmware/STM32-Computer-Firmware/CA7/optee-os-3.19.0-r2/optee-os-stm32mp-3.19.0-stm32mp-r2/ldelf/syscalls_asm.S:20
     160:	e92d40e0 	push	{r5, r6, r7, lr}
     164:	e3a0700b 	mov	r7, #11
     168:	e3a06000 	mov	r6, #0
     16c:	ef000000 	svc	0x00000000
     170:	e8bd80e0 	pop	{r5, r6, r7, pc}

00000174 <dlopen_entry>:
dlopen_entry():
/home/lubuntu/Dokument/GitHub/STM32-Computer/Firmware/STM32-Computer-Firmware/CA7/optee-os-3.19.0-r2/optee-os-stm32mp-3.19.0-stm32mp-r2/ldelf/dl.c:12
     174:	b51f      	push	{r0, r1, r2, r3, r4, lr}
     176:	4604      	mov	r4, r0
/home/lubuntu/Dokument/GitHub/STM32-Computer/Firmware/STM32-Computer-Firmware/CA7/optee-os-3.19.0-r2/optee-os-stm32mp-3.19.0-stm32mp-r2/ldelf/dl.c:13
     178:	466b      	mov	r3, sp
     17a:	2210      	movs	r2, #16
     17c:	2100      	movs	r1, #0
     17e:	4618      	mov	r0, r3
     180:	f004 f8e0 	bl	4344 <memset>
/home/lubuntu/Dokument/GitHub/STM32-Computer/Firmware/STM32-Computer-Firmware/CA7/optee-os-3.19.0-r2/optee-os-stm32mp-3.19.0-stm32mp-r2/ldelf/dl.c:15
     184:	69a1      	ldr	r1, [r4, #24]
     186:	f241 1202 	movw	r2, #4354	@ 0x1102
     18a:	4291      	cmp	r1, r2
     18c:	d10c      	bne.n	1a8 <dlopen_entry+0x34>
/home/lubuntu/Dokument/GitHub/STM32-Computer/Firmware/STM32-Computer-Firmware/CA7/optee-os-3.19.0-r2/optee-os-stm32mp-3.19.0-stm32mp-r2/ldelf/dl.c:18
     18e:	3408      	adds	r4, #8
     190:	4601      	mov	r1, r0
     192:	2210      	movs	r2, #16
     194:	4620      	mov	r0, r4
     196:	f004 f8c5 	bl	4324 <memcmp>
     19a:	b130      	cbz	r0, 1aa <dlopen_entry+0x36>
/home/lubuntu/Dokument/GitHub/STM32-Computer/Firmware/STM32-Computer-Firmware/CA7/optee-os-3.19.0-r2/optee-os-stm32mp-3.19.0-stm32mp-r2/ldelf/dl.c:21
     19c:	4620      	mov	r0, r4
/home/lubuntu/Dokument/GitHub/STM32-Computer/Firmware/STM32-Computer-Firmware/CA7/optee-os-3.19.0-r2/optee-os-stm32mp-3.19.0-stm32mp-r2/ldelf/dl.c:22
     19e:	b004      	add	sp, #16
     1a0:	e8bd 4010 	ldmia.w	sp!, {r4, lr}
/home/lubuntu/Dokument/GitHub/STM32-Computer/Firmware/STM32-Computer-Firmware/CA7/optee-os-3.19.0-r2/optee-os-stm32mp-3.19.0-stm32mp-r2/ldelf/dl.c:21
     1a4:	f002 b844 	b.w	2230 <ta_elf_add_library>
/home/lubuntu/Dokument/GitHub/STM32-Computer/Firmware/STM32-Computer-Firmware/CA7/optee-os-3.19.0-r2/optee-os-stm32mp-3.19.0-stm32mp-r2/ldelf/dl.c:16
     1a8:	4801      	ldr	r0, [pc, #4]	@ (1b0 <dlopen_entry+0x3c>)
/home/lubuntu/Dokument/GitHub/STM32-Computer/Firmware/STM32-Computer-Firmware/CA7/optee-os-3.19.0-r2/optee-os-stm32mp-3.19.0-stm32mp-r2/ldelf/dl.c:22
     1aa:	b004      	add	sp, #16
     1ac:	bd10      	pop	{r4, pc}
     1ae:	bf00      	nop
     1b0:	ffff0006 	.word	0xffff0006

000001b4 <dlsym_entry>:
dlsym_entry():
/home/lubuntu/Dokument/GitHub/STM32-Computer/Firmware/STM32-Computer-Firmware/CA7/optee-os-3.19.0-r2/optee-os-stm32mp-3.19.0-stm32mp-r2/ldelf/dl.c:25
     1b4:	b530      	push	{r4, r5, lr}
     1b6:	b085      	sub	sp, #20
/home/lubuntu/Dokument/GitHub/STM32-Computer/Firmware/STM32-Computer-Firmware/CA7/optee-os-3.19.0-r2/optee-os-stm32mp-3.19.0-stm32mp-r2/ldelf/dl.c:27
     1b8:	466b      	mov	r3, sp
/home/lubuntu/Dokument/GitHub/STM32-Computer/Firmware/STM32-Computer-Firmware/CA7/optee-os-3.19.0-r2/optee-os-stm32mp-3.19.0-stm32mp-r2/ldelf/dl.c:25
     1ba:	4604      	mov	r4, r0
/home/lubuntu/Dokument/GitHub/STM32-Computer/Firmware/STM32-Computer-Firmware/CA7/optee-os-3.19.0-r2/optee-os-stm32mp-3.19.0-stm32mp-r2/ldelf/dl.c:27
     1bc:	2210      	movs	r2, #16
     1be:	4618      	mov	r0, r3
     1c0:	2100      	movs	r1, #0
/home/lubuntu/Dokument/GitHub/STM32-Computer/Firmware/STM32-Computer-Firmware/CA7/optee-os-3.19.0-r2/optee-os-stm32mp-3.19.0-stm32mp-r2/ldelf/dl.c:29
     1c2:	f104 0508 	add.w	r5, r4, #8
/home/lubuntu/Dokument/GitHub/STM32-Computer/Firmware/STM32-Computer-Firmware/CA7/optee-os-3.19.0-r2/optee-os-stm32mp-3.19.0-stm32mp-r2/ldelf/dl.c:27
     1c6:	f004 f8bd 	bl	4344 <memset>
/home/lubuntu/Dokument/GitHub/STM32-Computer/Firmware/STM32-Computer-Firmware/CA7/optee-os-3.19.0-r2/optee-os-stm32mp-3.19.0-stm32mp-r2/ldelf/dl.c:29
     1ca:	4601      	mov	r1, r0
     1cc:	2210      	movs	r2, #16
     1ce:	4628      	mov	r0, r5
     1d0:	f004 f8a8 	bl	4324 <memcmp>
     1d4:	4603      	mov	r3, r0
     1d6:	b120      	cbz	r0, 1e2 <dlsym_entry+0x2e>
/home/lubuntu/Dokument/GitHub/STM32-Computer/Firmware/STM32-Computer-Firmware/CA7/optee-os-3.19.0-r2/optee-os-stm32mp-3.19.0-stm32mp-r2/ldelf/dl.c:30
     1d8:	4628      	mov	r0, r5
     1da:	f001 fa31 	bl	1640 <ta_elf_find_elf>
/home/lubuntu/Dokument/GitHub/STM32-Computer/Firmware/STM32-Computer-Firmware/CA7/optee-os-3.19.0-r2/optee-os-stm32mp-3.19.0-stm32mp-r2/ldelf/dl.c:31
     1de:	4603      	mov	r3, r0
     1e0:	b148      	cbz	r0, 1f6 <dlsym_entry+0x42>
/home/lubuntu/Dokument/GitHub/STM32-Computer/Firmware/STM32-Computer-Firmware/CA7/optee-os-3.19.0-r2/optee-os-stm32mp-3.19.0-stm32mp-r2/ldelf/dl.c:35
     1e2:	2200      	movs	r2, #0
     1e4:	f104 0118 	add.w	r1, r4, #24
     1e8:	f104 001c 	add.w	r0, r4, #28
/home/lubuntu/Dokument/GitHub/STM32-Computer/Firmware/STM32-Computer-Firmware/CA7/optee-os-3.19.0-r2/optee-os-stm32mp-3.19.0-stm32mp-r2/ldelf/dl.c:37
     1ec:	b005      	add	sp, #20
     1ee:	e8bd 4030 	ldmia.w	sp!, {r4, r5, lr}
/home/lubuntu/Dokument/GitHub/STM32-Computer/Firmware/STM32-Computer-Firmware/CA7/optee-os-3.19.0-r2/optee-os-stm32mp-3.19.0-stm32mp-r2/ldelf/dl.c:35
     1f2:	f002 ba39 	b.w	2668 <ta_elf_resolve_sym>
/home/lubuntu/Dokument/GitHub/STM32-Computer/Firmware/STM32-Computer-Firmware/CA7/optee-os-3.19.0-r2/optee-os-stm32mp-3.19.0-stm32mp-r2/ldelf/dl.c:37
     1f6:	4801      	ldr	r0, [pc, #4]	@ (1fc <dlsym_entry+0x48>)
     1f8:	b005      	add	sp, #20
     1fa:	bd30      	pop	{r4, r5, pc}
     1fc:	ffff0008 	.word	0xffff0008

00000200 <dl_entry>:
dl_entry():
/home/lubuntu/Dokument/GitHub/STM32-Computer/Firmware/STM32-Computer-Firmware/CA7/optee-os-3.19.0-r2/optee-os-stm32mp-3.19.0-stm32mp-r2/ldelf/main.c:107
     200:	b508      	push	{r3, lr}
     202:	4604      	mov	r4, r0
/home/lubuntu/Dokument/GitHub/STM32-Computer/Firmware/STM32-Computer-Firmware/CA7/optee-os-3.19.0-r2/optee-os-stm32mp-3.19.0-stm32mp-r2/ldelf/main.c:108
     204:	6803      	ldr	r3, [r0, #0]
     206:	b12b      	cbz	r3, 214 <dl_entry+0x14>
     208:	2b01      	cmp	r3, #1
     20a:	d006      	beq.n	21a <dl_entry+0x1a>
     20c:	4804      	ldr	r0, [pc, #16]	@ (220 <dl_entry+0x20>)
/home/lubuntu/Dokument/GitHub/STM32-Computer/Firmware/STM32-Computer-Firmware/CA7/optee-os-3.19.0-r2/optee-os-stm32mp-3.19.0-stm32mp-r2/ldelf/main.c:110
     20e:	6060      	str	r0, [r4, #4]
/home/lubuntu/Dokument/GitHub/STM32-Computer/Firmware/STM32-Computer-Firmware/CA7/optee-os-3.19.0-r2/optee-os-stm32mp-3.19.0-stm32mp-r2/ldelf/main.c:119
     210:	f003 fef0 	bl	3ff4 <sys_return_cleanup>
/home/lubuntu/Dokument/GitHub/STM32-Computer/Firmware/STM32-Computer-Firmware/CA7/optee-os-3.19.0-r2/optee-os-stm32mp-3.19.0-stm32mp-r2/ldelf/main.c:110
     214:	f7ff ffae 	bl	174 <dlopen_entry>
/home/lubuntu/Dokument/GitHub/STM32-Computer/Firmware/STM32-Computer-Firmware/CA7/optee-os-3.19.0-r2/optee-os-stm32mp-3.19.0-stm32mp-r2/ldelf/main.c:111
     218:	e7f9      	b.n	20e <dl_entry+0xe>
/home/lubuntu/Dokument/GitHub/STM32-Computer/Firmware/STM32-Computer-Firmware/CA7/optee-os-3.19.0-r2/optee-os-stm32mp-3.19.0-stm32mp-r2/ldelf/main.c:113
     21a:	f7ff ffcb 	bl	1b4 <dlsym_entry>
/home/lubuntu/Dokument/GitHub/STM32-Computer/Firmware/STM32-Computer-Firmware/CA7/optee-os-3.19.0-r2/optee-os-stm32mp-3.19.0-stm32mp-r2/ldelf/main.c:114
     21e:	e7f6      	b.n	20e <dl_entry+0xe>
     220:	ffff000a 	.word	0xffff000a

00000224 <dump_ta_state>:
dump_ta_state():
/home/lubuntu/Dokument/GitHub/STM32-Computer/Firmware/STM32-Computer-Firmware/CA7/optee-os-3.19.0-r2/optee-os-stm32mp-3.19.0-stm32mp-r2/ldelf/main.c:32
     224:	4b29      	ldr	r3, [pc, #164]	@ (2cc <dump_ta_state+0xa8>)
     226:	4604      	mov	r4, r0
     228:	b507      	push	{r0, r1, r2, lr}
     22a:	447b      	add	r3, pc
/home/lubuntu/Dokument/GitHub/STM32-Computer/Firmware/STM32-Computer-Firmware/CA7/optee-os-3.19.0-r2/optee-os-stm32mp-3.19.0-stm32mp-r2/ldelf/main.c:33
     22c:	4a28      	ldr	r2, [pc, #160]	@ (2d0 <dump_ta_state+0xac>)
     22e:	589e      	ldr	r6, [r3, r2]
     230:	6835      	ldr	r5, [r6, #0]
/home/lubuntu/Dokument/GitHub/STM32-Computer/Firmware/STM32-Computer-Firmware/CA7/optee-os-3.19.0-r2/optee-os-stm32mp-3.19.0-stm32mp-r2/ldelf/main.c:35
     232:	b10d      	cbz	r5, 238 <dump_ta_state+0x14>
/home/lubuntu/Dokument/GitHub/STM32-Computer/Firmware/STM32-Computer-Firmware/CA7/optee-os-3.19.0-r2/optee-os-stm32mp-3.19.0-stm32mp-r2/ldelf/main.c:35 (discriminator 2)
     234:	782b      	ldrb	r3, [r5, #0]
     236:	b953      	cbnz	r3, 24e <dump_ta_state+0x2a>
_assert_trap():
/home/lubuntu/Dokument/GitHub/STM32-Computer/Firmware/STM32-Computer-Firmware/CA7/optee-os-3.19.0-r2/optee-os-stm32mp-3.19.0-stm32mp-r2/lib/libutils/isoc/include/assert.h:19
     238:	4b26      	ldr	r3, [pc, #152]	@ (2d4 <dump_ta_state+0xb0>)
     23a:	2223      	movs	r2, #35	@ 0x23
     23c:	4926      	ldr	r1, [pc, #152]	@ (2d8 <dump_ta_state+0xb4>)
     23e:	4827      	ldr	r0, [pc, #156]	@ (2dc <dump_ta_state+0xb8>)
     240:	447b      	add	r3, pc
     242:	4479      	add	r1, pc
     244:	4478      	add	r0, pc
     246:	f002 fe75 	bl	2f34 <_assert_log>
/home/lubuntu/Dokument/GitHub/STM32-Computer/Firmware/STM32-Computer-Firmware/CA7/optee-os-3.19.0-r2/optee-os-stm32mp-3.19.0-stm32mp-r2/lib/libutils/isoc/include/assert.h:20
     24a:	f002 fe87 	bl	2f5c <_assert_break>
dump_ta_state():
/home/lubuntu/Dokument/GitHub/STM32-Computer/Firmware/STM32-Computer-Firmware/CA7/optee-os-3.19.0-r2/optee-os-stm32mp-3.19.0-stm32mp-r2/ldelf/main.c:36
     24e:	f105 038c 	add.w	r3, r5, #140	@ 0x8c
     252:	2100      	movs	r1, #0
     254:	9301      	str	r3, [sp, #4]
     256:	4608      	mov	r0, r1
     258:	4b21      	ldr	r3, [pc, #132]	@ (2e0 <dump_ta_state+0xbc>)
     25a:	447b      	add	r3, pc
     25c:	9300      	str	r3, [sp, #0]
     25e:	2301      	movs	r3, #1
     260:	461a      	mov	r2, r3
     262:	f004 f929 	bl	44b8 <trace_printf>
/home/lubuntu/Dokument/GitHub/STM32-Computer/Firmware/STM32-Computer-Firmware/CA7/optee-os-3.19.0-r2/optee-os-stm32mp-3.19.0-stm32mp-r2/ldelf/main.c:37
     266:	786b      	ldrb	r3, [r5, #1]
     268:	b30b      	cbz	r3, 2ae <dump_ta_state+0x8a>
     26a:	4b1e      	ldr	r3, [pc, #120]	@ (2e4 <dump_ta_state+0xc0>)
     26c:	447b      	add	r3, pc
/home/lubuntu/Dokument/GitHub/STM32-Computer/Firmware/STM32-Computer-Firmware/CA7/optee-os-3.19.0-r2/optee-os-stm32mp-3.19.0-stm32mp-r2/ldelf/main.c:37 (discriminator 4)
     26e:	9301      	str	r3, [sp, #4]
     270:	2100      	movs	r1, #0
     272:	4b1d      	ldr	r3, [pc, #116]	@ (2e8 <dump_ta_state+0xc4>)
     274:	4608      	mov	r0, r1
     276:	447b      	add	r3, pc
     278:	9300      	str	r3, [sp, #0]
     27a:	2301      	movs	r3, #1
     27c:	461a      	mov	r2, r3
     27e:	f004 f91b 	bl	44b8 <trace_printf>
/home/lubuntu/Dokument/GitHub/STM32-Computer/Firmware/STM32-Computer-Firmware/CA7/optee-os-3.19.0-r2/optee-os-stm32mp-3.19.0-stm32mp-r2/ldelf/main.c:40 (discriminator 4)
     282:	4b1a      	ldr	r3, [pc, #104]	@ (2ec <dump_ta_state+0xc8>)
     284:	4632      	mov	r2, r6
     286:	491a      	ldr	r1, [pc, #104]	@ (2f0 <dump_ta_state+0xcc>)
     288:	2000      	movs	r0, #0
     28a:	447b      	add	r3, pc
     28c:	4479      	add	r1, pc
     28e:	681b      	ldr	r3, [r3, #0]
     290:	9301      	str	r3, [sp, #4]
/home/lubuntu/Dokument/GitHub/STM32-Computer/Firmware/STM32-Computer-Firmware/CA7/optee-os-3.19.0-r2/optee-os-stm32mp-3.19.0-stm32mp-r2/ldelf/main.c:41 (discriminator 4)
     292:	f104 0348 	add.w	r3, r4, #72	@ 0x48
/home/lubuntu/Dokument/GitHub/STM32-Computer/Firmware/STM32-Computer-Firmware/CA7/optee-os-3.19.0-r2/optee-os-stm32mp-3.19.0-stm32mp-r2/ldelf/main.c:40 (discriminator 4)
     296:	9300      	str	r3, [sp, #0]
     298:	6c63      	ldr	r3, [r4, #68]	@ 0x44
     29a:	f001 fcb7 	bl	1c0c <ta_elf_print_mappings>
/home/lubuntu/Dokument/GitHub/STM32-Computer/Firmware/STM32-Computer-Firmware/CA7/optee-os-3.19.0-r2/optee-os-stm32mp-3.19.0-stm32mp-r2/ldelf/main.c:43 (discriminator 4)
     29e:	f894 3040 	ldrb.w	r3, [r4, #64]	@ 0x40
     2a2:	b13b      	cbz	r3, 2b4 <dump_ta_state+0x90>
/home/lubuntu/Dokument/GitHub/STM32-Computer/Firmware/STM32-Computer-Firmware/CA7/optee-os-3.19.0-r2/optee-os-stm32mp-3.19.0-stm32mp-r2/ldelf/main.c:44
     2a4:	4620      	mov	r0, r4
     2a6:	f001 fddf 	bl	1e68 <ta_elf_stack_trace_a32>
/home/lubuntu/Dokument/GitHub/STM32-Computer/Firmware/STM32-Computer-Firmware/CA7/optee-os-3.19.0-r2/optee-os-stm32mp-3.19.0-stm32mp-r2/ldelf/main.c:49
     2aa:	f003 fea3 	bl	3ff4 <sys_return_cleanup>
/home/lubuntu/Dokument/GitHub/STM32-Computer/Firmware/STM32-Computer-Firmware/CA7/optee-os-3.19.0-r2/optee-os-stm32mp-3.19.0-stm32mp-r2/ldelf/main.c:37
     2ae:	4b11      	ldr	r3, [pc, #68]	@ (2f4 <dump_ta_state+0xd0>)
     2b0:	447b      	add	r3, pc
     2b2:	e7dc      	b.n	26e <dump_ta_state+0x4a>
/home/lubuntu/Dokument/GitHub/STM32-Computer/Firmware/STM32-Computer-Firmware/CA7/optee-os-3.19.0-r2/optee-os-stm32mp-3.19.0-stm32mp-r2/ldelf/main.c:46
     2b4:	e9d4 2304 	ldrd	r2, r3, [r4, #16]
     2b8:	e9d4 0100 	ldrd	r0, r1, [r4]
     2bc:	e9cd 2300 	strd	r2, r3, [sp]
     2c0:	e9d4 2302 	ldrd	r2, r3, [r4, #8]
     2c4:	f003 ff3a 	bl	413c <ta_elf_stack_trace_a64>
     2c8:	e7ef      	b.n	2aa <dump_ta_state+0x86>
     2ca:	bf00      	nop
     2cc:	00005e5a 	.word	0x00005e5a
     2d0:	0000000c 	.word	0x0000000c
     2d4:	00004403 	.word	0x00004403
     2d8:	00004386 	.word	0x00004386
     2dc:	00004391 	.word	0x00004391
     2e0:	0000438f 	.word	0x0000438f
     2e4:	00004350 	.word	0x00004350
     2e8:	00004385 	.word	0x00004385
     2ec:	00005e7e 	.word	0x00005e7e
     2f0:	00003d4d 	.word	0x00003d4d
     2f4:	00004310 	.word	0x00004310

000002f8 <ldelf>:
ldelf():
/home/lubuntu/Dokument/GitHub/STM32-Computer/Firmware/STM32-Computer-Firmware/CA7/optee-os-3.19.0-r2/optee-os-stm32mp-3.19.0-stm32mp-r2/ldelf/main.c:130
     2f8:	b58f      	push	{r0, r1, r2, r3, r7, lr}
     2fa:	4604      	mov	r4, r0
/home/lubuntu/Dokument/GitHub/STM32-Computer/Firmware/STM32-Computer-Firmware/CA7/optee-os-3.19.0-r2/optee-os-stm32mp-3.19.0-stm32mp-r2/ldelf/main.c:134
     2fc:	4d3c      	ldr	r5, [pc, #240]	@ (3f0 <ldelf+0xf8>)
     2fe:	2203      	movs	r2, #3
     300:	4b3c      	ldr	r3, [pc, #240]	@ (3f4 <ldelf+0xfc>)
     302:	2186      	movs	r1, #134	@ 0x86
     304:	447d      	add	r5, pc
     306:	447b      	add	r3, pc
/home/lubuntu/Dokument/GitHub/STM32-Computer/Firmware/STM32-Computer-Firmware/CA7/optee-os-3.19.0-r2/optee-os-stm32mp-3.19.0-stm32mp-r2/ldelf/main.c:135
     308:	4f3b      	ldr	r7, [pc, #236]	@ (3f8 <ldelf+0x100>)
/home/lubuntu/Dokument/GitHub/STM32-Computer/Firmware/STM32-Computer-Firmware/CA7/optee-os-3.19.0-r2/optee-os-stm32mp-3.19.0-stm32mp-r2/ldelf/main.c:134
     30a:	9001      	str	r0, [sp, #4]
     30c:	4628      	mov	r0, r5
     30e:	9300      	str	r3, [sp, #0]
     310:	2301      	movs	r3, #1
/home/lubuntu/Dokument/GitHub/STM32-Computer/Firmware/STM32-Computer-Firmware/CA7/optee-os-3.19.0-r2/optee-os-stm32mp-3.19.0-stm32mp-r2/ldelf/main.c:130
     312:	4e3a      	ldr	r6, [pc, #232]	@ (3fc <ldelf+0x104>)
/home/lubuntu/Dokument/GitHub/STM32-Computer/Firmware/STM32-Computer-Firmware/CA7/optee-os-3.19.0-r2/optee-os-stm32mp-3.19.0-stm32mp-r2/ldelf/main.c:134
     314:	f004 f8d0 	bl	44b8 <trace_printf>
/home/lubuntu/Dokument/GitHub/STM32-Computer/Firmware/STM32-Computer-Firmware/CA7/optee-os-3.19.0-r2/optee-os-stm32mp-3.19.0-stm32mp-r2/ldelf/main.c:135
     318:	447f      	add	r7, pc
     31a:	2300      	movs	r3, #0
     31c:	9300      	str	r3, [sp, #0]
     31e:	463a      	mov	r2, r7
/home/lubuntu/Dokument/GitHub/STM32-Computer/Firmware/STM32-Computer-Firmware/CA7/optee-os-3.19.0-r2/optee-os-stm32mp-3.19.0-stm32mp-r2/ldelf/main.c:130
     320:	447e      	add	r6, pc
/home/lubuntu/Dokument/GitHub/STM32-Computer/Firmware/STM32-Computer-Firmware/CA7/optee-os-3.19.0-r2/optee-os-stm32mp-3.19.0-stm32mp-r2/ldelf/main.c:135
     322:	4619      	mov	r1, r3
     324:	f44f 4080 	mov.w	r0, #16384	@ 0x4000
     328:	f003 fe68 	bl	3ffc <sys_map_zi>
/home/lubuntu/Dokument/GitHub/STM32-Computer/Firmware/STM32-Computer-Firmware/CA7/optee-os-3.19.0-r2/optee-os-stm32mp-3.19.0-stm32mp-r2/ldelf/main.c:136
     32c:	b190      	cbz	r0, 354 <ldelf+0x5c>
/home/lubuntu/Dokument/GitHub/STM32-Computer/Firmware/STM32-Computer-Firmware/CA7/optee-os-3.19.0-r2/optee-os-stm32mp-3.19.0-stm32mp-r2/ldelf/main.c:137
     32e:	9002      	str	r0, [sp, #8]
     330:	f44f 4380 	mov.w	r3, #16384	@ 0x4000
     334:	9301      	str	r3, [sp, #4]
     336:	2189      	movs	r1, #137	@ 0x89
     338:	4b31      	ldr	r3, [pc, #196]	@ (400 <ldelf+0x108>)
     33a:	4628      	mov	r0, r5
     33c:	447b      	add	r3, pc
     33e:	9300      	str	r3, [sp, #0]
     340:	2301      	movs	r3, #1
     342:	461a      	mov	r2, r3
     344:	f004 f8b8 	bl	44b8 <trace_printf>
/home/lubuntu/Dokument/GitHub/STM32-Computer/Firmware/STM32-Computer-Firmware/CA7/optee-os-3.19.0-r2/optee-os-stm32mp-3.19.0-stm32mp-r2/ldelf/main.c:138
     348:	482e      	ldr	r0, [pc, #184]	@ (404 <ldelf+0x10c>)
     34a:	462a      	mov	r2, r5
     34c:	218a      	movs	r1, #138	@ 0x8a
     34e:	4478      	add	r0, pc
     350:	f000 f864 	bl	41c <__panic>
/home/lubuntu/Dokument/GitHub/STM32-Computer/Firmware/STM32-Computer-Firmware/CA7/optee-os-3.19.0-r2/optee-os-stm32mp-3.19.0-stm32mp-r2/ldelf/main.c:140
     354:	6838      	ldr	r0, [r7, #0]
     356:	f44f 4180 	mov.w	r1, #16384	@ 0x4000
     35a:	f003 f9b3 	bl	36c4 <malloc_add_pool>
/home/lubuntu/Dokument/GitHub/STM32-Computer/Firmware/STM32-Computer-Firmware/CA7/optee-os-3.19.0-r2/optee-os-stm32mp-3.19.0-stm32mp-r2/ldelf/main.c:143
     35e:	f104 0314 	add.w	r3, r4, #20
     362:	f104 0220 	add.w	r2, r4, #32
     366:	f104 0110 	add.w	r1, r4, #16
     36a:	4620      	mov	r0, r4
     36c:	f001 fa28 	bl	17c0 <ta_elf_load_main>
/home/lubuntu/Dokument/GitHub/STM32-Computer/Firmware/STM32-Computer-Firmware/CA7/optee-os-3.19.0-r2/optee-os-stm32mp-3.19.0-stm32mp-r2/ldelf/main.c:151
     370:	4b25      	ldr	r3, [pc, #148]	@ (408 <ldelf+0x110>)
     372:	58f6      	ldr	r6, [r6, r3]
     374:	6835      	ldr	r5, [r6, #0]
/home/lubuntu/Dokument/GitHub/STM32-Computer/Firmware/STM32-Computer-Firmware/CA7/optee-os-3.19.0-r2/optee-os-stm32mp-3.19.0-stm32mp-r2/ldelf/main.c:151 (discriminator 1)
     376:	b9cd      	cbnz	r5, 3ac <ldelf+0xb4>
/home/lubuntu/Dokument/GitHub/STM32-Computer/Firmware/STM32-Computer-Firmware/CA7/optee-os-3.19.0-r2/optee-os-stm32mp-3.19.0-stm32mp-r2/ldelf/main.c:154
     378:	6835      	ldr	r5, [r6, #0]
/home/lubuntu/Dokument/GitHub/STM32-Computer/Firmware/STM32-Computer-Firmware/CA7/optee-os-3.19.0-r2/optee-os-stm32mp-3.19.0-stm32mp-r2/ldelf/main.c:154 (discriminator 1)
     37a:	bb0d      	cbnz	r5, 3c0 <ldelf+0xc8>
/home/lubuntu/Dokument/GitHub/STM32-Computer/Firmware/STM32-Computer-Firmware/CA7/optee-os-3.19.0-r2/optee-os-stm32mp-3.19.0-stm32mp-r2/ldelf/main.c:168
     37c:	4f23      	ldr	r7, [pc, #140]	@ (40c <ldelf+0x114>)
/home/lubuntu/Dokument/GitHub/STM32-Computer/Firmware/STM32-Computer-Firmware/CA7/optee-os-3.19.0-r2/optee-os-stm32mp-3.19.0-stm32mp-r2/ldelf/main.c:159
     37e:	f104 0018 	add.w	r0, r4, #24
     382:	f001 ff07 	bl	2194 <ta_elf_finalize_load_main>
/home/lubuntu/Dokument/GitHub/STM32-Computer/Firmware/STM32-Computer-Firmware/CA7/optee-os-3.19.0-r2/optee-os-stm32mp-3.19.0-stm32mp-r2/ldelf/main.c:167
     386:	6835      	ldr	r5, [r6, #0]
/home/lubuntu/Dokument/GitHub/STM32-Computer/Firmware/STM32-Computer-Firmware/CA7/optee-os-3.19.0-r2/optee-os-stm32mp-3.19.0-stm32mp-r2/ldelf/main.c:161
     388:	2200      	movs	r2, #0
/home/lubuntu/Dokument/GitHub/STM32-Computer/Firmware/STM32-Computer-Firmware/CA7/optee-os-3.19.0-r2/optee-os-stm32mp-3.19.0-stm32mp-r2/ldelf/main.c:168
     38a:	4e21      	ldr	r6, [pc, #132]	@ (410 <ldelf+0x118>)
/home/lubuntu/Dokument/GitHub/STM32-Computer/Firmware/STM32-Computer-Firmware/CA7/optee-os-3.19.0-r2/optee-os-stm32mp-3.19.0-stm32mp-r2/ldelf/main.c:161
     38c:	2300      	movs	r3, #0
/home/lubuntu/Dokument/GitHub/STM32-Computer/Firmware/STM32-Computer-Firmware/CA7/optee-os-3.19.0-r2/optee-os-stm32mp-3.19.0-stm32mp-r2/ldelf/main.c:168
     38e:	447f      	add	r7, pc
     390:	447e      	add	r6, pc
/home/lubuntu/Dokument/GitHub/STM32-Computer/Firmware/STM32-Computer-Firmware/CA7/optee-os-3.19.0-r2/optee-os-stm32mp-3.19.0-stm32mp-r2/ldelf/main.c:161
     392:	e9c4 230c 	strd	r2, r3, [r4, #48]	@ 0x30
/home/lubuntu/Dokument/GitHub/STM32-Computer/Firmware/STM32-Computer-Firmware/CA7/optee-os-3.19.0-r2/optee-os-stm32mp-3.19.0-stm32mp-r2/ldelf/main.c:167 (discriminator 1)
     396:	b9e5      	cbnz	r5, 3d2 <ldelf+0xda>
/home/lubuntu/Dokument/GitHub/STM32-Computer/Firmware/STM32-Computer-Firmware/CA7/optee-os-3.19.0-r2/optee-os-stm32mp-3.19.0-stm32mp-r2/ldelf/main.c:172
     398:	4b1e      	ldr	r3, [pc, #120]	@ (414 <ldelf+0x11c>)
     39a:	447b      	add	r3, pc
     39c:	e9c4 350a 	strd	r3, r5, [r4, #40]	@ 0x28
/home/lubuntu/Dokument/GitHub/STM32-Computer/Firmware/STM32-Computer-Firmware/CA7/optee-os-3.19.0-r2/optee-os-stm32mp-3.19.0-stm32mp-r2/ldelf/main.c:176
     3a0:	4b1d      	ldr	r3, [pc, #116]	@ (418 <ldelf+0x120>)
     3a2:	447b      	add	r3, pc
     3a4:	e9c4 350e 	strd	r3, r5, [r4, #56]	@ 0x38
/home/lubuntu/Dokument/GitHub/STM32-Computer/Firmware/STM32-Computer-Firmware/CA7/optee-os-3.19.0-r2/optee-os-stm32mp-3.19.0-stm32mp-r2/ldelf/main.c:178
     3a8:	f003 fe24 	bl	3ff4 <sys_return_cleanup>
/home/lubuntu/Dokument/GitHub/STM32-Computer/Firmware/STM32-Computer-Firmware/CA7/optee-os-3.19.0-r2/optee-os-stm32mp-3.19.0-stm32mp-r2/ldelf/main.c:152 (discriminator 3)
     3ac:	6921      	ldr	r1, [r4, #16]
     3ae:	4628      	mov	r0, r5
     3b0:	3900      	subs	r1, #0
     3b2:	bf18      	it	ne
     3b4:	2101      	movne	r1, #1
     3b6:	f001 fba9 	bl	1b0c <ta_elf_load_dependency>
/home/lubuntu/Dokument/GitHub/STM32-Computer/Firmware/STM32-Computer-Firmware/CA7/optee-os-3.19.0-r2/optee-os-stm32mp-3.19.0-stm32mp-r2/ldelf/main.c:151 (discriminator 3)
     3ba:	f8d5 509c 	ldr.w	r5, [r5, #156]	@ 0x9c
     3be:	e7da      	b.n	376 <ldelf+0x7e>
/home/lubuntu/Dokument/GitHub/STM32-Computer/Firmware/STM32-Computer-Firmware/CA7/optee-os-3.19.0-r2/optee-os-stm32mp-3.19.0-stm32mp-r2/ldelf/main.c:155 (discriminator 3)
     3c0:	4628      	mov	r0, r5
     3c2:	f002 f9c5 	bl	2750 <ta_elf_relocate>
/home/lubuntu/Dokument/GitHub/STM32-Computer/Firmware/STM32-Computer-Firmware/CA7/optee-os-3.19.0-r2/optee-os-stm32mp-3.19.0-stm32mp-r2/ldelf/main.c:156 (discriminator 3)
     3c6:	4628      	mov	r0, r5
     3c8:	f001 fbf4 	bl	1bb4 <ta_elf_finalize_mappings>
/home/lubuntu/Dokument/GitHub/STM32-Computer/Firmware/STM32-Computer-Firmware/CA7/optee-os-3.19.0-r2/optee-os-stm32mp-3.19.0-stm32mp-r2/ldelf/main.c:154 (discriminator 3)
     3cc:	f8d5 509c 	ldr.w	r5, [r5, #156]	@ 0x9c
     3d0:	e7d3      	b.n	37a <ldelf+0x82>
/home/lubuntu/Dokument/GitHub/STM32-Computer/Firmware/STM32-Computer-Firmware/CA7/optee-os-3.19.0-r2/optee-os-stm32mp-3.19.0-stm32mp-r2/ldelf/main.c:168 (discriminator 3)
     3d2:	686b      	ldr	r3, [r5, #4]
     3d4:	2203      	movs	r2, #3
     3d6:	9700      	str	r7, [sp, #0]
     3d8:	21a8      	movs	r1, #168	@ 0xa8
     3da:	9302      	str	r3, [sp, #8]
     3dc:	f105 038c 	add.w	r3, r5, #140	@ 0x8c
     3e0:	9301      	str	r3, [sp, #4]
     3e2:	4630      	mov	r0, r6
     3e4:	2301      	movs	r3, #1
     3e6:	f004 f867 	bl	44b8 <trace_printf>
/home/lubuntu/Dokument/GitHub/STM32-Computer/Firmware/STM32-Computer-Firmware/CA7/optee-os-3.19.0-r2/optee-os-stm32mp-3.19.0-stm32mp-r2/ldelf/main.c:167 (discriminator 3)
     3ea:	f8d5 509c 	ldr.w	r5, [r5, #156]	@ 0x9c
     3ee:	e7d2      	b.n	396 <ldelf+0x9e>
     3f0:	0000434d 	.word	0x0000434d
     3f4:	000042ff 	.word	0x000042ff
     3f8:	00005df0 	.word	0x00005df0
     3fc:	00005d64 	.word	0x00005d64
     400:	000042d9 	.word	0x000042d9
     404:	0000427a 	.word	0x0000427a
     408:	0000000c 	.word	0x0000000c
     40c:	000042a2 	.word	0x000042a2
     410:	000042c1 	.word	0x000042c1
     414:	fffffe87 	.word	0xfffffe87
     418:	fffffe5b 	.word	0xfffffe5b

0000041c <__panic>:
__panic():
/home/lubuntu/Dokument/GitHub/STM32-Computer/Firmware/STM32-Computer-Firmware/CA7/optee-os-3.19.0-r2/optee-os-stm32mp-3.19.0-stm32mp-r2/ldelf/sys.c:17
     41c:	b57f      	push	{r0, r1, r2, r3, r4, r5, r6, lr}
     41e:	460b      	mov	r3, r1
     420:	4611      	mov	r1, r2
/home/lubuntu/Dokument/GitHub/STM32-Computer/Firmware/STM32-Computer-Firmware/CA7/optee-os-3.19.0-r2/optee-os-stm32mp-3.19.0-stm32mp-r2/ldelf/sys.c:18
     422:	4602      	mov	r2, r0
     424:	b958      	cbnz	r0, 43e <__panic+0x22>
/home/lubuntu/Dokument/GitHub/STM32-Computer/Firmware/STM32-Computer-Firmware/CA7/optee-os-3.19.0-r2/optee-os-stm32mp-3.19.0-stm32mp-r2/ldelf/sys.c:18 (discriminator 1)
     426:	b9f1      	cbnz	r1, 466 <__panic+0x4a>
/home/lubuntu/Dokument/GitHub/STM32-Computer/Firmware/STM32-Computer-Firmware/CA7/optee-os-3.19.0-r2/optee-os-stm32mp-3.19.0-stm32mp-r2/ldelf/sys.c:19
     428:	4b15      	ldr	r3, [pc, #84]	@ (480 <__panic+0x64>)
     42a:	447b      	add	r3, pc
     42c:	9300      	str	r3, [sp, #0]
     42e:	2301      	movs	r3, #1
     430:	461a      	mov	r2, r3
     432:	f004 f841 	bl	44b8 <trace_printf>
/home/lubuntu/Dokument/GitHub/STM32-Computer/Firmware/STM32-Computer-Firmware/CA7/optee-os-3.19.0-r2/optee-os-stm32mp-3.19.0-stm32mp-r2/ldelf/sys.c:25
     436:	2001      	movs	r0, #1
     438:	f7ff ee14 	blx	64 <_ldelf_panic>
/home/lubuntu/Dokument/GitHub/STM32-Computer/Firmware/STM32-Computer-Firmware/CA7/optee-os-3.19.0-r2/optee-os-stm32mp-3.19.0-stm32mp-r2/ldelf/sys.c:27 (discriminator 1)
     43c:	e7fe      	b.n	43c <__panic+0x20>
/home/lubuntu/Dokument/GitHub/STM32-Computer/Firmware/STM32-Computer-Firmware/CA7/optee-os-3.19.0-r2/optee-os-stm32mp-3.19.0-stm32mp-r2/ldelf/sys.c:21 (discriminator 8)
     43e:	b9d1      	cbnz	r1, 476 <__panic+0x5a>
/home/lubuntu/Dokument/GitHub/STM32-Computer/Firmware/STM32-Computer-Firmware/CA7/optee-os-3.19.0-r2/optee-os-stm32mp-3.19.0-stm32mp-r2/ldelf/sys.c:21
     440:	4910      	ldr	r1, [pc, #64]	@ (484 <__panic+0x68>)
     442:	4479      	add	r1, pc
     444:	4608      	mov	r0, r1
     446:	460c      	mov	r4, r1
/home/lubuntu/Dokument/GitHub/STM32-Computer/Firmware/STM32-Computer-Firmware/CA7/optee-os-3.19.0-r2/optee-os-stm32mp-3.19.0-stm32mp-r2/ldelf/sys.c:21 (discriminator 20)
     448:	9302      	str	r3, [sp, #8]
     44a:	4b0f      	ldr	r3, [pc, #60]	@ (488 <__panic+0x6c>)
     44c:	9104      	str	r1, [sp, #16]
     44e:	2100      	movs	r1, #0
     450:	447b      	add	r3, pc
     452:	9300      	str	r3, [sp, #0]
     454:	2301      	movs	r3, #1
     456:	9003      	str	r0, [sp, #12]
     458:	4608      	mov	r0, r1
     45a:	9201      	str	r2, [sp, #4]
     45c:	461a      	mov	r2, r3
     45e:	9405      	str	r4, [sp, #20]
     460:	f004 f82a 	bl	44b8 <trace_printf>
     464:	e7e7      	b.n	436 <__panic+0x1a>
     466:	4a09      	ldr	r2, [pc, #36]	@ (48c <__panic+0x70>)
/home/lubuntu/Dokument/GitHub/STM32-Computer/Firmware/STM32-Computer-Firmware/CA7/optee-os-3.19.0-r2/optee-os-stm32mp-3.19.0-stm32mp-r2/ldelf/sys.c:21
     468:	4603      	mov	r3, r0
     46a:	4c09      	ldr	r4, [pc, #36]	@ (490 <__panic+0x74>)
     46c:	4809      	ldr	r0, [pc, #36]	@ (494 <__panic+0x78>)
     46e:	447a      	add	r2, pc
     470:	4478      	add	r0, pc
     472:	447c      	add	r4, pc
     474:	e7e8      	b.n	448 <__panic+0x2c>
     476:	4808      	ldr	r0, [pc, #32]	@ (498 <__panic+0x7c>)
     478:	4c08      	ldr	r4, [pc, #32]	@ (49c <__panic+0x80>)
     47a:	4478      	add	r0, pc
     47c:	447c      	add	r4, pc
     47e:	e7e3      	b.n	448 <__panic+0x2c>
     480:	00004233 	.word	0x00004233
     484:	0000442d 	.word	0x0000442d
     488:	00004213 	.word	0x00004213
     48c:	000041ed 	.word	0x000041ed
     490:	000041e7 	.word	0x000041e7
     494:	000041e7 	.word	0x000041e7
     498:	000041dd 	.word	0x000041dd
     49c:	000041dd 	.word	0x000041dd

000004a0 <check_range>:
check_range():
/home/lubuntu/Dokument/GitHub/STM32-Computer/Firmware/STM32-Computer-Firmware/CA7/optee-os-3.19.0-r2/optee-os-stm32mp-3.19.0-stm32mp-r2/ldelf/ta_elf.c:196
     4a0:	b51f      	push	{r0, r1, r2, r3, r4, lr}
/home/lubuntu/Dokument/GitHub/STM32-Computer/Firmware/STM32-Computer-Firmware/CA7/optee-os-3.19.0-r2/optee-os-stm32mp-3.19.0-stm32mp-r2/ldelf/ta_elf.c:199
     4a2:	6844      	ldr	r4, [r0, #4]
     4a4:	4294      	cmp	r4, r2
     4a6:	d90e      	bls.n	4c6 <check_range+0x26>
/home/lubuntu/Dokument/GitHub/STM32-Computer/Firmware/STM32-Computer-Firmware/CA7/optee-os-3.19.0-r2/optee-os-stm32mp-3.19.0-stm32mp-r2/ldelf/ta_elf.c:200
     4a8:	4b18      	ldr	r3, [pc, #96]	@ (50c <check_range+0x6c>)
     4aa:	4819      	ldr	r0, [pc, #100]	@ (510 <check_range+0x70>)
     4ac:	447b      	add	r3, pc
     4ae:	9300      	str	r3, [sp, #0]
     4b0:	2301      	movs	r3, #1
     4b2:	9202      	str	r2, [sp, #8]
     4b4:	461a      	mov	r2, r3
     4b6:	9101      	str	r1, [sp, #4]
     4b8:	21c8      	movs	r1, #200	@ 0xc8
     4ba:	4478      	add	r0, pc
     4bc:	f003 fffc 	bl	44b8 <trace_printf>
/home/lubuntu/Dokument/GitHub/STM32-Computer/Firmware/STM32-Computer-Firmware/CA7/optee-os-3.19.0-r2/optee-os-stm32mp-3.19.0-stm32mp-r2/ldelf/ta_elf.c:203
     4c0:	4811      	ldr	r0, [pc, #68]	@ (508 <check_range+0x68>)
     4c2:	f7ff edda 	blx	78 <_ldelf_return>
/home/lubuntu/Dokument/GitHub/STM32-Computer/Firmware/STM32-Computer-Firmware/CA7/optee-os-3.19.0-r2/optee-os-stm32mp-3.19.0-stm32mp-r2/ldelf/ta_elf.c:202
     4c6:	18d3      	adds	r3, r2, r3
     4c8:	d210      	bcs.n	4ec <check_range+0x4c>
/home/lubuntu/Dokument/GitHub/STM32-Computer/Firmware/STM32-Computer-Firmware/CA7/optee-os-3.19.0-r2/optee-os-stm32mp-3.19.0-stm32mp-r2/ldelf/ta_elf.c:205
     4ca:	6880      	ldr	r0, [r0, #8]
     4cc:	4283      	cmp	r3, r0
     4ce:	d919      	bls.n	504 <check_range+0x64>
/home/lubuntu/Dokument/GitHub/STM32-Computer/Firmware/STM32-Computer-Firmware/CA7/optee-os-3.19.0-r2/optee-os-stm32mp-3.19.0-stm32mp-r2/ldelf/ta_elf.c:206
     4d0:	9303      	str	r3, [sp, #12]
     4d2:	4b10      	ldr	r3, [pc, #64]	@ (514 <check_range+0x74>)
     4d4:	4810      	ldr	r0, [pc, #64]	@ (518 <check_range+0x78>)
     4d6:	447b      	add	r3, pc
     4d8:	9300      	str	r3, [sp, #0]
     4da:	2301      	movs	r3, #1
     4dc:	9202      	str	r2, [sp, #8]
     4de:	461a      	mov	r2, r3
     4e0:	9101      	str	r1, [sp, #4]
     4e2:	21ce      	movs	r1, #206	@ 0xce
     4e4:	4478      	add	r0, pc
     4e6:	f003 ffe7 	bl	44b8 <trace_printf>
     4ea:	e7e9      	b.n	4c0 <check_range+0x20>
/home/lubuntu/Dokument/GitHub/STM32-Computer/Firmware/STM32-Computer-Firmware/CA7/optee-os-3.19.0-r2/optee-os-stm32mp-3.19.0-stm32mp-r2/ldelf/ta_elf.c:203
     4ec:	4b0b      	ldr	r3, [pc, #44]	@ (51c <check_range+0x7c>)
     4ee:	480c      	ldr	r0, [pc, #48]	@ (520 <check_range+0x80>)
     4f0:	447b      	add	r3, pc
     4f2:	9300      	str	r3, [sp, #0]
     4f4:	2301      	movs	r3, #1
     4f6:	9101      	str	r1, [sp, #4]
     4f8:	461a      	mov	r2, r3
     4fa:	4478      	add	r0, pc
     4fc:	21cb      	movs	r1, #203	@ 0xcb
     4fe:	f003 ffdb 	bl	44b8 <trace_printf>
     502:	e7dd      	b.n	4c0 <check_range+0x20>
/home/lubuntu/Dokument/GitHub/STM32-Computer/Firmware/STM32-Computer-Firmware/CA7/optee-os-3.19.0-r2/optee-os-stm32mp-3.19.0-stm32mp-r2/ldelf/ta_elf.c:208
     504:	b004      	add	sp, #16
     506:	bd10      	pop	{r4, pc}
     508:	ffff0005 	.word	0xffff0005
     50c:	000041d0 	.word	0x000041d0
     510:	00004b06 	.word	0x00004b06
     514:	000041cb 	.word	0x000041cb
     518:	00004adc 	.word	0x00004adc
     51c:	0000419f 	.word	0x0000419f
     520:	00004ac6 	.word	0x00004ac6

00000524 <check_hashtab>:
check_hashtab():
/home/lubuntu/Dokument/GitHub/STM32-Computer/Firmware/STM32-Computer-Firmware/CA7/optee-os-3.19.0-r2/optee-os-stm32mp-3.19.0-stm32mp-r2/ldelf/ta_elf.c:223
     524:	f011 0f03 	tst.w	r1, #3
/home/lubuntu/Dokument/GitHub/STM32-Computer/Firmware/STM32-Computer-Firmware/CA7/optee-os-3.19.0-r2/optee-os-stm32mp-3.19.0-stm32mp-r2/ldelf/ta_elf.c:212
     528:	b507      	push	{r0, r1, r2, lr}
/home/lubuntu/Dokument/GitHub/STM32-Computer/Firmware/STM32-Computer-Firmware/CA7/optee-os-3.19.0-r2/optee-os-stm32mp-3.19.0-stm32mp-r2/ldelf/ta_elf.c:223
     52a:	d00d      	beq.n	548 <check_hashtab+0x24>
/home/lubuntu/Dokument/GitHub/STM32-Computer/Firmware/STM32-Computer-Firmware/CA7/optee-os-3.19.0-r2/optee-os-stm32mp-3.19.0-stm32mp-r2/ldelf/ta_elf.c:224
     52c:	4b14      	ldr	r3, [pc, #80]	@ (580 <check_hashtab+0x5c>)
     52e:	4815      	ldr	r0, [pc, #84]	@ (584 <check_hashtab+0x60>)
     530:	447b      	add	r3, pc
     532:	9300      	str	r3, [sp, #0]
     534:	2301      	movs	r3, #1
     536:	9101      	str	r1, [sp, #4]
     538:	461a      	mov	r2, r3
     53a:	4478      	add	r0, pc
     53c:	21e0      	movs	r1, #224	@ 0xe0
     53e:	f003 ffbb 	bl	44b8 <trace_printf>
/home/lubuntu/Dokument/GitHub/STM32-Computer/Firmware/STM32-Computer-Firmware/CA7/optee-os-3.19.0-r2/optee-os-stm32mp-3.19.0-stm32mp-r2/ldelf/ta_elf.c:229
     542:	480e      	ldr	r0, [pc, #56]	@ (57c <check_hashtab+0x58>)
     544:	f7ff ed98 	blx	78 <_ldelf_return>
/home/lubuntu/Dokument/GitHub/STM32-Computer/Firmware/STM32-Computer-Firmware/CA7/optee-os-3.19.0-r2/optee-os-stm32mp-3.19.0-stm32mp-r2/ldelf/ta_elf.c:226
     548:	3202      	adds	r2, #2
     54a:	d20c      	bcs.n	566 <check_hashtab+0x42>
/home/lubuntu/Dokument/GitHub/STM32-Computer/Firmware/STM32-Computer-Firmware/CA7/optee-os-3.19.0-r2/optee-os-stm32mp-3.19.0-stm32mp-r2/ldelf/ta_elf.c:227
     54c:	18d2      	adds	r2, r2, r3
     54e:	d20a      	bcs.n	566 <check_hashtab+0x42>
/home/lubuntu/Dokument/GitHub/STM32-Computer/Firmware/STM32-Computer-Firmware/CA7/optee-os-3.19.0-r2/optee-os-stm32mp-3.19.0-stm32mp-r2/ldelf/ta_elf.c:228
     550:	0093      	lsls	r3, r2, #2
     552:	0f92      	lsrs	r2, r2, #30
     554:	d107      	bne.n	566 <check_hashtab+0x42>
/home/lubuntu/Dokument/GitHub/STM32-Computer/Firmware/STM32-Computer-Firmware/CA7/optee-os-3.19.0-r2/optee-os-stm32mp-3.19.0-stm32mp-r2/ldelf/ta_elf.c:231
     556:	460a      	mov	r2, r1
     558:	490b      	ldr	r1, [pc, #44]	@ (588 <check_hashtab+0x64>)
     55a:	4479      	add	r1, pc
/home/lubuntu/Dokument/GitHub/STM32-Computer/Firmware/STM32-Computer-Firmware/CA7/optee-os-3.19.0-r2/optee-os-stm32mp-3.19.0-stm32mp-r2/ldelf/ta_elf.c:232
     55c:	b003      	add	sp, #12
     55e:	f85d eb04 	ldr.w	lr, [sp], #4
/home/lubuntu/Dokument/GitHub/STM32-Computer/Firmware/STM32-Computer-Firmware/CA7/optee-os-3.19.0-r2/optee-os-stm32mp-3.19.0-stm32mp-r2/ldelf/ta_elf.c:231
     562:	f7ff bf9d 	b.w	4a0 <check_range>
/home/lubuntu/Dokument/GitHub/STM32-Computer/Firmware/STM32-Computer-Firmware/CA7/optee-os-3.19.0-r2/optee-os-stm32mp-3.19.0-stm32mp-r2/ldelf/ta_elf.c:229
     566:	4b09      	ldr	r3, [pc, #36]	@ (58c <check_hashtab+0x68>)
     568:	21e5      	movs	r1, #229	@ 0xe5
     56a:	4809      	ldr	r0, [pc, #36]	@ (590 <check_hashtab+0x6c>)
     56c:	447b      	add	r3, pc
     56e:	9300      	str	r3, [sp, #0]
     570:	2301      	movs	r3, #1
     572:	4478      	add	r0, pc
     574:	461a      	mov	r2, r3
     576:	f003 ff9f 	bl	44b8 <trace_printf>
     57a:	e7e2      	b.n	542 <check_hashtab+0x1e>
     57c:	ffff0005 	.word	0xffff0005
     580:	0000418a 	.word	0x0000418a
     584:	00004a43 	.word	0x00004a43
     588:	0000418d 	.word	0x0000418d
     58c:	0000416a 	.word	0x0000416a
     590:	00004a0b 	.word	0x00004a0b

00000594 <queue_elf_helper>:
queue_elf_helper():
/home/lubuntu/Dokument/GitHub/STM32-Computer/Firmware/STM32-Computer-Firmware/CA7/optee-os-3.19.0-r2/optee-os-stm32mp-3.19.0-stm32mp-r2/ldelf/ta_elf.c:63
     594:	b570      	push	{r4, r5, r6, lr}
/home/lubuntu/Dokument/GitHub/STM32-Computer/Firmware/STM32-Computer-Firmware/CA7/optee-os-3.19.0-r2/optee-os-stm32mp-3.19.0-stm32mp-r2/ldelf/ta_elf.c:64
     596:	21a4      	movs	r1, #164	@ 0xa4
/home/lubuntu/Dokument/GitHub/STM32-Computer/Firmware/STM32-Computer-Firmware/CA7/optee-os-3.19.0-r2/optee-os-stm32mp-3.19.0-stm32mp-r2/ldelf/ta_elf.c:63
     598:	4606      	mov	r6, r0
/home/lubuntu/Dokument/GitHub/STM32-Computer/Firmware/STM32-Computer-Firmware/CA7/optee-os-3.19.0-r2/optee-os-stm32mp-3.19.0-stm32mp-r2/ldelf/ta_elf.c:64
     59a:	2001      	movs	r0, #1
     59c:	f003 f86c 	bl	3678 <calloc>
/home/lubuntu/Dokument/GitHub/STM32-Computer/Firmware/STM32-Computer-Firmware/CA7/optee-os-3.19.0-r2/optee-os-stm32mp-3.19.0-stm32mp-r2/ldelf/ta_elf.c:66
     5a0:	4604      	mov	r4, r0
     5a2:	b1a0      	cbz	r0, 5ce <queue_elf_helper+0x3a>
/home/lubuntu/Dokument/GitHub/STM32-Computer/Firmware/STM32-Computer-Firmware/CA7/optee-os-3.19.0-r2/optee-os-stm32mp-3.19.0-stm32mp-r2/ldelf/ta_elf.c:69
     5a4:	f100 0358 	add.w	r3, r0, #88	@ 0x58
/home/lubuntu/Dokument/GitHub/STM32-Computer/Firmware/STM32-Computer-Firmware/CA7/optee-os-3.19.0-r2/optee-os-stm32mp-3.19.0-stm32mp-r2/ldelf/ta_elf.c:71
     5a8:	f100 058c 	add.w	r5, r0, #140	@ 0x8c
/home/lubuntu/Dokument/GitHub/STM32-Computer/Firmware/STM32-Computer-Firmware/CA7/optee-os-3.19.0-r2/optee-os-stm32mp-3.19.0-stm32mp-r2/ldelf/ta_elf.c:69
     5ac:	65c3      	str	r3, [r0, #92]	@ 0x5c
/home/lubuntu/Dokument/GitHub/STM32-Computer/Firmware/STM32-Computer-Firmware/CA7/optee-os-3.19.0-r2/optee-os-stm32mp-3.19.0-stm32mp-r2/ldelf/ta_elf.c:71
     5ae:	e896 000f 	ldmia.w	r6, {r0, r1, r2, r3}
     5b2:	e885 000f 	stmia.w	r5, {r0, r1, r2, r3}
/home/lubuntu/Dokument/GitHub/STM32-Computer/Firmware/STM32-Computer-Firmware/CA7/optee-os-3.19.0-r2/optee-os-stm32mp-3.19.0-stm32mp-r2/ldelf/ta_elf.c:72
     5b6:	2300      	movs	r3, #0
     5b8:	f8c4 309c 	str.w	r3, [r4, #156]	@ 0x9c
     5bc:	4b05      	ldr	r3, [pc, #20]	@ (5d4 <queue_elf_helper+0x40>)
     5be:	447b      	add	r3, pc
     5c0:	685a      	ldr	r2, [r3, #4]
     5c2:	f8c4 20a0 	str.w	r2, [r4, #160]	@ 0xa0
     5c6:	6014      	str	r4, [r2, #0]
     5c8:	f104 029c 	add.w	r2, r4, #156	@ 0x9c
     5cc:	605a      	str	r2, [r3, #4]
/home/lubuntu/Dokument/GitHub/STM32-Computer/Firmware/STM32-Computer-Firmware/CA7/optee-os-3.19.0-r2/optee-os-stm32mp-3.19.0-stm32mp-r2/ldelf/ta_elf.c:74
     5ce:	4620      	mov	r0, r4
     5d0:	bd70      	pop	{r4, r5, r6, pc}
     5d2:	bf00      	nop
     5d4:	00005ae6 	.word	0x00005ae6

000005d8 <add_segment>:
add_segment():
/home/lubuntu/Dokument/GitHub/STM32-Computer/Firmware/STM32-Computer-Firmware/CA7/optee-os-3.19.0-r2/optee-os-stm32mp-3.19.0-stm32mp-r2/ldelf/ta_elf.c:502
     5d8:	e92d 41f3 	stmdb	sp!, {r0, r1, r4, r5, r6, r7, r8, lr}
     5dc:	4604      	mov	r4, r0
     5de:	f8dd 8020 	ldr.w	r8, [sp, #32]
     5e2:	460f      	mov	r7, r1
/home/lubuntu/Dokument/GitHub/STM32-Computer/Firmware/STM32-Computer-Firmware/CA7/optee-os-3.19.0-r2/optee-os-stm32mp-3.19.0-stm32mp-r2/ldelf/ta_elf.c:503
     5e4:	2001      	movs	r0, #1
     5e6:	2124      	movs	r1, #36	@ 0x24
/home/lubuntu/Dokument/GitHub/STM32-Computer/Firmware/STM32-Computer-Firmware/CA7/optee-os-3.19.0-r2/optee-os-stm32mp-3.19.0-stm32mp-r2/ldelf/ta_elf.c:502
     5e8:	4616      	mov	r6, r2
     5ea:	461d      	mov	r5, r3
/home/lubuntu/Dokument/GitHub/STM32-Computer/Firmware/STM32-Computer-Firmware/CA7/optee-os-3.19.0-r2/optee-os-stm32mp-3.19.0-stm32mp-r2/ldelf/ta_elf.c:503
     5ec:	f003 f844 	bl	3678 <calloc>
/home/lubuntu/Dokument/GitHub/STM32-Computer/Firmware/STM32-Computer-Firmware/CA7/optee-os-3.19.0-r2/optee-os-stm32mp-3.19.0-stm32mp-r2/ldelf/ta_elf.c:505
     5f0:	b968      	cbnz	r0, 60e <add_segment+0x36>
/home/lubuntu/Dokument/GitHub/STM32-Computer/Firmware/STM32-Computer-Firmware/CA7/optee-os-3.19.0-r2/optee-os-stm32mp-3.19.0-stm32mp-r2/ldelf/ta_elf.c:506
     5f2:	4b19      	ldr	r3, [pc, #100]	@ (658 <add_segment+0x80>)
     5f4:	f44f 71fd 	mov.w	r1, #506	@ 0x1fa
     5f8:	4818      	ldr	r0, [pc, #96]	@ (65c <add_segment+0x84>)
     5fa:	447b      	add	r3, pc
     5fc:	9300      	str	r3, [sp, #0]
     5fe:	2301      	movs	r3, #1
     600:	4478      	add	r0, pc
     602:	461a      	mov	r2, r3
     604:	f003 ff58 	bl	44b8 <trace_printf>
     608:	4811      	ldr	r0, [pc, #68]	@ (650 <add_segment+0x78>)
/home/lubuntu/Dokument/GitHub/STM32-Computer/Firmware/STM32-Computer-Firmware/CA7/optee-os-3.19.0-r2/optee-os-stm32mp-3.19.0-stm32mp-r2/ldelf/ta_elf.c:509
     60a:	f7ff ed36 	blx	78 <_ldelf_return>
/home/lubuntu/Dokument/GitHub/STM32-Computer/Firmware/STM32-Computer-Firmware/CA7/optee-os-3.19.0-r2/optee-os-stm32mp-3.19.0-stm32mp-r2/ldelf/ta_elf.c:508
     60e:	45a8      	cmp	r8, r5
     610:	d20c      	bcs.n	62c <add_segment+0x54>
/home/lubuntu/Dokument/GitHub/STM32-Computer/Firmware/STM32-Computer-Firmware/CA7/optee-os-3.19.0-r2/optee-os-stm32mp-3.19.0-stm32mp-r2/ldelf/ta_elf.c:509
     612:	4b13      	ldr	r3, [pc, #76]	@ (660 <add_segment+0x88>)
     614:	f240 11fd 	movw	r1, #509	@ 0x1fd
     618:	4812      	ldr	r0, [pc, #72]	@ (664 <add_segment+0x8c>)
     61a:	447b      	add	r3, pc
     61c:	9300      	str	r3, [sp, #0]
     61e:	2301      	movs	r3, #1
     620:	4478      	add	r0, pc
     622:	461a      	mov	r2, r3
     624:	f003 ff48 	bl	44b8 <trace_printf>
     628:	480a      	ldr	r0, [pc, #40]	@ (654 <add_segment+0x7c>)
     62a:	e7ee      	b.n	60a <add_segment+0x32>
/home/lubuntu/Dokument/GitHub/STM32-Computer/Firmware/STM32-Computer-Firmware/CA7/optee-os-3.19.0-r2/optee-os-stm32mp-3.19.0-stm32mp-r2/ldelf/ta_elf.c:515
     62c:	9b09      	ldr	r3, [sp, #36]	@ 0x24
/home/lubuntu/Dokument/GitHub/STM32-Computer/Firmware/STM32-Computer-Firmware/CA7/optee-os-3.19.0-r2/optee-os-stm32mp-3.19.0-stm32mp-r2/ldelf/ta_elf.c:512
     62e:	e9c0 7600 	strd	r7, r6, [r0]
/home/lubuntu/Dokument/GitHub/STM32-Computer/Firmware/STM32-Computer-Firmware/CA7/optee-os-3.19.0-r2/optee-os-stm32mp-3.19.0-stm32mp-r2/ldelf/ta_elf.c:515
     632:	6103      	str	r3, [r0, #16]
/home/lubuntu/Dokument/GitHub/STM32-Computer/Firmware/STM32-Computer-Firmware/CA7/optee-os-3.19.0-r2/optee-os-stm32mp-3.19.0-stm32mp-r2/ldelf/ta_elf.c:516
     634:	9b0a      	ldr	r3, [sp, #40]	@ 0x28
/home/lubuntu/Dokument/GitHub/STM32-Computer/Firmware/STM32-Computer-Firmware/CA7/optee-os-3.19.0-r2/optee-os-stm32mp-3.19.0-stm32mp-r2/ldelf/ta_elf.c:514
     636:	e9c0 5802 	strd	r5, r8, [r0, #8]
/home/lubuntu/Dokument/GitHub/STM32-Computer/Firmware/STM32-Computer-Firmware/CA7/optee-os-3.19.0-r2/optee-os-stm32mp-3.19.0-stm32mp-r2/ldelf/ta_elf.c:516
     63a:	6143      	str	r3, [r0, #20]
/home/lubuntu/Dokument/GitHub/STM32-Computer/Firmware/STM32-Computer-Firmware/CA7/optee-os-3.19.0-r2/optee-os-stm32mp-3.19.0-stm32mp-r2/ldelf/ta_elf.c:518
     63c:	2300      	movs	r3, #0
     63e:	61c3      	str	r3, [r0, #28]
     640:	6de3      	ldr	r3, [r4, #92]	@ 0x5c
     642:	6203      	str	r3, [r0, #32]
     644:	6018      	str	r0, [r3, #0]
     646:	301c      	adds	r0, #28
     648:	65e0      	str	r0, [r4, #92]	@ 0x5c
/home/lubuntu/Dokument/GitHub/STM32-Computer/Firmware/STM32-Computer-Firmware/CA7/optee-os-3.19.0-r2/optee-os-stm32mp-3.19.0-stm32mp-r2/ldelf/ta_elf.c:519
     64a:	b002      	add	sp, #8
     64c:	e8bd 81f0 	ldmia.w	sp!, {r4, r5, r6, r7, r8, pc}
     650:	ffff000c 	.word	0xffff000c
     654:	ffff0005 	.word	0xffff0005
     658:	000040f5 	.word	0x000040f5
     65c:	00004a1f 	.word	0x00004a1f
     660:	000040dc 	.word	0x000040dc
     664:	000049ff 	.word	0x000049ff

00000668 <get_pad_begin>:
get_pad_begin():
/home/lubuntu/Dokument/GitHub/STM32-Computer/Firmware/STM32-Computer-Firmware/CA7/optee-os-3.19.0-r2/optee-os-stm32mp-3.19.0-stm32mp-r2/ldelf/ta_elf.c:722
     668:	b51f      	push	{r0, r1, r2, r3, r4, lr}
/home/lubuntu/Dokument/GitHub/STM32-Computer/Firmware/STM32-Computer-Firmware/CA7/optee-os-3.19.0-r2/optee-os-stm32mp-3.19.0-stm32mp-r2/ldelf/ta_elf.c:727
     66a:	2400      	movs	r4, #0
     66c:	9403      	str	r4, [sp, #12]
/home/lubuntu/Dokument/GitHub/STM32-Computer/Firmware/STM32-Computer-Firmware/CA7/optee-os-3.19.0-r2/optee-os-stm32mp-3.19.0-stm32mp-r2/ldelf/ta_elf.c:733
     66e:	2104      	movs	r1, #4
     670:	a803      	add	r0, sp, #12
     672:	f003 fcec 	bl	404e <sys_gen_random_num>
/home/lubuntu/Dokument/GitHub/STM32-Computer/Firmware/STM32-Computer-Firmware/CA7/optee-os-3.19.0-r2/optee-os-stm32mp-3.19.0-stm32mp-r2/ldelf/ta_elf.c:734
     676:	b170      	cbz	r0, 696 <get_pad_begin+0x2e>
/home/lubuntu/Dokument/GitHub/STM32-Computer/Firmware/STM32-Computer-Firmware/CA7/optee-os-3.19.0-r2/optee-os-stm32mp-3.19.0-stm32mp-r2/ldelf/ta_elf.c:735
     678:	4b09      	ldr	r3, [pc, #36]	@ (6a0 <get_pad_begin+0x38>)
     67a:	2203      	movs	r2, #3
     67c:	9001      	str	r0, [sp, #4]
     67e:	f240 21df 	movw	r1, #735	@ 0x2df
     682:	4808      	ldr	r0, [pc, #32]	@ (6a4 <get_pad_begin+0x3c>)
     684:	447b      	add	r3, pc
     686:	4478      	add	r0, pc
     688:	9300      	str	r3, [sp, #0]
     68a:	2301      	movs	r3, #1
     68c:	f003 ff14 	bl	44b8 <trace_printf>
/home/lubuntu/Dokument/GitHub/STM32-Computer/Firmware/STM32-Computer-Firmware/CA7/optee-os-3.19.0-r2/optee-os-stm32mp-3.19.0-stm32mp-r2/ldelf/ta_elf.c:736
     690:	4620      	mov	r0, r4
/home/lubuntu/Dokument/GitHub/STM32-Computer/Firmware/STM32-Computer-Firmware/CA7/optee-os-3.19.0-r2/optee-os-stm32mp-3.19.0-stm32mp-r2/ldelf/ta_elf.c:745
     692:	b004      	add	sp, #16
     694:	bd10      	pop	{r4, pc}
/home/lubuntu/Dokument/GitHub/STM32-Computer/Firmware/STM32-Computer-Firmware/CA7/optee-os-3.19.0-r2/optee-os-stm32mp-3.19.0-stm32mp-r2/ldelf/ta_elf.c:738
     696:	9803      	ldr	r0, [sp, #12]
     698:	f000 007f 	and.w	r0, r0, #127	@ 0x7f
/home/lubuntu/Dokument/GitHub/STM32-Computer/Firmware/STM32-Computer-Firmware/CA7/optee-os-3.19.0-r2/optee-os-stm32mp-3.19.0-stm32mp-r2/ldelf/ta_elf.c:741
     69c:	0300      	lsls	r0, r0, #12
     69e:	e7f8      	b.n	692 <get_pad_begin+0x2a>
     6a0:	0000408c 	.word	0x0000408c
     6a4:	000049f0 	.word	0x000049f0

000006a8 <ta_elf_add_bti>:
ta_elf_add_bti():
/home/lubuntu/Dokument/GitHub/STM32-Computer/Firmware/STM32-Computer-Firmware/CA7/optee-os-3.19.0-r2/optee-os-stm32mp-3.19.0-stm32mp-r2/ldelf/ta_elf.c:880
     6a8:	b573      	push	{r0, r1, r4, r5, r6, lr}
     6aa:	4605      	mov	r5, r0
/home/lubuntu/Dokument/GitHub/STM32-Computer/Firmware/STM32-Computer-Firmware/CA7/optee-os-3.19.0-r2/optee-os-stm32mp-3.19.0-stm32mp-r2/ldelf/ta_elf.c:885
     6ac:	6d84      	ldr	r4, [r0, #88]	@ 0x58
/home/lubuntu/Dokument/GitHub/STM32-Computer/Firmware/STM32-Computer-Firmware/CA7/optee-os-3.19.0-r2/optee-os-stm32mp-3.19.0-stm32mp-r2/ldelf/ta_elf.c:885 (discriminator 1)
     6ae:	b90c      	cbnz	r4, 6b4 <ta_elf_add_bti+0xc>
/home/lubuntu/Dokument/GitHub/STM32-Computer/Firmware/STM32-Computer-Firmware/CA7/optee-os-3.19.0-r2/optee-os-stm32mp-3.19.0-stm32mp-r2/ldelf/ta_elf.c:894
     6b0:	b002      	add	sp, #8
     6b2:	bd70      	pop	{r4, r5, r6, pc}
/home/lubuntu/Dokument/GitHub/STM32-Computer/Firmware/STM32-Computer-Firmware/CA7/optee-os-3.19.0-r2/optee-os-stm32mp-3.19.0-stm32mp-r2/ldelf/ta_elf.c:888
     6b4:	6922      	ldr	r2, [r4, #16]
/home/lubuntu/Dokument/GitHub/STM32-Computer/Firmware/STM32-Computer-Firmware/CA7/optee-os-3.19.0-r2/optee-os-stm32mp-3.19.0-stm32mp-r2/ldelf/ta_elf.c:886
     6b6:	6868      	ldr	r0, [r5, #4]
/home/lubuntu/Dokument/GitHub/STM32-Computer/Firmware/STM32-Computer-Firmware/CA7/optee-os-3.19.0-r2/optee-os-stm32mp-3.19.0-stm32mp-r2/ldelf/ta_elf.c:888
     6b8:	07d2      	lsls	r2, r2, #31
/home/lubuntu/Dokument/GitHub/STM32-Computer/Firmware/STM32-Computer-Firmware/CA7/optee-os-3.19.0-r2/optee-os-stm32mp-3.19.0-stm32mp-r2/ldelf/ta_elf.c:886
     6ba:	6863      	ldr	r3, [r4, #4]
/home/lubuntu/Dokument/GitHub/STM32-Computer/Firmware/STM32-Computer-Firmware/CA7/optee-os-3.19.0-r2/optee-os-stm32mp-3.19.0-stm32mp-r2/ldelf/ta_elf.c:888
     6bc:	d514      	bpl.n	6e8 <ta_elf_add_bti+0x40>
/home/lubuntu/Dokument/GitHub/STM32-Computer/Firmware/STM32-Computer-Firmware/CA7/optee-os-3.19.0-r2/optee-os-stm32mp-3.19.0-stm32mp-r2/ldelf/ta_elf.c:889
     6be:	68e1      	ldr	r1, [r4, #12]
     6c0:	220c      	movs	r2, #12
     6c2:	4418      	add	r0, r3
     6c4:	f003 fcbf 	bl	4046 <sys_set_prot>
/home/lubuntu/Dokument/GitHub/STM32-Computer/Firmware/STM32-Computer-Firmware/CA7/optee-os-3.19.0-r2/optee-os-stm32mp-3.19.0-stm32mp-r2/ldelf/ta_elf.c:890
     6c8:	4606      	mov	r6, r0
     6ca:	b168      	cbz	r0, 6e8 <ta_elf_add_bti+0x40>
/home/lubuntu/Dokument/GitHub/STM32-Computer/Firmware/STM32-Computer-Firmware/CA7/optee-os-3.19.0-r2/optee-os-stm32mp-3.19.0-stm32mp-r2/ldelf/ta_elf.c:891
     6cc:	4b07      	ldr	r3, [pc, #28]	@ (6ec <ta_elf_add_bti+0x44>)
     6ce:	f240 317b 	movw	r1, #891	@ 0x37b
     6d2:	4807      	ldr	r0, [pc, #28]	@ (6f0 <ta_elf_add_bti+0x48>)
     6d4:	447b      	add	r3, pc
     6d6:	9300      	str	r3, [sp, #0]
     6d8:	2301      	movs	r3, #1
     6da:	4478      	add	r0, pc
     6dc:	461a      	mov	r2, r3
     6de:	f003 feeb 	bl	44b8 <trace_printf>
     6e2:	4630      	mov	r0, r6
     6e4:	f7ff ecc8 	blx	78 <_ldelf_return>
/home/lubuntu/Dokument/GitHub/STM32-Computer/Firmware/STM32-Computer-Firmware/CA7/optee-os-3.19.0-r2/optee-os-stm32mp-3.19.0-stm32mp-r2/ldelf/ta_elf.c:885
     6e8:	69e4      	ldr	r4, [r4, #28]
     6ea:	e7e0      	b.n	6ae <ta_elf_add_bti+0x6>
     6ec:	00004054 	.word	0x00004054
     6f0:	0000498d 	.word	0x0000498d

000006f4 <init_elf>:
init_elf():
/home/lubuntu/Dokument/GitHub/STM32-Computer/Firmware/STM32-Computer-Firmware/CA7/optee-os-3.19.0-r2/optee-os-stm32mp-3.19.0-stm32mp-r2/ldelf/ta_elf.c:445
     6f4:	b5f0      	push	{r4, r5, r6, r7, lr}
/home/lubuntu/Dokument/GitHub/STM32-Computer/Firmware/STM32-Computer-Firmware/CA7/optee-os-3.19.0-r2/optee-os-stm32mp-3.19.0-stm32mp-r2/ldelf/ta_elf.c:451
     6f6:	f100 068c 	add.w	r6, r0, #140	@ 0x8c
/home/lubuntu/Dokument/GitHub/STM32-Computer/Firmware/STM32-Computer-Firmware/CA7/optee-os-3.19.0-r2/optee-os-stm32mp-3.19.0-stm32mp-r2/ldelf/ta_elf.c:445
     6fa:	b087      	sub	sp, #28
/home/lubuntu/Dokument/GitHub/STM32-Computer/Firmware/STM32-Computer-Firmware/CA7/optee-os-3.19.0-r2/optee-os-stm32mp-3.19.0-stm32mp-r2/ldelf/ta_elf.c:447
     6fc:	2300      	movs	r3, #0
/home/lubuntu/Dokument/GitHub/STM32-Computer/Firmware/STM32-Computer-Firmware/CA7/optee-os-3.19.0-r2/optee-os-stm32mp-3.19.0-stm32mp-r2/ldelf/ta_elf.c:451
     6fe:	f100 0184 	add.w	r1, r0, #132	@ 0x84
/home/lubuntu/Dokument/GitHub/STM32-Computer/Firmware/STM32-Computer-Firmware/CA7/optee-os-3.19.0-r2/optee-os-stm32mp-3.19.0-stm32mp-r2/ldelf/ta_elf.c:445
     702:	4604      	mov	r4, r0
/home/lubuntu/Dokument/GitHub/STM32-Computer/Firmware/STM32-Computer-Firmware/CA7/optee-os-3.19.0-r2/optee-os-stm32mp-3.19.0-stm32mp-r2/ldelf/ta_elf.c:447
     704:	9305      	str	r3, [sp, #20]
/home/lubuntu/Dokument/GitHub/STM32-Computer/Firmware/STM32-Computer-Firmware/CA7/optee-os-3.19.0-r2/optee-os-stm32mp-3.19.0-stm32mp-r2/ldelf/ta_elf.c:451
     706:	4630      	mov	r0, r6
     708:	f003 fc84 	bl	4014 <sys_open_ta_bin>
/home/lubuntu/Dokument/GitHub/STM32-Computer/Firmware/STM32-Computer-Firmware/CA7/optee-os-3.19.0-r2/optee-os-stm32mp-3.19.0-stm32mp-r2/ldelf/ta_elf.c:452
     70c:	4605      	mov	r5, r0
     70e:	b170      	cbz	r0, 72e <init_elf+0x3a>
/home/lubuntu/Dokument/GitHub/STM32-Computer/Firmware/STM32-Computer-Firmware/CA7/optee-os-3.19.0-r2/optee-os-stm32mp-3.19.0-stm32mp-r2/ldelf/ta_elf.c:453
     710:	4b4e      	ldr	r3, [pc, #312]	@ (84c <init_elf+0x158>)
     712:	f240 11c5 	movw	r1, #453	@ 0x1c5
     716:	484e      	ldr	r0, [pc, #312]	@ (850 <init_elf+0x15c>)
     718:	447b      	add	r3, pc
     71a:	9300      	str	r3, [sp, #0]
     71c:	2301      	movs	r3, #1
     71e:	4478      	add	r0, pc
     720:	461a      	mov	r2, r3
     722:	9601      	str	r6, [sp, #4]
     724:	f003 fec8 	bl	44b8 <trace_printf>
/home/lubuntu/Dokument/GitHub/STM32-Computer/Firmware/STM32-Computer-Firmware/CA7/optee-os-3.19.0-r2/optee-os-stm32mp-3.19.0-stm32mp-r2/ldelf/ta_elf.c:463
     728:	4628      	mov	r0, r5
     72a:	f7ff eca6 	blx	78 <_ldelf_return>
/home/lubuntu/Dokument/GitHub/STM32-Computer/Firmware/STM32-Computer-Firmware/CA7/optee-os-3.19.0-r2/optee-os-stm32mp-3.19.0-stm32mp-r2/ldelf/ta_elf.c:459
     72e:	7823      	ldrb	r3, [r4, #0]
/home/lubuntu/Dokument/GitHub/STM32-Computer/Firmware/STM32-Computer-Firmware/CA7/optee-os-3.19.0-r2/optee-os-stm32mp-3.19.0-stm32mp-r2/ldelf/ta_elf.c:461
     730:	f44f 5180 	mov.w	r1, #4096	@ 0x1000
     734:	9002      	str	r0, [sp, #8]
     736:	9001      	str	r0, [sp, #4]
/home/lubuntu/Dokument/GitHub/STM32-Computer/Firmware/STM32-Computer-Firmware/CA7/optee-os-3.19.0-r2/optee-os-stm32mp-3.19.0-stm32mp-r2/ldelf/ta_elf.c:448
     738:	2b00      	cmp	r3, #0
/home/lubuntu/Dokument/GitHub/STM32-Computer/Firmware/STM32-Computer-Firmware/CA7/optee-os-3.19.0-r2/optee-os-stm32mp-3.19.0-stm32mp-r2/ldelf/ta_elf.c:461
     73a:	9000      	str	r0, [sp, #0]
     73c:	bf08      	it	eq
     73e:	2205      	moveq	r2, #5
     740:	f8d4 3084 	ldr.w	r3, [r4, #132]	@ 0x84
     744:	bf18      	it	ne
     746:	2201      	movne	r2, #1
     748:	a805      	add	r0, sp, #20
     74a:	f003 fc69 	bl	4020 <sys_map_ta_bin>
/home/lubuntu/Dokument/GitHub/STM32-Computer/Firmware/STM32-Computer-Firmware/CA7/optee-os-3.19.0-r2/optee-os-stm32mp-3.19.0-stm32mp-r2/ldelf/ta_elf.c:462
     74e:	4605      	mov	r5, r0
     750:	b158      	cbz	r0, 76a <init_elf+0x76>
/home/lubuntu/Dokument/GitHub/STM32-Computer/Firmware/STM32-Computer-Firmware/CA7/optee-os-3.19.0-r2/optee-os-stm32mp-3.19.0-stm32mp-r2/ldelf/ta_elf.c:463
     752:	4b40      	ldr	r3, [pc, #256]	@ (854 <init_elf+0x160>)
     754:	f240 11cf 	movw	r1, #463	@ 0x1cf
     758:	483f      	ldr	r0, [pc, #252]	@ (858 <init_elf+0x164>)
     75a:	447b      	add	r3, pc
     75c:	9300      	str	r3, [sp, #0]
     75e:	2301      	movs	r3, #1
     760:	4478      	add	r0, pc
     762:	461a      	mov	r2, r3
     764:	f003 fea8 	bl	44b8 <trace_printf>
     768:	e7de      	b.n	728 <init_elf+0x34>
/home/lubuntu/Dokument/GitHub/STM32-Computer/Firmware/STM32-Computer-Firmware/CA7/optee-os-3.19.0-r2/optee-os-stm32mp-3.19.0-stm32mp-r2/ldelf/ta_elf.c:464
     76a:	9a05      	ldr	r2, [sp, #20]
/home/lubuntu/Dokument/GitHub/STM32-Computer/Firmware/STM32-Computer-Firmware/CA7/optee-os-3.19.0-r2/optee-os-stm32mp-3.19.0-stm32mp-r2/ldelf/ta_elf.c:465
     76c:	7823      	ldrb	r3, [r4, #0]
/home/lubuntu/Dokument/GitHub/STM32-Computer/Firmware/STM32-Computer-Firmware/CA7/optee-os-3.19.0-r2/optee-os-stm32mp-3.19.0-stm32mp-r2/ldelf/ta_elf.c:464
     76e:	6122      	str	r2, [r4, #16]
/home/lubuntu/Dokument/GitHub/STM32-Computer/Firmware/STM32-Computer-Firmware/CA7/optee-os-3.19.0-r2/optee-os-stm32mp-3.19.0-stm32mp-r2/ldelf/ta_elf.c:465
     770:	b933      	cbnz	r3, 780 <init_elf+0x8c>
/home/lubuntu/Dokument/GitHub/STM32-Computer/Firmware/STM32-Computer-Firmware/CA7/optee-os-3.19.0-r2/optee-os-stm32mp-3.19.0-stm32mp-r2/ldelf/ta_elf.c:466
     772:	6062      	str	r2, [r4, #4]
/home/lubuntu/Dokument/GitHub/STM32-Computer/Firmware/STM32-Computer-Firmware/CA7/optee-os-3.19.0-r2/optee-os-stm32mp-3.19.0-stm32mp-r2/ldelf/ta_elf.c:467
     774:	f502 5380 	add.w	r3, r2, #4096	@ 0x1000
     778:	60a3      	str	r3, [r4, #8]
/home/lubuntu/Dokument/GitHub/STM32-Computer/Firmware/STM32-Computer-Firmware/CA7/optee-os-3.19.0-r2/optee-os-stm32mp-3.19.0-stm32mp-r2/ldelf/ta_elf.c:468
     77a:	f44f 5380 	mov.w	r3, #4096	@ 0x1000
     77e:	60e3      	str	r3, [r4, #12]
/home/lubuntu/Dokument/GitHub/STM32-Computer/Firmware/STM32-Computer-Firmware/CA7/optee-os-3.19.0-r2/optee-os-stm32mp-3.19.0-stm32mp-r2/ldelf/ta_elf.c:471
     780:	6811      	ldr	r1, [r2, #0]
     782:	4b2d      	ldr	r3, [pc, #180]	@ (838 <init_elf+0x144>)
     784:	4299      	cmp	r1, r3
     786:	d00c      	beq.n	7a2 <init_elf+0xae>
/home/lubuntu/Dokument/GitHub/STM32-Computer/Firmware/STM32-Computer-Firmware/CA7/optee-os-3.19.0-r2/optee-os-stm32mp-3.19.0-stm32mp-r2/ldelf/ta_elf.c:472
     788:	4b34      	ldr	r3, [pc, #208]	@ (85c <init_elf+0x168>)
     78a:	f44f 71ec 	mov.w	r1, #472	@ 0x1d8
     78e:	4834      	ldr	r0, [pc, #208]	@ (860 <init_elf+0x16c>)
     790:	447b      	add	r3, pc
     792:	9300      	str	r3, [sp, #0]
     794:	2301      	movs	r3, #1
     796:	4478      	add	r0, pc
     798:	461a      	mov	r2, r3
/home/lubuntu/Dokument/GitHub/STM32-Computer/Firmware/STM32-Computer-Firmware/CA7/optee-os-3.19.0-r2/optee-os-stm32mp-3.19.0-stm32mp-r2/ldelf/ta_elf.c:482
     79a:	f003 fe8d 	bl	44b8 <trace_printf>
     79e:	4827      	ldr	r0, [pc, #156]	@ (83c <init_elf+0x148>)
     7a0:	e7c3      	b.n	72a <init_elf+0x36>
e32_parse_ehdr():
/home/lubuntu/Dokument/GitHub/STM32-Computer/Firmware/STM32-Computer-Firmware/CA7/optee-os-3.19.0-r2/optee-os-stm32mp-3.19.0-stm32mp-r2/ldelf/ta_elf.c:103
     7a2:	6851      	ldr	r1, [r2, #4]
     7a4:	4b26      	ldr	r3, [pc, #152]	@ (840 <init_elf+0x14c>)
     7a6:	4299      	cmp	r1, r3
     7a8:	d135      	bne.n	816 <init_elf+0x122>
/home/lubuntu/Dokument/GitHub/STM32-Computer/Firmware/STM32-Computer-Firmware/CA7/optee-os-3.19.0-r2/optee-os-stm32mp-3.19.0-stm32mp-r2/ldelf/ta_elf.c:107
     7aa:	6911      	ldr	r1, [r2, #16]
     7ac:	4b25      	ldr	r3, [pc, #148]	@ (844 <init_elf+0x150>)
     7ae:	4299      	cmp	r1, r3
     7b0:	d131      	bne.n	816 <init_elf+0x122>
/home/lubuntu/Dokument/GitHub/STM32-Computer/Firmware/STM32-Computer-Firmware/CA7/optee-os-3.19.0-r2/optee-os-stm32mp-3.19.0-stm32mp-r2/ldelf/ta_elf.c:108
     7b2:	6a53      	ldr	r3, [r2, #36]	@ 0x24
     7b4:	f003 437f 	and.w	r3, r3, #4278190080	@ 0xff000000
/home/lubuntu/Dokument/GitHub/STM32-Computer/Firmware/STM32-Computer-Firmware/CA7/optee-os-3.19.0-r2/optee-os-stm32mp-3.19.0-stm32mp-r2/ldelf/ta_elf.c:107
     7b8:	f1b3 6fa0 	cmp.w	r3, #83886080	@ 0x5000000
     7bc:	d12b      	bne.n	816 <init_elf+0x122>
/home/lubuntu/Dokument/GitHub/STM32-Computer/Firmware/STM32-Computer-Firmware/CA7/optee-os-3.19.0-r2/optee-os-stm32mp-3.19.0-stm32mp-r2/ldelf/ta_elf.c:108
     7be:	8d56      	ldrh	r6, [r2, #42]	@ 0x2a
     7c0:	2e20      	cmp	r6, #32
     7c2:	d128      	bne.n	816 <init_elf+0x122>
/home/lubuntu/Dokument/GitHub/STM32-Computer/Firmware/STM32-Computer-Firmware/CA7/optee-os-3.19.0-r2/optee-os-stm32mp-3.19.0-stm32mp-r2/ldelf/ta_elf.c:112
     7c4:	8dd5      	ldrh	r5, [r2, #46]	@ 0x2e
     7c6:	2d28      	cmp	r5, #40	@ 0x28
     7c8:	d125      	bne.n	816 <init_elf+0x122>
/home/lubuntu/Dokument/GitHub/STM32-Computer/Firmware/STM32-Computer-Firmware/CA7/optee-os-3.19.0-r2/optee-os-stm32mp-3.19.0-stm32mp-r2/ldelf/ta_elf.c:117
     7ca:	6991      	ldr	r1, [r2, #24]
/home/lubuntu/Dokument/GitHub/STM32-Computer/Firmware/STM32-Computer-Firmware/CA7/optee-os-3.19.0-r2/optee-os-stm32mp-3.19.0-stm32mp-r2/ldelf/ta_elf.c:116
     7cc:	2301      	movs	r3, #1
/home/lubuntu/Dokument/GitHub/STM32-Computer/Firmware/STM32-Computer-Firmware/CA7/optee-os-3.19.0-r2/optee-os-stm32mp-3.19.0-stm32mp-r2/ldelf/ta_elf.c:118
     7ce:	69d0      	ldr	r0, [r2, #28]
/home/lubuntu/Dokument/GitHub/STM32-Computer/Firmware/STM32-Computer-Firmware/CA7/optee-os-3.19.0-r2/optee-os-stm32mp-3.19.0-stm32mp-r2/ldelf/ta_elf.c:117
     7d0:	6161      	str	r1, [r4, #20]
/home/lubuntu/Dokument/GitHub/STM32-Computer/Firmware/STM32-Computer-Firmware/CA7/optee-os-3.19.0-r2/optee-os-stm32mp-3.19.0-stm32mp-r2/ldelf/ta_elf.c:119
     7d2:	6a11      	ldr	r1, [r2, #32]
/home/lubuntu/Dokument/GitHub/STM32-Computer/Firmware/STM32-Computer-Firmware/CA7/optee-os-3.19.0-r2/optee-os-stm32mp-3.19.0-stm32mp-r2/ldelf/ta_elf.c:121
     7d4:	8e17      	ldrh	r7, [r2, #48]	@ 0x30
/home/lubuntu/Dokument/GitHub/STM32-Computer/Firmware/STM32-Computer-Firmware/CA7/optee-os-3.19.0-r2/optee-os-stm32mp-3.19.0-stm32mp-r2/ldelf/ta_elf.c:119
     7d6:	61e1      	str	r1, [r4, #28]
/home/lubuntu/Dokument/GitHub/STM32-Computer/Firmware/STM32-Computer-Firmware/CA7/optee-os-3.19.0-r2/optee-os-stm32mp-3.19.0-stm32mp-r2/ldelf/ta_elf.c:120
     7d8:	8d91      	ldrh	r1, [r2, #44]	@ 0x2c
/home/lubuntu/Dokument/GitHub/STM32-Computer/Firmware/STM32-Computer-Firmware/CA7/optee-os-3.19.0-r2/optee-os-stm32mp-3.19.0-stm32mp-r2/ldelf/ta_elf.c:116
     7da:	7063      	strb	r3, [r4, #1]
/home/lubuntu/Dokument/GitHub/STM32-Computer/Firmware/STM32-Computer-Firmware/CA7/optee-os-3.19.0-r2/optee-os-stm32mp-3.19.0-stm32mp-r2/ldelf/ta_elf.c:120
     7dc:	6221      	str	r1, [r4, #32]
init_elf():
/home/lubuntu/Dokument/GitHub/STM32-Computer/Firmware/STM32-Computer-Firmware/CA7/optee-os-3.19.0-r2/optee-os-stm32mp-3.19.0-stm32mp-r2/ldelf/ta_elf.c:480
     7de:	0149      	lsls	r1, r1, #5
/home/lubuntu/Dokument/GitHub/STM32-Computer/Firmware/STM32-Computer-Firmware/CA7/optee-os-3.19.0-r2/optee-os-stm32mp-3.19.0-stm32mp-r2/ldelf/ta_elf.c:481
     7e0:	1809      	adds	r1, r1, r0
e32_parse_ehdr():
/home/lubuntu/Dokument/GitHub/STM32-Computer/Firmware/STM32-Computer-Firmware/CA7/optee-os-3.19.0-r2/optee-os-stm32mp-3.19.0-stm32mp-r2/ldelf/ta_elf.c:118
     7e2:	61a0      	str	r0, [r4, #24]
/home/lubuntu/Dokument/GitHub/STM32-Computer/Firmware/STM32-Computer-Firmware/CA7/optee-os-3.19.0-r2/optee-os-stm32mp-3.19.0-stm32mp-r2/ldelf/ta_elf.c:121
     7e4:	6267      	str	r7, [r4, #36]	@ 0x24
/home/lubuntu/Dokument/GitHub/STM32-Computer/Firmware/STM32-Computer-Firmware/CA7/optee-os-3.19.0-r2/optee-os-stm32mp-3.19.0-stm32mp-r2/ldelf/ta_elf.c:122
     7e6:	62a6      	str	r6, [r4, #40]	@ 0x28
/home/lubuntu/Dokument/GitHub/STM32-Computer/Firmware/STM32-Computer-Firmware/CA7/optee-os-3.19.0-r2/optee-os-stm32mp-3.19.0-stm32mp-r2/ldelf/ta_elf.c:123
     7e8:	62e5      	str	r5, [r4, #44]	@ 0x2c
init_elf():
/home/lubuntu/Dokument/GitHub/STM32-Computer/Firmware/STM32-Computer-Firmware/CA7/optee-os-3.19.0-r2/optee-os-stm32mp-3.19.0-stm32mp-r2/ldelf/ta_elf.c:481
     7ea:	d20b      	bcs.n	804 <init_elf+0x110>
/home/lubuntu/Dokument/GitHub/STM32-Computer/Firmware/STM32-Computer-Firmware/CA7/optee-os-3.19.0-r2/optee-os-stm32mp-3.19.0-stm32mp-r2/ldelf/ta_elf.c:484
     7ec:	f5b1 5f80 	cmp.w	r1, #4096	@ 0x1000
     7f0:	d91e      	bls.n	830 <init_elf+0x13c>
/home/lubuntu/Dokument/GitHub/STM32-Computer/Firmware/STM32-Computer-Firmware/CA7/optee-os-3.19.0-r2/optee-os-stm32mp-3.19.0-stm32mp-r2/ldelf/ta_elf.c:485
     7f2:	4a1c      	ldr	r2, [pc, #112]	@ (864 <init_elf+0x170>)
     7f4:	f240 11e5 	movw	r1, #485	@ 0x1e5
     7f8:	481b      	ldr	r0, [pc, #108]	@ (868 <init_elf+0x174>)
     7fa:	447a      	add	r2, pc
     7fc:	9200      	str	r2, [sp, #0]
     7fe:	461a      	mov	r2, r3
     800:	4478      	add	r0, pc
     802:	e011      	b.n	828 <init_elf+0x134>
/home/lubuntu/Dokument/GitHub/STM32-Computer/Firmware/STM32-Computer-Firmware/CA7/optee-os-3.19.0-r2/optee-os-stm32mp-3.19.0-stm32mp-r2/ldelf/ta_elf.c:482
     804:	4a19      	ldr	r2, [pc, #100]	@ (86c <init_elf+0x178>)
     806:	f44f 71f1 	mov.w	r1, #482	@ 0x1e2
     80a:	4819      	ldr	r0, [pc, #100]	@ (870 <init_elf+0x17c>)
     80c:	447a      	add	r2, pc
     80e:	9200      	str	r2, [sp, #0]
     810:	461a      	mov	r2, r3
     812:	4478      	add	r0, pc
     814:	e7c1      	b.n	79a <init_elf+0xa6>
/home/lubuntu/Dokument/GitHub/STM32-Computer/Firmware/STM32-Computer-Firmware/CA7/optee-os-3.19.0-r2/optee-os-stm32mp-3.19.0-stm32mp-r2/ldelf/ta_elf.c:478
     816:	4b17      	ldr	r3, [pc, #92]	@ (874 <init_elf+0x180>)
     818:	f44f 71ef 	mov.w	r1, #478	@ 0x1de
     81c:	4816      	ldr	r0, [pc, #88]	@ (878 <init_elf+0x184>)
     81e:	447b      	add	r3, pc
     820:	9300      	str	r3, [sp, #0]
     822:	2301      	movs	r3, #1
     824:	4478      	add	r0, pc
     826:	461a      	mov	r2, r3
/home/lubuntu/Dokument/GitHub/STM32-Computer/Firmware/STM32-Computer-Firmware/CA7/optee-os-3.19.0-r2/optee-os-stm32mp-3.19.0-stm32mp-r2/ldelf/ta_elf.c:485
     828:	f003 fe46 	bl	44b8 <trace_printf>
     82c:	4806      	ldr	r0, [pc, #24]	@ (848 <init_elf+0x154>)
     82e:	e77c      	b.n	72a <init_elf+0x36>
/home/lubuntu/Dokument/GitHub/STM32-Computer/Firmware/STM32-Computer-Firmware/CA7/optee-os-3.19.0-r2/optee-os-stm32mp-3.19.0-stm32mp-r2/ldelf/ta_elf.c:487
     830:	4402      	add	r2, r0
     832:	6322      	str	r2, [r4, #48]	@ 0x30
/home/lubuntu/Dokument/GitHub/STM32-Computer/Firmware/STM32-Computer-Firmware/CA7/optee-os-3.19.0-r2/optee-os-stm32mp-3.19.0-stm32mp-r2/ldelf/ta_elf.c:488
     834:	b007      	add	sp, #28
     836:	bdf0      	pop	{r4, r5, r6, r7, pc}
     838:	464c457f 	.word	0x464c457f
     83c:	ffff0005 	.word	0xffff0005
     840:	00010101 	.word	0x00010101
     844:	00280003 	.word	0x00280003
     848:	ffff000a 	.word	0xffff000a
     84c:	0000401d 	.word	0x0000401d
     850:	0000492c 	.word	0x0000492c
     854:	00003ff1 	.word	0x00003ff1
     858:	000048ea 	.word	0x000048ea
     85c:	00003fca 	.word	0x00003fca
     860:	000048b4 	.word	0x000048b4
     864:	00003fa0 	.word	0x00003fa0
     868:	0000484a 	.word	0x0000484a
     86c:	00003f70 	.word	0x00003f70
     870:	00004838 	.word	0x00004838
     874:	00003f4d 	.word	0x00003f4d
     878:	00004826 	.word	0x00004826

0000087c <close_handle>:
close_handle():
/home/lubuntu/Dokument/GitHub/STM32-Computer/Firmware/STM32-Computer-Firmware/CA7/optee-os-3.19.0-r2/optee-os-stm32mp-3.19.0-stm32mp-r2/ldelf/ta_elf.c:1096
     87c:	b537      	push	{r0, r1, r2, r4, r5, lr}
     87e:	4604      	mov	r4, r0
/home/lubuntu/Dokument/GitHub/STM32-Computer/Firmware/STM32-Computer-Firmware/CA7/optee-os-3.19.0-r2/optee-os-stm32mp-3.19.0-stm32mp-r2/ldelf/ta_elf.c:1097
     880:	f8d0 0084 	ldr.w	r0, [r0, #132]	@ 0x84
     884:	f003 fbca 	bl	401c <sys_close_ta_bin>
/home/lubuntu/Dokument/GitHub/STM32-Computer/Firmware/STM32-Computer-Firmware/CA7/optee-os-3.19.0-r2/optee-os-stm32mp-3.19.0-stm32mp-r2/ldelf/ta_elf.c:1099
     888:	4605      	mov	r5, r0
     88a:	b168      	cbz	r0, 8a8 <close_handle+0x2c>
/home/lubuntu/Dokument/GitHub/STM32-Computer/Firmware/STM32-Computer-Firmware/CA7/optee-os-3.19.0-r2/optee-os-stm32mp-3.19.0-stm32mp-r2/ldelf/ta_elf.c:1100
     88c:	4b09      	ldr	r3, [pc, #36]	@ (8b4 <close_handle+0x38>)
     88e:	f240 414c 	movw	r1, #1100	@ 0x44c
     892:	4809      	ldr	r0, [pc, #36]	@ (8b8 <close_handle+0x3c>)
     894:	447b      	add	r3, pc
     896:	9300      	str	r3, [sp, #0]
     898:	2301      	movs	r3, #1
     89a:	4478      	add	r0, pc
     89c:	461a      	mov	r2, r3
     89e:	f003 fe0b 	bl	44b8 <trace_printf>
     8a2:	4628      	mov	r0, r5
     8a4:	f7ff ebe8 	blx	78 <_ldelf_return>
/home/lubuntu/Dokument/GitHub/STM32-Computer/Firmware/STM32-Computer-Firmware/CA7/optee-os-3.19.0-r2/optee-os-stm32mp-3.19.0-stm32mp-r2/ldelf/ta_elf.c:1101
     8a8:	f04f 33ff 	mov.w	r3, #4294967295	@ 0xffffffff
     8ac:	f8c4 3084 	str.w	r3, [r4, #132]	@ 0x84
/home/lubuntu/Dokument/GitHub/STM32-Computer/Firmware/STM32-Computer-Firmware/CA7/optee-os-3.19.0-r2/optee-os-stm32mp-3.19.0-stm32mp-r2/ldelf/ta_elf.c:1102
     8b0:	b003      	add	sp, #12
     8b2:	bd30      	pop	{r4, r5, pc}
     8b4:	00003f22 	.word	0x00003f22
     8b8:	000046ab 	.word	0x000046ab

000008bc <check_phdr_in_range.constprop.0>:
check_phdr_in_range():
/home/lubuntu/Dokument/GitHub/STM32-Computer/Firmware/STM32-Computer-Firmware/CA7/optee-os-3.19.0-r2/optee-os-stm32mp-3.19.0-stm32mp-r2/ldelf/ta_elf.c:160
     8bc:	b507      	push	{r0, r1, r2, lr}
/home/lubuntu/Dokument/GitHub/STM32-Computer/Firmware/STM32-Computer-Firmware/CA7/optee-os-3.19.0-r2/optee-os-stm32mp-3.19.0-stm32mp-r2/ldelf/ta_elf.c:165
     8be:	1889      	adds	r1, r1, r2
     8c0:	d20f      	bcs.n	8e2 <check_phdr_in_range.constprop.0+0x26>
/home/lubuntu/Dokument/GitHub/STM32-Computer/Firmware/STM32-Computer-Firmware/CA7/optee-os-3.19.0-r2/optee-os-stm32mp-3.19.0-stm32mp-r2/ldelf/ta_elf.c:173
     8c2:	6883      	ldr	r3, [r0, #8]
     8c4:	6842      	ldr	r2, [r0, #4]
     8c6:	1a9b      	subs	r3, r3, r2
     8c8:	4299      	cmp	r1, r3
     8ca:	d919      	bls.n	900 <check_phdr_in_range.constprop.0+0x44>
/home/lubuntu/Dokument/GitHub/STM32-Computer/Firmware/STM32-Computer-Firmware/CA7/optee-os-3.19.0-r2/optee-os-stm32mp-3.19.0-stm32mp-r2/ldelf/ta_elf.c:174
     8cc:	480f      	ldr	r0, [pc, #60]	@ (90c <check_phdr_in_range.constprop.0+0x50>)
     8ce:	2302      	movs	r3, #2
     8d0:	9301      	str	r3, [sp, #4]
     8d2:	21ae      	movs	r1, #174	@ 0xae
     8d4:	4b0e      	ldr	r3, [pc, #56]	@ (910 <check_phdr_in_range.constprop.0+0x54>)
     8d6:	4478      	add	r0, pc
     8d8:	447b      	add	r3, pc
     8da:	9300      	str	r3, [sp, #0]
     8dc:	2301      	movs	r3, #1
     8de:	461a      	mov	r2, r3
     8e0:	e009      	b.n	8f6 <check_phdr_in_range.constprop.0+0x3a>
/home/lubuntu/Dokument/GitHub/STM32-Computer/Firmware/STM32-Computer-Firmware/CA7/optee-os-3.19.0-r2/optee-os-stm32mp-3.19.0-stm32mp-r2/ldelf/ta_elf.c:166
     8e2:	480c      	ldr	r0, [pc, #48]	@ (914 <check_phdr_in_range.constprop.0+0x58>)
     8e4:	2302      	movs	r3, #2
     8e6:	9301      	str	r3, [sp, #4]
     8e8:	21a6      	movs	r1, #166	@ 0xa6
     8ea:	4b0b      	ldr	r3, [pc, #44]	@ (918 <check_phdr_in_range.constprop.0+0x5c>)
     8ec:	4478      	add	r0, pc
     8ee:	447b      	add	r3, pc
     8f0:	9300      	str	r3, [sp, #0]
     8f2:	2301      	movs	r3, #1
     8f4:	461a      	mov	r2, r3
/home/lubuntu/Dokument/GitHub/STM32-Computer/Firmware/STM32-Computer-Firmware/CA7/optee-os-3.19.0-r2/optee-os-stm32mp-3.19.0-stm32mp-r2/ldelf/ta_elf.c:174
     8f6:	f003 fddf 	bl	44b8 <trace_printf>
     8fa:	4803      	ldr	r0, [pc, #12]	@ (908 <check_phdr_in_range.constprop.0+0x4c>)
     8fc:	f7ff ebbc 	blx	78 <_ldelf_return>
/home/lubuntu/Dokument/GitHub/STM32-Computer/Firmware/STM32-Computer-Firmware/CA7/optee-os-3.19.0-r2/optee-os-stm32mp-3.19.0-stm32mp-r2/ldelf/ta_elf.c:176
     900:	b003      	add	sp, #12
     902:	f85d fb04 	ldr.w	pc, [sp], #4
     906:	bf00      	nop
     908:	ffff0005 	.word	0xffff0005
     90c:	000046f6 	.word	0x000046f6
     910:	00003f0b 	.word	0x00003f0b
     914:	000046e0 	.word	0x000046e0
     918:	00003ed9 	.word	0x00003ed9

0000091c <_assert_trap.constprop.0>:
_assert_trap():
/home/lubuntu/Dokument/GitHub/STM32-Computer/Firmware/STM32-Computer-Firmware/CA7/optee-os-3.19.0-r2/optee-os-stm32mp-3.19.0-stm32mp-r2/lib/libutils/isoc/include/assert.h:15
     91c:	b508      	push	{r3, lr}
     91e:	4613      	mov	r3, r2
/home/lubuntu/Dokument/GitHub/STM32-Computer/Firmware/STM32-Computer-Firmware/CA7/optee-os-3.19.0-r2/optee-os-stm32mp-3.19.0-stm32mp-r2/lib/libutils/isoc/include/assert.h:19
     920:	460a      	mov	r2, r1
     922:	4903      	ldr	r1, [pc, #12]	@ (930 <_assert_trap.constprop.0+0x14>)
     924:	4479      	add	r1, pc
     926:	f002 fb05 	bl	2f34 <_assert_log>
/home/lubuntu/Dokument/GitHub/STM32-Computer/Firmware/STM32-Computer-Firmware/CA7/optee-os-3.19.0-r2/optee-os-stm32mp-3.19.0-stm32mp-r2/lib/libutils/isoc/include/assert.h:20
     92a:	f002 fb17 	bl	2f5c <_assert_break>
     92e:	bf00      	nop
     930:	00003ee0 	.word	0x00003ee0

00000934 <print_seg>:
print_seg():
/home/lubuntu/Dokument/GitHub/STM32-Computer/Firmware/STM32-Computer-Firmware/CA7/optee-os-3.19.0-r2/optee-os-stm32mp-3.19.0-stm32mp-r2/ldelf/ta_elf.c:1325
     934:	e92d 4ff0 	stmdb	sp!, {r4, r5, r6, r7, r8, r9, sl, fp, lr}
     938:	4688      	mov	r8, r1
/home/lubuntu/Dokument/GitHub/STM32-Computer/Firmware/STM32-Computer-Firmware/CA7/optee-os-3.19.0-r2/optee-os-stm32mp-3.19.0-stm32mp-r2/ldelf/ta_elf.c:1329
     93a:	4930      	ldr	r1, [pc, #192]	@ (9fc <print_seg+0xc8>)
/home/lubuntu/Dokument/GitHub/STM32-Computer/Firmware/STM32-Computer-Firmware/CA7/optee-os-3.19.0-r2/optee-os-stm32mp-3.19.0-stm32mp-r2/ldelf/ta_elf.c:1325
     93c:	b08f      	sub	sp, #60	@ 0x3c
/home/lubuntu/Dokument/GitHub/STM32-Computer/Firmware/STM32-Computer-Firmware/CA7/optee-os-3.19.0-r2/optee-os-stm32mp-3.19.0-stm32mp-r2/ldelf/ta_elf.c:1329
     93e:	f10d 0b20 	add.w	fp, sp, #32
/home/lubuntu/Dokument/GitHub/STM32-Computer/Firmware/STM32-Computer-Firmware/CA7/optee-os-3.19.0-r2/optee-os-stm32mp-3.19.0-stm32mp-r2/ldelf/ta_elf.c:1325
     942:	461e      	mov	r6, r3
/home/lubuntu/Dokument/GitHub/STM32-Computer/Firmware/STM32-Computer-Firmware/CA7/optee-os-3.19.0-r2/optee-os-stm32mp-3.19.0-stm32mp-r2/ldelf/ta_elf.c:1329
     944:	4479      	add	r1, pc
/home/lubuntu/Dokument/GitHub/STM32-Computer/Firmware/STM32-Computer-Firmware/CA7/optee-os-3.19.0-r2/optee-os-stm32mp-3.19.0-stm32mp-r2/ldelf/ta_elf.c:1328
     946:	2300      	movs	r3, #0
/home/lubuntu/Dokument/GitHub/STM32-Computer/Firmware/STM32-Computer-Firmware/CA7/optee-os-3.19.0-r2/optee-os-stm32mp-3.19.0-stm32mp-r2/ldelf/ta_elf.c:1325
     948:	f8dd a060 	ldr.w	sl, [sp, #96]	@ 0x60
     94c:	4607      	mov	r7, r0
     94e:	9c1b      	ldr	r4, [sp, #108]	@ 0x6c
     950:	4691      	mov	r9, r2
/home/lubuntu/Dokument/GitHub/STM32-Computer/Firmware/STM32-Computer-Firmware/CA7/optee-os-3.19.0-r2/optee-os-stm32mp-3.19.0-stm32mp-r2/ldelf/ta_elf.c:1328
     952:	930c      	str	r3, [sp, #48]	@ 0x30
/home/lubuntu/Dokument/GitHub/STM32-Computer/Firmware/STM32-Computer-Firmware/CA7/optee-os-3.19.0-r2/optee-os-stm32mp-3.19.0-stm32mp-r2/ldelf/ta_elf.c:1329
     954:	2205      	movs	r2, #5
/home/lubuntu/Dokument/GitHub/STM32-Computer/Firmware/STM32-Computer-Firmware/CA7/optee-os-3.19.0-r2/optee-os-stm32mp-3.19.0-stm32mp-r2/ldelf/ta_elf.c:1328
     956:	f8ad 3034 	strh.w	r3, [sp, #52]	@ 0x34
/home/lubuntu/Dokument/GitHub/STM32-Computer/Firmware/STM32-Computer-Firmware/CA7/optee-os-3.19.0-r2/optee-os-stm32mp-3.19.0-stm32mp-r2/ldelf/ta_elf.c:1329
     95a:	4658      	mov	r0, fp
/home/lubuntu/Dokument/GitHub/STM32-Computer/Firmware/STM32-Computer-Firmware/CA7/optee-os-3.19.0-r2/optee-os-stm32mp-3.19.0-stm32mp-r2/ldelf/ta_elf.c:1328
     95c:	e9cd 330a 	strd	r3, r3, [sp, #40]	@ 0x28
     960:	ad0a      	add	r5, sp, #40	@ 0x28
/home/lubuntu/Dokument/GitHub/STM32-Computer/Firmware/STM32-Computer-Firmware/CA7/optee-os-3.19.0-r2/optee-os-stm32mp-3.19.0-stm32mp-r2/ldelf/ta_elf.c:1329
     962:	f002 feb7 	bl	36d4 <memcpy>
/home/lubuntu/Dokument/GitHub/STM32-Computer/Firmware/STM32-Computer-Firmware/CA7/optee-os-3.19.0-r2/optee-os-stm32mp-3.19.0-stm32mp-r2/ldelf/ta_elf.c:1331
     966:	2e00      	cmp	r6, #0
     968:	db2f      	blt.n	9ca <print_seg+0x96>
/home/lubuntu/Dokument/GitHub/STM32-Computer/Firmware/STM32-Computer-Firmware/CA7/optee-os-3.19.0-r2/optee-os-stm32mp-3.19.0-stm32mp-r2/ldelf/ta_elf.c:1332
     96a:	4a25      	ldr	r2, [pc, #148]	@ (a00 <print_seg+0xcc>)
     96c:	4633      	mov	r3, r6
     96e:	210e      	movs	r1, #14
     970:	4628      	mov	r0, r5
     972:	447a      	add	r2, pc
     974:	f003 fcc1 	bl	42fa <snprintf>
/home/lubuntu/Dokument/GitHub/STM32-Computer/Firmware/STM32-Computer-Firmware/CA7/optee-os-3.19.0-r2/optee-os-stm32mp-3.19.0-stm32mp-r2/ldelf/ta_elf.c:1349
     978:	07e0      	lsls	r0, r4, #31
/home/lubuntu/Dokument/GitHub/STM32-Computer/Firmware/STM32-Computer-Firmware/CA7/optee-os-3.19.0-r2/optee-os-stm32mp-3.19.0-stm32mp-r2/ldelf/ta_elf.c:1358
     97a:	4638      	mov	r0, r7
     97c:	9506      	str	r5, [sp, #24]
/home/lubuntu/Dokument/GitHub/STM32-Computer/Firmware/STM32-Computer-Firmware/CA7/optee-os-3.19.0-r2/optee-os-stm32mp-3.19.0-stm32mp-r2/ldelf/ta_elf.c:1350
     97e:	bf44      	itt	mi
     980:	2372      	movmi	r3, #114	@ 0x72
     982:	f88d 3020 	strbmi.w	r3, [sp, #32]
/home/lubuntu/Dokument/GitHub/STM32-Computer/Firmware/STM32-Computer-Firmware/CA7/optee-os-3.19.0-r2/optee-os-stm32mp-3.19.0-stm32mp-r2/ldelf/ta_elf.c:1351
     986:	07a1      	lsls	r1, r4, #30
/home/lubuntu/Dokument/GitHub/STM32-Computer/Firmware/STM32-Computer-Firmware/CA7/optee-os-3.19.0-r2/optee-os-stm32mp-3.19.0-stm32mp-r2/ldelf/ta_elf.c:1358
     988:	4641      	mov	r1, r8
     98a:	f8cd b014 	str.w	fp, [sp, #20]
/home/lubuntu/Dokument/GitHub/STM32-Computer/Firmware/STM32-Computer-Firmware/CA7/optee-os-3.19.0-r2/optee-os-stm32mp-3.19.0-stm32mp-r2/ldelf/ta_elf.c:1352
     98e:	bf44      	itt	mi
     990:	2377      	movmi	r3, #119	@ 0x77
     992:	f88d 3021 	strbmi.w	r3, [sp, #33]	@ 0x21
/home/lubuntu/Dokument/GitHub/STM32-Computer/Firmware/STM32-Computer-Firmware/CA7/optee-os-3.19.0-r2/optee-os-stm32mp-3.19.0-stm32mp-r2/ldelf/ta_elf.c:1353
     996:	0762      	lsls	r2, r4, #29
/home/lubuntu/Dokument/GitHub/STM32-Computer/Firmware/STM32-Computer-Firmware/CA7/optee-os-3.19.0-r2/optee-os-stm32mp-3.19.0-stm32mp-r2/ldelf/ta_elf.c:1358
     998:	4a1a      	ldr	r2, [pc, #104]	@ (a04 <print_seg+0xd0>)
/home/lubuntu/Dokument/GitHub/STM32-Computer/Firmware/STM32-Computer-Firmware/CA7/optee-os-3.19.0-r2/optee-os-stm32mp-3.19.0-stm32mp-r2/ldelf/ta_elf.c:1354
     99a:	bf44      	itt	mi
     99c:	2378      	movmi	r3, #120	@ 0x78
     99e:	f88d 3022 	strbmi.w	r3, [sp, #34]	@ 0x22
/home/lubuntu/Dokument/GitHub/STM32-Computer/Firmware/STM32-Computer-Firmware/CA7/optee-os-3.19.0-r2/optee-os-stm32mp-3.19.0-stm32mp-r2/ldelf/ta_elf.c:1355
     9a2:	0723      	lsls	r3, r4, #28
/home/lubuntu/Dokument/GitHub/STM32-Computer/Firmware/STM32-Computer-Firmware/CA7/optee-os-3.19.0-r2/optee-os-stm32mp-3.19.0-stm32mp-r2/ldelf/ta_elf.c:1358
     9a4:	447a      	add	r2, pc
/home/lubuntu/Dokument/GitHub/STM32-Computer/Firmware/STM32-Computer-Firmware/CA7/optee-os-3.19.0-r2/optee-os-stm32mp-3.19.0-stm32mp-r2/ldelf/ta_elf.c:1356
     9a6:	bf44      	itt	mi
     9a8:	2373      	movmi	r3, #115	@ 0x73
     9aa:	f88d 3023 	strbmi.w	r3, [sp, #35]	@ 0x23
/home/lubuntu/Dokument/GitHub/STM32-Computer/Firmware/STM32-Computer-Firmware/CA7/optee-os-3.19.0-r2/optee-os-stm32mp-3.19.0-stm32mp-r2/ldelf/ta_elf.c:1358
     9ae:	9b1a      	ldr	r3, [sp, #104]	@ 0x68
     9b0:	9304      	str	r3, [sp, #16]
     9b2:	9b19      	ldr	r3, [sp, #100]	@ 0x64
     9b4:	9303      	str	r3, [sp, #12]
     9b6:	2308      	movs	r3, #8
     9b8:	9302      	str	r3, [sp, #8]
     9ba:	e9cd 3a00 	strd	r3, sl, [sp]
     9be:	464b      	mov	r3, r9
     9c0:	f003 fb47 	bl	4052 <print_wrapper>
/home/lubuntu/Dokument/GitHub/STM32-Computer/Firmware/STM32-Computer-Firmware/CA7/optee-os-3.19.0-r2/optee-os-stm32mp-3.19.0-stm32mp-r2/ldelf/ta_elf.c:1361
     9c4:	b00f      	add	sp, #60	@ 0x3c
     9c6:	e8bd 8ff0 	ldmia.w	sp!, {r4, r5, r6, r7, r8, r9, sl, fp, pc}
/home/lubuntu/Dokument/GitHub/STM32-Computer/Firmware/STM32-Computer-Firmware/CA7/optee-os-3.19.0-r2/optee-os-stm32mp-3.19.0-stm32mp-r2/ldelf/ta_elf.c:1335
     9ca:	06e3      	lsls	r3, r4, #27
     9cc:	d504      	bpl.n	9d8 <print_seg+0xa4>
/home/lubuntu/Dokument/GitHub/STM32-Computer/Firmware/STM32-Computer-Firmware/CA7/optee-os-3.19.0-r2/optee-os-stm32mp-3.19.0-stm32mp-r2/ldelf/ta_elf.c:1336
     9ce:	490e      	ldr	r1, [pc, #56]	@ (a08 <print_seg+0xd4>)
     9d0:	4628      	mov	r0, r5
     9d2:	4479      	add	r1, pc
     9d4:	f003 fcc9 	bl	436a <strcpy>
/home/lubuntu/Dokument/GitHub/STM32-Computer/Firmware/STM32-Computer-Firmware/CA7/optee-os-3.19.0-r2/optee-os-stm32mp-3.19.0-stm32mp-r2/ldelf/ta_elf.c:1339
     9d8:	0626      	lsls	r6, r4, #24
     9da:	d504      	bpl.n	9e6 <print_seg+0xb2>
/home/lubuntu/Dokument/GitHub/STM32-Computer/Firmware/STM32-Computer-Firmware/CA7/optee-os-3.19.0-r2/optee-os-stm32mp-3.19.0-stm32mp-r2/ldelf/ta_elf.c:1340
     9dc:	490b      	ldr	r1, [pc, #44]	@ (a0c <print_seg+0xd8>)
     9de:	4628      	mov	r0, r5
     9e0:	4479      	add	r1, pc
     9e2:	f003 fcc2 	bl	436a <strcpy>
/home/lubuntu/Dokument/GitHub/STM32-Computer/Firmware/STM32-Computer-Firmware/CA7/optee-os-3.19.0-r2/optee-os-stm32mp-3.19.0-stm32mp-r2/ldelf/ta_elf.c:1343
     9e6:	4b0a      	ldr	r3, [pc, #40]	@ (a10 <print_seg+0xdc>)
     9e8:	447b      	add	r3, pc
     9ea:	681b      	ldr	r3, [r3, #0]
     9ec:	4553      	cmp	r3, sl
     9ee:	d1c3      	bne.n	978 <print_seg+0x44>
/home/lubuntu/Dokument/GitHub/STM32-Computer/Firmware/STM32-Computer-Firmware/CA7/optee-os-3.19.0-r2/optee-os-stm32mp-3.19.0-stm32mp-r2/ldelf/ta_elf.c:1344
     9f0:	4908      	ldr	r1, [pc, #32]	@ (a14 <print_seg+0xe0>)
     9f2:	4628      	mov	r0, r5
     9f4:	4479      	add	r1, pc
     9f6:	f003 fcb8 	bl	436a <strcpy>
/home/lubuntu/Dokument/GitHub/STM32-Computer/Firmware/STM32-Computer-Firmware/CA7/optee-os-3.19.0-r2/optee-os-stm32mp-3.19.0-stm32mp-r2/ldelf/ta_elf.c:1345
     9fa:	e7bd      	b.n	978 <print_seg+0x44>
     9fc:	00003f2c 	.word	0x00003f2c
     a00:	00003ea1 	.word	0x00003ea1
     a04:	00003e90 	.word	0x00003e90
     a08:	00003e47 	.word	0x00003e47
     a0c:	00003e42 	.word	0x00003e42
     a10:	00005728 	.word	0x00005728
     a14:	00003e37 	.word	0x00003e37

00000a18 <copy_section_headers>:
copy_section_headers():
/home/lubuntu/Dokument/GitHub/STM32-Computer/Firmware/STM32-Computer-Firmware/CA7/optee-os-3.19.0-r2/optee-os-stm32mp-3.19.0-stm32mp-r2/ldelf/ta_elf.c:1062
     a18:	e92d 41f3 	stmdb	sp!, {r0, r1, r4, r5, r6, r7, r8, lr}
     a1c:	4604      	mov	r4, r0
/home/lubuntu/Dokument/GitHub/STM32-Computer/Firmware/STM32-Computer-Firmware/CA7/optee-os-3.19.0-r2/optee-os-stm32mp-3.19.0-stm32mp-r2/ldelf/ta_elf.c:1067
     a1e:	6a43      	ldr	r3, [r0, #36]	@ 0x24
     a20:	6ac6      	ldr	r6, [r0, #44]	@ 0x2c
     a22:	fba3 6306 	umull	r6, r3, r3, r6
     a26:	1e1d      	subs	r5, r3, #0
     a28:	bf18      	it	ne
     a2a:	2501      	movne	r5, #1
     a2c:	b16b      	cbz	r3, a4a <copy_section_headers+0x32>
/home/lubuntu/Dokument/GitHub/STM32-Computer/Firmware/STM32-Computer-Firmware/CA7/optee-os-3.19.0-r2/optee-os-stm32mp-3.19.0-stm32mp-r2/ldelf/ta_elf.c:1068
     a2e:	4b2d      	ldr	r3, [pc, #180]	@ (ae4 <copy_section_headers+0xcc>)
     a30:	f240 412c 	movw	r1, #1068	@ 0x42c
     a34:	482c      	ldr	r0, [pc, #176]	@ (ae8 <copy_section_headers+0xd0>)
     a36:	447b      	add	r3, pc
     a38:	9300      	str	r3, [sp, #0]
     a3a:	2301      	movs	r3, #1
     a3c:	4478      	add	r0, pc
     a3e:	461a      	mov	r2, r3
     a40:	f003 fd3a 	bl	44b8 <trace_printf>
     a44:	4825      	ldr	r0, [pc, #148]	@ (adc <copy_section_headers+0xc4>)
/home/lubuntu/Dokument/GitHub/STM32-Computer/Firmware/STM32-Computer-Firmware/CA7/optee-os-3.19.0-r2/optee-os-stm32mp-3.19.0-stm32mp-r2/ldelf/ta_elf.c:1072
     a46:	f7ff eb18 	blx	78 <_ldelf_return>
/home/lubuntu/Dokument/GitHub/STM32-Computer/Firmware/STM32-Computer-Firmware/CA7/optee-os-3.19.0-r2/optee-os-stm32mp-3.19.0-stm32mp-r2/ldelf/ta_elf.c:1070
     a4a:	4630      	mov	r0, r6
     a4c:	f002 fe0a 	bl	3664 <malloc>
     a50:	6360      	str	r0, [r4, #52]	@ 0x34
     a52:	4607      	mov	r7, r0
/home/lubuntu/Dokument/GitHub/STM32-Computer/Firmware/STM32-Computer-Firmware/CA7/optee-os-3.19.0-r2/optee-os-stm32mp-3.19.0-stm32mp-r2/ldelf/ta_elf.c:1071
     a54:	b960      	cbnz	r0, a70 <copy_section_headers+0x58>
/home/lubuntu/Dokument/GitHub/STM32-Computer/Firmware/STM32-Computer-Firmware/CA7/optee-os-3.19.0-r2/optee-os-stm32mp-3.19.0-stm32mp-r2/ldelf/ta_elf.c:1072
     a56:	4b25      	ldr	r3, [pc, #148]	@ (aec <copy_section_headers+0xd4>)
     a58:	f44f 6186 	mov.w	r1, #1072	@ 0x430
     a5c:	4824      	ldr	r0, [pc, #144]	@ (af0 <copy_section_headers+0xd8>)
     a5e:	447b      	add	r3, pc
     a60:	9300      	str	r3, [sp, #0]
     a62:	2301      	movs	r3, #1
     a64:	4478      	add	r0, pc
     a66:	461a      	mov	r2, r3
     a68:	f003 fd26 	bl	44b8 <trace_printf>
     a6c:	481c      	ldr	r0, [pc, #112]	@ (ae0 <copy_section_headers+0xc8>)
     a6e:	e7ea      	b.n	a46 <copy_section_headers+0x2e>
/home/lubuntu/Dokument/GitHub/STM32-Computer/Firmware/STM32-Computer-Firmware/CA7/optee-os-3.19.0-r2/optee-os-stm32mp-3.19.0-stm32mp-r2/ldelf/ta_elf.c:1079
     a70:	f8d4 801c 	ldr.w	r8, [r4, #28]
     a74:	f5b8 5f80 	cmp.w	r8, #4096	@ 0x1000
     a78:	d213      	bcs.n	aa2 <copy_section_headers+0x8a>
/home/lubuntu/Dokument/GitHub/STM32-Computer/Firmware/STM32-Computer-Firmware/CA7/optee-os-3.19.0-r2/optee-os-stm32mp-3.19.0-stm32mp-r2/ldelf/ta_elf.c:1080
     a7a:	7823      	ldrb	r3, [r4, #0]
     a7c:	b13b      	cbz	r3, a8e <copy_section_headers+0x76>
/home/lubuntu/Dokument/GitHub/STM32-Computer/Firmware/STM32-Computer-Firmware/CA7/optee-os-3.19.0-r2/optee-os-stm32mp-3.19.0-stm32mp-r2/ldelf/ta_elf.c:1080 (discriminator 1)
     a7e:	4a1d      	ldr	r2, [pc, #116]	@ (af4 <copy_section_headers+0xdc>)
     a80:	f44f 6187 	mov.w	r1, #1080	@ 0x438
     a84:	481c      	ldr	r0, [pc, #112]	@ (af8 <copy_section_headers+0xe0>)
     a86:	447a      	add	r2, pc
     a88:	4478      	add	r0, pc
     a8a:	f7ff ff47 	bl	91c <_assert_trap.constprop.0>
/home/lubuntu/Dokument/GitHub/STM32-Computer/Firmware/STM32-Computer-Firmware/CA7/optee-os-3.19.0-r2/optee-os-stm32mp-3.19.0-stm32mp-r2/ldelf/ta_elf.c:1082
     a8e:	6861      	ldr	r1, [r4, #4]
/home/lubuntu/Dokument/GitHub/STM32-Computer/Firmware/STM32-Computer-Firmware/CA7/optee-os-3.19.0-r2/optee-os-stm32mp-3.19.0-stm32mp-r2/ldelf/ta_elf.c:1081
     a90:	f5c8 5580 	rsb	r5, r8, #4096	@ 0x1000
     a94:	42b5      	cmp	r5, r6
/home/lubuntu/Dokument/GitHub/STM32-Computer/Firmware/STM32-Computer-Firmware/CA7/optee-os-3.19.0-r2/optee-os-stm32mp-3.19.0-stm32mp-r2/ldelf/ta_elf.c:1082
     a96:	4441      	add	r1, r8
/home/lubuntu/Dokument/GitHub/STM32-Computer/Firmware/STM32-Computer-Firmware/CA7/optee-os-3.19.0-r2/optee-os-stm32mp-3.19.0-stm32mp-r2/ldelf/ta_elf.c:1081
     a98:	bf28      	it	cs
     a9a:	4635      	movcs	r5, r6
/home/lubuntu/Dokument/GitHub/STM32-Computer/Firmware/STM32-Computer-Firmware/CA7/optee-os-3.19.0-r2/optee-os-stm32mp-3.19.0-stm32mp-r2/ldelf/ta_elf.c:1082
     a9c:	462a      	mov	r2, r5
     a9e:	f002 fe19 	bl	36d4 <memcpy>
/home/lubuntu/Dokument/GitHub/STM32-Computer/Firmware/STM32-Computer-Firmware/CA7/optee-os-3.19.0-r2/optee-os-stm32mp-3.19.0-stm32mp-r2/ldelf/ta_elf.c:1086
     aa2:	42ae      	cmp	r6, r5
     aa4:	d916      	bls.n	ad4 <copy_section_headers+0xbc>
/home/lubuntu/Dokument/GitHub/STM32-Computer/Firmware/STM32-Computer-Firmware/CA7/optee-os-3.19.0-r2/optee-os-stm32mp-3.19.0-stm32mp-r2/ldelf/ta_elf.c:1087
     aa6:	f8d4 2084 	ldr.w	r2, [r4, #132]	@ 0x84
     aaa:	eb08 0305 	add.w	r3, r8, r5
     aae:	1b71      	subs	r1, r6, r5
     ab0:	1978      	adds	r0, r7, r5
     ab2:	f003 fac0 	bl	4036 <sys_copy_from_ta_bin>
/home/lubuntu/Dokument/GitHub/STM32-Computer/Firmware/STM32-Computer-Firmware/CA7/optee-os-3.19.0-r2/optee-os-stm32mp-3.19.0-stm32mp-r2/ldelf/ta_elf.c:1090
     ab6:	4604      	mov	r4, r0
     ab8:	b160      	cbz	r0, ad4 <copy_section_headers+0xbc>
/home/lubuntu/Dokument/GitHub/STM32-Computer/Firmware/STM32-Computer-Firmware/CA7/optee-os-3.19.0-r2/optee-os-stm32mp-3.19.0-stm32mp-r2/ldelf/ta_elf.c:1091
     aba:	4b10      	ldr	r3, [pc, #64]	@ (afc <copy_section_headers+0xe4>)
     abc:	f240 4143 	movw	r1, #1091	@ 0x443
     ac0:	480f      	ldr	r0, [pc, #60]	@ (b00 <copy_section_headers+0xe8>)
     ac2:	447b      	add	r3, pc
     ac4:	9300      	str	r3, [sp, #0]
     ac6:	2301      	movs	r3, #1
     ac8:	4478      	add	r0, pc
     aca:	461a      	mov	r2, r3
     acc:	f003 fcf4 	bl	44b8 <trace_printf>
     ad0:	4620      	mov	r0, r4
     ad2:	e7b8      	b.n	a46 <copy_section_headers+0x2e>
/home/lubuntu/Dokument/GitHub/STM32-Computer/Firmware/STM32-Computer-Firmware/CA7/optee-os-3.19.0-r2/optee-os-stm32mp-3.19.0-stm32mp-r2/ldelf/ta_elf.c:1093
     ad4:	b002      	add	sp, #8
     ad6:	e8bd 81f0 	ldmia.w	sp!, {r4, r5, r6, r7, r8, pc}
     ada:	bf00      	nop
     adc:	ffff0005 	.word	0xffff0005
     ae0:	ffff000c 	.word	0xffff000c
     ae4:	00003e3f 	.word	0x00003e3f
     ae8:	0000456f 	.word	0x0000456f
     aec:	00003e35 	.word	0x00003e35
     af0:	00004547 	.word	0x00004547
     af4:	00004525 	.word	0x00004525
     af8:	00003e12 	.word	0x00003e12
     afc:	00003de6 	.word	0x00003de6
     b00:	000044e3 	.word	0x000044e3

00000b04 <populate_segments>:
populate_segments():
/home/lubuntu/Dokument/GitHub/STM32-Computer/Firmware/STM32-Computer-Firmware/CA7/optee-os-3.19.0-r2/optee-os-stm32mp-3.19.0-stm32mp-r2/ldelf/ta_elf.c:748
     b04:	e92d 4ff0 	stmdb	sp!, {r4, r5, r6, r7, r8, r9, sl, fp, lr}
     b08:	b08b      	sub	sp, #44	@ 0x2c
/home/lubuntu/Dokument/GitHub/STM32-Computer/Firmware/STM32-Computer-Firmware/CA7/optee-os-3.19.0-r2/optee-os-stm32mp-3.19.0-stm32mp-r2/ldelf/ta_elf.c:751
     b0a:	2300      	movs	r3, #0
/home/lubuntu/Dokument/GitHub/STM32-Computer/Firmware/STM32-Computer-Firmware/CA7/optee-os-3.19.0-r2/optee-os-stm32mp-3.19.0-stm32mp-r2/ldelf/ta_elf.c:748
     b0c:	4605      	mov	r5, r0
/home/lubuntu/Dokument/GitHub/STM32-Computer/Firmware/STM32-Computer-Firmware/CA7/optee-os-3.19.0-r2/optee-os-stm32mp-3.19.0-stm32mp-r2/ldelf/ta_elf.c:751
     b0e:	9309      	str	r3, [sp, #36]	@ 0x24
/home/lubuntu/Dokument/GitHub/STM32-Computer/Firmware/STM32-Computer-Firmware/CA7/optee-os-3.19.0-r2/optee-os-stm32mp-3.19.0-stm32mp-r2/ldelf/ta_elf.c:754
     b10:	7883      	ldrb	r3, [r0, #2]
     b12:	b13b      	cbz	r3, b24 <populate_segments+0x20>
/home/lubuntu/Dokument/GitHub/STM32-Computer/Firmware/STM32-Computer-Firmware/CA7/optee-os-3.19.0-r2/optee-os-stm32mp-3.19.0-stm32mp-r2/ldelf/ta_elf.c:754 (discriminator 1)
     b14:	4aa8      	ldr	r2, [pc, #672]	@ (db8 <populate_segments+0x2b4>)
     b16:	f240 21f2 	movw	r1, #754	@ 0x2f2
     b1a:	48a8      	ldr	r0, [pc, #672]	@ (dbc <populate_segments+0x2b8>)
     b1c:	447a      	add	r2, pc
     b1e:	4478      	add	r0, pc
/home/lubuntu/Dokument/GitHub/STM32-Computer/Firmware/STM32-Computer-Firmware/CA7/optee-os-3.19.0-r2/optee-os-stm32mp-3.19.0-stm32mp-r2/ldelf/ta_elf.c:764 (discriminator 1)
     b20:	f7ff fefc 	bl	91c <_assert_trap.constprop.0>
/home/lubuntu/Dokument/GitHub/STM32-Computer/Firmware/STM32-Computer-Firmware/CA7/optee-os-3.19.0-r2/optee-os-stm32mp-3.19.0-stm32mp-r2/ldelf/ta_elf.c:755
     b24:	6d87      	ldr	r7, [r0, #88]	@ 0x58
roundup():
/home/lubuntu/Dokument/GitHub/STM32-Computer/Firmware/STM32-Computer-Firmware/CA7/optee-os-3.19.0-r2/optee-os-stm32mp-3.19.0-stm32mp-r2/ldelf/ta_elf.c:492
     b26:	f8df 8280 	ldr.w	r8, [pc, #640]	@ da8 <populate_segments+0x2a4>
populate_segments():
/home/lubuntu/Dokument/GitHub/STM32-Computer/Firmware/STM32-Computer-Firmware/CA7/optee-os-3.19.0-r2/optee-os-stm32mp-3.19.0-stm32mp-r2/ldelf/ta_elf.c:755 (discriminator 1)
     b2a:	b917      	cbnz	r7, b32 <populate_segments+0x2e>
/home/lubuntu/Dokument/GitHub/STM32-Computer/Firmware/STM32-Computer-Firmware/CA7/optee-os-3.19.0-r2/optee-os-stm32mp-3.19.0-stm32mp-r2/ldelf/ta_elf.c:877
     b2c:	b00b      	add	sp, #44	@ 0x2c
     b2e:	e8bd 8ff0 	ldmia.w	sp!, {r4, r5, r6, r7, r8, r9, sl, fp, pc}
/home/lubuntu/Dokument/GitHub/STM32-Computer/Firmware/STM32-Computer-Firmware/CA7/optee-os-3.19.0-r2/optee-os-stm32mp-3.19.0-stm32mp-r2/ldelf/ta_elf.c:756
     b32:	6deb      	ldr	r3, [r5, #92]	@ 0x5c
/home/lubuntu/Dokument/GitHub/STM32-Computer/Firmware/STM32-Computer-Firmware/CA7/optee-os-3.19.0-r2/optee-os-stm32mp-3.19.0-stm32mp-r2/ldelf/ta_elf.c:758
     b34:	687a      	ldr	r2, [r7, #4]
/home/lubuntu/Dokument/GitHub/STM32-Computer/Firmware/STM32-Computer-Firmware/CA7/optee-os-3.19.0-r2/optee-os-stm32mp-3.19.0-stm32mp-r2/ldelf/ta_elf.c:756
     b36:	685b      	ldr	r3, [r3, #4]
/home/lubuntu/Dokument/GitHub/STM32-Computer/Firmware/STM32-Computer-Firmware/CA7/optee-os-3.19.0-r2/optee-os-stm32mp-3.19.0-stm32mp-r2/ldelf/ta_elf.c:758
     b38:	68fc      	ldr	r4, [r7, #12]
/home/lubuntu/Dokument/GitHub/STM32-Computer/Firmware/STM32-Computer-Firmware/CA7/optee-os-3.19.0-r2/optee-os-stm32mp-3.19.0-stm32mp-r2/ldelf/ta_elf.c:756
     b3a:	681b      	ldr	r3, [r3, #0]
/home/lubuntu/Dokument/GitHub/STM32-Computer/Firmware/STM32-Computer-Firmware/CA7/optee-os-3.19.0-r2/optee-os-stm32mp-3.19.0-stm32mp-r2/ldelf/ta_elf.c:757
     b3c:	685e      	ldr	r6, [r3, #4]
     b3e:	68db      	ldr	r3, [r3, #12]
     b40:	441e      	add	r6, r3
/home/lubuntu/Dokument/GitHub/STM32-Computer/Firmware/STM32-Computer-Firmware/CA7/optee-os-3.19.0-r2/optee-os-stm32mp-3.19.0-stm32mp-r2/ldelf/ta_elf.c:760
     b42:	7e3b      	ldrb	r3, [r7, #24]
roundup():
/home/lubuntu/Dokument/GitHub/STM32-Computer/Firmware/STM32-Computer-Firmware/CA7/optee-os-3.19.0-r2/optee-os-stm32mp-3.19.0-stm32mp-r2/ldelf/ta_elf.c:492
     b44:	f606 76ff 	addw	r6, r6, #4095	@ 0xfff
     b48:	1ab6      	subs	r6, r6, r2
     b4a:	1b36      	subs	r6, r6, r4
     b4c:	ea06 0608 	and.w	r6, r6, r8
populate_segments():
/home/lubuntu/Dokument/GitHub/STM32-Computer/Firmware/STM32-Computer-Firmware/CA7/optee-os-3.19.0-r2/optee-os-stm32mp-3.19.0-stm32mp-r2/ldelf/ta_elf.c:760
     b50:	2b00      	cmp	r3, #0
     b52:	d071      	beq.n	c38 <populate_segments+0x134>
/home/lubuntu/Dokument/GitHub/STM32-Computer/Firmware/STM32-Computer-Firmware/CA7/optee-os-3.19.0-r2/optee-os-stm32mp-3.19.0-stm32mp-r2/ldelf/ta_elf.c:761
     b54:	4414      	add	r4, r2
rounddown():
/home/lubuntu/Dokument/GitHub/STM32-Computer/Firmware/STM32-Computer-Firmware/CA7/optee-os-3.19.0-r2/optee-os-stm32mp-3.19.0-stm32mp-r2/ldelf/ta_elf.c:497
     b56:	ea02 0308 	and.w	r3, r2, r8
roundup():
/home/lubuntu/Dokument/GitHub/STM32-Computer/Firmware/STM32-Computer-Firmware/CA7/optee-os-3.19.0-r2/optee-os-stm32mp-3.19.0-stm32mp-r2/ldelf/ta_elf.c:492
     b5a:	f604 74ff 	addw	r4, r4, #4095	@ 0xfff
     b5e:	ea04 0408 	and.w	r4, r4, r8
populate_segments():
/home/lubuntu/Dokument/GitHub/STM32-Computer/Firmware/STM32-Computer-Firmware/CA7/optee-os-3.19.0-r2/optee-os-stm32mp-3.19.0-stm32mp-r2/ldelf/ta_elf.c:761
     b62:	1ae4      	subs	r4, r4, r3
/home/lubuntu/Dokument/GitHub/STM32-Computer/Firmware/STM32-Computer-Firmware/CA7/optee-os-3.19.0-r2/optee-os-stm32mp-3.19.0-stm32mp-r2/ldelf/ta_elf.c:764
     b64:	686b      	ldr	r3, [r5, #4]
     b66:	b933      	cbnz	r3, b76 <populate_segments+0x72>
/home/lubuntu/Dokument/GitHub/STM32-Computer/Firmware/STM32-Computer-Firmware/CA7/optee-os-3.19.0-r2/optee-os-stm32mp-3.19.0-stm32mp-r2/ldelf/ta_elf.c:764 (discriminator 1)
     b68:	4a95      	ldr	r2, [pc, #596]	@ (dc0 <populate_segments+0x2bc>)
     b6a:	f44f 713f 	mov.w	r1, #764	@ 0x2fc
     b6e:	4895      	ldr	r0, [pc, #596]	@ (dc4 <populate_segments+0x2c0>)
     b70:	447a      	add	r2, pc
     b72:	4478      	add	r0, pc
     b74:	e7d4      	b.n	b20 <populate_segments+0x1c>
/home/lubuntu/Dokument/GitHub/STM32-Computer/Firmware/STM32-Computer-Firmware/CA7/optee-os-3.19.0-r2/optee-os-stm32mp-3.19.0-stm32mp-r2/ldelf/ta_elf.c:765
     b76:	4413      	add	r3, r2
/home/lubuntu/Dokument/GitHub/STM32-Computer/Firmware/STM32-Computer-Firmware/CA7/optee-os-3.19.0-r2/optee-os-stm32mp-3.19.0-stm32mp-r2/ldelf/ta_elf.c:766
     b78:	68aa      	ldr	r2, [r5, #8]
rounddown():
/home/lubuntu/Dokument/GitHub/STM32-Computer/Firmware/STM32-Computer-Firmware/CA7/optee-os-3.19.0-r2/optee-os-stm32mp-3.19.0-stm32mp-r2/ldelf/ta_elf.c:497
     b7a:	ea03 0308 	and.w	r3, r3, r8
populate_segments():
/home/lubuntu/Dokument/GitHub/STM32-Computer/Firmware/STM32-Computer-Firmware/CA7/optee-os-3.19.0-r2/optee-os-stm32mp-3.19.0-stm32mp-r2/ldelf/ta_elf.c:766
     b7e:	429a      	cmp	r2, r3
/home/lubuntu/Dokument/GitHub/STM32-Computer/Firmware/STM32-Computer-Firmware/CA7/optee-os-3.19.0-r2/optee-os-stm32mp-3.19.0-stm32mp-r2/ldelf/ta_elf.c:765
     b80:	9309      	str	r3, [sp, #36]	@ 0x24
/home/lubuntu/Dokument/GitHub/STM32-Computer/Firmware/STM32-Computer-Firmware/CA7/optee-os-3.19.0-r2/optee-os-stm32mp-3.19.0-stm32mp-r2/ldelf/ta_elf.c:766
     b82:	d906      	bls.n	b92 <populate_segments+0x8e>
/home/lubuntu/Dokument/GitHub/STM32-Computer/Firmware/STM32-Computer-Firmware/CA7/optee-os-3.19.0-r2/optee-os-stm32mp-3.19.0-stm32mp-r2/ldelf/ta_elf.c:766 (discriminator 1)
     b84:	4a90      	ldr	r2, [pc, #576]	@ (dc8 <populate_segments+0x2c4>)
     b86:	f240 21fe 	movw	r1, #766	@ 0x2fe
     b8a:	4890      	ldr	r0, [pc, #576]	@ (dcc <populate_segments+0x2c8>)
     b8c:	447a      	add	r2, pc
     b8e:	4478      	add	r0, pc
     b90:	e7c6      	b.n	b20 <populate_segments+0x1c>
/home/lubuntu/Dokument/GitHub/STM32-Computer/Firmware/STM32-Computer-Firmware/CA7/optee-os-3.19.0-r2/optee-os-stm32mp-3.19.0-stm32mp-r2/ldelf/ta_elf.c:767
     b92:	9600      	str	r6, [sp, #0]
     b94:	2300      	movs	r3, #0
     b96:	aa09      	add	r2, sp, #36	@ 0x24
     b98:	4619      	mov	r1, r3
     b9a:	4620      	mov	r0, r4
     b9c:	f003 fa2e 	bl	3ffc <sys_map_zi>
/home/lubuntu/Dokument/GitHub/STM32-Computer/Firmware/STM32-Computer-Firmware/CA7/optee-os-3.19.0-r2/optee-os-stm32mp-3.19.0-stm32mp-r2/ldelf/ta_elf.c:768
     ba0:	4606      	mov	r6, r0
     ba2:	b160      	cbz	r0, bbe <populate_segments+0xba>
/home/lubuntu/Dokument/GitHub/STM32-Computer/Firmware/STM32-Computer-Firmware/CA7/optee-os-3.19.0-r2/optee-os-stm32mp-3.19.0-stm32mp-r2/ldelf/ta_elf.c:769
     ba4:	4b8a      	ldr	r3, [pc, #552]	@ (dd0 <populate_segments+0x2cc>)
     ba6:	f240 3101 	movw	r1, #769	@ 0x301
     baa:	488a      	ldr	r0, [pc, #552]	@ (dd4 <populate_segments+0x2d0>)
     bac:	447b      	add	r3, pc
     bae:	9300      	str	r3, [sp, #0]
     bb0:	2301      	movs	r3, #1
     bb2:	4478      	add	r0, pc
     bb4:	461a      	mov	r2, r3
/home/lubuntu/Dokument/GitHub/STM32-Computer/Firmware/STM32-Computer-Firmware/CA7/optee-os-3.19.0-r2/optee-os-stm32mp-3.19.0-stm32mp-r2/ldelf/ta_elf.c:854
     bb6:	f003 fc7f 	bl	44b8 <trace_printf>
     bba:	4630      	mov	r0, r6
     bbc:	e032      	b.n	c24 <populate_segments+0x120>
copy_remapped_to():
/home/lubuntu/Dokument/GitHub/STM32-Computer/Firmware/STM32-Computer-Firmware/CA7/optee-os-3.19.0-r2/optee-os-stm32mp-3.19.0-stm32mp-r2/ldelf/ta_elf.c:564
     bbe:	686b      	ldr	r3, [r5, #4]
     bc0:	687a      	ldr	r2, [r7, #4]
/home/lubuntu/Dokument/GitHub/STM32-Computer/Firmware/STM32-Computer-Firmware/CA7/optee-os-3.19.0-r2/optee-os-stm32mp-3.19.0-stm32mp-r2/ldelf/ta_elf.c:566
     bc2:	683e      	ldr	r6, [r7, #0]
/home/lubuntu/Dokument/GitHub/STM32-Computer/Firmware/STM32-Computer-Firmware/CA7/optee-os-3.19.0-r2/optee-os-stm32mp-3.19.0-stm32mp-r2/ldelf/ta_elf.c:564
     bc4:	eb02 0903 	add.w	r9, r2, r3
/home/lubuntu/Dokument/GitHub/STM32-Computer/Firmware/STM32-Computer-Firmware/CA7/optee-os-3.19.0-r2/optee-os-stm32mp-3.19.0-stm32mp-r2/ldelf/ta_elf.c:569
     bc8:	68eb      	ldr	r3, [r5, #12]
/home/lubuntu/Dokument/GitHub/STM32-Computer/Firmware/STM32-Computer-Firmware/CA7/optee-os-3.19.0-r2/optee-os-stm32mp-3.19.0-stm32mp-r2/ldelf/ta_elf.c:567
     bca:	f8d7 a008 	ldr.w	sl, [r7, #8]
/home/lubuntu/Dokument/GitHub/STM32-Computer/Firmware/STM32-Computer-Firmware/CA7/optee-os-3.19.0-r2/optee-os-stm32mp-3.19.0-stm32mp-r2/ldelf/ta_elf.c:569
     bce:	429e      	cmp	r6, r3
     bd0:	d210      	bcs.n	bf4 <populate_segments+0xf0>
/home/lubuntu/Dokument/GitHub/STM32-Computer/Firmware/STM32-Computer-Firmware/CA7/optee-os-3.19.0-r2/optee-os-stm32mp-3.19.0-stm32mp-r2/ldelf/ta_elf.c:570
     bd2:	eba3 0b06 	sub.w	fp, r3, r6
/home/lubuntu/Dokument/GitHub/STM32-Computer/Firmware/STM32-Computer-Firmware/CA7/optee-os-3.19.0-r2/optee-os-stm32mp-3.19.0-stm32mp-r2/ldelf/ta_elf.c:571
     bd6:	4648      	mov	r0, r9
     bd8:	68a9      	ldr	r1, [r5, #8]
/home/lubuntu/Dokument/GitHub/STM32-Computer/Firmware/STM32-Computer-Firmware/CA7/optee-os-3.19.0-r2/optee-os-stm32mp-3.19.0-stm32mp-r2/ldelf/ta_elf.c:570
     bda:	45d3      	cmp	fp, sl
/home/lubuntu/Dokument/GitHub/STM32-Computer/Firmware/STM32-Computer-Firmware/CA7/optee-os-3.19.0-r2/optee-os-stm32mp-3.19.0-stm32mp-r2/ldelf/ta_elf.c:571
     bdc:	eba1 0103 	sub.w	r1, r1, r3
/home/lubuntu/Dokument/GitHub/STM32-Computer/Firmware/STM32-Computer-Firmware/CA7/optee-os-3.19.0-r2/optee-os-stm32mp-3.19.0-stm32mp-r2/ldelf/ta_elf.c:570
     be0:	bf28      	it	cs
     be2:	46d3      	movcs	fp, sl
/home/lubuntu/Dokument/GitHub/STM32-Computer/Firmware/STM32-Computer-Firmware/CA7/optee-os-3.19.0-r2/optee-os-stm32mp-3.19.0-stm32mp-r2/ldelf/ta_elf.c:571
     be4:	4431      	add	r1, r6
     be6:	465a      	mov	r2, fp
/home/lubuntu/Dokument/GitHub/STM32-Computer/Firmware/STM32-Computer-Firmware/CA7/optee-os-3.19.0-r2/optee-os-stm32mp-3.19.0-stm32mp-r2/ldelf/ta_elf.c:572
     be8:	44d9      	add	r9, fp
/home/lubuntu/Dokument/GitHub/STM32-Computer/Firmware/STM32-Computer-Firmware/CA7/optee-os-3.19.0-r2/optee-os-stm32mp-3.19.0-stm32mp-r2/ldelf/ta_elf.c:571
     bea:	f002 fd73 	bl	36d4 <memcpy>
/home/lubuntu/Dokument/GitHub/STM32-Computer/Firmware/STM32-Computer-Firmware/CA7/optee-os-3.19.0-r2/optee-os-stm32mp-3.19.0-stm32mp-r2/ldelf/ta_elf.c:573
     bee:	445e      	add	r6, fp
/home/lubuntu/Dokument/GitHub/STM32-Computer/Firmware/STM32-Computer-Firmware/CA7/optee-os-3.19.0-r2/optee-os-stm32mp-3.19.0-stm32mp-r2/ldelf/ta_elf.c:574
     bf0:	ebaa 0a0b 	sub.w	sl, sl, fp
/home/lubuntu/Dokument/GitHub/STM32-Computer/Firmware/STM32-Computer-Firmware/CA7/optee-os-3.19.0-r2/optee-os-stm32mp-3.19.0-stm32mp-r2/ldelf/ta_elf.c:577
     bf4:	f1ba 0f00 	cmp.w	sl, #0
     bf8:	d019      	beq.n	c2e <populate_segments+0x12a>
/home/lubuntu/Dokument/GitHub/STM32-Computer/Firmware/STM32-Computer-Firmware/CA7/optee-os-3.19.0-r2/optee-os-stm32mp-3.19.0-stm32mp-r2/ldelf/ta_elf.c:578
     bfa:	f8d5 2084 	ldr.w	r2, [r5, #132]	@ 0x84
     bfe:	4648      	mov	r0, r9
     c00:	4633      	mov	r3, r6
     c02:	4651      	mov	r1, sl
     c04:	f003 fa17 	bl	4036 <sys_copy_from_ta_bin>
/home/lubuntu/Dokument/GitHub/STM32-Computer/Firmware/STM32-Computer-Firmware/CA7/optee-os-3.19.0-r2/optee-os-stm32mp-3.19.0-stm32mp-r2/ldelf/ta_elf.c:581
     c08:	4681      	mov	r9, r0
     c0a:	b168      	cbz	r0, c28 <populate_segments+0x124>
/home/lubuntu/Dokument/GitHub/STM32-Computer/Firmware/STM32-Computer-Firmware/CA7/optee-os-3.19.0-r2/optee-os-stm32mp-3.19.0-stm32mp-r2/ldelf/ta_elf.c:582
     c0c:	4b72      	ldr	r3, [pc, #456]	@ (dd8 <populate_segments+0x2d4>)
     c0e:	f240 2146 	movw	r1, #582	@ 0x246
     c12:	4872      	ldr	r0, [pc, #456]	@ (ddc <populate_segments+0x2d8>)
     c14:	447b      	add	r3, pc
     c16:	9300      	str	r3, [sp, #0]
     c18:	2301      	movs	r3, #1
     c1a:	4478      	add	r0, pc
     c1c:	461a      	mov	r2, r3
     c1e:	f003 fc4b 	bl	44b8 <trace_printf>
     c22:	4648      	mov	r0, r9
populate_segments():
/home/lubuntu/Dokument/GitHub/STM32-Computer/Firmware/STM32-Computer-Firmware/CA7/optee-os-3.19.0-r2/optee-os-stm32mp-3.19.0-stm32mp-r2/ldelf/ta_elf.c:868
     c24:	f7ff ea28 	blx	78 <_ldelf_return>
copy_remapped_to():
/home/lubuntu/Dokument/GitHub/STM32-Computer/Firmware/STM32-Computer-Firmware/CA7/optee-os-3.19.0-r2/optee-os-stm32mp-3.19.0-stm32mp-r2/ldelf/ta_elf.c:583
     c28:	68eb      	ldr	r3, [r5, #12]
     c2a:	4433      	add	r3, r6
     c2c:	60eb      	str	r3, [r5, #12]
populate_segments():
/home/lubuntu/Dokument/GitHub/STM32-Computer/Firmware/STM32-Computer-Firmware/CA7/optee-os-3.19.0-r2/optee-os-stm32mp-3.19.0-stm32mp-r2/ldelf/ta_elf.c:772
     c2e:	9b09      	ldr	r3, [sp, #36]	@ 0x24
     c30:	4423      	add	r3, r4
/home/lubuntu/Dokument/GitHub/STM32-Computer/Firmware/STM32-Computer-Firmware/CA7/optee-os-3.19.0-r2/optee-os-stm32mp-3.19.0-stm32mp-r2/ldelf/ta_elf.c:810
     c32:	60ab      	str	r3, [r5, #8]
/home/lubuntu/Dokument/GitHub/STM32-Computer/Firmware/STM32-Computer-Firmware/CA7/optee-os-3.19.0-r2/optee-os-stm32mp-3.19.0-stm32mp-r2/ldelf/ta_elf.c:755 (discriminator 2)
     c34:	69ff      	ldr	r7, [r7, #28]
     c36:	e778      	b.n	b2a <populate_segments+0x26>
/home/lubuntu/Dokument/GitHub/STM32-Computer/Firmware/STM32-Computer-Firmware/CA7/optee-os-3.19.0-r2/optee-os-stm32mp-3.19.0-stm32mp-r2/ldelf/ta_elf.c:777
     c38:	f8d7 b000 	ldr.w	fp, [r7]
/home/lubuntu/Dokument/GitHub/STM32-Computer/Firmware/STM32-Computer-Firmware/CA7/optee-os-3.19.0-r2/optee-os-stm32mp-3.19.0-stm32mp-r2/ldelf/ta_elf.c:780
     c3c:	68e9      	ldr	r1, [r5, #12]
/home/lubuntu/Dokument/GitHub/STM32-Computer/Firmware/STM32-Computer-Firmware/CA7/optee-os-3.19.0-r2/optee-os-stm32mp-3.19.0-stm32mp-r2/ldelf/ta_elf.c:775
     c3e:	f8d7 9008 	ldr.w	r9, [r7, #8]
/home/lubuntu/Dokument/GitHub/STM32-Computer/Firmware/STM32-Computer-Firmware/CA7/optee-os-3.19.0-r2/optee-os-stm32mp-3.19.0-stm32mp-r2/ldelf/ta_elf.c:780
     c42:	4559      	cmp	r1, fp
     c44:	d93e      	bls.n	cc4 <populate_segments+0x1c0>
/home/lubuntu/Dokument/GitHub/STM32-Computer/Firmware/STM32-Computer-Firmware/CA7/optee-os-3.19.0-r2/optee-os-stm32mp-3.19.0-stm32mp-r2/ldelf/ta_elf.c:786
     c46:	eb02 0109 	add.w	r1, r2, r9
     c4a:	f5b1 5f80 	cmp.w	r1, #4096	@ 0x1000
     c4e:	d231      	bcs.n	cb4 <populate_segments+0x1b0>
/home/lubuntu/Dokument/GitHub/STM32-Computer/Firmware/STM32-Computer-Firmware/CA7/optee-os-3.19.0-r2/optee-os-stm32mp-3.19.0-stm32mp-r2/ldelf/ta_elf.c:793
     c50:	4414      	add	r4, r2
     c52:	f5b4 5f80 	cmp.w	r4, #4096	@ 0x1000
     c56:	d9ed      	bls.n	c34 <populate_segments+0x130>
/home/lubuntu/Dokument/GitHub/STM32-Computer/Firmware/STM32-Computer-Firmware/CA7/optee-os-3.19.0-r2/optee-os-stm32mp-3.19.0-stm32mp-r2/ldelf/ta_elf.c:801
     c58:	68a9      	ldr	r1, [r5, #8]
roundup():
/home/lubuntu/Dokument/GitHub/STM32-Computer/Firmware/STM32-Computer-Firmware/CA7/optee-os-3.19.0-r2/optee-os-stm32mp-3.19.0-stm32mp-r2/ldelf/ta_elf.c:492
     c5a:	f604 74ff 	addw	r4, r4, #4095	@ 0xfff
     c5e:	ea04 0408 	and.w	r4, r4, r8
     c62:	f602 72ff 	addw	r2, r2, #4095	@ 0xfff
     c66:	ea02 0208 	and.w	r2, r2, r8
populate_segments():
/home/lubuntu/Dokument/GitHub/STM32-Computer/Firmware/STM32-Computer-Firmware/CA7/optee-os-3.19.0-r2/optee-os-stm32mp-3.19.0-stm32mp-r2/ldelf/ta_elf.c:802
     c6a:	1aa4      	subs	r4, r4, r2
/home/lubuntu/Dokument/GitHub/STM32-Computer/Firmware/STM32-Computer-Firmware/CA7/optee-os-3.19.0-r2/optee-os-stm32mp-3.19.0-stm32mp-r2/ldelf/ta_elf.c:801
     c6c:	9109      	str	r1, [sp, #36]	@ 0x24
/home/lubuntu/Dokument/GitHub/STM32-Computer/Firmware/STM32-Computer-Firmware/CA7/optee-os-3.19.0-r2/optee-os-stm32mp-3.19.0-stm32mp-r2/ldelf/ta_elf.c:805
     c6e:	f5b4 5480 	subs.w	r4, r4, #4096	@ 0x1000
     c72:	d106      	bne.n	c82 <populate_segments+0x17e>
/home/lubuntu/Dokument/GitHub/STM32-Computer/Firmware/STM32-Computer-Firmware/CA7/optee-os-3.19.0-r2/optee-os-stm32mp-3.19.0-stm32mp-r2/ldelf/ta_elf.c:805 (discriminator 1)
     c74:	4a5a      	ldr	r2, [pc, #360]	@ (de0 <populate_segments+0x2dc>)
     c76:	f240 3125 	movw	r1, #805	@ 0x325
     c7a:	485a      	ldr	r0, [pc, #360]	@ (de4 <populate_segments+0x2e0>)
     c7c:	447a      	add	r2, pc
     c7e:	4478      	add	r0, pc
     c80:	e74e      	b.n	b20 <populate_segments+0x1c>
/home/lubuntu/Dokument/GitHub/STM32-Computer/Firmware/STM32-Computer-Firmware/CA7/optee-os-3.19.0-r2/optee-os-stm32mp-3.19.0-stm32mp-r2/ldelf/ta_elf.c:806
     c82:	9300      	str	r3, [sp, #0]
     c84:	aa09      	add	r2, sp, #36	@ 0x24
     c86:	4619      	mov	r1, r3
     c88:	4620      	mov	r0, r4
     c8a:	f003 f9b7 	bl	3ffc <sys_map_zi>
/home/lubuntu/Dokument/GitHub/STM32-Computer/Firmware/STM32-Computer-Firmware/CA7/optee-os-3.19.0-r2/optee-os-stm32mp-3.19.0-stm32mp-r2/ldelf/ta_elf.c:808
     c8e:	4606      	mov	r6, r0
     c90:	b148      	cbz	r0, ca6 <populate_segments+0x1a2>
/home/lubuntu/Dokument/GitHub/STM32-Computer/Firmware/STM32-Computer-Firmware/CA7/optee-os-3.19.0-r2/optee-os-stm32mp-3.19.0-stm32mp-r2/ldelf/ta_elf.c:809
     c92:	4b55      	ldr	r3, [pc, #340]	@ (de8 <populate_segments+0x2e4>)
     c94:	f240 3129 	movw	r1, #809	@ 0x329
     c98:	4854      	ldr	r0, [pc, #336]	@ (dec <populate_segments+0x2e8>)
     c9a:	447b      	add	r3, pc
     c9c:	9300      	str	r3, [sp, #0]
     c9e:	2301      	movs	r3, #1
     ca0:	4478      	add	r0, pc
     ca2:	461a      	mov	r2, r3
     ca4:	e787      	b.n	bb6 <populate_segments+0xb2>
roundup():
/home/lubuntu/Dokument/GitHub/STM32-Computer/Firmware/STM32-Computer-Firmware/CA7/optee-os-3.19.0-r2/optee-os-stm32mp-3.19.0-stm32mp-r2/ldelf/ta_elf.c:492
     ca6:	9b09      	ldr	r3, [sp, #36]	@ 0x24
     ca8:	f603 73ff 	addw	r3, r3, #4095	@ 0xfff
     cac:	4423      	add	r3, r4
     cae:	ea03 0308 	and.w	r3, r3, r8
     cb2:	e7be      	b.n	c32 <populate_segments+0x12e>
populate_segments():
/home/lubuntu/Dokument/GitHub/STM32-Computer/Firmware/STM32-Computer-Firmware/CA7/optee-os-3.19.0-r2/optee-os-stm32mp-3.19.0-stm32mp-r2/ldelf/ta_elf.c:815
     cb4:	f502 5280 	add.w	r2, r2, #4096	@ 0x1000
/home/lubuntu/Dokument/GitHub/STM32-Computer/Firmware/STM32-Computer-Firmware/CA7/optee-os-3.19.0-r2/optee-os-stm32mp-3.19.0-stm32mp-r2/ldelf/ta_elf.c:816
     cb8:	f5a9 5980 	sub.w	r9, r9, #4096	@ 0x1000
/home/lubuntu/Dokument/GitHub/STM32-Computer/Firmware/STM32-Computer-Firmware/CA7/optee-os-3.19.0-r2/optee-os-stm32mp-3.19.0-stm32mp-r2/ldelf/ta_elf.c:817
     cbc:	f5a4 5480 	sub.w	r4, r4, #4096	@ 0x1000
/home/lubuntu/Dokument/GitHub/STM32-Computer/Firmware/STM32-Computer-Firmware/CA7/optee-os-3.19.0-r2/optee-os-stm32mp-3.19.0-stm32mp-r2/ldelf/ta_elf.c:818
     cc0:	f50b 5b80 	add.w	fp, fp, #4096	@ 0x1000
/home/lubuntu/Dokument/GitHub/STM32-Computer/Firmware/STM32-Computer-Firmware/CA7/optee-os-3.19.0-r2/optee-os-stm32mp-3.19.0-stm32mp-r2/ldelf/ta_elf.c:821
     cc4:	686b      	ldr	r3, [r5, #4]
     cc6:	b9e3      	cbnz	r3, d02 <populate_segments+0x1fe>
/home/lubuntu/Dokument/GitHub/STM32-Computer/Firmware/STM32-Computer-Firmware/CA7/optee-os-3.19.0-r2/optee-os-stm32mp-3.19.0-stm32mp-r2/ldelf/ta_elf.c:822
     cc8:	9309      	str	r3, [sp, #36]	@ 0x24
/home/lubuntu/Dokument/GitHub/STM32-Computer/Firmware/STM32-Computer-Firmware/CA7/optee-os-3.19.0-r2/optee-os-stm32mp-3.19.0-stm32mp-r2/ldelf/ta_elf.c:823
     cca:	f7ff fccd 	bl	668 <get_pad_begin>
     cce:	9004      	str	r0, [sp, #16]
/home/lubuntu/Dokument/GitHub/STM32-Computer/Firmware/STM32-Computer-Firmware/CA7/optee-os-3.19.0-r2/optee-os-stm32mp-3.19.0-stm32mp-r2/ldelf/ta_elf.c:834
     cd0:	693b      	ldr	r3, [r7, #16]
/home/lubuntu/Dokument/GitHub/STM32-Computer/Firmware/STM32-Computer-Firmware/CA7/optee-os-3.19.0-r2/optee-os-stm32mp-3.19.0-stm32mp-r2/ldelf/ta_elf.c:837
     cd2:	f013 0f02 	tst.w	r3, #2
     cd6:	bf14      	ite	ne
     cd8:	2202      	movne	r2, #2
     cda:	2201      	moveq	r2, #1
/home/lubuntu/Dokument/GitHub/STM32-Computer/Firmware/STM32-Computer-Firmware/CA7/optee-os-3.19.0-r2/optee-os-stm32mp-3.19.0-stm32mp-r2/ldelf/ta_elf.c:838
     cdc:	07d9      	lsls	r1, r3, #31
/home/lubuntu/Dokument/GitHub/STM32-Computer/Firmware/STM32-Computer-Firmware/CA7/optee-os-3.19.0-r2/optee-os-stm32mp-3.19.0-stm32mp-r2/ldelf/ta_elf.c:839
     cde:	bf48      	it	mi
     ce0:	f042 0204 	orrmi.w	r2, r2, #4
/home/lubuntu/Dokument/GitHub/STM32-Computer/Firmware/STM32-Computer-Firmware/CA7/optee-os-3.19.0-r2/optee-os-stm32mp-3.19.0-stm32mp-r2/ldelf/ta_elf.c:840
     ce4:	075b      	lsls	r3, r3, #29
     ce6:	d411      	bmi.n	d0c <populate_segments+0x208>
/home/lubuntu/Dokument/GitHub/STM32-Computer/Firmware/STM32-Computer-Firmware/CA7/optee-os-3.19.0-r2/optee-os-stm32mp-3.19.0-stm32mp-r2/ldelf/ta_elf.c:841
     ce8:	4b41      	ldr	r3, [pc, #260]	@ (df0 <populate_segments+0x2ec>)
     cea:	f240 3149 	movw	r1, #841	@ 0x349
     cee:	4841      	ldr	r0, [pc, #260]	@ (df4 <populate_segments+0x2f0>)
     cf0:	447b      	add	r3, pc
     cf2:	9300      	str	r3, [sp, #0]
     cf4:	2301      	movs	r3, #1
     cf6:	4478      	add	r0, pc
     cf8:	461a      	mov	r2, r3
     cfa:	f003 fbdd 	bl	44b8 <trace_printf>
     cfe:	482b      	ldr	r0, [pc, #172]	@ (dac <populate_segments+0x2a8>)
     d00:	e790      	b.n	c24 <populate_segments+0x120>
/home/lubuntu/Dokument/GitHub/STM32-Computer/Firmware/STM32-Computer-Firmware/CA7/optee-os-3.19.0-r2/optee-os-stm32mp-3.19.0-stm32mp-r2/ldelf/ta_elf.c:830
     d02:	4413      	add	r3, r2
     d04:	9309      	str	r3, [sp, #36]	@ 0x24
/home/lubuntu/Dokument/GitHub/STM32-Computer/Firmware/STM32-Computer-Firmware/CA7/optee-os-3.19.0-r2/optee-os-stm32mp-3.19.0-stm32mp-r2/ldelf/ta_elf.c:831
     d06:	2300      	movs	r3, #0
     d08:	9304      	str	r3, [sp, #16]
     d0a:	e7e1      	b.n	cd0 <populate_segments+0x1cc>
/home/lubuntu/Dokument/GitHub/STM32-Computer/Firmware/STM32-Computer-Firmware/CA7/optee-os-3.19.0-r2/optee-os-stm32mp-3.19.0-stm32mp-r2/ldelf/ta_elf.c:843
     d0c:	f012 0302 	ands.w	r3, r2, #2
     d10:	9306      	str	r3, [sp, #24]
     d12:	ab09      	add	r3, sp, #36	@ 0x24
     d14:	9305      	str	r3, [sp, #20]
     d16:	d038      	beq.n	d8a <populate_segments+0x286>
/home/lubuntu/Dokument/GitHub/STM32-Computer/Firmware/STM32-Computer-Firmware/CA7/optee-os-3.19.0-r2/optee-os-stm32mp-3.19.0-stm32mp-r2/ldelf/ta_elf.c:844
     d18:	9b04      	ldr	r3, [sp, #16]
     d1a:	2100      	movs	r1, #0
     d1c:	9a05      	ldr	r2, [sp, #20]
     d1e:	4620      	mov	r0, r4
     d20:	9600      	str	r6, [sp, #0]
     d22:	f003 f96b 	bl	3ffc <sys_map_zi>
/home/lubuntu/Dokument/GitHub/STM32-Computer/Firmware/STM32-Computer-Firmware/CA7/optee-os-3.19.0-r2/optee-os-stm32mp-3.19.0-stm32mp-r2/ldelf/ta_elf.c:846
     d26:	9b04      	ldr	r3, [sp, #16]
/home/lubuntu/Dokument/GitHub/STM32-Computer/Firmware/STM32-Computer-Firmware/CA7/optee-os-3.19.0-r2/optee-os-stm32mp-3.19.0-stm32mp-r2/ldelf/ta_elf.c:844
     d28:	4682      	mov	sl, r0
/home/lubuntu/Dokument/GitHub/STM32-Computer/Firmware/STM32-Computer-Firmware/CA7/optee-os-3.19.0-r2/optee-os-stm32mp-3.19.0-stm32mp-r2/ldelf/ta_elf.c:846
     d2a:	b153      	cbz	r3, d42 <populate_segments+0x23e>
/home/lubuntu/Dokument/GitHub/STM32-Computer/Firmware/STM32-Computer-Firmware/CA7/optee-os-3.19.0-r2/optee-os-stm32mp-3.19.0-stm32mp-r2/ldelf/ta_elf.c:846 (discriminator 1)
     d2c:	4b20      	ldr	r3, [pc, #128]	@ (db0 <populate_segments+0x2ac>)
     d2e:	4298      	cmp	r0, r3
     d30:	d107      	bne.n	d42 <populate_segments+0x23e>
/home/lubuntu/Dokument/GitHub/STM32-Computer/Firmware/STM32-Computer-Firmware/CA7/optee-os-3.19.0-r2/optee-os-stm32mp-3.19.0-stm32mp-r2/ldelf/ta_elf.c:847
     d32:	9a05      	ldr	r2, [sp, #20]
     d34:	2300      	movs	r3, #0
     d36:	9600      	str	r6, [sp, #0]
     d38:	4619      	mov	r1, r3
     d3a:	4620      	mov	r0, r4
     d3c:	f003 f95e 	bl	3ffc <sys_map_zi>
     d40:	4682      	mov	sl, r0
/home/lubuntu/Dokument/GitHub/STM32-Computer/Firmware/STM32-Computer-Firmware/CA7/optee-os-3.19.0-r2/optee-os-stm32mp-3.19.0-stm32mp-r2/ldelf/ta_elf.c:849
     d42:	f1ba 0f00 	cmp.w	sl, #0
     d46:	d00c      	beq.n	d62 <populate_segments+0x25e>
/home/lubuntu/Dokument/GitHub/STM32-Computer/Firmware/STM32-Computer-Firmware/CA7/optee-os-3.19.0-r2/optee-os-stm32mp-3.19.0-stm32mp-r2/ldelf/ta_elf.c:850
     d48:	4b2b      	ldr	r3, [pc, #172]	@ (df8 <populate_segments+0x2f4>)
     d4a:	f240 3152 	movw	r1, #850	@ 0x352
     d4e:	482b      	ldr	r0, [pc, #172]	@ (dfc <populate_segments+0x2f8>)
     d50:	447b      	add	r3, pc
     d52:	9300      	str	r3, [sp, #0]
     d54:	2301      	movs	r3, #1
     d56:	4478      	add	r0, pc
     d58:	461a      	mov	r2, r3
/home/lubuntu/Dokument/GitHub/STM32-Computer/Firmware/STM32-Computer-Firmware/CA7/optee-os-3.19.0-r2/optee-os-stm32mp-3.19.0-stm32mp-r2/ldelf/ta_elf.c:868
     d5a:	f003 fbad 	bl	44b8 <trace_printf>
     d5e:	4650      	mov	r0, sl
     d60:	e760      	b.n	c24 <populate_segments+0x120>
/home/lubuntu/Dokument/GitHub/STM32-Computer/Firmware/STM32-Computer-Firmware/CA7/optee-os-3.19.0-r2/optee-os-stm32mp-3.19.0-stm32mp-r2/ldelf/ta_elf.c:851
     d62:	f8d5 2084 	ldr.w	r2, [r5, #132]	@ 0x84
     d66:	465b      	mov	r3, fp
     d68:	9809      	ldr	r0, [sp, #36]	@ 0x24
     d6a:	4649      	mov	r1, r9
     d6c:	f003 f963 	bl	4036 <sys_copy_from_ta_bin>
/home/lubuntu/Dokument/GitHub/STM32-Computer/Firmware/STM32-Computer-Firmware/CA7/optee-os-3.19.0-r2/optee-os-stm32mp-3.19.0-stm32mp-r2/ldelf/ta_elf.c:853
     d70:	4606      	mov	r6, r0
     d72:	2800      	cmp	r0, #0
     d74:	d078      	beq.n	e68 <populate_segments+0x364>
/home/lubuntu/Dokument/GitHub/STM32-Computer/Firmware/STM32-Computer-Firmware/CA7/optee-os-3.19.0-r2/optee-os-stm32mp-3.19.0-stm32mp-r2/ldelf/ta_elf.c:854
     d76:	4b22      	ldr	r3, [pc, #136]	@ (e00 <populate_segments+0x2fc>)
     d78:	f240 3156 	movw	r1, #854	@ 0x356
     d7c:	4821      	ldr	r0, [pc, #132]	@ (e04 <populate_segments+0x300>)
     d7e:	447b      	add	r3, pc
     d80:	9300      	str	r3, [sp, #0]
     d82:	2301      	movs	r3, #1
     d84:	4478      	add	r0, pc
     d86:	461a      	mov	r2, r3
     d88:	e715      	b.n	bb6 <populate_segments+0xb2>
/home/lubuntu/Dokument/GitHub/STM32-Computer/Firmware/STM32-Computer-Firmware/CA7/optee-os-3.19.0-r2/optee-os-stm32mp-3.19.0-stm32mp-r2/ldelf/ta_elf.c:856
     d8a:	45a1      	cmp	r9, r4
     d8c:	d040      	beq.n	e10 <populate_segments+0x30c>
/home/lubuntu/Dokument/GitHub/STM32-Computer/Firmware/STM32-Computer-Firmware/CA7/optee-os-3.19.0-r2/optee-os-stm32mp-3.19.0-stm32mp-r2/ldelf/ta_elf.c:857
     d8e:	4b1e      	ldr	r3, [pc, #120]	@ (e08 <populate_segments+0x304>)
     d90:	f240 3159 	movw	r1, #857	@ 0x359
     d94:	481d      	ldr	r0, [pc, #116]	@ (e0c <populate_segments+0x308>)
     d96:	447b      	add	r3, pc
     d98:	9300      	str	r3, [sp, #0]
     d9a:	2301      	movs	r3, #1
     d9c:	4478      	add	r0, pc
     d9e:	461a      	mov	r2, r3
     da0:	f003 fb8a 	bl	44b8 <trace_printf>
     da4:	4803      	ldr	r0, [pc, #12]	@ (db4 <populate_segments+0x2b0>)
     da6:	e73d      	b.n	c24 <populate_segments+0x120>
     da8:	fffff000 	.word	0xfffff000
     dac:	ffff000a 	.word	0xffff000a
     db0:	ffff000c 	.word	0xffff000c
     db4:	ffff0005 	.word	0xffff0005
     db8:	00004579 	.word	0x00004579
     dbc:	00003d9f 	.word	0x00003d9f
     dc0:	00004525 	.word	0x00004525
     dc4:	00003d5b 	.word	0x00003d5b
     dc8:	00004509 	.word	0x00004509
     dcc:	00003d4e 	.word	0x00003d4e
     dd0:	00003d44 	.word	0x00003d44
     dd4:	000044e3 	.word	0x000044e3
     dd8:	00003c94 	.word	0x00003c94
     ddc:	0000446a 	.word	0x0000446a
     de0:	00004419 	.word	0x00004419
     de4:	00003c7d 	.word	0x00003c7d
     de8:	00003c56 	.word	0x00003c56
     dec:	000043f5 	.word	0x000043f5
     df0:	00003c15 	.word	0x00003c15
     df4:	0000439f 	.word	0x0000439f
     df8:	00003ba0 	.word	0x00003ba0
     dfc:	0000433f 	.word	0x0000433f
     e00:	00003b2a 	.word	0x00003b2a
     e04:	00004311 	.word	0x00004311
     e08:	00003b88 	.word	0x00003b88
     e0c:	000042f9 	.word	0x000042f9
/home/lubuntu/Dokument/GitHub/STM32-Computer/Firmware/STM32-Computer-Firmware/CA7/optee-os-3.19.0-r2/optee-os-stm32mp-3.19.0-stm32mp-r2/ldelf/ta_elf.c:859
     e10:	9b04      	ldr	r3, [sp, #16]
     e12:	4649      	mov	r1, r9
     e14:	9602      	str	r6, [sp, #8]
     e16:	9301      	str	r3, [sp, #4]
     e18:	f8cd b000 	str.w	fp, [sp]
     e1c:	9805      	ldr	r0, [sp, #20]
     e1e:	f8d5 3084 	ldr.w	r3, [r5, #132]	@ 0x84
     e22:	9207      	str	r2, [sp, #28]
     e24:	f003 f8fc 	bl	4020 <sys_map_ta_bin>
/home/lubuntu/Dokument/GitHub/STM32-Computer/Firmware/STM32-Computer-Firmware/CA7/optee-os-3.19.0-r2/optee-os-stm32mp-3.19.0-stm32mp-r2/ldelf/ta_elf.c:862
     e28:	9b04      	ldr	r3, [sp, #16]
/home/lubuntu/Dokument/GitHub/STM32-Computer/Firmware/STM32-Computer-Firmware/CA7/optee-os-3.19.0-r2/optee-os-stm32mp-3.19.0-stm32mp-r2/ldelf/ta_elf.c:859
     e2a:	4682      	mov	sl, r0
/home/lubuntu/Dokument/GitHub/STM32-Computer/Firmware/STM32-Computer-Firmware/CA7/optee-os-3.19.0-r2/optee-os-stm32mp-3.19.0-stm32mp-r2/ldelf/ta_elf.c:862
     e2c:	b17b      	cbz	r3, e4e <populate_segments+0x34a>
/home/lubuntu/Dokument/GitHub/STM32-Computer/Firmware/STM32-Computer-Firmware/CA7/optee-os-3.19.0-r2/optee-os-stm32mp-3.19.0-stm32mp-r2/ldelf/ta_elf.c:862 (discriminator 1)
     e2e:	4b15      	ldr	r3, [pc, #84]	@ (e84 <populate_segments+0x380>)
     e30:	9a07      	ldr	r2, [sp, #28]
     e32:	4298      	cmp	r0, r3
     e34:	d10b      	bne.n	e4e <populate_segments+0x34a>
/home/lubuntu/Dokument/GitHub/STM32-Computer/Firmware/STM32-Computer-Firmware/CA7/optee-os-3.19.0-r2/optee-os-stm32mp-3.19.0-stm32mp-r2/ldelf/ta_elf.c:863
     e36:	9b06      	ldr	r3, [sp, #24]
     e38:	4649      	mov	r1, r9
     e3a:	9602      	str	r6, [sp, #8]
     e3c:	9301      	str	r3, [sp, #4]
     e3e:	f8cd b000 	str.w	fp, [sp]
     e42:	9805      	ldr	r0, [sp, #20]
     e44:	f8d5 3084 	ldr.w	r3, [r5, #132]	@ 0x84
     e48:	f003 f8ea 	bl	4020 <sys_map_ta_bin>
     e4c:	4682      	mov	sl, r0
/home/lubuntu/Dokument/GitHub/STM32-Computer/Firmware/STM32-Computer-Firmware/CA7/optee-os-3.19.0-r2/optee-os-stm32mp-3.19.0-stm32mp-r2/ldelf/ta_elf.c:867
     e4e:	f1ba 0f00 	cmp.w	sl, #0
     e52:	d009      	beq.n	e68 <populate_segments+0x364>
/home/lubuntu/Dokument/GitHub/STM32-Computer/Firmware/STM32-Computer-Firmware/CA7/optee-os-3.19.0-r2/optee-os-stm32mp-3.19.0-stm32mp-r2/ldelf/ta_elf.c:868
     e54:	4b0c      	ldr	r3, [pc, #48]	@ (e88 <populate_segments+0x384>)
     e56:	f44f 7159 	mov.w	r1, #868	@ 0x364
     e5a:	480c      	ldr	r0, [pc, #48]	@ (e8c <populate_segments+0x388>)
     e5c:	447b      	add	r3, pc
     e5e:	9300      	str	r3, [sp, #0]
     e60:	2301      	movs	r3, #1
     e62:	4478      	add	r0, pc
     e64:	461a      	mov	r2, r3
     e66:	e778      	b.n	d5a <populate_segments+0x256>
/home/lubuntu/Dokument/GitHub/STM32-Computer/Firmware/STM32-Computer-Firmware/CA7/optee-os-3.19.0-r2/optee-os-stm32mp-3.19.0-stm32mp-r2/ldelf/ta_elf.c:871
     e68:	686a      	ldr	r2, [r5, #4]
/home/lubuntu/Dokument/GitHub/STM32-Computer/Firmware/STM32-Computer-Firmware/CA7/optee-os-3.19.0-r2/optee-os-stm32mp-3.19.0-stm32mp-r2/ldelf/ta_elf.c:872
     e6a:	9b09      	ldr	r3, [sp, #36]	@ 0x24
/home/lubuntu/Dokument/GitHub/STM32-Computer/Firmware/STM32-Computer-Firmware/CA7/optee-os-3.19.0-r2/optee-os-stm32mp-3.19.0-stm32mp-r2/ldelf/ta_elf.c:871
     e6c:	b902      	cbnz	r2, e70 <populate_segments+0x36c>
/home/lubuntu/Dokument/GitHub/STM32-Computer/Firmware/STM32-Computer-Firmware/CA7/optee-os-3.19.0-r2/optee-os-stm32mp-3.19.0-stm32mp-r2/ldelf/ta_elf.c:872
     e6e:	606b      	str	r3, [r5, #4]
roundup():
/home/lubuntu/Dokument/GitHub/STM32-Computer/Firmware/STM32-Computer-Firmware/CA7/optee-os-3.19.0-r2/optee-os-stm32mp-3.19.0-stm32mp-r2/ldelf/ta_elf.c:492
     e70:	f603 73ff 	addw	r3, r3, #4095	@ 0xfff
     e74:	4423      	add	r3, r4
     e76:	ea03 0308 	and.w	r3, r3, r8
populate_segments():
/home/lubuntu/Dokument/GitHub/STM32-Computer/Firmware/STM32-Computer-Firmware/CA7/optee-os-3.19.0-r2/optee-os-stm32mp-3.19.0-stm32mp-r2/ldelf/ta_elf.c:873
     e7a:	60ab      	str	r3, [r5, #8]
/home/lubuntu/Dokument/GitHub/STM32-Computer/Firmware/STM32-Computer-Firmware/CA7/optee-os-3.19.0-r2/optee-os-stm32mp-3.19.0-stm32mp-r2/ldelf/ta_elf.c:874
     e7c:	68eb      	ldr	r3, [r5, #12]
     e7e:	444b      	add	r3, r9
     e80:	60eb      	str	r3, [r5, #12]
     e82:	e6d7      	b.n	c34 <populate_segments+0x130>
     e84:	ffff000c 	.word	0xffff000c
     e88:	000038ef 	.word	0x000038ef
     e8c:	00004233 	.word	0x00004233

00000e90 <map_segments>:
map_segments():
/home/lubuntu/Dokument/GitHub/STM32-Computer/Firmware/STM32-Computer-Firmware/CA7/optee-os-3.19.0-r2/optee-os-stm32mp-3.19.0-stm32mp-r2/ldelf/ta_elf.c:960
     e90:	e92d 47f0 	stmdb	sp!, {r4, r5, r6, r7, r8, r9, sl, lr}
     e94:	4604      	mov	r4, r0
parse_load_segments():
/home/lubuntu/Dokument/GitHub/STM32-Computer/Firmware/STM32-Computer-Firmware/CA7/optee-os-3.19.0-r2/optee-os-stm32mp-3.19.0-stm32mp-r2/ldelf/ta_elf.c:525
     e96:	7846      	ldrb	r6, [r0, #1]
map_segments():
/home/lubuntu/Dokument/GitHub/STM32-Computer/Firmware/STM32-Computer-Firmware/CA7/optee-os-3.19.0-r2/optee-os-stm32mp-3.19.0-stm32mp-r2/ldelf/ta_elf.c:960
     e98:	b086      	sub	sp, #24
parse_load_segments():
/home/lubuntu/Dokument/GitHub/STM32-Computer/Firmware/STM32-Computer-Firmware/CA7/optee-os-3.19.0-r2/optee-os-stm32mp-3.19.0-stm32mp-r2/ldelf/ta_elf.c:526
     e9a:	6b05      	ldr	r5, [r0, #48]	@ 0x30
/home/lubuntu/Dokument/GitHub/STM32-Computer/Firmware/STM32-Computer-Firmware/CA7/optee-os-3.19.0-r2/optee-os-stm32mp-3.19.0-stm32mp-r2/ldelf/ta_elf.c:525
     e9c:	2e00      	cmp	r6, #0
     e9e:	d06f      	beq.n	f80 <map_segments+0xf0>
/home/lubuntu/Dokument/GitHub/STM32-Computer/Firmware/STM32-Computer-Firmware/CA7/optee-os-3.19.0-r2/optee-os-stm32mp-3.19.0-stm32mp-r2/ldelf/ta_elf.c:534
     ea0:	4f99      	ldr	r7, [pc, #612]	@ (1108 <map_segments+0x278>)
/home/lubuntu/Dokument/GitHub/STM32-Computer/Firmware/STM32-Computer-Firmware/CA7/optee-os-3.19.0-r2/optee-os-stm32mp-3.19.0-stm32mp-r2/ldelf/ta_elf.c:528
     ea2:	2600      	movs	r6, #0
     ea4:	6a23      	ldr	r3, [r4, #32]
     ea6:	429e      	cmp	r6, r3
     ea8:	d32a      	bcc.n	f00 <map_segments+0x70>
adjust_segments():
/home/lubuntu/Dokument/GitHub/STM32-Computer/Firmware/STM32-Computer-Firmware/CA7/optee-os-3.19.0-r2/optee-os-stm32mp-3.19.0-stm32mp-r2/ldelf/ta_elf.c:596
     eaa:	6da0      	ldr	r0, [r4, #88]	@ 0x58
/home/lubuntu/Dokument/GitHub/STM32-Computer/Firmware/STM32-Computer-Firmware/CA7/optee-os-3.19.0-r2/optee-os-stm32mp-3.19.0-stm32mp-r2/ldelf/ta_elf.c:592
     eac:	2600      	movs	r6, #0
/home/lubuntu/Dokument/GitHub/STM32-Computer/Firmware/STM32-Computer-Firmware/CA7/optee-os-3.19.0-r2/optee-os-stm32mp-3.19.0-stm32mp-r2/ldelf/ta_elf.c:596
     eae:	4601      	mov	r1, r0
     eb0:	2900      	cmp	r1, #0
     eb2:	d172      	bne.n	f9a <map_segments+0x10a>
/home/lubuntu/Dokument/GitHub/STM32-Computer/Firmware/STM32-Computer-Firmware/CA7/optee-os-3.19.0-r2/optee-os-stm32mp-3.19.0-stm32mp-r2/ldelf/ta_elf.c:619
     eb4:	b138      	cbz	r0, ec6 <map_segments+0x36>
/home/lubuntu/Dokument/GitHub/STM32-Computer/Firmware/STM32-Computer-Firmware/CA7/optee-os-3.19.0-r2/optee-os-stm32mp-3.19.0-stm32mp-r2/ldelf/ta_elf.c:620
     eb6:	69c0      	ldr	r0, [r0, #28]
/home/lubuntu/Dokument/GitHub/STM32-Computer/Firmware/STM32-Computer-Firmware/CA7/optee-os-3.19.0-r2/optee-os-stm32mp-3.19.0-stm32mp-r2/ldelf/ta_elf.c:616
     eb8:	3e01      	subs	r6, #1
rounddown():
/home/lubuntu/Dokument/GitHub/STM32-Computer/Firmware/STM32-Computer-Firmware/CA7/optee-os-3.19.0-r2/optee-os-stm32mp-3.19.0-stm32mp-r2/ldelf/ta_elf.c:497
     eba:	4f94      	ldr	r7, [pc, #592]	@ (110c <map_segments+0x27c>)
adjust_segments():
/home/lubuntu/Dokument/GitHub/STM32-Computer/Firmware/STM32-Computer-Firmware/CA7/optee-os-3.19.0-r2/optee-os-stm32mp-3.19.0-stm32mp-r2/ldelf/ta_elf.c:667
     ebc:	f04f 0801 	mov.w	r8, #1
/home/lubuntu/Dokument/GitHub/STM32-Computer/Firmware/STM32-Computer-Firmware/CA7/optee-os-3.19.0-r2/optee-os-stm32mp-3.19.0-stm32mp-r2/ldelf/ta_elf.c:621
     ec0:	2800      	cmp	r0, #0
     ec2:	f040 80c3 	bne.w	104c <map_segments+0x1bc>
map_segments():
/home/lubuntu/Dokument/GitHub/STM32-Computer/Firmware/STM32-Computer-Firmware/CA7/optee-os-3.19.0-r2/optee-os-stm32mp-3.19.0-stm32mp-r2/ldelf/ta_elf.c:965
     ec6:	6da3      	ldr	r3, [r4, #88]	@ 0x58
     ec8:	681b      	ldr	r3, [r3, #0]
     eca:	f5b3 5f80 	cmp.w	r3, #4096	@ 0x1000
     ece:	f080 8193 	bcs.w	11f8 <map_segments+0x368>
/home/lubuntu/Dokument/GitHub/STM32-Computer/Firmware/STM32-Computer-Firmware/CA7/optee-os-3.19.0-r2/optee-os-stm32mp-3.19.0-stm32mp-r2/ldelf/ta_elf.c:967
     ed2:	68a5      	ldr	r5, [r4, #8]
/home/lubuntu/Dokument/GitHub/STM32-Computer/Firmware/STM32-Computer-Firmware/CA7/optee-os-3.19.0-r2/optee-os-stm32mp-3.19.0-stm32mp-r2/ldelf/ta_elf.c:966
     ed4:	2300      	movs	r3, #0
     ed6:	9305      	str	r3, [sp, #20]
/home/lubuntu/Dokument/GitHub/STM32-Computer/Firmware/STM32-Computer-Firmware/CA7/optee-os-3.19.0-r2/optee-os-stm32mp-3.19.0-stm32mp-r2/ldelf/ta_elf.c:967
     ed8:	6863      	ldr	r3, [r4, #4]
     eda:	1aed      	subs	r5, r5, r3
/home/lubuntu/Dokument/GitHub/STM32-Computer/Firmware/STM32-Computer-Firmware/CA7/optee-os-3.19.0-r2/optee-os-stm32mp-3.19.0-stm32mp-r2/ldelf/ta_elf.c:968
     edc:	6de3      	ldr	r3, [r4, #92]	@ 0x5c
     ede:	685b      	ldr	r3, [r3, #4]
     ee0:	f8d3 9000 	ldr.w	r9, [r3]
/home/lubuntu/Dokument/GitHub/STM32-Computer/Firmware/STM32-Computer-Firmware/CA7/optee-os-3.19.0-r2/optee-os-stm32mp-3.19.0-stm32mp-r2/ldelf/ta_elf.c:969
     ee4:	f7ff fbc0 	bl	668 <get_pad_begin>
/home/lubuntu/Dokument/GitHub/STM32-Computer/Firmware/STM32-Computer-Firmware/CA7/optee-os-3.19.0-r2/optee-os-stm32mp-3.19.0-stm32mp-r2/ldelf/ta_elf.c:975
     ee8:	7826      	ldrb	r6, [r4, #0]
/home/lubuntu/Dokument/GitHub/STM32-Computer/Firmware/STM32-Computer-Firmware/CA7/optee-os-3.19.0-r2/optee-os-stm32mp-3.19.0-stm32mp-r2/ldelf/ta_elf.c:969
     eea:	4603      	mov	r3, r0
/home/lubuntu/Dokument/GitHub/STM32-Computer/Firmware/STM32-Computer-Firmware/CA7/optee-os-3.19.0-r2/optee-os-stm32mp-3.19.0-stm32mp-r2/ldelf/ta_elf.c:975
     eec:	2e00      	cmp	r6, #0
     eee:	f000 8143 	beq.w	1178 <map_segments+0x2e8>
     ef2:	4a87      	ldr	r2, [pc, #540]	@ (1110 <map_segments+0x280>)
     ef4:	f240 31cf 	movw	r1, #975	@ 0x3cf
     ef8:	4886      	ldr	r0, [pc, #536]	@ (1114 <map_segments+0x284>)
     efa:	447a      	add	r2, pc
     efc:	4478      	add	r0, pc
     efe:	e026      	b.n	f4e <map_segments+0xbe>
parse_load_segments():
/home/lubuntu/Dokument/GitHub/STM32-Computer/Firmware/STM32-Computer-Firmware/CA7/optee-os-3.19.0-r2/optee-os-stm32mp-3.19.0-stm32mp-r2/ldelf/ta_elf.c:529
     f00:	682b      	ldr	r3, [r5, #0]
     f02:	2b01      	cmp	r3, #1
     f04:	d10e      	bne.n	f24 <map_segments+0x94>
/home/lubuntu/Dokument/GitHub/STM32-Computer/Firmware/STM32-Computer-Firmware/CA7/optee-os-3.19.0-r2/optee-os-stm32mp-3.19.0-stm32mp-r2/ldelf/ta_elf.c:530
     f06:	69eb      	ldr	r3, [r5, #28]
     f08:	4620      	mov	r0, r4
     f0a:	9302      	str	r3, [sp, #8]
     f0c:	69ab      	ldr	r3, [r5, #24]
     f0e:	9301      	str	r3, [sp, #4]
     f10:	696b      	ldr	r3, [r5, #20]
     f12:	9300      	str	r3, [sp, #0]
     f14:	692b      	ldr	r3, [r5, #16]
     f16:	68aa      	ldr	r2, [r5, #8]
     f18:	6869      	ldr	r1, [r5, #4]
     f1a:	f7ff fb5d 	bl	5d8 <add_segment>
/home/lubuntu/Dokument/GitHub/STM32-Computer/Firmware/STM32-Computer-Firmware/CA7/optee-os-3.19.0-r2/optee-os-stm32mp-3.19.0-stm32mp-r2/ldelf/ta_elf.c:528
     f1e:	3601      	adds	r6, #1
     f20:	3520      	adds	r5, #32
     f22:	e7bf      	b.n	ea4 <map_segments+0x14>
/home/lubuntu/Dokument/GitHub/STM32-Computer/Firmware/STM32-Computer-Firmware/CA7/optee-os-3.19.0-r2/optee-os-stm32mp-3.19.0-stm32mp-r2/ldelf/ta_elf.c:534
     f24:	42bb      	cmp	r3, r7
     f26:	d104      	bne.n	f32 <map_segments+0xa2>
/home/lubuntu/Dokument/GitHub/STM32-Computer/Firmware/STM32-Computer-Firmware/CA7/optee-os-3.19.0-r2/optee-os-stm32mp-3.19.0-stm32mp-r2/ldelf/ta_elf.c:535
     f28:	68ab      	ldr	r3, [r5, #8]
     f2a:	6623      	str	r3, [r4, #96]	@ 0x60
/home/lubuntu/Dokument/GitHub/STM32-Computer/Firmware/STM32-Computer-Firmware/CA7/optee-os-3.19.0-r2/optee-os-stm32mp-3.19.0-stm32mp-r2/ldelf/ta_elf.c:536
     f2c:	692b      	ldr	r3, [r5, #16]
     f2e:	6663      	str	r3, [r4, #100]	@ 0x64
     f30:	e7f5      	b.n	f1e <map_segments+0x8e>
/home/lubuntu/Dokument/GitHub/STM32-Computer/Firmware/STM32-Computer-Firmware/CA7/optee-os-3.19.0-r2/optee-os-stm32mp-3.19.0-stm32mp-r2/ldelf/ta_elf.c:537
     f32:	2b07      	cmp	r3, #7
     f34:	d1f3      	bne.n	f1e <map_segments+0x8e>
assign_tls_mod_id():
/home/lubuntu/Dokument/GitHub/STM32-Computer/Firmware/STM32-Computer-Firmware/CA7/optee-os-3.19.0-r2/optee-os-stm32mp-3.19.0-stm32mp-r2/ldelf/ta_elf.c:58
     f36:	4b78      	ldr	r3, [pc, #480]	@ (1118 <map_segments+0x288>)
/home/lubuntu/Dokument/GitHub/STM32-Computer/Firmware/STM32-Computer-Firmware/CA7/optee-os-3.19.0-r2/optee-os-stm32mp-3.19.0-stm32mp-r2/ldelf/ta_elf.c:57
     f38:	7822      	ldrb	r2, [r4, #0]
/home/lubuntu/Dokument/GitHub/STM32-Computer/Firmware/STM32-Computer-Firmware/CA7/optee-os-3.19.0-r2/optee-os-stm32mp-3.19.0-stm32mp-r2/ldelf/ta_elf.c:58
     f3a:	447b      	add	r3, pc
     f3c:	681b      	ldr	r3, [r3, #0]
/home/lubuntu/Dokument/GitHub/STM32-Computer/Firmware/STM32-Computer-Firmware/CA7/optee-os-3.19.0-r2/optee-os-stm32mp-3.19.0-stm32mp-r2/ldelf/ta_elf.c:57
     f3e:	b142      	cbz	r2, f52 <map_segments+0xc2>
/home/lubuntu/Dokument/GitHub/STM32-Computer/Firmware/STM32-Computer-Firmware/CA7/optee-os-3.19.0-r2/optee-os-stm32mp-3.19.0-stm32mp-r2/ldelf/ta_elf.c:58
     f40:	2b01      	cmp	r3, #1
     f42:	d006      	beq.n	f52 <map_segments+0xc2>
     f44:	4a75      	ldr	r2, [pc, #468]	@ (111c <map_segments+0x28c>)
     f46:	213a      	movs	r1, #58	@ 0x3a
     f48:	4875      	ldr	r0, [pc, #468]	@ (1120 <map_segments+0x290>)
     f4a:	447a      	add	r2, pc
     f4c:	4478      	add	r0, pc
adjust_segments():
/home/lubuntu/Dokument/GitHub/STM32-Computer/Firmware/STM32-Computer-Firmware/CA7/optee-os-3.19.0-r2/optee-os-stm32mp-3.19.0-stm32mp-r2/ldelf/ta_elf.c:599
     f4e:	f7ff fce5 	bl	91c <_assert_trap.constprop.0>
assign_tls_mod_id():
/home/lubuntu/Dokument/GitHub/STM32-Computer/Firmware/STM32-Computer-Firmware/CA7/optee-os-3.19.0-r2/optee-os-stm32mp-3.19.0-stm32mp-r2/ldelf/ta_elf.c:59
     f52:	4a74      	ldr	r2, [pc, #464]	@ (1124 <map_segments+0x294>)
     f54:	1c59      	adds	r1, r3, #1
     f56:	66a3      	str	r3, [r4, #104]	@ 0x68
     f58:	447a      	add	r2, pc
     f5a:	6011      	str	r1, [r2, #0]
/home/lubuntu/Dokument/GitHub/STM32-Computer/Firmware/STM32-Computer-Firmware/CA7/optee-os-3.19.0-r2/optee-os-stm32mp-3.19.0-stm32mp-r2/ldelf/ta_elf.c:60
     f5c:	e7df      	b.n	f1e <map_segments+0x8e>
parse_load_segments():
/home/lubuntu/Dokument/GitHub/STM32-Computer/Firmware/STM32-Computer-Firmware/CA7/optee-os-3.19.0-r2/optee-os-stm32mp-3.19.0-stm32mp-r2/ldelf/ta_elf.c:544
     f5e:	682b      	ldr	r3, [r5, #0]
     f60:	2b01      	cmp	r3, #1
     f62:	d111      	bne.n	f88 <map_segments+0xf8>
/home/lubuntu/Dokument/GitHub/STM32-Computer/Firmware/STM32-Computer-Firmware/CA7/optee-os-3.19.0-r2/optee-os-stm32mp-3.19.0-stm32mp-r2/ldelf/ta_elf.c:545
     f64:	6b2b      	ldr	r3, [r5, #48]	@ 0x30
     f66:	4620      	mov	r0, r4
     f68:	9302      	str	r3, [sp, #8]
     f6a:	686b      	ldr	r3, [r5, #4]
     f6c:	9301      	str	r3, [sp, #4]
     f6e:	6aab      	ldr	r3, [r5, #40]	@ 0x28
     f70:	9300      	str	r3, [sp, #0]
     f72:	6a2b      	ldr	r3, [r5, #32]
     f74:	692a      	ldr	r2, [r5, #16]
     f76:	68a9      	ldr	r1, [r5, #8]
     f78:	f7ff fb2e 	bl	5d8 <add_segment>
/home/lubuntu/Dokument/GitHub/STM32-Computer/Firmware/STM32-Computer-Firmware/CA7/optee-os-3.19.0-r2/optee-os-stm32mp-3.19.0-stm32mp-r2/ldelf/ta_elf.c:543
     f7c:	3601      	adds	r6, #1
     f7e:	3538      	adds	r5, #56	@ 0x38
     f80:	6a23      	ldr	r3, [r4, #32]
     f82:	429e      	cmp	r6, r3
     f84:	d3eb      	bcc.n	f5e <map_segments+0xce>
     f86:	e790      	b.n	eaa <map_segments+0x1a>
/home/lubuntu/Dokument/GitHub/STM32-Computer/Firmware/STM32-Computer-Firmware/CA7/optee-os-3.19.0-r2/optee-os-stm32mp-3.19.0-stm32mp-r2/ldelf/ta_elf.c:549
     f88:	2b07      	cmp	r3, #7
     f8a:	d1f7      	bne.n	f7c <map_segments+0xec>
/home/lubuntu/Dokument/GitHub/STM32-Computer/Firmware/STM32-Computer-Firmware/CA7/optee-os-3.19.0-r2/optee-os-stm32mp-3.19.0-stm32mp-r2/ldelf/ta_elf.c:550
     f8c:	692b      	ldr	r3, [r5, #16]
     f8e:	66e3      	str	r3, [r4, #108]	@ 0x6c
/home/lubuntu/Dokument/GitHub/STM32-Computer/Firmware/STM32-Computer-Firmware/CA7/optee-os-3.19.0-r2/optee-os-stm32mp-3.19.0-stm32mp-r2/ldelf/ta_elf.c:551
     f90:	6a2b      	ldr	r3, [r5, #32]
     f92:	6723      	str	r3, [r4, #112]	@ 0x70
/home/lubuntu/Dokument/GitHub/STM32-Computer/Firmware/STM32-Computer-Firmware/CA7/optee-os-3.19.0-r2/optee-os-stm32mp-3.19.0-stm32mp-r2/ldelf/ta_elf.c:552
     f94:	6aab      	ldr	r3, [r5, #40]	@ 0x28
     f96:	6763      	str	r3, [r4, #116]	@ 0x74
     f98:	e7f0      	b.n	f7c <map_segments+0xec>
adjust_segments():
/home/lubuntu/Dokument/GitHub/STM32-Computer/Firmware/STM32-Computer-Firmware/CA7/optee-os-3.19.0-r2/optee-os-stm32mp-3.19.0-stm32mp-r2/ldelf/ta_elf.c:599
     f9a:	694d      	ldr	r5, [r1, #20]
     f9c:	f5b5 5f80 	cmp.w	r5, #4096	@ 0x1000
     fa0:	d206      	bcs.n	fb0 <map_segments+0x120>
     fa2:	4a61      	ldr	r2, [pc, #388]	@ (1128 <map_segments+0x298>)
     fa4:	f240 2157 	movw	r1, #599	@ 0x257
     fa8:	4860      	ldr	r0, [pc, #384]	@ (112c <map_segments+0x29c>)
     faa:	447a      	add	r2, pc
     fac:	4478      	add	r0, pc
     fae:	e7ce      	b.n	f4e <map_segments+0xbe>
/home/lubuntu/Dokument/GitHub/STM32-Computer/Firmware/STM32-Computer-Firmware/CA7/optee-os-3.19.0-r2/optee-os-stm32mp-3.19.0-stm32mp-r2/ldelf/ta_elf.c:600
     fb0:	f8d1 e004 	ldr.w	lr, [r1, #4]
     fb4:	68cb      	ldr	r3, [r1, #12]
     fb6:	eb1e 0203 	adds.w	r2, lr, r3
     fba:	d209      	bcs.n	fd0 <map_segments+0x140>
/home/lubuntu/Dokument/GitHub/STM32-Computer/Firmware/STM32-Computer-Firmware/CA7/optee-os-3.19.0-r2/optee-os-stm32mp-3.19.0-stm32mp-r2/ldelf/ta_elf.c:601
     fbc:	688a      	ldr	r2, [r1, #8]
     fbe:	4293      	cmp	r3, r2
     fc0:	d20d      	bcs.n	fde <map_segments+0x14e>
     fc2:	4a5b      	ldr	r2, [pc, #364]	@ (1130 <map_segments+0x2a0>)
     fc4:	f240 2159 	movw	r1, #601	@ 0x259
     fc8:	485a      	ldr	r0, [pc, #360]	@ (1134 <map_segments+0x2a4>)
     fca:	447a      	add	r2, pc
     fcc:	4478      	add	r0, pc
     fce:	e7be      	b.n	f4e <map_segments+0xbe>
/home/lubuntu/Dokument/GitHub/STM32-Computer/Firmware/STM32-Computer-Firmware/CA7/optee-os-3.19.0-r2/optee-os-stm32mp-3.19.0-stm32mp-r2/ldelf/ta_elf.c:600
     fd0:	4a59      	ldr	r2, [pc, #356]	@ (1138 <map_segments+0x2a8>)
     fd2:	f44f 7116 	mov.w	r1, #600	@ 0x258
     fd6:	4859      	ldr	r0, [pc, #356]	@ (113c <map_segments+0x2ac>)
     fd8:	447a      	add	r2, pc
     fda:	4478      	add	r0, pc
     fdc:	e7b7      	b.n	f4e <map_segments+0xbe>
/home/lubuntu/Dokument/GitHub/STM32-Computer/Firmware/STM32-Computer-Firmware/CA7/optee-os-3.19.0-r2/optee-os-stm32mp-3.19.0-stm32mp-r2/ldelf/ta_elf.c:602
     fde:	680f      	ldr	r7, [r1, #0]
     fe0:	ea8e 0307 	eor.w	r3, lr, r7
     fe4:	f3c3 030b 	ubfx	r3, r3, #0, #12
     fe8:	b133      	cbz	r3, ff8 <map_segments+0x168>
     fea:	4a55      	ldr	r2, [pc, #340]	@ (1140 <map_segments+0x2b0>)
     fec:	f240 215a 	movw	r1, #602	@ 0x25a
     ff0:	4854      	ldr	r0, [pc, #336]	@ (1144 <map_segments+0x2b4>)
     ff2:	447a      	add	r2, pc
     ff4:	4478      	add	r0, pc
     ff6:	e7aa      	b.n	f4e <map_segments+0xbe>
/home/lubuntu/Dokument/GitHub/STM32-Computer/Firmware/STM32-Computer-Firmware/CA7/optee-os-3.19.0-r2/optee-os-stm32mp-3.19.0-stm32mp-r2/ldelf/ta_elf.c:605
     ff8:	6a0b      	ldr	r3, [r1, #32]
     ffa:	685b      	ldr	r3, [r3, #4]
     ffc:	681b      	ldr	r3, [r3, #0]
/home/lubuntu/Dokument/GitHub/STM32-Computer/Firmware/STM32-Computer-Firmware/CA7/optee-os-3.19.0-r2/optee-os-stm32mp-3.19.0-stm32mp-r2/ldelf/ta_elf.c:606
     ffe:	b1c3      	cbz	r3, 1032 <map_segments+0x1a2>
/home/lubuntu/Dokument/GitHub/STM32-Computer/Firmware/STM32-Computer-Firmware/CA7/optee-os-3.19.0-r2/optee-os-stm32mp-3.19.0-stm32mp-r2/ldelf/ta_elf.c:607
    1000:	685a      	ldr	r2, [r3, #4]
    1002:	f8d3 c00c 	ldr.w	ip, [r3, #12]
    1006:	4462      	add	r2, ip
    1008:	4596      	cmp	lr, r2
    100a:	d206      	bcs.n	101a <map_segments+0x18a>
    100c:	4a4e      	ldr	r2, [pc, #312]	@ (1148 <map_segments+0x2b8>)
    100e:	f240 215f 	movw	r1, #607	@ 0x25f
    1012:	484e      	ldr	r0, [pc, #312]	@ (114c <map_segments+0x2bc>)
    1014:	447a      	add	r2, pc
    1016:	4478      	add	r0, pc
    1018:	e799      	b.n	f4e <map_segments+0xbe>
/home/lubuntu/Dokument/GitHub/STM32-Computer/Firmware/STM32-Computer-Firmware/CA7/optee-os-3.19.0-r2/optee-os-stm32mp-3.19.0-stm32mp-r2/ldelf/ta_elf.c:608
    101a:	681a      	ldr	r2, [r3, #0]
    101c:	689b      	ldr	r3, [r3, #8]
    101e:	4413      	add	r3, r2
    1020:	429f      	cmp	r7, r3
    1022:	d206      	bcs.n	1032 <map_segments+0x1a2>
    1024:	4a4a      	ldr	r2, [pc, #296]	@ (1150 <map_segments+0x2c0>)
    1026:	f44f 7118 	mov.w	r1, #608	@ 0x260
    102a:	484a      	ldr	r0, [pc, #296]	@ (1154 <map_segments+0x2c4>)
    102c:	447a      	add	r2, pc
    102e:	4478      	add	r0, pc
    1030:	e78d      	b.n	f4e <map_segments+0xbe>
/home/lubuntu/Dokument/GitHub/STM32-Computer/Firmware/STM32-Computer-Firmware/CA7/optee-os-3.19.0-r2/optee-os-stm32mp-3.19.0-stm32mp-r2/ldelf/ta_elf.c:611
    1032:	b146      	cbz	r6, 1046 <map_segments+0x1b6>
/home/lubuntu/Dokument/GitHub/STM32-Computer/Firmware/STM32-Computer-Firmware/CA7/optee-os-3.19.0-r2/optee-os-stm32mp-3.19.0-stm32mp-r2/ldelf/ta_elf.c:613
    1034:	42b5      	cmp	r5, r6
    1036:	d007      	beq.n	1048 <map_segments+0x1b8>
    1038:	4a47      	ldr	r2, [pc, #284]	@ (1158 <map_segments+0x2c8>)
    103a:	f240 2165 	movw	r1, #613	@ 0x265
    103e:	4847      	ldr	r0, [pc, #284]	@ (115c <map_segments+0x2cc>)
    1040:	447a      	add	r2, pc
    1042:	4478      	add	r0, pc
    1044:	e783      	b.n	f4e <map_segments+0xbe>
    1046:	462e      	mov	r6, r5
/home/lubuntu/Dokument/GitHub/STM32-Computer/Firmware/STM32-Computer-Firmware/CA7/optee-os-3.19.0-r2/optee-os-stm32mp-3.19.0-stm32mp-r2/ldelf/ta_elf.c:596
    1048:	69c9      	ldr	r1, [r1, #28]
    104a:	e731      	b.n	eb0 <map_segments+0x20>
/home/lubuntu/Dokument/GitHub/STM32-Computer/Firmware/STM32-Computer-Firmware/CA7/optee-os-3.19.0-r2/optee-os-stm32mp-3.19.0-stm32mp-r2/ldelf/ta_elf.c:622
    104c:	6a01      	ldr	r1, [r0, #32]
/home/lubuntu/Dokument/GitHub/STM32-Computer/Firmware/STM32-Computer-Firmware/CA7/optee-os-3.19.0-r2/optee-os-stm32mp-3.19.0-stm32mp-r2/ldelf/ta_elf.c:641
    104e:	6802      	ldr	r2, [r0, #0]
/home/lubuntu/Dokument/GitHub/STM32-Computer/Firmware/STM32-Computer-Firmware/CA7/optee-os-3.19.0-r2/optee-os-stm32mp-3.19.0-stm32mp-r2/ldelf/ta_elf.c:622
    1050:	684b      	ldr	r3, [r1, #4]
    1052:	681d      	ldr	r5, [r3, #0]
/home/lubuntu/Dokument/GitHub/STM32-Computer/Firmware/STM32-Computer-Firmware/CA7/optee-os-3.19.0-r2/optee-os-stm32mp-3.19.0-stm32mp-r2/ldelf/ta_elf.c:640
    1054:	6843      	ldr	r3, [r0, #4]
/home/lubuntu/Dokument/GitHub/STM32-Computer/Firmware/STM32-Computer-Firmware/CA7/optee-os-3.19.0-r2/optee-os-stm32mp-3.19.0-stm32mp-r2/ldelf/ta_elf.c:623
    1056:	f8d5 c004 	ldr.w	ip, [r5, #4]
    105a:	f8d5 900c 	ldr.w	r9, [r5, #12]
rounddown():
/home/lubuntu/Dokument/GitHub/STM32-Computer/Firmware/STM32-Computer-Firmware/CA7/optee-os-3.19.0-r2/optee-os-stm32mp-3.19.0-stm32mp-r2/ldelf/ta_elf.c:497
    105e:	ea03 0e07 	and.w	lr, r3, r7
adjust_segments():
/home/lubuntu/Dokument/GitHub/STM32-Computer/Firmware/STM32-Computer-Firmware/CA7/optee-os-3.19.0-r2/optee-os-stm32mp-3.19.0-stm32mp-r2/ldelf/ta_elf.c:623
    1062:	eb0c 0a09 	add.w	sl, ip, r9
/home/lubuntu/Dokument/GitHub/STM32-Computer/Firmware/STM32-Computer-Firmware/CA7/optee-os-3.19.0-r2/optee-os-stm32mp-3.19.0-stm32mp-r2/ldelf/ta_elf.c:640
    1066:	45f2      	cmp	sl, lr
    1068:	d92c      	bls.n	10c4 <map_segments+0x234>
/home/lubuntu/Dokument/GitHub/STM32-Computer/Firmware/STM32-Computer-Firmware/CA7/optee-os-3.19.0-r2/optee-os-stm32mp-3.19.0-stm32mp-r2/ldelf/ta_elf.c:641
    106a:	405a      	eors	r2, r3
    106c:	4232      	tst	r2, r6
    106e:	d006      	beq.n	107e <map_segments+0x1ee>
    1070:	4a3b      	ldr	r2, [pc, #236]	@ (1160 <map_segments+0x2d0>)
    1072:	f240 2181 	movw	r1, #641	@ 0x281
    1076:	483b      	ldr	r0, [pc, #236]	@ (1164 <map_segments+0x2d4>)
    1078:	447a      	add	r2, pc
    107a:	4478      	add	r0, pc
    107c:	e767      	b.n	f4e <map_segments+0xbe>
/home/lubuntu/Dokument/GitHub/STM32-Computer/Firmware/STM32-Computer-Firmware/CA7/optee-os-3.19.0-r2/optee-os-stm32mp-3.19.0-stm32mp-r2/ldelf/ta_elf.c:642
    107e:	68aa      	ldr	r2, [r5, #8]
    1080:	4591      	cmp	r9, r2
    1082:	d006      	beq.n	1092 <map_segments+0x202>
    1084:	4a38      	ldr	r2, [pc, #224]	@ (1168 <map_segments+0x2d8>)
    1086:	f240 2182 	movw	r1, #642	@ 0x282
    108a:	4838      	ldr	r0, [pc, #224]	@ (116c <map_segments+0x2dc>)
    108c:	447a      	add	r2, pc
    108e:	4478      	add	r0, pc
    1090:	e75d      	b.n	f4e <map_segments+0xbe>
/home/lubuntu/Dokument/GitHub/STM32-Computer/Firmware/STM32-Computer-Firmware/CA7/optee-os-3.19.0-r2/optee-os-stm32mp-3.19.0-stm32mp-r2/ldelf/ta_elf.c:649
    1092:	6882      	ldr	r2, [r0, #8]
    1094:	441a      	add	r2, r3
    1096:	eba2 020c 	sub.w	r2, r2, ip
    109a:	60aa      	str	r2, [r5, #8]
/home/lubuntu/Dokument/GitHub/STM32-Computer/Firmware/STM32-Computer-Firmware/CA7/optee-os-3.19.0-r2/optee-os-stm32mp-3.19.0-stm32mp-r2/ldelf/ta_elf.c:651
    109c:	68c2      	ldr	r2, [r0, #12]
    109e:	441a      	add	r2, r3
    10a0:	eba2 020c 	sub.w	r2, r2, ip
/home/lubuntu/Dokument/GitHub/STM32-Computer/Firmware/STM32-Computer-Firmware/CA7/optee-os-3.19.0-r2/optee-os-stm32mp-3.19.0-stm32mp-r2/ldelf/ta_elf.c:653
    10a4:	692b      	ldr	r3, [r5, #16]
/home/lubuntu/Dokument/GitHub/STM32-Computer/Firmware/STM32-Computer-Firmware/CA7/optee-os-3.19.0-r2/optee-os-stm32mp-3.19.0-stm32mp-r2/ldelf/ta_elf.c:651
    10a6:	60ea      	str	r2, [r5, #12]
/home/lubuntu/Dokument/GitHub/STM32-Computer/Firmware/STM32-Computer-Firmware/CA7/optee-os-3.19.0-r2/optee-os-stm32mp-3.19.0-stm32mp-r2/ldelf/ta_elf.c:653
    10a8:	6902      	ldr	r2, [r0, #16]
    10aa:	4313      	orrs	r3, r2
    10ac:	612b      	str	r3, [r5, #16]
/home/lubuntu/Dokument/GitHub/STM32-Computer/Firmware/STM32-Computer-Firmware/CA7/optee-os-3.19.0-r2/optee-os-stm32mp-3.19.0-stm32mp-r2/ldelf/ta_elf.c:655
    10ae:	69c3      	ldr	r3, [r0, #28]
    10b0:	b133      	cbz	r3, 10c0 <map_segments+0x230>
    10b2:	6219      	str	r1, [r3, #32]
    10b4:	6a02      	ldr	r2, [r0, #32]
    10b6:	6013      	str	r3, [r2, #0]
/home/lubuntu/Dokument/GitHub/STM32-Computer/Firmware/STM32-Computer-Firmware/CA7/optee-os-3.19.0-r2/optee-os-stm32mp-3.19.0-stm32mp-r2/ldelf/ta_elf.c:656
    10b8:	f002 fafc 	bl	36b4 <free>
/home/lubuntu/Dokument/GitHub/STM32-Computer/Firmware/STM32-Computer-Firmware/CA7/optee-os-3.19.0-r2/optee-os-stm32mp-3.19.0-stm32mp-r2/ldelf/ta_elf.c:657
    10bc:	69e8      	ldr	r0, [r5, #28]
/home/lubuntu/Dokument/GitHub/STM32-Computer/Firmware/STM32-Computer-Firmware/CA7/optee-os-3.19.0-r2/optee-os-stm32mp-3.19.0-stm32mp-r2/ldelf/ta_elf.c:658
    10be:	e6ff      	b.n	ec0 <map_segments+0x30>
/home/lubuntu/Dokument/GitHub/STM32-Computer/Firmware/STM32-Computer-Firmware/CA7/optee-os-3.19.0-r2/optee-os-stm32mp-3.19.0-stm32mp-r2/ldelf/ta_elf.c:655
    10c0:	65e1      	str	r1, [r4, #92]	@ 0x5c
    10c2:	e7f7      	b.n	10b4 <map_segments+0x224>
/home/lubuntu/Dokument/GitHub/STM32-Computer/Firmware/STM32-Computer-Firmware/CA7/optee-os-3.19.0-r2/optee-os-stm32mp-3.19.0-stm32mp-r2/ldelf/ta_elf.c:662
    10c4:	4216      	tst	r6, r2
rounddown():
/home/lubuntu/Dokument/GitHub/STM32-Computer/Firmware/STM32-Computer-Firmware/CA7/optee-os-3.19.0-r2/optee-os-stm32mp-3.19.0-stm32mp-r2/ldelf/ta_elf.c:497
    10c6:	ea02 0107 	and.w	r1, r2, r7
adjust_segments():
/home/lubuntu/Dokument/GitHub/STM32-Computer/Firmware/STM32-Computer-Firmware/CA7/optee-os-3.19.0-r2/optee-os-stm32mp-3.19.0-stm32mp-r2/ldelf/ta_elf.c:662
    10ca:	d010      	beq.n	10ee <map_segments+0x25e>
/home/lubuntu/Dokument/GitHub/STM32-Computer/Firmware/STM32-Computer-Firmware/CA7/optee-os-3.19.0-r2/optee-os-stm32mp-3.19.0-stm32mp-r2/ldelf/ta_elf.c:664
    10cc:	682a      	ldr	r2, [r5, #0]
    10ce:	68ad      	ldr	r5, [r5, #8]
    10d0:	442a      	add	r2, r5
/home/lubuntu/Dokument/GitHub/STM32-Computer/Firmware/STM32-Computer-Firmware/CA7/optee-os-3.19.0-r2/optee-os-stm32mp-3.19.0-stm32mp-r2/ldelf/ta_elf.c:662
    10d2:	428a      	cmp	r2, r1
    10d4:	d90b      	bls.n	10ee <map_segments+0x25e>
/home/lubuntu/Dokument/GitHub/STM32-Computer/Firmware/STM32-Computer-Firmware/CA7/optee-os-3.19.0-r2/optee-os-stm32mp-3.19.0-stm32mp-r2/ldelf/ta_elf.c:666
    10d6:	6902      	ldr	r2, [r0, #16]
    10d8:	0792      	lsls	r2, r2, #30
    10da:	d406      	bmi.n	10ea <map_segments+0x25a>
    10dc:	4a24      	ldr	r2, [pc, #144]	@ (1170 <map_segments+0x2e0>)
    10de:	f240 219a 	movw	r1, #666	@ 0x29a
    10e2:	4824      	ldr	r0, [pc, #144]	@ (1174 <map_segments+0x2e4>)
    10e4:	447a      	add	r2, pc
    10e6:	4478      	add	r0, pc
    10e8:	e731      	b.n	f4e <map_segments+0xbe>
/home/lubuntu/Dokument/GitHub/STM32-Computer/Firmware/STM32-Computer-Firmware/CA7/optee-os-3.19.0-r2/optee-os-stm32mp-3.19.0-stm32mp-r2/ldelf/ta_elf.c:667
    10ea:	f880 8018 	strb.w	r8, [r0, #24]
/home/lubuntu/Dokument/GitHub/STM32-Computer/Firmware/STM32-Computer-Firmware/CA7/optee-os-3.19.0-r2/optee-os-stm32mp-3.19.0-stm32mp-r2/ldelf/ta_elf.c:674
    10ee:	6882      	ldr	r2, [r0, #8]
    10f0:	eba3 030e 	sub.w	r3, r3, lr
    10f4:	441a      	add	r2, r3
    10f6:	6082      	str	r2, [r0, #8]
/home/lubuntu/Dokument/GitHub/STM32-Computer/Firmware/STM32-Computer-Firmware/CA7/optee-os-3.19.0-r2/optee-os-stm32mp-3.19.0-stm32mp-r2/ldelf/ta_elf.c:675
    10f8:	68c2      	ldr	r2, [r0, #12]
/home/lubuntu/Dokument/GitHub/STM32-Computer/Firmware/STM32-Computer-Firmware/CA7/optee-os-3.19.0-r2/optee-os-stm32mp-3.19.0-stm32mp-r2/ldelf/ta_elf.c:677
    10fa:	e9c0 1e00 	strd	r1, lr, [r0]
/home/lubuntu/Dokument/GitHub/STM32-Computer/Firmware/STM32-Computer-Firmware/CA7/optee-os-3.19.0-r2/optee-os-stm32mp-3.19.0-stm32mp-r2/ldelf/ta_elf.c:675
    10fe:	441a      	add	r2, r3
    1100:	60c2      	str	r2, [r0, #12]
/home/lubuntu/Dokument/GitHub/STM32-Computer/Firmware/STM32-Computer-Firmware/CA7/optee-os-3.19.0-r2/optee-os-stm32mp-3.19.0-stm32mp-r2/ldelf/ta_elf.c:678
    1102:	69c0      	ldr	r0, [r0, #28]
    1104:	e6dc      	b.n	ec0 <map_segments+0x30>
    1106:	bf00      	nop
    1108:	70000001 	.word	0x70000001
    110c:	fffff000 	.word	0xfffff000
    1110:	00004143 	.word	0x00004143
    1114:	0000399e 	.word	0x0000399e
    1118:	00005166 	.word	0x00005166
    111c:	000040e1 	.word	0x000040e1
    1120:	000039ec 	.word	0x000039ec
    1124:	00005148 	.word	0x00005148
    1128:	00004065 	.word	0x00004065
    112c:	000039a1 	.word	0x000039a1
    1130:	00004045 	.word	0x00004045
    1134:	000039cd 	.word	0x000039cd
    1138:	00004037 	.word	0x00004037
    113c:	00003991 	.word	0x00003991
    1140:	0000401d 	.word	0x0000401d
    1144:	000039bf 	.word	0x000039bf
    1148:	00003ffb 	.word	0x00003ffb
    114c:	000039df 	.word	0x000039df
    1150:	00003fe3 	.word	0x00003fe3
    1154:	000039f7 	.word	0x000039f7
    1158:	00003fcf 	.word	0x00003fcf
    115c:	00003a16 	.word	0x00003a16
    1160:	00003f97 	.word	0x00003f97
    1164:	000039f2 	.word	0x000039f2
    1168:	00003f83 	.word	0x00003f83
    116c:	00003a0a 	.word	0x00003a0a
    1170:	00003f2b 	.word	0x00003f2b
    1174:	000039d6 	.word	0x000039d6
map_segments():
/home/lubuntu/Dokument/GitHub/STM32-Computer/Firmware/STM32-Computer-Firmware/CA7/optee-os-3.19.0-r2/optee-os-stm32mp-3.19.0-stm32mp-r2/ldelf/ta_elf.c:982
    1178:	f8d9 100c 	ldr.w	r1, [r9, #12]
    117c:	af05      	add	r7, sp, #20
    117e:	f8d9 2004 	ldr.w	r2, [r9, #4]
roundup():
/home/lubuntu/Dokument/GitHub/STM32-Computer/Firmware/STM32-Computer-Firmware/CA7/optee-os-3.19.0-r2/optee-os-stm32mp-3.19.0-stm32mp-r2/ldelf/ta_elf.c:492
    1182:	f8df 807c 	ldr.w	r8, [pc, #124]	@ 1200 <map_segments+0x370>
map_segments():
/home/lubuntu/Dokument/GitHub/STM32-Computer/Firmware/STM32-Computer-Firmware/CA7/optee-os-3.19.0-r2/optee-os-stm32mp-3.19.0-stm32mp-r2/ldelf/ta_elf.c:982
    1186:	440a      	add	r2, r1
    1188:	4639      	mov	r1, r7
roundup():
/home/lubuntu/Dokument/GitHub/STM32-Computer/Firmware/STM32-Computer-Firmware/CA7/optee-os-3.19.0-r2/optee-os-stm32mp-3.19.0-stm32mp-r2/ldelf/ta_elf.c:492
    118a:	f602 72ff 	addw	r2, r2, #4095	@ 0xfff
    118e:	ea02 0208 	and.w	r2, r2, r8
map_segments():
/home/lubuntu/Dokument/GitHub/STM32-Computer/Firmware/STM32-Computer-Firmware/CA7/optee-os-3.19.0-r2/optee-os-stm32mp-3.19.0-stm32mp-r2/ldelf/ta_elf.c:982
    1192:	9200      	str	r2, [sp, #0]
    1194:	462a      	mov	r2, r5
    1196:	6860      	ldr	r0, [r4, #4]
    1198:	f002 ff57 	bl	404a <sys_remap>
/home/lubuntu/Dokument/GitHub/STM32-Computer/Firmware/STM32-Computer-Firmware/CA7/optee-os-3.19.0-r2/optee-os-stm32mp-3.19.0-stm32mp-r2/ldelf/ta_elf.c:984
    119c:	4b19      	ldr	r3, [pc, #100]	@ (1204 <map_segments+0x374>)
/home/lubuntu/Dokument/GitHub/STM32-Computer/Firmware/STM32-Computer-Firmware/CA7/optee-os-3.19.0-r2/optee-os-stm32mp-3.19.0-stm32mp-r2/ldelf/ta_elf.c:982
    119e:	4682      	mov	sl, r0
/home/lubuntu/Dokument/GitHub/STM32-Computer/Firmware/STM32-Computer-Firmware/CA7/optee-os-3.19.0-r2/optee-os-stm32mp-3.19.0-stm32mp-r2/ldelf/ta_elf.c:984
    11a0:	4298      	cmp	r0, r3
    11a2:	d110      	bne.n	11c6 <map_segments+0x336>
/home/lubuntu/Dokument/GitHub/STM32-Computer/Firmware/STM32-Computer-Firmware/CA7/optee-os-3.19.0-r2/optee-os-stm32mp-3.19.0-stm32mp-r2/ldelf/ta_elf.c:985
    11a4:	f8d9 200c 	ldr.w	r2, [r9, #12]
    11a8:	4639      	mov	r1, r7
    11aa:	f8d9 3004 	ldr.w	r3, [r9, #4]
    11ae:	4413      	add	r3, r2
    11b0:	462a      	mov	r2, r5
roundup():
/home/lubuntu/Dokument/GitHub/STM32-Computer/Firmware/STM32-Computer-Firmware/CA7/optee-os-3.19.0-r2/optee-os-stm32mp-3.19.0-stm32mp-r2/ldelf/ta_elf.c:492
    11b2:	f603 73ff 	addw	r3, r3, #4095	@ 0xfff
    11b6:	ea03 0308 	and.w	r3, r3, r8
map_segments():
/home/lubuntu/Dokument/GitHub/STM32-Computer/Firmware/STM32-Computer-Firmware/CA7/optee-os-3.19.0-r2/optee-os-stm32mp-3.19.0-stm32mp-r2/ldelf/ta_elf.c:985
    11ba:	9300      	str	r3, [sp, #0]
    11bc:	4633      	mov	r3, r6
    11be:	6860      	ldr	r0, [r4, #4]
    11c0:	f002 ff43 	bl	404a <sys_remap>
    11c4:	4682      	mov	sl, r0
/home/lubuntu/Dokument/GitHub/STM32-Computer/Firmware/STM32-Computer-Firmware/CA7/optee-os-3.19.0-r2/optee-os-stm32mp-3.19.0-stm32mp-r2/ldelf/ta_elf.c:987
    11c6:	f1ba 0f00 	cmp.w	sl, #0
    11ca:	d00d      	beq.n	11e8 <map_segments+0x358>
/home/lubuntu/Dokument/GitHub/STM32-Computer/Firmware/STM32-Computer-Firmware/CA7/optee-os-3.19.0-r2/optee-os-stm32mp-3.19.0-stm32mp-r2/ldelf/ta_elf.c:988
    11cc:	4b0e      	ldr	r3, [pc, #56]	@ (1208 <map_segments+0x378>)
    11ce:	f44f 7177 	mov.w	r1, #988	@ 0x3dc
    11d2:	480e      	ldr	r0, [pc, #56]	@ (120c <map_segments+0x37c>)
    11d4:	447b      	add	r3, pc
    11d6:	9300      	str	r3, [sp, #0]
    11d8:	2301      	movs	r3, #1
    11da:	4478      	add	r0, pc
    11dc:	461a      	mov	r2, r3
    11de:	f003 f96b 	bl	44b8 <trace_printf>
    11e2:	4650      	mov	r0, sl
    11e4:	f7fe ef48 	blx	78 <_ldelf_return>
/home/lubuntu/Dokument/GitHub/STM32-Computer/Firmware/STM32-Computer-Firmware/CA7/optee-os-3.19.0-r2/optee-os-stm32mp-3.19.0-stm32mp-r2/ldelf/ta_elf.c:989
    11e8:	9b05      	ldr	r3, [sp, #20]
/home/lubuntu/Dokument/GitHub/STM32-Computer/Firmware/STM32-Computer-Firmware/CA7/optee-os-3.19.0-r2/optee-os-stm32mp-3.19.0-stm32mp-r2/ldelf/ta_elf.c:992
    11ea:	69a2      	ldr	r2, [r4, #24]
/home/lubuntu/Dokument/GitHub/STM32-Computer/Firmware/STM32-Computer-Firmware/CA7/optee-os-3.19.0-r2/optee-os-stm32mp-3.19.0-stm32mp-r2/ldelf/ta_elf.c:991
    11ec:	441d      	add	r5, r3
/home/lubuntu/Dokument/GitHub/STM32-Computer/Firmware/STM32-Computer-Firmware/CA7/optee-os-3.19.0-r2/optee-os-stm32mp-3.19.0-stm32mp-r2/ldelf/ta_elf.c:992
    11ee:	441a      	add	r2, r3
/home/lubuntu/Dokument/GitHub/STM32-Computer/Firmware/STM32-Computer-Firmware/CA7/optee-os-3.19.0-r2/optee-os-stm32mp-3.19.0-stm32mp-r2/ldelf/ta_elf.c:989
    11f0:	6123      	str	r3, [r4, #16]
/home/lubuntu/Dokument/GitHub/STM32-Computer/Firmware/STM32-Computer-Firmware/CA7/optee-os-3.19.0-r2/optee-os-stm32mp-3.19.0-stm32mp-r2/ldelf/ta_elf.c:990
    11f2:	6063      	str	r3, [r4, #4]
/home/lubuntu/Dokument/GitHub/STM32-Computer/Firmware/STM32-Computer-Firmware/CA7/optee-os-3.19.0-r2/optee-os-stm32mp-3.19.0-stm32mp-r2/ldelf/ta_elf.c:991
    11f4:	60a5      	str	r5, [r4, #8]
/home/lubuntu/Dokument/GitHub/STM32-Computer/Firmware/STM32-Computer-Firmware/CA7/optee-os-3.19.0-r2/optee-os-stm32mp-3.19.0-stm32mp-r2/ldelf/ta_elf.c:992
    11f6:	6322      	str	r2, [r4, #48]	@ 0x30
/home/lubuntu/Dokument/GitHub/STM32-Computer/Firmware/STM32-Computer-Firmware/CA7/optee-os-3.19.0-r2/optee-os-stm32mp-3.19.0-stm32mp-r2/ldelf/ta_elf.c:994
    11f8:	b006      	add	sp, #24
    11fa:	e8bd 87f0 	ldmia.w	sp!, {r4, r5, r6, r7, r8, r9, sl, pc}
    11fe:	bf00      	nop
    1200:	fffff000 	.word	0xfffff000
    1204:	ffff000c 	.word	0xffff000c
    1208:	000038fa 	.word	0x000038fa
    120c:	00003e63 	.word	0x00003e63

00001210 <save_soname_from_segment>:
save_soname_from_segment():
/home/lubuntu/Dokument/GitHub/STM32-Computer/Firmware/STM32-Computer-Firmware/CA7/optee-os-3.19.0-r2/optee-os-stm32mp-3.19.0-stm32mp-r2/ldelf/ta_elf.c:315
    1210:	2902      	cmp	r1, #2
/home/lubuntu/Dokument/GitHub/STM32-Computer/Firmware/STM32-Computer-Firmware/CA7/optee-os-3.19.0-r2/optee-os-stm32mp-3.19.0-stm32mp-r2/ldelf/ta_elf.c:307
    1212:	e92d 47ff 	stmdb	sp!, {r0, r1, r2, r3, r4, r5, r6, r7, r8, r9, sl, lr}
    1216:	4617      	mov	r7, r2
/home/lubuntu/Dokument/GitHub/STM32-Computer/Firmware/STM32-Computer-Firmware/CA7/optee-os-3.19.0-r2/optee-os-stm32mp-3.19.0-stm32mp-r2/ldelf/ta_elf.c:311
    1218:	f04f 0200 	mov.w	r2, #0
/home/lubuntu/Dokument/GitHub/STM32-Computer/Firmware/STM32-Computer-Firmware/CA7/optee-os-3.19.0-r2/optee-os-stm32mp-3.19.0-stm32mp-r2/ldelf/ta_elf.c:307
    121c:	4606      	mov	r6, r0
/home/lubuntu/Dokument/GitHub/STM32-Computer/Firmware/STM32-Computer-Firmware/CA7/optee-os-3.19.0-r2/optee-os-stm32mp-3.19.0-stm32mp-r2/ldelf/ta_elf.c:312
    121e:	e9cd 2202 	strd	r2, r2, [sp, #8]
/home/lubuntu/Dokument/GitHub/STM32-Computer/Firmware/STM32-Computer-Firmware/CA7/optee-os-3.19.0-r2/optee-os-stm32mp-3.19.0-stm32mp-r2/ldelf/ta_elf.c:315
    1222:	d13c      	bne.n	129e <save_soname_from_segment+0x8e>
/home/lubuntu/Dokument/GitHub/STM32-Computer/Firmware/STM32-Computer-Firmware/CA7/optee-os-3.19.0-r2/optee-os-stm32mp-3.19.0-stm32mp-r2/ldelf/ta_elf.c:318
    1224:	7842      	ldrb	r2, [r0, #1]
/home/lubuntu/Dokument/GitHub/STM32-Computer/Firmware/STM32-Computer-Firmware/CA7/optee-os-3.19.0-r2/optee-os-stm32mp-3.19.0-stm32mp-r2/ldelf/ta_elf.c:319
    1226:	2a00      	cmp	r2, #0
    1228:	bf0c      	ite	eq
    122a:	2210      	moveq	r2, #16
    122c:	2208      	movne	r2, #8
/home/lubuntu/Dokument/GitHub/STM32-Computer/Firmware/STM32-Computer-Firmware/CA7/optee-os-3.19.0-r2/optee-os-stm32mp-3.19.0-stm32mp-r2/ldelf/ta_elf.c:323
    122e:	fbb3 f8f2 	udiv	r8, r3, r2
    1232:	fb02 3418 	mls	r4, r2, r8, r3
    1236:	b13c      	cbz	r4, 1248 <save_soname_from_segment+0x38>
/home/lubuntu/Dokument/GitHub/STM32-Computer/Firmware/STM32-Computer-Firmware/CA7/optee-os-3.19.0-r2/optee-os-stm32mp-3.19.0-stm32mp-r2/ldelf/ta_elf.c:323 (discriminator 1)
    1238:	4a1c      	ldr	r2, [pc, #112]	@ (12ac <save_soname_from_segment+0x9c>)
    123a:	f240 1143 	movw	r1, #323	@ 0x143
    123e:	481c      	ldr	r0, [pc, #112]	@ (12b0 <save_soname_from_segment+0xa0>)
    1240:	447a      	add	r2, pc
    1242:	4478      	add	r0, pc
    1244:	f7ff fb6a 	bl	91c <_assert_trap.constprop.0>
/home/lubuntu/Dokument/GitHub/STM32-Computer/Firmware/STM32-Computer-Firmware/CA7/optee-os-3.19.0-r2/optee-os-stm32mp-3.19.0-stm32mp-r2/ldelf/ta_elf.c:326
    1248:	4625      	mov	r5, r4
/home/lubuntu/Dokument/GitHub/STM32-Computer/Firmware/STM32-Computer-Firmware/CA7/optee-os-3.19.0-r2/optee-os-stm32mp-3.19.0-stm32mp-r2/ldelf/ta_elf.c:327
    124a:	f10d 0908 	add.w	r9, sp, #8
    124e:	f10d 0a0c 	add.w	sl, sp, #12
/home/lubuntu/Dokument/GitHub/STM32-Computer/Firmware/STM32-Computer-Firmware/CA7/optee-os-3.19.0-r2/optee-os-stm32mp-3.19.0-stm32mp-r2/ldelf/ta_elf.c:326 (discriminator 1)
    1252:	4545      	cmp	r5, r8
    1254:	d101      	bne.n	125a <save_soname_from_segment+0x4a>
/home/lubuntu/Dokument/GitHub/STM32-Computer/Firmware/STM32-Computer-Firmware/CA7/optee-os-3.19.0-r2/optee-os-stm32mp-3.19.0-stm32mp-r2/ldelf/ta_elf.c:313
    1256:	2500      	movs	r5, #0
    1258:	e00d      	b.n	1276 <save_soname_from_segment+0x66>
/home/lubuntu/Dokument/GitHub/STM32-Computer/Firmware/STM32-Computer-Firmware/CA7/optee-os-3.19.0-r2/optee-os-stm32mp-3.19.0-stm32mp-r2/ldelf/ta_elf.c:327
    125a:	f8cd a000 	str.w	sl, [sp]
    125e:	464b      	mov	r3, r9
    1260:	462a      	mov	r2, r5
    1262:	4639      	mov	r1, r7
    1264:	4630      	mov	r0, r6
    1266:	f002 ff01 	bl	406c <read_dyn>
/home/lubuntu/Dokument/GitHub/STM32-Computer/Firmware/STM32-Computer-Firmware/CA7/optee-os-3.19.0-r2/optee-os-stm32mp-3.19.0-stm32mp-r2/ldelf/ta_elf.c:328
    126a:	9b02      	ldr	r3, [sp, #8]
    126c:	2b05      	cmp	r3, #5
    126e:	d119      	bne.n	12a4 <save_soname_from_segment+0x94>
/home/lubuntu/Dokument/GitHub/STM32-Computer/Firmware/STM32-Computer-Firmware/CA7/optee-os-3.19.0-r2/optee-os-stm32mp-3.19.0-stm32mp-r2/ldelf/ta_elf.c:329
    1270:	6875      	ldr	r5, [r6, #4]
    1272:	9b03      	ldr	r3, [sp, #12]
    1274:	441d      	add	r5, r3
/home/lubuntu/Dokument/GitHub/STM32-Computer/Firmware/STM32-Computer-Firmware/CA7/optee-os-3.19.0-r2/optee-os-stm32mp-3.19.0-stm32mp-r2/ldelf/ta_elf.c:334
    1276:	f10d 0908 	add.w	r9, sp, #8
    127a:	f10d 0a0c 	add.w	sl, sp, #12
/home/lubuntu/Dokument/GitHub/STM32-Computer/Firmware/STM32-Computer-Firmware/CA7/optee-os-3.19.0-r2/optee-os-stm32mp-3.19.0-stm32mp-r2/ldelf/ta_elf.c:333 (discriminator 1)
    127e:	4544      	cmp	r4, r8
    1280:	d00d      	beq.n	129e <save_soname_from_segment+0x8e>
/home/lubuntu/Dokument/GitHub/STM32-Computer/Firmware/STM32-Computer-Firmware/CA7/optee-os-3.19.0-r2/optee-os-stm32mp-3.19.0-stm32mp-r2/ldelf/ta_elf.c:334
    1282:	f8cd a000 	str.w	sl, [sp]
    1286:	464b      	mov	r3, r9
    1288:	4622      	mov	r2, r4
    128a:	4639      	mov	r1, r7
    128c:	4630      	mov	r0, r6
    128e:	f002 feed 	bl	406c <read_dyn>
/home/lubuntu/Dokument/GitHub/STM32-Computer/Firmware/STM32-Computer-Firmware/CA7/optee-os-3.19.0-r2/optee-os-stm32mp-3.19.0-stm32mp-r2/ldelf/ta_elf.c:335
    1292:	9b02      	ldr	r3, [sp, #8]
    1294:	2b0e      	cmp	r3, #14
    1296:	d107      	bne.n	12a8 <save_soname_from_segment+0x98>
/home/lubuntu/Dokument/GitHub/STM32-Computer/Firmware/STM32-Computer-Firmware/CA7/optee-os-3.19.0-r2/optee-os-stm32mp-3.19.0-stm32mp-r2/ldelf/ta_elf.c:336
    1298:	9b03      	ldr	r3, [sp, #12]
    129a:	442b      	add	r3, r5
    129c:	6573      	str	r3, [r6, #84]	@ 0x54
/home/lubuntu/Dokument/GitHub/STM32-Computer/Firmware/STM32-Computer-Firmware/CA7/optee-os-3.19.0-r2/optee-os-stm32mp-3.19.0-stm32mp-r2/ldelf/ta_elf.c:340
    129e:	b004      	add	sp, #16
    12a0:	e8bd 87f0 	ldmia.w	sp!, {r4, r5, r6, r7, r8, r9, sl, pc}
/home/lubuntu/Dokument/GitHub/STM32-Computer/Firmware/STM32-Computer-Firmware/CA7/optee-os-3.19.0-r2/optee-os-stm32mp-3.19.0-stm32mp-r2/ldelf/ta_elf.c:326 (discriminator 2)
    12a4:	3501      	adds	r5, #1
    12a6:	e7d4      	b.n	1252 <save_soname_from_segment+0x42>
/home/lubuntu/Dokument/GitHub/STM32-Computer/Firmware/STM32-Computer-Firmware/CA7/optee-os-3.19.0-r2/optee-os-stm32mp-3.19.0-stm32mp-r2/ldelf/ta_elf.c:333 (discriminator 2)
    12a8:	3401      	adds	r4, #1
    12aa:	e7e8      	b.n	127e <save_soname_from_segment+0x6e>
    12ac:	00003d12 	.word	0x00003d12
    12b0:	00003896 	.word	0x00003896

000012b4 <save_symtab>:
save_symtab():
/home/lubuntu/Dokument/GitHub/STM32-Computer/Firmware/STM32-Computer-Firmware/CA7/optee-os-3.19.0-r2/optee-os-stm32mp-3.19.0-stm32mp-r2/ldelf/ta_elf.c:416
    12b4:	b5f7      	push	{r0, r1, r2, r4, r5, r6, r7, lr}
    12b6:	4604      	mov	r4, r0
/home/lubuntu/Dokument/GitHub/STM32-Computer/Firmware/STM32-Computer-Firmware/CA7/optee-os-3.19.0-r2/optee-os-stm32mp-3.19.0-stm32mp-r2/ldelf/ta_elf.c:420
    12b8:	6b47      	ldr	r7, [r0, #52]	@ 0x34
/home/lubuntu/Dokument/GitHub/STM32-Computer/Firmware/STM32-Computer-Firmware/CA7/optee-os-3.19.0-r2/optee-os-stm32mp-3.19.0-stm32mp-r2/ldelf/ta_elf.c:419
    12ba:	7843      	ldrb	r3, [r0, #1]
/home/lubuntu/Dokument/GitHub/STM32-Computer/Firmware/STM32-Computer-Firmware/CA7/optee-os-3.19.0-r2/optee-os-stm32mp-3.19.0-stm32mp-r2/ldelf/ta_elf.c:422
    12bc:	6a42      	ldr	r2, [r0, #36]	@ 0x24
    12be:	463d      	mov	r5, r7
/home/lubuntu/Dokument/GitHub/STM32-Computer/Firmware/STM32-Computer-Firmware/CA7/optee-os-3.19.0-r2/optee-os-stm32mp-3.19.0-stm32mp-r2/ldelf/ta_elf.c:419
    12c0:	b9cb      	cbnz	r3, 12f6 <save_symtab+0x42>
/home/lubuntu/Dokument/GitHub/STM32-Computer/Firmware/STM32-Computer-Firmware/CA7/optee-os-3.19.0-r2/optee-os-stm32mp-3.19.0-stm32mp-r2/ldelf/ta_elf.c:431 (discriminator 1)
    12c2:	4293      	cmp	r3, r2
    12c4:	d01a      	beq.n	12fc <save_symtab+0x48>
/home/lubuntu/Dokument/GitHub/STM32-Computer/Firmware/STM32-Computer-Firmware/CA7/optee-os-3.19.0-r2/optee-os-stm32mp-3.19.0-stm32mp-r2/ldelf/ta_elf.c:432
    12c6:	6868      	ldr	r0, [r5, #4]
    12c8:	f105 0140 	add.w	r1, r5, #64	@ 0x40
    12cc:	280b      	cmp	r0, #11
    12ce:	f040 80b0 	bne.w	1432 <save_symtab+0x17e>
e64_save_symtab():
/home/lubuntu/Dokument/GitHub/STM32-Computer/Firmware/STM32-Computer-Firmware/CA7/optee-os-3.19.0-r2/optee-os-stm32mp-3.19.0-stm32mp-r2/ldelf/ta_elf.c:392
    12d2:	692a      	ldr	r2, [r5, #16]
    12d4:	6863      	ldr	r3, [r4, #4]
/home/lubuntu/Dokument/GitHub/STM32-Computer/Firmware/STM32-Computer-Firmware/CA7/optee-os-3.19.0-r2/optee-os-stm32mp-3.19.0-stm32mp-r2/ldelf/ta_elf.c:390
    12d6:	6aae      	ldr	r6, [r5, #40]	@ 0x28
/home/lubuntu/Dokument/GitHub/STM32-Computer/Firmware/STM32-Computer-Firmware/CA7/optee-os-3.19.0-r2/optee-os-stm32mp-3.19.0-stm32mp-r2/ldelf/ta_elf.c:392
    12d8:	441a      	add	r2, r3
/home/lubuntu/Dokument/GitHub/STM32-Computer/Firmware/STM32-Computer-Firmware/CA7/optee-os-3.19.0-r2/optee-os-stm32mp-3.19.0-stm32mp-r2/ldelf/ta_elf.c:395
    12da:	0751      	lsls	r1, r2, #29
/home/lubuntu/Dokument/GitHub/STM32-Computer/Firmware/STM32-Computer-Firmware/CA7/optee-os-3.19.0-r2/optee-os-stm32mp-3.19.0-stm32mp-r2/ldelf/ta_elf.c:392
    12dc:	63a2      	str	r2, [r4, #56]	@ 0x38
/home/lubuntu/Dokument/GitHub/STM32-Computer/Firmware/STM32-Computer-Firmware/CA7/optee-os-3.19.0-r2/optee-os-stm32mp-3.19.0-stm32mp-r2/ldelf/ta_elf.c:395
    12de:	d074      	beq.n	13ca <save_symtab+0x116>
/home/lubuntu/Dokument/GitHub/STM32-Computer/Firmware/STM32-Computer-Firmware/CA7/optee-os-3.19.0-r2/optee-os-stm32mp-3.19.0-stm32mp-r2/ldelf/ta_elf.c:396
    12e0:	4b97      	ldr	r3, [pc, #604]	@ (1540 <save_symtab+0x28c>)
    12e2:	f44f 71c6 	mov.w	r1, #396	@ 0x18c
    12e6:	4897      	ldr	r0, [pc, #604]	@ (1544 <save_symtab+0x290>)
    12e8:	447b      	add	r3, pc
    12ea:	9300      	str	r3, [sp, #0]
    12ec:	2301      	movs	r3, #1
    12ee:	9201      	str	r2, [sp, #4]
    12f0:	461a      	mov	r2, r3
    12f2:	4478      	add	r0, pc
    12f4:	e02d      	b.n	1352 <save_symtab+0x9e>
save_symtab():
/home/lubuntu/Dokument/GitHub/STM32-Computer/Firmware/STM32-Computer-Firmware/CA7/optee-os-3.19.0-r2/optee-os-stm32mp-3.19.0-stm32mp-r2/ldelf/ta_elf.c:422
    12f6:	2300      	movs	r3, #0
/home/lubuntu/Dokument/GitHub/STM32-Computer/Firmware/STM32-Computer-Firmware/CA7/optee-os-3.19.0-r2/optee-os-stm32mp-3.19.0-stm32mp-r2/ldelf/ta_elf.c:422 (discriminator 1)
    12f8:	4293      	cmp	r3, r2
    12fa:	d114      	bne.n	1326 <save_symtab+0x72>
save_hashtab():
/home/lubuntu/Dokument/GitHub/STM32-Computer/Firmware/STM32-Computer-Firmware/CA7/optee-os-3.19.0-r2/optee-os-stm32mp-3.19.0-stm32mp-r2/ldelf/ta_elf.c:266
    12fc:	7862      	ldrb	r2, [r4, #1]
/home/lubuntu/Dokument/GitHub/STM32-Computer/Firmware/STM32-Computer-Firmware/CA7/optee-os-3.19.0-r2/optee-os-stm32mp-3.19.0-stm32mp-r2/ldelf/ta_elf.c:267
    12fe:	6b63      	ldr	r3, [r4, #52]	@ 0x34
/home/lubuntu/Dokument/GitHub/STM32-Computer/Firmware/STM32-Computer-Firmware/CA7/optee-os-3.19.0-r2/optee-os-stm32mp-3.19.0-stm32mp-r2/ldelf/ta_elf.c:269
    1300:	6a61      	ldr	r1, [r4, #36]	@ 0x24
/home/lubuntu/Dokument/GitHub/STM32-Computer/Firmware/STM32-Computer-Firmware/CA7/optee-os-3.19.0-r2/optee-os-stm32mp-3.19.0-stm32mp-r2/ldelf/ta_elf.c:266
    1302:	2a00      	cmp	r2, #0
    1304:	f040 8098 	bne.w	1438 <save_symtab+0x184>
/home/lubuntu/Dokument/GitHub/STM32-Computer/Firmware/STM32-Computer-Firmware/CA7/optee-os-3.19.0-r2/optee-os-stm32mp-3.19.0-stm32mp-r2/ldelf/ta_elf.c:289
    1308:	4e8b      	ldr	r6, [pc, #556]	@ (1538 <save_symtab+0x284>)
/home/lubuntu/Dokument/GitHub/STM32-Computer/Firmware/STM32-Computer-Firmware/CA7/optee-os-3.19.0-r2/optee-os-stm32mp-3.19.0-stm32mp-r2/ldelf/ta_elf.c:283
    130a:	428a      	cmp	r2, r1
    130c:	f000 809a 	beq.w	1444 <save_symtab+0x190>
/home/lubuntu/Dokument/GitHub/STM32-Computer/Firmware/STM32-Computer-Firmware/CA7/optee-os-3.19.0-r2/optee-os-stm32mp-3.19.0-stm32mp-r2/ldelf/ta_elf.c:284
    1310:	6865      	ldr	r5, [r4, #4]
    1312:	6918      	ldr	r0, [r3, #16]
    1314:	4428      	add	r0, r5
/home/lubuntu/Dokument/GitHub/STM32-Computer/Firmware/STM32-Computer-Firmware/CA7/optee-os-3.19.0-r2/optee-os-stm32mp-3.19.0-stm32mp-r2/ldelf/ta_elf.c:287
    1316:	685d      	ldr	r5, [r3, #4]
    1318:	2d05      	cmp	r5, #5
    131a:	f040 80b3 	bne.w	1484 <save_symtab+0x1d0>
/home/lubuntu/Dokument/GitHub/STM32-Computer/Firmware/STM32-Computer-Firmware/CA7/optee-os-3.19.0-r2/optee-os-stm32mp-3.19.0-stm32mp-r2/ldelf/ta_elf.c:288
    131e:	64a0      	str	r0, [r4, #72]	@ 0x48
/home/lubuntu/Dokument/GitHub/STM32-Computer/Firmware/STM32-Computer-Firmware/CA7/optee-os-3.19.0-r2/optee-os-stm32mp-3.19.0-stm32mp-r2/ldelf/ta_elf.c:283
    1320:	3201      	adds	r2, #1
    1322:	3340      	adds	r3, #64	@ 0x40
    1324:	e7f1      	b.n	130a <save_symtab+0x56>
save_symtab():
/home/lubuntu/Dokument/GitHub/STM32-Computer/Firmware/STM32-Computer-Firmware/CA7/optee-os-3.19.0-r2/optee-os-stm32mp-3.19.0-stm32mp-r2/ldelf/ta_elf.c:423
    1326:	6868      	ldr	r0, [r5, #4]
    1328:	f105 0128 	add.w	r1, r5, #40	@ 0x28
    132c:	280b      	cmp	r0, #11
    132e:	d149      	bne.n	13c4 <save_symtab+0x110>
e32_save_symtab():
/home/lubuntu/Dokument/GitHub/STM32-Computer/Firmware/STM32-Computer-Firmware/CA7/optee-os-3.19.0-r2/optee-os-stm32mp-3.19.0-stm32mp-r2/ldelf/ta_elf.c:368
    1330:	68ea      	ldr	r2, [r5, #12]
    1332:	6863      	ldr	r3, [r4, #4]
/home/lubuntu/Dokument/GitHub/STM32-Computer/Firmware/STM32-Computer-Firmware/CA7/optee-os-3.19.0-r2/optee-os-stm32mp-3.19.0-stm32mp-r2/ldelf/ta_elf.c:366
    1334:	69ae      	ldr	r6, [r5, #24]
/home/lubuntu/Dokument/GitHub/STM32-Computer/Firmware/STM32-Computer-Firmware/CA7/optee-os-3.19.0-r2/optee-os-stm32mp-3.19.0-stm32mp-r2/ldelf/ta_elf.c:368
    1336:	441a      	add	r2, r3
/home/lubuntu/Dokument/GitHub/STM32-Computer/Firmware/STM32-Computer-Firmware/CA7/optee-os-3.19.0-r2/optee-os-stm32mp-3.19.0-stm32mp-r2/ldelf/ta_elf.c:369
    1338:	0793      	lsls	r3, r2, #30
/home/lubuntu/Dokument/GitHub/STM32-Computer/Firmware/STM32-Computer-Firmware/CA7/optee-os-3.19.0-r2/optee-os-stm32mp-3.19.0-stm32mp-r2/ldelf/ta_elf.c:368
    133a:	63a2      	str	r2, [r4, #56]	@ 0x38
/home/lubuntu/Dokument/GitHub/STM32-Computer/Firmware/STM32-Computer-Firmware/CA7/optee-os-3.19.0-r2/optee-os-stm32mp-3.19.0-stm32mp-r2/ldelf/ta_elf.c:369
    133c:	d00c      	beq.n	1358 <save_symtab+0xa4>
/home/lubuntu/Dokument/GitHub/STM32-Computer/Firmware/STM32-Computer-Firmware/CA7/optee-os-3.19.0-r2/optee-os-stm32mp-3.19.0-stm32mp-r2/ldelf/ta_elf.c:370
    133e:	4b82      	ldr	r3, [pc, #520]	@ (1548 <save_symtab+0x294>)
    1340:	f44f 71b9 	mov.w	r1, #370	@ 0x172
    1344:	4881      	ldr	r0, [pc, #516]	@ (154c <save_symtab+0x298>)
    1346:	447b      	add	r3, pc
    1348:	9300      	str	r3, [sp, #0]
    134a:	2301      	movs	r3, #1
    134c:	9201      	str	r2, [sp, #4]
    134e:	461a      	mov	r2, r3
    1350:	4478      	add	r0, pc
check_gnu_hashtab():
/home/lubuntu/Dokument/GitHub/STM32-Computer/Firmware/STM32-Computer-Firmware/CA7/optee-os-3.19.0-r2/optee-os-stm32mp-3.19.0-stm32mp-r2/ldelf/ta_elf.c:242
    1352:	f003 f8b1 	bl	44b8 <trace_printf>
    1356:	e013      	b.n	1380 <save_symtab+0xcc>
e32_save_symtab():
/home/lubuntu/Dokument/GitHub/STM32-Computer/Firmware/STM32-Computer-Firmware/CA7/optee-os-3.19.0-r2/optee-os-stm32mp-3.19.0-stm32mp-r2/ldelf/ta_elf.c:372
    1358:	497d      	ldr	r1, [pc, #500]	@ (1550 <save_symtab+0x29c>)
    135a:	4620      	mov	r0, r4
    135c:	696b      	ldr	r3, [r5, #20]
    135e:	4479      	add	r1, pc
    1360:	f7ff f89e 	bl	4a0 <check_range>
/home/lubuntu/Dokument/GitHub/STM32-Computer/Firmware/STM32-Computer-Firmware/CA7/optee-os-3.19.0-r2/optee-os-stm32mp-3.19.0-stm32mp-r2/ldelf/ta_elf.c:374
    1364:	696b      	ldr	r3, [r5, #20]
    1366:	0718      	lsls	r0, r3, #28
    1368:	d00d      	beq.n	1386 <save_symtab+0xd2>
/home/lubuntu/Dokument/GitHub/STM32-Computer/Firmware/STM32-Computer-Firmware/CA7/optee-os-3.19.0-r2/optee-os-stm32mp-3.19.0-stm32mp-r2/ldelf/ta_elf.c:375
    136a:	4b7a      	ldr	r3, [pc, #488]	@ (1554 <save_symtab+0x2a0>)
    136c:	f240 1177 	movw	r1, #375	@ 0x177
    1370:	4879      	ldr	r0, [pc, #484]	@ (1558 <save_symtab+0x2a4>)
    1372:	447b      	add	r3, pc
    1374:	9300      	str	r3, [sp, #0]
    1376:	2301      	movs	r3, #1
    1378:	4478      	add	r0, pc
    137a:	461a      	mov	r2, r3
    137c:	f003 f89c 	bl	44b8 <trace_printf>
    1380:	486e      	ldr	r0, [pc, #440]	@ (153c <save_symtab+0x288>)
    1382:	f7fe ee7a 	blx	78 <_ldelf_return>
/home/lubuntu/Dokument/GitHub/STM32-Computer/Firmware/STM32-Computer-Firmware/CA7/optee-os-3.19.0-r2/optee-os-stm32mp-3.19.0-stm32mp-r2/ldelf/ta_elf.c:377
    1386:	091b      	lsrs	r3, r3, #4
    1388:	63e3      	str	r3, [r4, #60]	@ 0x3c
/home/lubuntu/Dokument/GitHub/STM32-Computer/Firmware/STM32-Computer-Firmware/CA7/optee-os-3.19.0-r2/optee-os-stm32mp-3.19.0-stm32mp-r2/ldelf/ta_elf.c:379
    138a:	6a63      	ldr	r3, [r4, #36]	@ 0x24
    138c:	429e      	cmp	r6, r3
    138e:	d309      	bcc.n	13a4 <save_symtab+0xf0>
/home/lubuntu/Dokument/GitHub/STM32-Computer/Firmware/STM32-Computer-Firmware/CA7/optee-os-3.19.0-r2/optee-os-stm32mp-3.19.0-stm32mp-r2/ldelf/ta_elf.c:380
    1390:	4b72      	ldr	r3, [pc, #456]	@ (155c <save_symtab+0x2a8>)
    1392:	f44f 71be 	mov.w	r1, #380	@ 0x17c
    1396:	4872      	ldr	r0, [pc, #456]	@ (1560 <save_symtab+0x2ac>)
    1398:	447b      	add	r3, pc
    139a:	9300      	str	r3, [sp, #0]
    139c:	2301      	movs	r3, #1
    139e:	4478      	add	r0, pc
    13a0:	461a      	mov	r2, r3
    13a2:	e7eb      	b.n	137c <save_symtab+0xc8>
/home/lubuntu/Dokument/GitHub/STM32-Computer/Firmware/STM32-Computer-Firmware/CA7/optee-os-3.19.0-r2/optee-os-stm32mp-3.19.0-stm32mp-r2/ldelf/ta_elf.c:382
    13a4:	496f      	ldr	r1, [pc, #444]	@ (1564 <save_symtab+0x2b0>)
/home/lubuntu/Dokument/GitHub/STM32-Computer/Firmware/STM32-Computer-Firmware/CA7/optee-os-3.19.0-r2/optee-os-stm32mp-3.19.0-stm32mp-r2/ldelf/ta_elf.c:381
    13a6:	2328      	movs	r3, #40	@ 0x28
    13a8:	fb03 7606 	mla	r6, r3, r6, r7
    13ac:	6863      	ldr	r3, [r4, #4]
/home/lubuntu/Dokument/GitHub/STM32-Computer/Firmware/STM32-Computer-Firmware/CA7/optee-os-3.19.0-r2/optee-os-stm32mp-3.19.0-stm32mp-r2/ldelf/ta_elf.c:382
    13ae:	4620      	mov	r0, r4
/home/lubuntu/Dokument/GitHub/STM32-Computer/Firmware/STM32-Computer-Firmware/CA7/optee-os-3.19.0-r2/optee-os-stm32mp-3.19.0-stm32mp-r2/ldelf/ta_elf.c:381
    13b0:	68f2      	ldr	r2, [r6, #12]
/home/lubuntu/Dokument/GitHub/STM32-Computer/Firmware/STM32-Computer-Firmware/CA7/optee-os-3.19.0-r2/optee-os-stm32mp-3.19.0-stm32mp-r2/ldelf/ta_elf.c:382
    13b2:	4479      	add	r1, pc
/home/lubuntu/Dokument/GitHub/STM32-Computer/Firmware/STM32-Computer-Firmware/CA7/optee-os-3.19.0-r2/optee-os-stm32mp-3.19.0-stm32mp-r2/ldelf/ta_elf.c:381
    13b4:	441a      	add	r2, r3
    13b6:	6422      	str	r2, [r4, #64]	@ 0x40
/home/lubuntu/Dokument/GitHub/STM32-Computer/Firmware/STM32-Computer-Firmware/CA7/optee-os-3.19.0-r2/optee-os-stm32mp-3.19.0-stm32mp-r2/ldelf/ta_elf.c:382
    13b8:	6973      	ldr	r3, [r6, #20]
    13ba:	f7ff f871 	bl	4a0 <check_range>
/home/lubuntu/Dokument/GitHub/STM32-Computer/Firmware/STM32-Computer-Firmware/CA7/optee-os-3.19.0-r2/optee-os-stm32mp-3.19.0-stm32mp-r2/ldelf/ta_elf.c:384
    13be:	6973      	ldr	r3, [r6, #20]
e64_save_symtab():
/home/lubuntu/Dokument/GitHub/STM32-Computer/Firmware/STM32-Computer-Firmware/CA7/optee-os-3.19.0-r2/optee-os-stm32mp-3.19.0-stm32mp-r2/ldelf/ta_elf.c:412
    13c0:	6463      	str	r3, [r4, #68]	@ 0x44
/home/lubuntu/Dokument/GitHub/STM32-Computer/Firmware/STM32-Computer-Firmware/CA7/optee-os-3.19.0-r2/optee-os-stm32mp-3.19.0-stm32mp-r2/ldelf/ta_elf.c:413
    13c2:	e79b      	b.n	12fc <save_symtab+0x48>
save_symtab():
/home/lubuntu/Dokument/GitHub/STM32-Computer/Firmware/STM32-Computer-Firmware/CA7/optee-os-3.19.0-r2/optee-os-stm32mp-3.19.0-stm32mp-r2/ldelf/ta_elf.c:422 (discriminator 2)
    13c4:	3301      	adds	r3, #1
    13c6:	460d      	mov	r5, r1
    13c8:	e796      	b.n	12f8 <save_symtab+0x44>
e64_save_symtab():
/home/lubuntu/Dokument/GitHub/STM32-Computer/Firmware/STM32-Computer-Firmware/CA7/optee-os-3.19.0-r2/optee-os-stm32mp-3.19.0-stm32mp-r2/ldelf/ta_elf.c:398
    13ca:	4967      	ldr	r1, [pc, #412]	@ (1568 <save_symtab+0x2b4>)
    13cc:	4620      	mov	r0, r4
    13ce:	6a2b      	ldr	r3, [r5, #32]
    13d0:	4479      	add	r1, pc
    13d2:	f7ff f865 	bl	4a0 <check_range>
/home/lubuntu/Dokument/GitHub/STM32-Computer/Firmware/STM32-Computer-Firmware/CA7/optee-os-3.19.0-r2/optee-os-stm32mp-3.19.0-stm32mp-r2/ldelf/ta_elf.c:401
    13d6:	2218      	movs	r2, #24
    13d8:	2300      	movs	r3, #0
    13da:	e9d5 0108 	ldrd	r0, r1, [r5, #32]
    13de:	f002 e9e8 	blx	37b0 <__aeabi_uldivmod>
    13e2:	431a      	orrs	r2, r3
    13e4:	d009      	beq.n	13fa <save_symtab+0x146>
/home/lubuntu/Dokument/GitHub/STM32-Computer/Firmware/STM32-Computer-Firmware/CA7/optee-os-3.19.0-r2/optee-os-stm32mp-3.19.0-stm32mp-r2/ldelf/ta_elf.c:402
    13e6:	4b61      	ldr	r3, [pc, #388]	@ (156c <save_symtab+0x2b8>)
    13e8:	f44f 71c9 	mov.w	r1, #402	@ 0x192
    13ec:	4860      	ldr	r0, [pc, #384]	@ (1570 <save_symtab+0x2bc>)
    13ee:	447b      	add	r3, pc
    13f0:	9300      	str	r3, [sp, #0]
    13f2:	2301      	movs	r3, #1
    13f4:	4478      	add	r0, pc
    13f6:	461a      	mov	r2, r3
    13f8:	e7c0      	b.n	137c <save_symtab+0xc8>
/home/lubuntu/Dokument/GitHub/STM32-Computer/Firmware/STM32-Computer-Firmware/CA7/optee-os-3.19.0-r2/optee-os-stm32mp-3.19.0-stm32mp-r2/ldelf/ta_elf.c:406
    13fa:	6a63      	ldr	r3, [r4, #36]	@ 0x24
/home/lubuntu/Dokument/GitHub/STM32-Computer/Firmware/STM32-Computer-Firmware/CA7/optee-os-3.19.0-r2/optee-os-stm32mp-3.19.0-stm32mp-r2/ldelf/ta_elf.c:404
    13fc:	63e0      	str	r0, [r4, #60]	@ 0x3c
/home/lubuntu/Dokument/GitHub/STM32-Computer/Firmware/STM32-Computer-Firmware/CA7/optee-os-3.19.0-r2/optee-os-stm32mp-3.19.0-stm32mp-r2/ldelf/ta_elf.c:406
    13fe:	429e      	cmp	r6, r3
    1400:	d309      	bcc.n	1416 <save_symtab+0x162>
/home/lubuntu/Dokument/GitHub/STM32-Computer/Firmware/STM32-Computer-Firmware/CA7/optee-os-3.19.0-r2/optee-os-stm32mp-3.19.0-stm32mp-r2/ldelf/ta_elf.c:407
    1402:	4b5c      	ldr	r3, [pc, #368]	@ (1574 <save_symtab+0x2c0>)
    1404:	f240 1197 	movw	r1, #407	@ 0x197
    1408:	485b      	ldr	r0, [pc, #364]	@ (1578 <save_symtab+0x2c4>)
    140a:	447b      	add	r3, pc
    140c:	9300      	str	r3, [sp, #0]
    140e:	2301      	movs	r3, #1
    1410:	4478      	add	r0, pc
    1412:	461a      	mov	r2, r3
    1414:	e7b2      	b.n	137c <save_symtab+0xc8>
/home/lubuntu/Dokument/GitHub/STM32-Computer/Firmware/STM32-Computer-Firmware/CA7/optee-os-3.19.0-r2/optee-os-stm32mp-3.19.0-stm32mp-r2/ldelf/ta_elf.c:409
    1416:	eb07 1686 	add.w	r6, r7, r6, lsl #6
/home/lubuntu/Dokument/GitHub/STM32-Computer/Firmware/STM32-Computer-Firmware/CA7/optee-os-3.19.0-r2/optee-os-stm32mp-3.19.0-stm32mp-r2/ldelf/ta_elf.c:410
    141a:	4620      	mov	r0, r4
/home/lubuntu/Dokument/GitHub/STM32-Computer/Firmware/STM32-Computer-Firmware/CA7/optee-os-3.19.0-r2/optee-os-stm32mp-3.19.0-stm32mp-r2/ldelf/ta_elf.c:409
    141c:	6863      	ldr	r3, [r4, #4]
    141e:	6932      	ldr	r2, [r6, #16]
/home/lubuntu/Dokument/GitHub/STM32-Computer/Firmware/STM32-Computer-Firmware/CA7/optee-os-3.19.0-r2/optee-os-stm32mp-3.19.0-stm32mp-r2/ldelf/ta_elf.c:410
    1420:	4956      	ldr	r1, [pc, #344]	@ (157c <save_symtab+0x2c8>)
/home/lubuntu/Dokument/GitHub/STM32-Computer/Firmware/STM32-Computer-Firmware/CA7/optee-os-3.19.0-r2/optee-os-stm32mp-3.19.0-stm32mp-r2/ldelf/ta_elf.c:409
    1422:	441a      	add	r2, r3
/home/lubuntu/Dokument/GitHub/STM32-Computer/Firmware/STM32-Computer-Firmware/CA7/optee-os-3.19.0-r2/optee-os-stm32mp-3.19.0-stm32mp-r2/ldelf/ta_elf.c:410
    1424:	4479      	add	r1, pc
    1426:	6a33      	ldr	r3, [r6, #32]
/home/lubuntu/Dokument/GitHub/STM32-Computer/Firmware/STM32-Computer-Firmware/CA7/optee-os-3.19.0-r2/optee-os-stm32mp-3.19.0-stm32mp-r2/ldelf/ta_elf.c:409
    1428:	6422      	str	r2, [r4, #64]	@ 0x40
/home/lubuntu/Dokument/GitHub/STM32-Computer/Firmware/STM32-Computer-Firmware/CA7/optee-os-3.19.0-r2/optee-os-stm32mp-3.19.0-stm32mp-r2/ldelf/ta_elf.c:410
    142a:	f7ff f839 	bl	4a0 <check_range>
/home/lubuntu/Dokument/GitHub/STM32-Computer/Firmware/STM32-Computer-Firmware/CA7/optee-os-3.19.0-r2/optee-os-stm32mp-3.19.0-stm32mp-r2/ldelf/ta_elf.c:412
    142e:	6a33      	ldr	r3, [r6, #32]
    1430:	e7c6      	b.n	13c0 <save_symtab+0x10c>
save_symtab():
/home/lubuntu/Dokument/GitHub/STM32-Computer/Firmware/STM32-Computer-Firmware/CA7/optee-os-3.19.0-r2/optee-os-stm32mp-3.19.0-stm32mp-r2/ldelf/ta_elf.c:431 (discriminator 2)
    1432:	3301      	adds	r3, #1
    1434:	460d      	mov	r5, r1
    1436:	e744      	b.n	12c2 <save_symtab+0xe>
save_hashtab():
/home/lubuntu/Dokument/GitHub/STM32-Computer/Firmware/STM32-Computer-Firmware/CA7/optee-os-3.19.0-r2/optee-os-stm32mp-3.19.0-stm32mp-r2/ldelf/ta_elf.c:275
    1438:	4d3f      	ldr	r5, [pc, #252]	@ (1538 <save_symtab+0x284>)
    143a:	2228      	movs	r2, #40	@ 0x28
    143c:	fb02 3101 	mla	r1, r2, r1, r3
/home/lubuntu/Dokument/GitHub/STM32-Computer/Firmware/STM32-Computer-Firmware/CA7/optee-os-3.19.0-r2/optee-os-stm32mp-3.19.0-stm32mp-r2/ldelf/ta_elf.c:269
    1440:	4299      	cmp	r1, r3
    1442:	d110      	bne.n	1466 <save_symtab+0x1b2>
/home/lubuntu/Dokument/GitHub/STM32-Computer/Firmware/STM32-Computer-Firmware/CA7/optee-os-3.19.0-r2/optee-os-stm32mp-3.19.0-stm32mp-r2/ldelf/ta_elf.c:296
    1444:	6ca1      	ldr	r1, [r4, #72]	@ 0x48
    1446:	bb19      	cbnz	r1, 1490 <save_symtab+0x1dc>
/home/lubuntu/Dokument/GitHub/STM32-Computer/Firmware/STM32-Computer-Firmware/CA7/optee-os-3.19.0-r2/optee-os-stm32mp-3.19.0-stm32mp-r2/ldelf/ta_elf.c:301
    1448:	6ce3      	ldr	r3, [r4, #76]	@ 0x4c
    144a:	2b00      	cmp	r3, #0
    144c:	d050      	beq.n	14f0 <save_symtab+0x23c>
check_gnu_hashtab():
/home/lubuntu/Dokument/GitHub/STM32-Computer/Firmware/STM32-Computer-Firmware/CA7/optee-os-3.19.0-r2/optee-os-stm32mp-3.19.0-stm32mp-r2/ldelf/ta_elf.c:241
    144e:	079a      	lsls	r2, r3, #30
    1450:	d02a      	beq.n	14a8 <save_symtab+0x1f4>
/home/lubuntu/Dokument/GitHub/STM32-Computer/Firmware/STM32-Computer-Firmware/CA7/optee-os-3.19.0-r2/optee-os-stm32mp-3.19.0-stm32mp-r2/ldelf/ta_elf.c:242
    1452:	9301      	str	r3, [sp, #4]
    1454:	21f2      	movs	r1, #242	@ 0xf2
    1456:	4b4a      	ldr	r3, [pc, #296]	@ (1580 <save_symtab+0x2cc>)
    1458:	484a      	ldr	r0, [pc, #296]	@ (1584 <save_symtab+0x2d0>)
    145a:	447b      	add	r3, pc
    145c:	9300      	str	r3, [sp, #0]
    145e:	2301      	movs	r3, #1
    1460:	4478      	add	r0, pc
    1462:	461a      	mov	r2, r3
    1464:	e775      	b.n	1352 <save_symtab+0x9e>
save_hashtab():
/home/lubuntu/Dokument/GitHub/STM32-Computer/Firmware/STM32-Computer-Firmware/CA7/optee-os-3.19.0-r2/optee-os-stm32mp-3.19.0-stm32mp-r2/ldelf/ta_elf.c:270
    1466:	6860      	ldr	r0, [r4, #4]
    1468:	68da      	ldr	r2, [r3, #12]
    146a:	4402      	add	r2, r0
/home/lubuntu/Dokument/GitHub/STM32-Computer/Firmware/STM32-Computer-Firmware/CA7/optee-os-3.19.0-r2/optee-os-stm32mp-3.19.0-stm32mp-r2/ldelf/ta_elf.c:273
    146c:	6858      	ldr	r0, [r3, #4]
    146e:	2805      	cmp	r0, #5
    1470:	d102      	bne.n	1478 <save_symtab+0x1c4>
/home/lubuntu/Dokument/GitHub/STM32-Computer/Firmware/STM32-Computer-Firmware/CA7/optee-os-3.19.0-r2/optee-os-stm32mp-3.19.0-stm32mp-r2/ldelf/ta_elf.c:274
    1472:	64a2      	str	r2, [r4, #72]	@ 0x48
/home/lubuntu/Dokument/GitHub/STM32-Computer/Firmware/STM32-Computer-Firmware/CA7/optee-os-3.19.0-r2/optee-os-stm32mp-3.19.0-stm32mp-r2/ldelf/ta_elf.c:269
    1474:	3328      	adds	r3, #40	@ 0x28
    1476:	e7e3      	b.n	1440 <save_symtab+0x18c>
/home/lubuntu/Dokument/GitHub/STM32-Computer/Firmware/STM32-Computer-Firmware/CA7/optee-os-3.19.0-r2/optee-os-stm32mp-3.19.0-stm32mp-r2/ldelf/ta_elf.c:275
    1478:	42a8      	cmp	r0, r5
/home/lubuntu/Dokument/GitHub/STM32-Computer/Firmware/STM32-Computer-Firmware/CA7/optee-os-3.19.0-r2/optee-os-stm32mp-3.19.0-stm32mp-r2/ldelf/ta_elf.c:276
    147a:	bf02      	ittt	eq
    147c:	64e2      	streq	r2, [r4, #76]	@ 0x4c
/home/lubuntu/Dokument/GitHub/STM32-Computer/Firmware/STM32-Computer-Firmware/CA7/optee-os-3.19.0-r2/optee-os-stm32mp-3.19.0-stm32mp-r2/ldelf/ta_elf.c:277
    147e:	695a      	ldreq	r2, [r3, #20]
    1480:	6522      	streq	r2, [r4, #80]	@ 0x50
    1482:	e7f7      	b.n	1474 <save_symtab+0x1c0>
/home/lubuntu/Dokument/GitHub/STM32-Computer/Firmware/STM32-Computer-Firmware/CA7/optee-os-3.19.0-r2/optee-os-stm32mp-3.19.0-stm32mp-r2/ldelf/ta_elf.c:289
    1484:	42b5      	cmp	r5, r6
/home/lubuntu/Dokument/GitHub/STM32-Computer/Firmware/STM32-Computer-Firmware/CA7/optee-os-3.19.0-r2/optee-os-stm32mp-3.19.0-stm32mp-r2/ldelf/ta_elf.c:290
    1486:	bf02      	ittt	eq
    1488:	64e0      	streq	r0, [r4, #76]	@ 0x4c
/home/lubuntu/Dokument/GitHub/STM32-Computer/Firmware/STM32-Computer-Firmware/CA7/optee-os-3.19.0-r2/optee-os-stm32mp-3.19.0-stm32mp-r2/ldelf/ta_elf.c:291
    148a:	6a18      	ldreq	r0, [r3, #32]
    148c:	6520      	streq	r0, [r4, #80]	@ 0x50
    148e:	e747      	b.n	1320 <save_symtab+0x6c>
/home/lubuntu/Dokument/GitHub/STM32-Computer/Firmware/STM32-Computer-Firmware/CA7/optee-os-3.19.0-r2/optee-os-stm32mp-3.19.0-stm32mp-r2/ldelf/ta_elf.c:297
    1490:	2300      	movs	r3, #0
    1492:	4620      	mov	r0, r4
    1494:	461a      	mov	r2, r3
    1496:	f7ff f845 	bl	524 <check_hashtab>
/home/lubuntu/Dokument/GitHub/STM32-Computer/Firmware/STM32-Computer-Firmware/CA7/optee-os-3.19.0-r2/optee-os-stm32mp-3.19.0-stm32mp-r2/ldelf/ta_elf.c:298
    149a:	6ca1      	ldr	r1, [r4, #72]	@ 0x48
/home/lubuntu/Dokument/GitHub/STM32-Computer/Firmware/STM32-Computer-Firmware/CA7/optee-os-3.19.0-r2/optee-os-stm32mp-3.19.0-stm32mp-r2/ldelf/ta_elf.c:299
    149c:	4620      	mov	r0, r4
    149e:	e9d1 2300 	ldrd	r2, r3, [r1]
    14a2:	f7ff f83f 	bl	524 <check_hashtab>
    14a6:	e7cf      	b.n	1448 <save_symtab+0x194>
check_gnu_hashtab():
/home/lubuntu/Dokument/GitHub/STM32-Computer/Firmware/STM32-Computer-Firmware/CA7/optee-os-3.19.0-r2/optee-os-stm32mp-3.19.0-stm32mp-r2/ldelf/ta_elf.c:245
    14a8:	6d21      	ldr	r1, [r4, #80]	@ 0x50
    14aa:	290f      	cmp	r1, #15
    14ac:	d808      	bhi.n	14c0 <save_symtab+0x20c>
/home/lubuntu/Dokument/GitHub/STM32-Computer/Firmware/STM32-Computer-Firmware/CA7/optee-os-3.19.0-r2/optee-os-stm32mp-3.19.0-stm32mp-r2/ldelf/ta_elf.c:246
    14ae:	4b36      	ldr	r3, [pc, #216]	@ (1588 <save_symtab+0x2d4>)
    14b0:	21f6      	movs	r1, #246	@ 0xf6
    14b2:	4836      	ldr	r0, [pc, #216]	@ (158c <save_symtab+0x2d8>)
    14b4:	447b      	add	r3, pc
    14b6:	9300      	str	r3, [sp, #0]
    14b8:	2301      	movs	r3, #1
    14ba:	4478      	add	r0, pc
    14bc:	461a      	mov	r2, r3
    14be:	e75d      	b.n	137c <save_symtab+0xc8>
/home/lubuntu/Dokument/GitHub/STM32-Computer/Firmware/STM32-Computer-Firmware/CA7/optee-os-3.19.0-r2/optee-os-stm32mp-3.19.0-stm32mp-r2/ldelf/ta_elf.c:250
    14c0:	7860      	ldrb	r0, [r4, #1]
/home/lubuntu/Dokument/GitHub/STM32-Computer/Firmware/STM32-Computer-Firmware/CA7/optee-os-3.19.0-r2/optee-os-stm32mp-3.19.0-stm32mp-r2/ldelf/ta_elf.c:251
    14c2:	689a      	ldr	r2, [r3, #8]
/home/lubuntu/Dokument/GitHub/STM32-Computer/Firmware/STM32-Computer-Firmware/CA7/optee-os-3.19.0-r2/optee-os-stm32mp-3.19.0-stm32mp-r2/ldelf/ta_elf.c:250
    14c4:	b900      	cbnz	r0, 14c8 <save_symtab+0x214>
/home/lubuntu/Dokument/GitHub/STM32-Computer/Firmware/STM32-Computer-Firmware/CA7/optee-os-3.19.0-r2/optee-os-stm32mp-3.19.0-stm32mp-r2/ldelf/ta_elf.c:253
    14c6:	0052      	lsls	r2, r2, #1
/home/lubuntu/Dokument/GitHub/STM32-Computer/Firmware/STM32-Computer-Firmware/CA7/optee-os-3.19.0-r2/optee-os-stm32mp-3.19.0-stm32mp-r2/ldelf/ta_elf.c:254
    14c8:	681b      	ldr	r3, [r3, #0]
    14ca:	3304      	adds	r3, #4
    14cc:	d206      	bcs.n	14dc <save_symtab+0x228>
/home/lubuntu/Dokument/GitHub/STM32-Computer/Firmware/STM32-Computer-Firmware/CA7/optee-os-3.19.0-r2/optee-os-stm32mp-3.19.0-stm32mp-r2/ldelf/ta_elf.c:255
    14ce:	189b      	adds	r3, r3, r2
    14d0:	d204      	bcs.n	14dc <save_symtab+0x228>
/home/lubuntu/Dokument/GitHub/STM32-Computer/Firmware/STM32-Computer-Firmware/CA7/optee-os-3.19.0-r2/optee-os-stm32mp-3.19.0-stm32mp-r2/ldelf/ta_elf.c:256
    14d2:	009a      	lsls	r2, r3, #2
    14d4:	0f9b      	lsrs	r3, r3, #30
    14d6:	d101      	bne.n	14dc <save_symtab+0x228>
    14d8:	4291      	cmp	r1, r2
    14da:	d209      	bcs.n	14f0 <save_symtab+0x23c>
/home/lubuntu/Dokument/GitHub/STM32-Computer/Firmware/STM32-Computer-Firmware/CA7/optee-os-3.19.0-r2/optee-os-stm32mp-3.19.0-stm32mp-r2/ldelf/ta_elf.c:258
    14dc:	4b2c      	ldr	r3, [pc, #176]	@ (1590 <save_symtab+0x2dc>)
    14de:	f44f 7181 	mov.w	r1, #258	@ 0x102
    14e2:	482c      	ldr	r0, [pc, #176]	@ (1594 <save_symtab+0x2e0>)
    14e4:	447b      	add	r3, pc
    14e6:	9300      	str	r3, [sp, #0]
    14e8:	2301      	movs	r3, #1
    14ea:	4478      	add	r0, pc
    14ec:	461a      	mov	r2, r3
    14ee:	e745      	b.n	137c <save_symtab+0xc8>
save_soname():
/home/lubuntu/Dokument/GitHub/STM32-Computer/Firmware/STM32-Computer-Firmware/CA7/optee-os-3.19.0-r2/optee-os-stm32mp-3.19.0-stm32mp-r2/ldelf/ta_elf.c:346
    14f0:	7866      	ldrb	r6, [r4, #1]
/home/lubuntu/Dokument/GitHub/STM32-Computer/Firmware/STM32-Computer-Firmware/CA7/optee-os-3.19.0-r2/optee-os-stm32mp-3.19.0-stm32mp-r2/ldelf/ta_elf.c:347
    14f2:	6b25      	ldr	r5, [r4, #48]	@ 0x30
/home/lubuntu/Dokument/GitHub/STM32-Computer/Firmware/STM32-Computer-Firmware/CA7/optee-os-3.19.0-r2/optee-os-stm32mp-3.19.0-stm32mp-r2/ldelf/ta_elf.c:346
    14f4:	b1de      	cbz	r6, 152e <save_symtab+0x27a>
/home/lubuntu/Dokument/GitHub/STM32-Computer/Firmware/STM32-Computer-Firmware/CA7/optee-os-3.19.0-r2/optee-os-stm32mp-3.19.0-stm32mp-r2/ldelf/ta_elf.c:349
    14f6:	2600      	movs	r6, #0
    14f8:	6a23      	ldr	r3, [r4, #32]
    14fa:	3520      	adds	r5, #32
    14fc:	429e      	cmp	r6, r3
    14fe:	d301      	bcc.n	1504 <save_symtab+0x250>
save_symtab():
/home/lubuntu/Dokument/GitHub/STM32-Computer/Firmware/STM32-Computer-Firmware/CA7/optee-os-3.19.0-r2/optee-os-stm32mp-3.19.0-stm32mp-r2/ldelf/ta_elf.c:442
    1500:	b003      	add	sp, #12
    1502:	bdf0      	pop	{r4, r5, r6, r7, pc}
save_soname():
/home/lubuntu/Dokument/GitHub/STM32-Computer/Firmware/STM32-Computer-Firmware/CA7/optee-os-3.19.0-r2/optee-os-stm32mp-3.19.0-stm32mp-r2/ldelf/ta_elf.c:350
    1504:	f855 3c0c 	ldr.w	r3, [r5, #-12]
    1508:	4620      	mov	r0, r4
    150a:	f855 2c18 	ldr.w	r2, [r5, #-24]
/home/lubuntu/Dokument/GitHub/STM32-Computer/Firmware/STM32-Computer-Firmware/CA7/optee-os-3.19.0-r2/optee-os-stm32mp-3.19.0-stm32mp-r2/ldelf/ta_elf.c:349
    150e:	3601      	adds	r6, #1
/home/lubuntu/Dokument/GitHub/STM32-Computer/Firmware/STM32-Computer-Firmware/CA7/optee-os-3.19.0-r2/optee-os-stm32mp-3.19.0-stm32mp-r2/ldelf/ta_elf.c:350
    1510:	f855 1c20 	ldr.w	r1, [r5, #-32]
    1514:	f7ff fe7c 	bl	1210 <save_soname_from_segment>
/home/lubuntu/Dokument/GitHub/STM32-Computer/Firmware/STM32-Computer-Firmware/CA7/optee-os-3.19.0-r2/optee-os-stm32mp-3.19.0-stm32mp-r2/ldelf/ta_elf.c:349
    1518:	e7ee      	b.n	14f8 <save_symtab+0x244>
/home/lubuntu/Dokument/GitHub/STM32-Computer/Firmware/STM32-Computer-Firmware/CA7/optee-os-3.19.0-r2/optee-os-stm32mp-3.19.0-stm32mp-r2/ldelf/ta_elf.c:357
    151a:	f855 3c10 	ldr.w	r3, [r5, #-16]
    151e:	4620      	mov	r0, r4
    1520:	f855 2c28 	ldr.w	r2, [r5, #-40]
/home/lubuntu/Dokument/GitHub/STM32-Computer/Firmware/STM32-Computer-Firmware/CA7/optee-os-3.19.0-r2/optee-os-stm32mp-3.19.0-stm32mp-r2/ldelf/ta_elf.c:356
    1524:	3601      	adds	r6, #1
/home/lubuntu/Dokument/GitHub/STM32-Computer/Firmware/STM32-Computer-Firmware/CA7/optee-os-3.19.0-r2/optee-os-stm32mp-3.19.0-stm32mp-r2/ldelf/ta_elf.c:357
    1526:	f855 1c38 	ldr.w	r1, [r5, #-56]
    152a:	f7ff fe71 	bl	1210 <save_soname_from_segment>
/home/lubuntu/Dokument/GitHub/STM32-Computer/Firmware/STM32-Computer-Firmware/CA7/optee-os-3.19.0-r2/optee-os-stm32mp-3.19.0-stm32mp-r2/ldelf/ta_elf.c:356
    152e:	6a23      	ldr	r3, [r4, #32]
    1530:	3538      	adds	r5, #56	@ 0x38
    1532:	429e      	cmp	r6, r3
    1534:	d3f1      	bcc.n	151a <save_symtab+0x266>
    1536:	e7e3      	b.n	1500 <save_symtab+0x24c>
    1538:	6ffffff6 	.word	0x6ffffff6
    153c:	ffff0005 	.word	0xffff0005
    1540:	0000388c 	.word	0x0000388c
    1544:	00003c99 	.word	0x00003c99
    1548:	000037a9 	.word	0x000037a9
    154c:	00003c4b 	.word	0x00003c4b
    1550:	000037af 	.word	0x000037af
    1554:	000037a5 	.word	0x000037a5
    1558:	00003c23 	.word	0x00003c23
    155c:	000037b3 	.word	0x000037b3
    1560:	00003bfd 	.word	0x00003bfd
    1564:	000037bb 	.word	0x000037bb
    1568:	000037c7 	.word	0x000037c7
    156c:	000037b8 	.word	0x000037b8
    1570:	00003b97 	.word	0x00003b97
    1574:	000037d5 	.word	0x000037d5
    1578:	00003b7b 	.word	0x00003b7b
    157c:	000037e5 	.word	0x000037e5
    1580:	000037be 	.word	0x000037be
    1584:	00003b0b 	.word	0x00003b0b
    1588:	00003784 	.word	0x00003784
    158c:	00003ab1 	.word	0x00003ab1
    1590:	0000376a 	.word	0x0000376a
    1594:	00003a81 	.word	0x00003a81

00001598 <get_init_fini_array.constprop.0>:
get_init_fini_array():
/home/lubuntu/Dokument/GitHub/STM32-Computer/Firmware/STM32-Computer-Firmware/CA7/optee-os-3.19.0-r2/optee-os-stm32mp-3.19.0-stm32mp-r2/ldelf/ta_elf.c:1582
    1598:	e92d 4ff0 	stmdb	sp!, {r4, r5, r6, r7, r8, r9, sl, fp, lr}
    159c:	4604      	mov	r4, r0
    159e:	b085      	sub	sp, #20
    15a0:	4699      	mov	r9, r3
/home/lubuntu/Dokument/GitHub/STM32-Computer/Firmware/STM32-Computer-Firmware/CA7/optee-os-3.19.0-r2/optee-os-stm32mp-3.19.0-stm32mp-r2/ldelf/ta_elf.c:1591
    15a2:	2300      	movs	r3, #0
/home/lubuntu/Dokument/GitHub/STM32-Computer/Firmware/STM32-Computer-Firmware/CA7/optee-os-3.19.0-r2/optee-os-stm32mp-3.19.0-stm32mp-r2/ldelf/ta_elf.c:1582
    15a4:	4616      	mov	r6, r2
/home/lubuntu/Dokument/GitHub/STM32-Computer/Firmware/STM32-Computer-Firmware/CA7/optee-os-3.19.0-r2/optee-os-stm32mp-3.19.0-stm32mp-r2/ldelf/ta_elf.c:1592
    15a6:	e9cd 3302 	strd	r3, r3, [sp, #8]
/home/lubuntu/Dokument/GitHub/STM32-Computer/Firmware/STM32-Computer-Firmware/CA7/optee-os-3.19.0-r2/optee-os-stm32mp-3.19.0-stm32mp-r2/ldelf/ta_elf.c:1582
    15aa:	4688      	mov	r8, r1
/home/lubuntu/Dokument/GitHub/STM32-Computer/Firmware/STM32-Computer-Firmware/CA7/optee-os-3.19.0-r2/optee-os-stm32mp-3.19.0-stm32mp-r2/ldelf/ta_elf.c:1596
    15ac:	f7ff f986 	bl	8bc <check_phdr_in_range.constprop.0>
/home/lubuntu/Dokument/GitHub/STM32-Computer/Firmware/STM32-Computer-Firmware/CA7/optee-os-3.19.0-r2/optee-os-stm32mp-3.19.0-stm32mp-r2/ldelf/ta_elf.c:1598
    15b0:	7863      	ldrb	r3, [r4, #1]
/home/lubuntu/Dokument/GitHub/STM32-Computer/Firmware/STM32-Computer-Firmware/CA7/optee-os-3.19.0-r2/optee-os-stm32mp-3.19.0-stm32mp-r2/ldelf/ta_elf.c:1599
    15b2:	2b00      	cmp	r3, #0
    15b4:	bf0b      	itete	eq
    15b6:	2210      	moveq	r2, #16
    15b8:	2208      	movne	r2, #8
    15ba:	f04f 0b08 	moveq.w	fp, #8
    15be:	f04f 0b04 	movne.w	fp, #4
/home/lubuntu/Dokument/GitHub/STM32-Computer/Firmware/STM32-Computer-Firmware/CA7/optee-os-3.19.0-r2/optee-os-stm32mp-3.19.0-stm32mp-r2/ldelf/ta_elf.c:1606
    15c2:	fbb6 faf2 	udiv	sl, r6, r2
    15c6:	fb02 661a 	mls	r6, r2, sl, r6
    15ca:	b13e      	cbz	r6, 15dc <get_init_fini_array.constprop.0+0x44>
    15cc:	4a1a      	ldr	r2, [pc, #104]	@ (1638 <get_init_fini_array.constprop.0+0xa0>)
    15ce:	f240 6146 	movw	r1, #1606	@ 0x646
    15d2:	481a      	ldr	r0, [pc, #104]	@ (163c <get_init_fini_array.constprop.0+0xa4>)
    15d4:	447a      	add	r2, pc
    15d6:	4478      	add	r0, pc
    15d8:	f7ff f9a0 	bl	91c <_assert_trap.constprop.0>
/home/lubuntu/Dokument/GitHub/STM32-Computer/Firmware/STM32-Computer-Firmware/CA7/optee-os-3.19.0-r2/optee-os-stm32mp-3.19.0-stm32mp-r2/ldelf/ta_elf.c:1610
    15dc:	af02      	add	r7, sp, #8
    15de:	ad03      	add	r5, sp, #12
/home/lubuntu/Dokument/GitHub/STM32-Computer/Firmware/STM32-Computer-Firmware/CA7/optee-os-3.19.0-r2/optee-os-stm32mp-3.19.0-stm32mp-r2/ldelf/ta_elf.c:1609
    15e0:	45b2      	cmp	sl, r6
    15e2:	d102      	bne.n	15ea <get_init_fini_array.constprop.0+0x52>
/home/lubuntu/Dokument/GitHub/STM32-Computer/Firmware/STM32-Computer-Firmware/CA7/optee-os-3.19.0-r2/optee-os-stm32mp-3.19.0-stm32mp-r2/ldelf/ta_elf.c:1620
    15e4:	b005      	add	sp, #20
    15e6:	e8bd 8ff0 	ldmia.w	sp!, {r4, r5, r6, r7, r8, r9, sl, fp, pc}
/home/lubuntu/Dokument/GitHub/STM32-Computer/Firmware/STM32-Computer-Firmware/CA7/optee-os-3.19.0-r2/optee-os-stm32mp-3.19.0-stm32mp-r2/ldelf/ta_elf.c:1610
    15ea:	9500      	str	r5, [sp, #0]
    15ec:	4641      	mov	r1, r8
    15ee:	463b      	mov	r3, r7
    15f0:	4632      	mov	r2, r6
    15f2:	4620      	mov	r0, r4
    15f4:	f002 fd3a 	bl	406c <read_dyn>
/home/lubuntu/Dokument/GitHub/STM32-Computer/Firmware/STM32-Computer-Firmware/CA7/optee-os-3.19.0-r2/optee-os-stm32mp-3.19.0-stm32mp-r2/ldelf/ta_elf.c:1611
    15f8:	9902      	ldr	r1, [sp, #8]
    15fa:	2919      	cmp	r1, #25
    15fc:	d106      	bne.n	160c <get_init_fini_array.constprop.0+0x74>
/home/lubuntu/Dokument/GitHub/STM32-Computer/Firmware/STM32-Computer-Firmware/CA7/optee-os-3.19.0-r2/optee-os-stm32mp-3.19.0-stm32mp-r2/ldelf/ta_elf.c:1612
    15fe:	6861      	ldr	r1, [r4, #4]
    1600:	9803      	ldr	r0, [sp, #12]
    1602:	4401      	add	r1, r0
    1604:	f8c9 1000 	str.w	r1, [r9]
/home/lubuntu/Dokument/GitHub/STM32-Computer/Firmware/STM32-Computer-Firmware/CA7/optee-os-3.19.0-r2/optee-os-stm32mp-3.19.0-stm32mp-r2/ldelf/ta_elf.c:1609
    1608:	3601      	adds	r6, #1
    160a:	e7e9      	b.n	15e0 <get_init_fini_array.constprop.0+0x48>
/home/lubuntu/Dokument/GitHub/STM32-Computer/Firmware/STM32-Computer-Firmware/CA7/optee-os-3.19.0-r2/optee-os-stm32mp-3.19.0-stm32mp-r2/ldelf/ta_elf.c:1613
    160c:	291a      	cmp	r1, #26
    160e:	d105      	bne.n	161c <get_init_fini_array.constprop.0+0x84>
/home/lubuntu/Dokument/GitHub/STM32-Computer/Firmware/STM32-Computer-Firmware/CA7/optee-os-3.19.0-r2/optee-os-stm32mp-3.19.0-stm32mp-r2/ldelf/ta_elf.c:1614
    1610:	6861      	ldr	r1, [r4, #4]
    1612:	9803      	ldr	r0, [sp, #12]
    1614:	9b0f      	ldr	r3, [sp, #60]	@ 0x3c
    1616:	4401      	add	r1, r0
/home/lubuntu/Dokument/GitHub/STM32-Computer/Firmware/STM32-Computer-Firmware/CA7/optee-os-3.19.0-r2/optee-os-stm32mp-3.19.0-stm32mp-r2/ldelf/ta_elf.c:1618
    1618:	6019      	str	r1, [r3, #0]
    161a:	e7f5      	b.n	1608 <get_init_fini_array.constprop.0+0x70>
/home/lubuntu/Dokument/GitHub/STM32-Computer/Firmware/STM32-Computer-Firmware/CA7/optee-os-3.19.0-r2/optee-os-stm32mp-3.19.0-stm32mp-r2/ldelf/ta_elf.c:1615
    161c:	291b      	cmp	r1, #27
    161e:	d104      	bne.n	162a <get_init_fini_array.constprop.0+0x92>
/home/lubuntu/Dokument/GitHub/STM32-Computer/Firmware/STM32-Computer-Firmware/CA7/optee-os-3.19.0-r2/optee-os-stm32mp-3.19.0-stm32mp-r2/ldelf/ta_elf.c:1616
    1620:	9903      	ldr	r1, [sp, #12]
    1622:	9b0e      	ldr	r3, [sp, #56]	@ 0x38
    1624:	fbb1 f1fb 	udiv	r1, r1, fp
    1628:	e7f6      	b.n	1618 <get_init_fini_array.constprop.0+0x80>
/home/lubuntu/Dokument/GitHub/STM32-Computer/Firmware/STM32-Computer-Firmware/CA7/optee-os-3.19.0-r2/optee-os-stm32mp-3.19.0-stm32mp-r2/ldelf/ta_elf.c:1617
    162a:	291c      	cmp	r1, #28
    162c:	d1ec      	bne.n	1608 <get_init_fini_array.constprop.0+0x70>
/home/lubuntu/Dokument/GitHub/STM32-Computer/Firmware/STM32-Computer-Firmware/CA7/optee-os-3.19.0-r2/optee-os-stm32mp-3.19.0-stm32mp-r2/ldelf/ta_elf.c:1618
    162e:	9903      	ldr	r1, [sp, #12]
    1630:	9b10      	ldr	r3, [sp, #64]	@ 0x40
    1632:	fbb1 f1fb 	udiv	r1, r1, fp
    1636:	e7ef      	b.n	1618 <get_init_fini_array.constprop.0+0x80>
    1638:	000038ae 	.word	0x000038ae
    163c:	00003502 	.word	0x00003502

00001640 <ta_elf_find_elf>:
ta_elf_find_elf():
/home/lubuntu/Dokument/GitHub/STM32-Computer/Firmware/STM32-Computer-Firmware/CA7/optee-os-3.19.0-r2/optee-os-stm32mp-3.19.0-stm32mp-r2/ldelf/ta_elf.c:91
    1640:	b538      	push	{r3, r4, r5, lr}
    1642:	4605      	mov	r5, r0
/home/lubuntu/Dokument/GitHub/STM32-Computer/Firmware/STM32-Computer-Firmware/CA7/optee-os-3.19.0-r2/optee-os-stm32mp-3.19.0-stm32mp-r2/ldelf/ta_elf.c:94
    1644:	4b08      	ldr	r3, [pc, #32]	@ (1668 <ta_elf_find_elf+0x28>)
    1646:	447b      	add	r3, pc
    1648:	681c      	ldr	r4, [r3, #0]
/home/lubuntu/Dokument/GitHub/STM32-Computer/Firmware/STM32-Computer-Firmware/CA7/optee-os-3.19.0-r2/optee-os-stm32mp-3.19.0-stm32mp-r2/ldelf/ta_elf.c:94 (discriminator 1)
    164a:	b90c      	cbnz	r4, 1650 <ta_elf_find_elf+0x10>
/home/lubuntu/Dokument/GitHub/STM32-Computer/Firmware/STM32-Computer-Firmware/CA7/optee-os-3.19.0-r2/optee-os-stm32mp-3.19.0-stm32mp-r2/ldelf/ta_elf.c:99
    164c:	4620      	mov	r0, r4
    164e:	bd38      	pop	{r3, r4, r5, pc}
/home/lubuntu/Dokument/GitHub/STM32-Computer/Firmware/STM32-Computer-Firmware/CA7/optee-os-3.19.0-r2/optee-os-stm32mp-3.19.0-stm32mp-r2/ldelf/ta_elf.c:95
    1650:	2210      	movs	r2, #16
    1652:	f104 018c 	add.w	r1, r4, #140	@ 0x8c
    1656:	4628      	mov	r0, r5
    1658:	f002 fe64 	bl	4324 <memcmp>
    165c:	2800      	cmp	r0, #0
    165e:	d0f5      	beq.n	164c <ta_elf_find_elf+0xc>
/home/lubuntu/Dokument/GitHub/STM32-Computer/Firmware/STM32-Computer-Firmware/CA7/optee-os-3.19.0-r2/optee-os-stm32mp-3.19.0-stm32mp-r2/ldelf/ta_elf.c:94 (discriminator 2)
    1660:	f8d4 409c 	ldr.w	r4, [r4, #156]	@ 0x9c
    1664:	e7f1      	b.n	164a <ta_elf_find_elf+0xa>
    1666:	bf00      	nop
    1668:	00004a5e 	.word	0x00004a5e

0000166c <queue_elf>:
queue_elf():
/home/lubuntu/Dokument/GitHub/STM32-Computer/Firmware/STM32-Computer-Firmware/CA7/optee-os-3.19.0-r2/optee-os-stm32mp-3.19.0-stm32mp-r2/ldelf/ta_elf.c:77
    166c:	b513      	push	{r0, r1, r4, lr}
    166e:	4604      	mov	r4, r0
/home/lubuntu/Dokument/GitHub/STM32-Computer/Firmware/STM32-Computer-Firmware/CA7/optee-os-3.19.0-r2/optee-os-stm32mp-3.19.0-stm32mp-r2/ldelf/ta_elf.c:78
    1670:	f7ff ffe6 	bl	1640 <ta_elf_find_elf>
/home/lubuntu/Dokument/GitHub/STM32-Computer/Firmware/STM32-Computer-Firmware/CA7/optee-os-3.19.0-r2/optee-os-stm32mp-3.19.0-stm32mp-r2/ldelf/ta_elf.c:80
    1674:	b980      	cbnz	r0, 1698 <queue_elf+0x2c>
/home/lubuntu/Dokument/GitHub/STM32-Computer/Firmware/STM32-Computer-Firmware/CA7/optee-os-3.19.0-r2/optee-os-stm32mp-3.19.0-stm32mp-r2/ldelf/ta_elf.c:83
    1676:	4620      	mov	r0, r4
    1678:	f7fe ff8c 	bl	594 <queue_elf_helper>
/home/lubuntu/Dokument/GitHub/STM32-Computer/Firmware/STM32-Computer-Firmware/CA7/optee-os-3.19.0-r2/optee-os-stm32mp-3.19.0-stm32mp-r2/ldelf/ta_elf.c:84
    167c:	b968      	cbnz	r0, 169a <queue_elf+0x2e>
/home/lubuntu/Dokument/GitHub/STM32-Computer/Firmware/STM32-Computer-Firmware/CA7/optee-os-3.19.0-r2/optee-os-stm32mp-3.19.0-stm32mp-r2/ldelf/ta_elf.c:85
    167e:	4b09      	ldr	r3, [pc, #36]	@ (16a4 <queue_elf+0x38>)
    1680:	2155      	movs	r1, #85	@ 0x55
    1682:	4809      	ldr	r0, [pc, #36]	@ (16a8 <queue_elf+0x3c>)
    1684:	447b      	add	r3, pc
    1686:	9300      	str	r3, [sp, #0]
    1688:	2301      	movs	r3, #1
    168a:	4478      	add	r0, pc
    168c:	461a      	mov	r2, r3
    168e:	f002 ff13 	bl	44b8 <trace_printf>
    1692:	4803      	ldr	r0, [pc, #12]	@ (16a0 <queue_elf+0x34>)
    1694:	f7fe ecf0 	blx	78 <_ldelf_return>
/home/lubuntu/Dokument/GitHub/STM32-Computer/Firmware/STM32-Computer-Firmware/CA7/optee-os-3.19.0-r2/optee-os-stm32mp-3.19.0-stm32mp-r2/ldelf/ta_elf.c:81
    1698:	2000      	movs	r0, #0
/home/lubuntu/Dokument/GitHub/STM32-Computer/Firmware/STM32-Computer-Firmware/CA7/optee-os-3.19.0-r2/optee-os-stm32mp-3.19.0-stm32mp-r2/ldelf/ta_elf.c:88
    169a:	b002      	add	sp, #8
    169c:	bd10      	pop	{r4, pc}
    169e:	bf00      	nop
    16a0:	ffff000c 	.word	0xffff000c
    16a4:	000035df 	.word	0x000035df
    16a8:	00003a27 	.word	0x00003a27

000016ac <add_deps_from_segment>:
add_deps_from_segment():
/home/lubuntu/Dokument/GitHub/STM32-Computer/Firmware/STM32-Computer-Firmware/CA7/optee-os-3.19.0-r2/optee-os-stm32mp-3.19.0-stm32mp-r2/ldelf/ta_elf.c:998
    16ac:	e92d 4ff0 	stmdb	sp!, {r4, r5, r6, r7, r8, r9, sl, fp, lr}
    16b0:	b08b      	sub	sp, #44	@ 0x2c
/home/lubuntu/Dokument/GitHub/STM32-Computer/Firmware/STM32-Computer-Firmware/CA7/optee-os-3.19.0-r2/optee-os-stm32mp-3.19.0-stm32mp-r2/ldelf/ta_elf.c:1004
    16b2:	f10d 0918 	add.w	r9, sp, #24
/home/lubuntu/Dokument/GitHub/STM32-Computer/Firmware/STM32-Computer-Firmware/CA7/optee-os-3.19.0-r2/optee-os-stm32mp-3.19.0-stm32mp-r2/ldelf/ta_elf.c:998
    16b6:	460e      	mov	r6, r1
    16b8:	9202      	str	r2, [sp, #8]
/home/lubuntu/Dokument/GitHub/STM32-Computer/Firmware/STM32-Computer-Firmware/CA7/optee-os-3.19.0-r2/optee-os-stm32mp-3.19.0-stm32mp-r2/ldelf/ta_elf.c:1002
    16ba:	2100      	movs	r1, #0
/home/lubuntu/Dokument/GitHub/STM32-Computer/Firmware/STM32-Computer-Firmware/CA7/optee-os-3.19.0-r2/optee-os-stm32mp-3.19.0-stm32mp-r2/ldelf/ta_elf.c:998
    16bc:	4605      	mov	r5, r0
/home/lubuntu/Dokument/GitHub/STM32-Computer/Firmware/STM32-Computer-Firmware/CA7/optee-os-3.19.0-r2/optee-os-stm32mp-3.19.0-stm32mp-r2/ldelf/ta_elf.c:1004
    16be:	2210      	movs	r2, #16
    16c0:	4648      	mov	r0, r9
/home/lubuntu/Dokument/GitHub/STM32-Computer/Firmware/STM32-Computer-Firmware/CA7/optee-os-3.19.0-r2/optee-os-stm32mp-3.19.0-stm32mp-r2/ldelf/ta_elf.c:998
    16c2:	461c      	mov	r4, r3
/home/lubuntu/Dokument/GitHub/STM32-Computer/Firmware/STM32-Computer-Firmware/CA7/optee-os-3.19.0-r2/optee-os-stm32mp-3.19.0-stm32mp-r2/ldelf/ta_elf.c:1003
    16c4:	e9cd 1104 	strd	r1, r1, [sp, #16]
/home/lubuntu/Dokument/GitHub/STM32-Computer/Firmware/STM32-Computer-Firmware/CA7/optee-os-3.19.0-r2/optee-os-stm32mp-3.19.0-stm32mp-r2/ldelf/ta_elf.c:1004
    16c8:	f002 fe3c 	bl	4344 <memset>
/home/lubuntu/Dokument/GitHub/STM32-Computer/Firmware/STM32-Computer-Firmware/CA7/optee-os-3.19.0-r2/optee-os-stm32mp-3.19.0-stm32mp-r2/ldelf/ta_elf.c:1008
    16cc:	2e02      	cmp	r6, #2
    16ce:	d12d      	bne.n	172c <add_deps_from_segment+0x80>
/home/lubuntu/Dokument/GitHub/STM32-Computer/Firmware/STM32-Computer-Firmware/CA7/optee-os-3.19.0-r2/optee-os-stm32mp-3.19.0-stm32mp-r2/ldelf/ta_elf.c:1011
    16d0:	9902      	ldr	r1, [sp, #8]
    16d2:	4622      	mov	r2, r4
    16d4:	4628      	mov	r0, r5
    16d6:	f7ff f8f1 	bl	8bc <check_phdr_in_range.constprop.0>
/home/lubuntu/Dokument/GitHub/STM32-Computer/Firmware/STM32-Computer-Firmware/CA7/optee-os-3.19.0-r2/optee-os-stm32mp-3.19.0-stm32mp-r2/ldelf/ta_elf.c:1013
    16da:	786b      	ldrb	r3, [r5, #1]
/home/lubuntu/Dokument/GitHub/STM32-Computer/Firmware/STM32-Computer-Firmware/CA7/optee-os-3.19.0-r2/optee-os-stm32mp-3.19.0-stm32mp-r2/ldelf/ta_elf.c:1014
    16dc:	2b00      	cmp	r3, #0
    16de:	bf0c      	ite	eq
    16e0:	2310      	moveq	r3, #16
    16e2:	2308      	movne	r3, #8
/home/lubuntu/Dokument/GitHub/STM32-Computer/Firmware/STM32-Computer-Firmware/CA7/optee-os-3.19.0-r2/optee-os-stm32mp-3.19.0-stm32mp-r2/ldelf/ta_elf.c:1018
    16e4:	fbb4 f8f3 	udiv	r8, r4, r3
    16e8:	fb03 4418 	mls	r4, r3, r8, r4
    16ec:	b13c      	cbz	r4, 16fe <add_deps_from_segment+0x52>
/home/lubuntu/Dokument/GitHub/STM32-Computer/Firmware/STM32-Computer-Firmware/CA7/optee-os-3.19.0-r2/optee-os-stm32mp-3.19.0-stm32mp-r2/ldelf/ta_elf.c:1018 (discriminator 1)
    16ee:	4a2f      	ldr	r2, [pc, #188]	@ (17ac <add_deps_from_segment+0x100>)
    16f0:	f240 31fa 	movw	r1, #1018	@ 0x3fa
    16f4:	482e      	ldr	r0, [pc, #184]	@ (17b0 <add_deps_from_segment+0x104>)
    16f6:	447a      	add	r2, pc
    16f8:	4478      	add	r0, pc
    16fa:	f7ff f90f 	bl	91c <_assert_trap.constprop.0>
/home/lubuntu/Dokument/GitHub/STM32-Computer/Firmware/STM32-Computer-Firmware/CA7/optee-os-3.19.0-r2/optee-os-stm32mp-3.19.0-stm32mp-r2/ldelf/ta_elf.c:1006
    16fe:	4627      	mov	r7, r4
/home/lubuntu/Dokument/GitHub/STM32-Computer/Firmware/STM32-Computer-Firmware/CA7/optee-os-3.19.0-r2/optee-os-stm32mp-3.19.0-stm32mp-r2/ldelf/ta_elf.c:1021
    1700:	46a3      	mov	fp, r4
/home/lubuntu/Dokument/GitHub/STM32-Computer/Firmware/STM32-Computer-Firmware/CA7/optee-os-3.19.0-r2/optee-os-stm32mp-3.19.0-stm32mp-r2/ldelf/ta_elf.c:1005
    1702:	4626      	mov	r6, r4
/home/lubuntu/Dokument/GitHub/STM32-Computer/Firmware/STM32-Computer-Firmware/CA7/optee-os-3.19.0-r2/optee-os-stm32mp-3.19.0-stm32mp-r2/ldelf/ta_elf.c:1022
    1704:	ab04      	add	r3, sp, #16
    1706:	f10d 0a14 	add.w	sl, sp, #20
/home/lubuntu/Dokument/GitHub/STM32-Computer/Firmware/STM32-Computer-Firmware/CA7/optee-os-3.19.0-r2/optee-os-stm32mp-3.19.0-stm32mp-r2/ldelf/ta_elf.c:1021 (discriminator 1)
    170a:	45c3      	cmp	fp, r8
    170c:	d001      	beq.n	1712 <add_deps_from_segment+0x66>
/home/lubuntu/Dokument/GitHub/STM32-Computer/Firmware/STM32-Computer-Firmware/CA7/optee-os-3.19.0-r2/optee-os-stm32mp-3.19.0-stm32mp-r2/ldelf/ta_elf.c:1021 (discriminator 3)
    170e:	b186      	cbz	r6, 1732 <add_deps_from_segment+0x86>
/home/lubuntu/Dokument/GitHub/STM32-Computer/Firmware/STM32-Computer-Firmware/CA7/optee-os-3.19.0-r2/optee-os-stm32mp-3.19.0-stm32mp-r2/ldelf/ta_elf.c:1021 (discriminator 4)
    1710:	b17f      	cbz	r7, 1732 <add_deps_from_segment+0x86>
/home/lubuntu/Dokument/GitHub/STM32-Computer/Firmware/STM32-Computer-Firmware/CA7/optee-os-3.19.0-r2/optee-os-stm32mp-3.19.0-stm32mp-r2/ldelf/ta_elf.c:1028
    1712:	4928      	ldr	r1, [pc, #160]	@ (17b4 <add_deps_from_segment+0x108>)
    1714:	463b      	mov	r3, r7
    1716:	4632      	mov	r2, r6
    1718:	4628      	mov	r0, r5
    171a:	4479      	add	r1, pc
/home/lubuntu/Dokument/GitHub/STM32-Computer/Firmware/STM32-Computer-Firmware/CA7/optee-os-3.19.0-r2/optee-os-stm32mp-3.19.0-stm32mp-r2/ldelf/ta_elf.c:1031
    171c:	f10d 0a10 	add.w	sl, sp, #16
    1720:	f10d 0b14 	add.w	fp, sp, #20
/home/lubuntu/Dokument/GitHub/STM32-Computer/Firmware/STM32-Computer-Firmware/CA7/optee-os-3.19.0-r2/optee-os-stm32mp-3.19.0-stm32mp-r2/ldelf/ta_elf.c:1028
    1724:	f7fe febc 	bl	4a0 <check_range>
/home/lubuntu/Dokument/GitHub/STM32-Computer/Firmware/STM32-Computer-Firmware/CA7/optee-os-3.19.0-r2/optee-os-stm32mp-3.19.0-stm32mp-r2/ldelf/ta_elf.c:1030 (discriminator 1)
    1728:	4544      	cmp	r4, r8
    172a:	d118      	bne.n	175e <add_deps_from_segment+0xb2>
/home/lubuntu/Dokument/GitHub/STM32-Computer/Firmware/STM32-Computer-Firmware/CA7/optee-os-3.19.0-r2/optee-os-stm32mp-3.19.0-stm32mp-r2/ldelf/ta_elf.c:1040
    172c:	b00b      	add	sp, #44	@ 0x2c
    172e:	e8bd 8ff0 	ldmia.w	sp!, {r4, r5, r6, r7, r8, r9, sl, fp, pc}
/home/lubuntu/Dokument/GitHub/STM32-Computer/Firmware/STM32-Computer-Firmware/CA7/optee-os-3.19.0-r2/optee-os-stm32mp-3.19.0-stm32mp-r2/ldelf/ta_elf.c:1022
    1732:	9902      	ldr	r1, [sp, #8]
    1734:	465a      	mov	r2, fp
    1736:	f8cd a000 	str.w	sl, [sp]
    173a:	4628      	mov	r0, r5
    173c:	9303      	str	r3, [sp, #12]
    173e:	f002 fc95 	bl	406c <read_dyn>
/home/lubuntu/Dokument/GitHub/STM32-Computer/Firmware/STM32-Computer-Firmware/CA7/optee-os-3.19.0-r2/optee-os-stm32mp-3.19.0-stm32mp-r2/ldelf/ta_elf.c:1023
    1742:	9a04      	ldr	r2, [sp, #16]
    1744:	9b03      	ldr	r3, [sp, #12]
    1746:	2a05      	cmp	r2, #5
    1748:	d105      	bne.n	1756 <add_deps_from_segment+0xaa>
/home/lubuntu/Dokument/GitHub/STM32-Computer/Firmware/STM32-Computer-Firmware/CA7/optee-os-3.19.0-r2/optee-os-stm32mp-3.19.0-stm32mp-r2/ldelf/ta_elf.c:1024
    174a:	686e      	ldr	r6, [r5, #4]
    174c:	9a05      	ldr	r2, [sp, #20]
    174e:	4416      	add	r6, r2
/home/lubuntu/Dokument/GitHub/STM32-Computer/Firmware/STM32-Computer-Firmware/CA7/optee-os-3.19.0-r2/optee-os-stm32mp-3.19.0-stm32mp-r2/ldelf/ta_elf.c:1021 (discriminator 2)
    1750:	f10b 0b01 	add.w	fp, fp, #1
    1754:	e7d9      	b.n	170a <add_deps_from_segment+0x5e>
/home/lubuntu/Dokument/GitHub/STM32-Computer/Firmware/STM32-Computer-Firmware/CA7/optee-os-3.19.0-r2/optee-os-stm32mp-3.19.0-stm32mp-r2/ldelf/ta_elf.c:1025
    1756:	2a0a      	cmp	r2, #10
/home/lubuntu/Dokument/GitHub/STM32-Computer/Firmware/STM32-Computer-Firmware/CA7/optee-os-3.19.0-r2/optee-os-stm32mp-3.19.0-stm32mp-r2/ldelf/ta_elf.c:1026
    1758:	bf08      	it	eq
    175a:	9f05      	ldreq	r7, [sp, #20]
    175c:	e7f8      	b.n	1750 <add_deps_from_segment+0xa4>
/home/lubuntu/Dokument/GitHub/STM32-Computer/Firmware/STM32-Computer-Firmware/CA7/optee-os-3.19.0-r2/optee-os-stm32mp-3.19.0-stm32mp-r2/ldelf/ta_elf.c:1031
    175e:	9902      	ldr	r1, [sp, #8]
    1760:	4653      	mov	r3, sl
    1762:	f8cd b000 	str.w	fp, [sp]
    1766:	4622      	mov	r2, r4
    1768:	4628      	mov	r0, r5
    176a:	f002 fc7f 	bl	406c <read_dyn>
/home/lubuntu/Dokument/GitHub/STM32-Computer/Firmware/STM32-Computer-Firmware/CA7/optee-os-3.19.0-r2/optee-os-stm32mp-3.19.0-stm32mp-r2/ldelf/ta_elf.c:1032
    176e:	9b04      	ldr	r3, [sp, #16]
    1770:	2b01      	cmp	r3, #1
    1772:	d116      	bne.n	17a2 <add_deps_from_segment+0xf6>
/home/lubuntu/Dokument/GitHub/STM32-Computer/Firmware/STM32-Computer-Firmware/CA7/optee-os-3.19.0-r2/optee-os-stm32mp-3.19.0-stm32mp-r2/ldelf/ta_elf.c:1034
    1774:	9905      	ldr	r1, [sp, #20]
    1776:	42b9      	cmp	r1, r7
    1778:	d30c      	bcc.n	1794 <add_deps_from_segment+0xe8>
/home/lubuntu/Dokument/GitHub/STM32-Computer/Firmware/STM32-Computer-Firmware/CA7/optee-os-3.19.0-r2/optee-os-stm32mp-3.19.0-stm32mp-r2/ldelf/ta_elf.c:1035
    177a:	4a0f      	ldr	r2, [pc, #60]	@ (17b8 <add_deps_from_segment+0x10c>)
    177c:	f240 410b 	movw	r1, #1035	@ 0x40b
    1780:	480e      	ldr	r0, [pc, #56]	@ (17bc <add_deps_from_segment+0x110>)
    1782:	447a      	add	r2, pc
    1784:	4478      	add	r0, pc
    1786:	9200      	str	r2, [sp, #0]
    1788:	461a      	mov	r2, r3
    178a:	f002 fe95 	bl	44b8 <trace_printf>
    178e:	4806      	ldr	r0, [pc, #24]	@ (17a8 <add_deps_from_segment+0xfc>)
    1790:	f7fe ec72 	blx	78 <_ldelf_return>
/home/lubuntu/Dokument/GitHub/STM32-Computer/Firmware/STM32-Computer-Firmware/CA7/optee-os-3.19.0-r2/optee-os-stm32mp-3.19.0-stm32mp-r2/ldelf/ta_elf.c:1037
    1794:	4431      	add	r1, r6
    1796:	4648      	mov	r0, r9
    1798:	f001 fc0c 	bl	2fb4 <tee_uuid_from_str>
/home/lubuntu/Dokument/GitHub/STM32-Computer/Firmware/STM32-Computer-Firmware/CA7/optee-os-3.19.0-r2/optee-os-stm32mp-3.19.0-stm32mp-r2/ldelf/ta_elf.c:1038
    179c:	4648      	mov	r0, r9
    179e:	f7ff ff65 	bl	166c <queue_elf>
/home/lubuntu/Dokument/GitHub/STM32-Computer/Firmware/STM32-Computer-Firmware/CA7/optee-os-3.19.0-r2/optee-os-stm32mp-3.19.0-stm32mp-r2/ldelf/ta_elf.c:1030 (discriminator 2)
    17a2:	3401      	adds	r4, #1
    17a4:	e7c0      	b.n	1728 <add_deps_from_segment+0x7c>
    17a6:	bf00      	nop
    17a8:	ffff0005 	.word	0xffff0005
    17ac:	000038ea 	.word	0x000038ea
    17b0:	000033e0 	.word	0x000033e0
    17b4:	000034ef 	.word	0x000034ef
    17b8:	000034f2 	.word	0x000034f2
    17bc:	0000385c 	.word	0x0000385c

000017c0 <ta_elf_load_main>:
ta_elf_load_main():
/home/lubuntu/Dokument/GitHub/STM32-Computer/Firmware/STM32-Computer-Firmware/CA7/optee-os-3.19.0-r2/optee-os-stm32mp-3.19.0-stm32mp-r2/ldelf/ta_elf.c:1219
    17c0:	e92d 4ff0 	stmdb	sp!, {r4, r5, r6, r7, r8, r9, sl, fp, lr}
    17c4:	b087      	sub	sp, #28
    17c6:	4689      	mov	r9, r1
    17c8:	4617      	mov	r7, r2
    17ca:	9302      	str	r3, [sp, #8]
/home/lubuntu/Dokument/GitHub/STM32-Computer/Firmware/STM32-Computer-Firmware/CA7/optee-os-3.19.0-r2/optee-os-stm32mp-3.19.0-stm32mp-r2/ldelf/ta_elf.c:1220
    17cc:	f7ff ff4e 	bl	166c <queue_elf>
/home/lubuntu/Dokument/GitHub/STM32-Computer/Firmware/STM32-Computer-Firmware/CA7/optee-os-3.19.0-r2/optee-os-stm32mp-3.19.0-stm32mp-r2/ldelf/ta_elf.c:1221
    17d0:	2300      	movs	r3, #0
/home/lubuntu/Dokument/GitHub/STM32-Computer/Firmware/STM32-Computer-Firmware/CA7/optee-os-3.19.0-r2/optee-os-stm32mp-3.19.0-stm32mp-r2/ldelf/ta_elf.c:1224
    17d2:	4604      	mov	r4, r0
/home/lubuntu/Dokument/GitHub/STM32-Computer/Firmware/STM32-Computer-Firmware/CA7/optee-os-3.19.0-r2/optee-os-stm32mp-3.19.0-stm32mp-r2/ldelf/ta_elf.c:1221
    17d4:	9304      	str	r3, [sp, #16]
/home/lubuntu/Dokument/GitHub/STM32-Computer/Firmware/STM32-Computer-Firmware/CA7/optee-os-3.19.0-r2/optee-os-stm32mp-3.19.0-stm32mp-r2/ldelf/ta_elf.c:1224
    17d6:	b938      	cbnz	r0, 17e8 <ta_elf_load_main+0x28>
/home/lubuntu/Dokument/GitHub/STM32-Computer/Firmware/STM32-Computer-Firmware/CA7/optee-os-3.19.0-r2/optee-os-stm32mp-3.19.0-stm32mp-r2/ldelf/ta_elf.c:1224 (discriminator 1)
    17d8:	4ab4      	ldr	r2, [pc, #720]	@ (1aac <ta_elf_load_main+0x2ec>)
    17da:	f44f 6199 	mov.w	r1, #1224	@ 0x4c8
    17de:	48b4      	ldr	r0, [pc, #720]	@ (1ab0 <ta_elf_load_main+0x2f0>)
    17e0:	447a      	add	r2, pc
    17e2:	4478      	add	r0, pc
populate_segments_legacy():
/home/lubuntu/Dokument/GitHub/STM32-Computer/Firmware/STM32-Computer-Firmware/CA7/optee-os-3.19.0-r2/optee-os-stm32mp-3.19.0-stm32mp-r2/ldelf/ta_elf.c:689
    17e4:	f7ff f89a 	bl	91c <_assert_trap.constprop.0>
ta_elf_load_main():
/home/lubuntu/Dokument/GitHub/STM32-Computer/Firmware/STM32-Computer-Firmware/CA7/optee-os-3.19.0-r2/optee-os-stm32mp-3.19.0-stm32mp-r2/ldelf/ta_elf.c:1225
    17e8:	2301      	movs	r3, #1
    17ea:	7003      	strb	r3, [r0, #0]
load_main():
/home/lubuntu/Dokument/GitHub/STM32-Computer/Firmware/STM32-Computer-Firmware/CA7/optee-os-3.19.0-r2/optee-os-stm32mp-3.19.0-stm32mp-r2/ldelf/ta_elf.c:1165
    17ec:	f7fe ff82 	bl	6f4 <init_elf>
/home/lubuntu/Dokument/GitHub/STM32-Computer/Firmware/STM32-Computer-Firmware/CA7/optee-os-3.19.0-r2/optee-os-stm32mp-3.19.0-stm32mp-r2/ldelf/ta_elf.c:1166
    17f0:	4620      	mov	r0, r4
    17f2:	f7ff fb4d 	bl	e90 <map_segments>
/home/lubuntu/Dokument/GitHub/STM32-Computer/Firmware/STM32-Computer-Firmware/CA7/optee-os-3.19.0-r2/optee-os-stm32mp-3.19.0-stm32mp-r2/ldelf/ta_elf.c:1167
    17f6:	4620      	mov	r0, r4
    17f8:	f7ff f984 	bl	b04 <populate_segments>
/home/lubuntu/Dokument/GitHub/STM32-Computer/Firmware/STM32-Computer-Firmware/CA7/optee-os-3.19.0-r2/optee-os-stm32mp-3.19.0-stm32mp-r2/ldelf/ta_elf.c:1168
    17fc:	4620      	mov	r0, r4
    17fe:	f002 fc78 	bl	40f2 <add_dependencies>
/home/lubuntu/Dokument/GitHub/STM32-Computer/Firmware/STM32-Computer-Firmware/CA7/optee-os-3.19.0-r2/optee-os-stm32mp-3.19.0-stm32mp-r2/ldelf/ta_elf.c:1169
    1802:	4620      	mov	r0, r4
    1804:	f7ff f908 	bl	a18 <copy_section_headers>
/home/lubuntu/Dokument/GitHub/STM32-Computer/Firmware/STM32-Computer-Firmware/CA7/optee-os-3.19.0-r2/optee-os-stm32mp-3.19.0-stm32mp-r2/ldelf/ta_elf.c:1170
    1808:	4620      	mov	r0, r4
    180a:	f7ff fd53 	bl	12b4 <save_symtab>
/home/lubuntu/Dokument/GitHub/STM32-Computer/Firmware/STM32-Computer-Firmware/CA7/optee-os-3.19.0-r2/optee-os-stm32mp-3.19.0-stm32mp-r2/ldelf/ta_elf.c:1171
    180e:	4620      	mov	r0, r4
    1810:	f7ff f834 	bl	87c <close_handle>
/home/lubuntu/Dokument/GitHub/STM32-Computer/Firmware/STM32-Computer-Firmware/CA7/optee-os-3.19.0-r2/optee-os-stm32mp-3.19.0-stm32mp-r2/ldelf/ta_elf.c:1174
    1814:	78e3      	ldrb	r3, [r4, #3]
    1816:	b113      	cbz	r3, 181e <ta_elf_load_main+0x5e>
/home/lubuntu/Dokument/GitHub/STM32-Computer/Firmware/STM32-Computer-Firmware/CA7/optee-os-3.19.0-r2/optee-os-stm32mp-3.19.0-stm32mp-r2/ldelf/ta_elf.c:1175
    1818:	4620      	mov	r0, r4
    181a:	f7fe ff45 	bl	6a8 <ta_elf_add_bti>
/home/lubuntu/Dokument/GitHub/STM32-Computer/Firmware/STM32-Computer-Firmware/CA7/optee-os-3.19.0-r2/optee-os-stm32mp-3.19.0-stm32mp-r2/ldelf/ta_elf.c:1177
    181e:	6863      	ldr	r3, [r4, #4]
    1820:	f8c4 3088 	str.w	r3, [r4, #136]	@ 0x88
/home/lubuntu/Dokument/GitHub/STM32-Computer/Firmware/STM32-Computer-Firmware/CA7/optee-os-3.19.0-r2/optee-os-stm32mp-3.19.0-stm32mp-r2/ldelf/ta_elf.c:1178
    1824:	e9d3 2306 	ldrd	r2, r3, [r3, #24]
    1828:	f1b3 3fff 	cmp.w	r3, #4294967295	@ 0xffffffff
    182c:	bf08      	it	eq
    182e:	f1b2 3fff 	cmpeq.w	r2, #4294967295	@ 0xffffffff
    1832:	f000 80f3 	beq.w	1a1c <ta_elf_load_main+0x25c>
/home/lubuntu/Dokument/GitHub/STM32-Computer/Firmware/STM32-Computer-Firmware/CA7/optee-os-3.19.0-r2/optee-os-stm32mp-3.19.0-stm32mp-r2/ldelf/ta_elf.c:1194
    1836:	4b9f      	ldr	r3, [pc, #636]	@ (1ab4 <ta_elf_load_main+0x2f4>)
    1838:	f104 0a8c 	add.w	sl, r4, #140	@ 0x8c
    183c:	489e      	ldr	r0, [pc, #632]	@ (1ab8 <ta_elf_load_main+0x2f8>)
    183e:	2203      	movs	r2, #3
    1840:	447b      	add	r3, pc
    1842:	f240 41aa 	movw	r1, #1194	@ 0x4aa
    1846:	4478      	add	r0, pc
    1848:	9300      	str	r3, [sp, #0]
    184a:	2301      	movs	r3, #1
    184c:	f8cd a004 	str.w	sl, [sp, #4]
    1850:	f002 fe32 	bl	44b8 <trace_printf>
clean_elf_load_main():
/home/lubuntu/Dokument/GitHub/STM32-Computer/Firmware/STM32-Computer-Firmware/CA7/optee-os-3.19.0-r2/optee-os-stm32mp-3.19.0-stm32mp-r2/ldelf/ta_elf.c:1111
    1854:	6920      	ldr	r0, [r4, #16]
    1856:	f44f 5180 	mov.w	r1, #4096	@ 0x1000
    185a:	f002 fbd9 	bl	4010 <sys_unmap>
/home/lubuntu/Dokument/GitHub/STM32-Computer/Firmware/STM32-Computer-Firmware/CA7/optee-os-3.19.0-r2/optee-os-stm32mp-3.19.0-stm32mp-r2/ldelf/ta_elf.c:1112
    185e:	4605      	mov	r5, r0
    1860:	bb00      	cbnz	r0, 18a4 <ta_elf_load_main+0xe4>
rounddown():
/home/lubuntu/Dokument/GitHub/STM32-Computer/Firmware/STM32-Computer-Firmware/CA7/optee-os-3.19.0-r2/optee-os-stm32mp-3.19.0-stm32mp-r2/ldelf/ta_elf.c:497
    1862:	4e8e      	ldr	r6, [pc, #568]	@ (1a9c <ta_elf_load_main+0x2dc>)
clean_elf_load_main():
/home/lubuntu/Dokument/GitHub/STM32-Computer/Firmware/STM32-Computer-Firmware/CA7/optee-os-3.19.0-r2/optee-os-stm32mp-3.19.0-stm32mp-r2/ldelf/ta_elf.c:1115
    1864:	6da5      	ldr	r5, [r4, #88]	@ 0x58
    1866:	bb55      	cbnz	r5, 18be <ta_elf_load_main+0xfe>
/home/lubuntu/Dokument/GitHub/STM32-Computer/Firmware/STM32-Computer-Firmware/CA7/optee-os-3.19.0-r2/optee-os-stm32mp-3.19.0-stm32mp-r2/ldelf/ta_elf.c:1135
    1868:	6b60      	ldr	r0, [r4, #52]	@ 0x34
    186a:	f001 ff23 	bl	36b4 <free>
/home/lubuntu/Dokument/GitHub/STM32-Computer/Firmware/STM32-Computer-Firmware/CA7/optee-os-3.19.0-r2/optee-os-stm32mp-3.19.0-stm32mp-r2/ldelf/ta_elf.c:1136
    186e:	228b      	movs	r2, #139	@ 0x8b
    1870:	4629      	mov	r1, r5
    1872:	1c60      	adds	r0, r4, #1
    1874:	f002 fd66 	bl	4344 <memset>
/home/lubuntu/Dokument/GitHub/STM32-Computer/Firmware/STM32-Computer-Firmware/CA7/optee-os-3.19.0-r2/optee-os-stm32mp-3.19.0-stm32mp-r2/ldelf/ta_elf.c:1139
    1878:	f104 0358 	add.w	r3, r4, #88	@ 0x58
load_main():
/home/lubuntu/Dokument/GitHub/STM32-Computer/Firmware/STM32-Computer-Firmware/CA7/optee-os-3.19.0-r2/optee-os-stm32mp-3.19.0-stm32mp-r2/ldelf/ta_elf.c:1197
    187c:	4620      	mov	r0, r4
clean_elf_load_main():
/home/lubuntu/Dokument/GitHub/STM32-Computer/Firmware/STM32-Computer-Firmware/CA7/optee-os-3.19.0-r2/optee-os-stm32mp-3.19.0-stm32mp-r2/ldelf/ta_elf.c:1139
    187e:	65e3      	str	r3, [r4, #92]	@ 0x5c
load_main():
/home/lubuntu/Dokument/GitHub/STM32-Computer/Firmware/STM32-Computer-Firmware/CA7/optee-os-3.19.0-r2/optee-os-stm32mp-3.19.0-stm32mp-r2/ldelf/ta_elf.c:1196
    1880:	2301      	movs	r3, #1
    1882:	70a3      	strb	r3, [r4, #2]
/home/lubuntu/Dokument/GitHub/STM32-Computer/Firmware/STM32-Computer-Firmware/CA7/optee-os-3.19.0-r2/optee-os-stm32mp-3.19.0-stm32mp-r2/ldelf/ta_elf.c:1197
    1884:	f7fe ff36 	bl	6f4 <init_elf>
/home/lubuntu/Dokument/GitHub/STM32-Computer/Firmware/STM32-Computer-Firmware/CA7/optee-os-3.19.0-r2/optee-os-stm32mp-3.19.0-stm32mp-r2/ldelf/ta_elf.c:1198
    1888:	4620      	mov	r0, r4
    188a:	f7ff fb01 	bl	e90 <map_segments>
populate_segments_legacy():
/home/lubuntu/Dokument/GitHub/STM32-Computer/Firmware/STM32-Computer-Firmware/CA7/optee-os-3.19.0-r2/optee-os-stm32mp-3.19.0-stm32mp-r2/ldelf/ta_elf.c:689
    188e:	78a3      	ldrb	r3, [r4, #2]
/home/lubuntu/Dokument/GitHub/STM32-Computer/Firmware/STM32-Computer-Firmware/CA7/optee-os-3.19.0-r2/optee-os-stm32mp-3.19.0-stm32mp-r2/ldelf/ta_elf.c:687
    1890:	9505      	str	r5, [sp, #20]
/home/lubuntu/Dokument/GitHub/STM32-Computer/Firmware/STM32-Computer-Firmware/CA7/optee-os-3.19.0-r2/optee-os-stm32mp-3.19.0-stm32mp-r2/ldelf/ta_elf.c:689
    1892:	2b00      	cmp	r3, #0
    1894:	d13d      	bne.n	1912 <ta_elf_load_main+0x152>
    1896:	4a89      	ldr	r2, [pc, #548]	@ (1abc <ta_elf_load_main+0x2fc>)
    1898:	f240 21b1 	movw	r1, #689	@ 0x2b1
    189c:	4888      	ldr	r0, [pc, #544]	@ (1ac0 <ta_elf_load_main+0x300>)
    189e:	447a      	add	r2, pc
    18a0:	4478      	add	r0, pc
    18a2:	e79f      	b.n	17e4 <ta_elf_load_main+0x24>
clean_elf_load_main():
/home/lubuntu/Dokument/GitHub/STM32-Computer/Firmware/STM32-Computer-Firmware/CA7/optee-os-3.19.0-r2/optee-os-stm32mp-3.19.0-stm32mp-r2/ldelf/ta_elf.c:1113
    18a4:	4b87      	ldr	r3, [pc, #540]	@ (1ac4 <ta_elf_load_main+0x304>)
    18a6:	f240 4159 	movw	r1, #1113	@ 0x459
    18aa:	4887      	ldr	r0, [pc, #540]	@ (1ac8 <ta_elf_load_main+0x308>)
    18ac:	447b      	add	r3, pc
    18ae:	9300      	str	r3, [sp, #0]
    18b0:	2301      	movs	r3, #1
    18b2:	4478      	add	r0, pc
    18b4:	461a      	mov	r2, r3
ta_elf_load_main():
/home/lubuntu/Dokument/GitHub/STM32-Computer/Firmware/STM32-Computer-Firmware/CA7/optee-os-3.19.0-r2/optee-os-stm32mp-3.19.0-stm32mp-r2/ldelf/ta_elf.c:1232
    18b6:	f002 fdff 	bl	44b8 <trace_printf>
    18ba:	4628      	mov	r0, r5
    18bc:	e07a      	b.n	19b4 <ta_elf_load_main+0x1f4>
clean_elf_load_main():
/home/lubuntu/Dokument/GitHub/STM32-Computer/Firmware/STM32-Computer-Firmware/CA7/optee-os-3.19.0-r2/optee-os-stm32mp-3.19.0-stm32mp-r2/ldelf/ta_elf.c:1120
    18be:	686b      	ldr	r3, [r5, #4]
    18c0:	6860      	ldr	r0, [r4, #4]
/home/lubuntu/Dokument/GitHub/STM32-Computer/Firmware/STM32-Computer-Firmware/CA7/optee-os-3.19.0-r2/optee-os-stm32mp-3.19.0-stm32mp-r2/ldelf/ta_elf.c:1121
    18c2:	7e2a      	ldrb	r2, [r5, #24]
/home/lubuntu/Dokument/GitHub/STM32-Computer/Firmware/STM32-Computer-Firmware/CA7/optee-os-3.19.0-r2/optee-os-stm32mp-3.19.0-stm32mp-r2/ldelf/ta_elf.c:1120
    18c4:	4418      	add	r0, r3
/home/lubuntu/Dokument/GitHub/STM32-Computer/Firmware/STM32-Computer-Firmware/CA7/optee-os-3.19.0-r2/optee-os-stm32mp-3.19.0-stm32mp-r2/ldelf/ta_elf.c:1122
    18c6:	68e9      	ldr	r1, [r5, #12]
rounddown():
/home/lubuntu/Dokument/GitHub/STM32-Computer/Firmware/STM32-Computer-Firmware/CA7/optee-os-3.19.0-r2/optee-os-stm32mp-3.19.0-stm32mp-r2/ldelf/ta_elf.c:497
    18c8:	4030      	ands	r0, r6
clean_elf_load_main():
/home/lubuntu/Dokument/GitHub/STM32-Computer/Firmware/STM32-Computer-Firmware/CA7/optee-os-3.19.0-r2/optee-os-stm32mp-3.19.0-stm32mp-r2/ldelf/ta_elf.c:1121
    18ca:	b12a      	cbz	r2, 18d8 <ta_elf_load_main+0x118>
/home/lubuntu/Dokument/GitHub/STM32-Computer/Firmware/STM32-Computer-Firmware/CA7/optee-os-3.19.0-r2/optee-os-stm32mp-3.19.0-stm32mp-r2/ldelf/ta_elf.c:1122
    18cc:	4419      	add	r1, r3
rounddown():
/home/lubuntu/Dokument/GitHub/STM32-Computer/Firmware/STM32-Computer-Firmware/CA7/optee-os-3.19.0-r2/optee-os-stm32mp-3.19.0-stm32mp-r2/ldelf/ta_elf.c:497
    18ce:	4033      	ands	r3, r6
roundup():
/home/lubuntu/Dokument/GitHub/STM32-Computer/Firmware/STM32-Computer-Firmware/CA7/optee-os-3.19.0-r2/optee-os-stm32mp-3.19.0-stm32mp-r2/ldelf/ta_elf.c:492
    18d0:	f601 71ff 	addw	r1, r1, #4095	@ 0xfff
    18d4:	4031      	ands	r1, r6
clean_elf_load_main():
/home/lubuntu/Dokument/GitHub/STM32-Computer/Firmware/STM32-Computer-Firmware/CA7/optee-os-3.19.0-r2/optee-os-stm32mp-3.19.0-stm32mp-r2/ldelf/ta_elf.c:1122
    18d6:	1ac9      	subs	r1, r1, r3
/home/lubuntu/Dokument/GitHub/STM32-Computer/Firmware/STM32-Computer-Firmware/CA7/optee-os-3.19.0-r2/optee-os-stm32mp-3.19.0-stm32mp-r2/ldelf/ta_elf.c:1127
    18d8:	f002 fb9a 	bl	4010 <sys_unmap>
/home/lubuntu/Dokument/GitHub/STM32-Computer/Firmware/STM32-Computer-Firmware/CA7/optee-os-3.19.0-r2/optee-os-stm32mp-3.19.0-stm32mp-r2/ldelf/ta_elf.c:1128
    18dc:	4680      	mov	r8, r0
    18de:	b160      	cbz	r0, 18fa <ta_elf_load_main+0x13a>
/home/lubuntu/Dokument/GitHub/STM32-Computer/Firmware/STM32-Computer-Firmware/CA7/optee-os-3.19.0-r2/optee-os-stm32mp-3.19.0-stm32mp-r2/ldelf/ta_elf.c:1129
    18e0:	4b7a      	ldr	r3, [pc, #488]	@ (1acc <ta_elf_load_main+0x30c>)
    18e2:	f240 4169 	movw	r1, #1129	@ 0x469
    18e6:	487a      	ldr	r0, [pc, #488]	@ (1ad0 <ta_elf_load_main+0x310>)
    18e8:	447b      	add	r3, pc
    18ea:	9300      	str	r3, [sp, #0]
    18ec:	2301      	movs	r3, #1
    18ee:	4478      	add	r0, pc
    18f0:	461a      	mov	r2, r3
populate_segments_legacy():
/home/lubuntu/Dokument/GitHub/STM32-Computer/Firmware/STM32-Computer-Firmware/CA7/optee-os-3.19.0-r2/optee-os-stm32mp-3.19.0-stm32mp-r2/ldelf/ta_elf.c:712
    18f2:	f002 fde1 	bl	44b8 <trace_printf>
    18f6:	4640      	mov	r0, r8
    18f8:	e05c      	b.n	19b4 <ta_elf_load_main+0x1f4>
clean_elf_load_main():
/home/lubuntu/Dokument/GitHub/STM32-Computer/Firmware/STM32-Computer-Firmware/CA7/optee-os-3.19.0-r2/optee-os-stm32mp-3.19.0-stm32mp-r2/ldelf/ta_elf.c:1131
    18fa:	69eb      	ldr	r3, [r5, #28]
    18fc:	6a2a      	ldr	r2, [r5, #32]
    18fe:	b133      	cbz	r3, 190e <ta_elf_load_main+0x14e>
    1900:	621a      	str	r2, [r3, #32]
    1902:	6a2a      	ldr	r2, [r5, #32]
/home/lubuntu/Dokument/GitHub/STM32-Computer/Firmware/STM32-Computer-Firmware/CA7/optee-os-3.19.0-r2/optee-os-stm32mp-3.19.0-stm32mp-r2/ldelf/ta_elf.c:1132
    1904:	4628      	mov	r0, r5
/home/lubuntu/Dokument/GitHub/STM32-Computer/Firmware/STM32-Computer-Firmware/CA7/optee-os-3.19.0-r2/optee-os-stm32mp-3.19.0-stm32mp-r2/ldelf/ta_elf.c:1131
    1906:	6013      	str	r3, [r2, #0]
/home/lubuntu/Dokument/GitHub/STM32-Computer/Firmware/STM32-Computer-Firmware/CA7/optee-os-3.19.0-r2/optee-os-stm32mp-3.19.0-stm32mp-r2/ldelf/ta_elf.c:1132
    1908:	f001 fed4 	bl	36b4 <free>
    190c:	e7aa      	b.n	1864 <ta_elf_load_main+0xa4>
/home/lubuntu/Dokument/GitHub/STM32-Computer/Firmware/STM32-Computer-Firmware/CA7/optee-os-3.19.0-r2/optee-os-stm32mp-3.19.0-stm32mp-r2/ldelf/ta_elf.c:1131
    190e:	65e2      	str	r2, [r4, #92]	@ 0x5c
    1910:	e7f7      	b.n	1902 <ta_elf_load_main+0x142>
populate_segments_legacy():
/home/lubuntu/Dokument/GitHub/STM32-Computer/Firmware/STM32-Computer-Firmware/CA7/optee-os-3.19.0-r2/optee-os-stm32mp-3.19.0-stm32mp-r2/ldelf/ta_elf.c:690
    1912:	6da5      	ldr	r5, [r4, #88]	@ 0x58
/home/lubuntu/Dokument/GitHub/STM32-Computer/Firmware/STM32-Computer-Firmware/CA7/optee-os-3.19.0-r2/optee-os-stm32mp-3.19.0-stm32mp-r2/ldelf/ta_elf.c:706
    1914:	ab05      	add	r3, sp, #20
roundup():
/home/lubuntu/Dokument/GitHub/STM32-Computer/Firmware/STM32-Computer-Firmware/CA7/optee-os-3.19.0-r2/optee-os-stm32mp-3.19.0-stm32mp-r2/ldelf/ta_elf.c:492
    1916:	f8df b184 	ldr.w	fp, [pc, #388]	@ 1a9c <ta_elf_load_main+0x2dc>
populate_segments_legacy():
/home/lubuntu/Dokument/GitHub/STM32-Computer/Firmware/STM32-Computer-Firmware/CA7/optee-os-3.19.0-r2/optee-os-stm32mp-3.19.0-stm32mp-r2/ldelf/ta_elf.c:706
    191a:	9303      	str	r3, [sp, #12]
/home/lubuntu/Dokument/GitHub/STM32-Computer/Firmware/STM32-Computer-Firmware/CA7/optee-os-3.19.0-r2/optee-os-stm32mp-3.19.0-stm32mp-r2/ldelf/ta_elf.c:690
    191c:	bb2d      	cbnz	r5, 196a <ta_elf_load_main+0x1aa>
load_main():
/home/lubuntu/Dokument/GitHub/STM32-Computer/Firmware/STM32-Computer-Firmware/CA7/optee-os-3.19.0-r2/optee-os-stm32mp-3.19.0-stm32mp-r2/ldelf/ta_elf.c:1200
    191e:	4620      	mov	r0, r4
    1920:	f002 fbe7 	bl	40f2 <add_dependencies>
/home/lubuntu/Dokument/GitHub/STM32-Computer/Firmware/STM32-Computer-Firmware/CA7/optee-os-3.19.0-r2/optee-os-stm32mp-3.19.0-stm32mp-r2/ldelf/ta_elf.c:1201
    1924:	4620      	mov	r0, r4
    1926:	f7ff f877 	bl	a18 <copy_section_headers>
/home/lubuntu/Dokument/GitHub/STM32-Computer/Firmware/STM32-Computer-Firmware/CA7/optee-os-3.19.0-r2/optee-os-stm32mp-3.19.0-stm32mp-r2/ldelf/ta_elf.c:1202
    192a:	4620      	mov	r0, r4
    192c:	f7ff fcc2 	bl	12b4 <save_symtab>
/home/lubuntu/Dokument/GitHub/STM32-Computer/Firmware/STM32-Computer-Firmware/CA7/optee-os-3.19.0-r2/optee-os-stm32mp-3.19.0-stm32mp-r2/ldelf/ta_elf.c:1203
    1930:	4620      	mov	r0, r4
    1932:	f7fe ffa3 	bl	87c <close_handle>
/home/lubuntu/Dokument/GitHub/STM32-Computer/Firmware/STM32-Computer-Firmware/CA7/optee-os-3.19.0-r2/optee-os-stm32mp-3.19.0-stm32mp-r2/ldelf/ta_elf.c:1204
    1936:	6863      	ldr	r3, [r4, #4]
    1938:	f8c4 3088 	str.w	r3, [r4, #136]	@ 0x88
/home/lubuntu/Dokument/GitHub/STM32-Computer/Firmware/STM32-Computer-Firmware/CA7/optee-os-3.19.0-r2/optee-os-stm32mp-3.19.0-stm32mp-r2/ldelf/ta_elf.c:1209
    193c:	e9d3 2306 	ldrd	r2, r3, [r3, #24]
    1940:	f1b3 3fff 	cmp.w	r3, #4294967295	@ 0xffffffff
    1944:	bf08      	it	eq
    1946:	f1b2 3fff 	cmpeq.w	r2, #4294967295	@ 0xffffffff
    194a:	d167      	bne.n	1a1c <ta_elf_load_main+0x25c>
/home/lubuntu/Dokument/GitHub/STM32-Computer/Firmware/STM32-Computer-Firmware/CA7/optee-os-3.19.0-r2/optee-os-stm32mp-3.19.0-stm32mp-r2/ldelf/ta_elf.c:1210
    194c:	4b61      	ldr	r3, [pc, #388]	@ (1ad4 <ta_elf_load_main+0x314>)
    194e:	f240 41ba 	movw	r1, #1210	@ 0x4ba
    1952:	4861      	ldr	r0, [pc, #388]	@ (1ad8 <ta_elf_load_main+0x318>)
    1954:	447b      	add	r3, pc
    1956:	9300      	str	r3, [sp, #0]
    1958:	2301      	movs	r3, #1
    195a:	4478      	add	r0, pc
    195c:	461a      	mov	r2, r3
    195e:	f8cd a004 	str.w	sl, [sp, #4]
    1962:	f002 fda9 	bl	44b8 <trace_printf>
    1966:	484e      	ldr	r0, [pc, #312]	@ (1aa0 <ta_elf_load_main+0x2e0>)
    1968:	e024      	b.n	19b4 <ta_elf_load_main+0x1f4>
populate_segments_legacy():
/home/lubuntu/Dokument/GitHub/STM32-Computer/Firmware/STM32-Computer-Firmware/CA7/optee-os-3.19.0-r2/optee-os-stm32mp-3.19.0-stm32mp-r2/ldelf/ta_elf.c:691
    196a:	6de3      	ldr	r3, [r4, #92]	@ 0x5c
/home/lubuntu/Dokument/GitHub/STM32-Computer/Firmware/STM32-Computer-Firmware/CA7/optee-os-3.19.0-r2/optee-os-stm32mp-3.19.0-stm32mp-r2/ldelf/ta_elf.c:693
    196c:	686a      	ldr	r2, [r5, #4]
/home/lubuntu/Dokument/GitHub/STM32-Computer/Firmware/STM32-Computer-Firmware/CA7/optee-os-3.19.0-r2/optee-os-stm32mp-3.19.0-stm32mp-r2/ldelf/ta_elf.c:691
    196e:	685b      	ldr	r3, [r3, #4]
/home/lubuntu/Dokument/GitHub/STM32-Computer/Firmware/STM32-Computer-Firmware/CA7/optee-os-3.19.0-r2/optee-os-stm32mp-3.19.0-stm32mp-r2/ldelf/ta_elf.c:693
    1970:	68ee      	ldr	r6, [r5, #12]
/home/lubuntu/Dokument/GitHub/STM32-Computer/Firmware/STM32-Computer-Firmware/CA7/optee-os-3.19.0-r2/optee-os-stm32mp-3.19.0-stm32mp-r2/ldelf/ta_elf.c:691
    1972:	6819      	ldr	r1, [r3, #0]
/home/lubuntu/Dokument/GitHub/STM32-Computer/Firmware/STM32-Computer-Firmware/CA7/optee-os-3.19.0-r2/optee-os-stm32mp-3.19.0-stm32mp-r2/ldelf/ta_elf.c:692
    1974:	684b      	ldr	r3, [r1, #4]
    1976:	68c9      	ldr	r1, [r1, #12]
    1978:	440b      	add	r3, r1
/home/lubuntu/Dokument/GitHub/STM32-Computer/Firmware/STM32-Computer-Firmware/CA7/optee-os-3.19.0-r2/optee-os-stm32mp-3.19.0-stm32mp-r2/ldelf/ta_elf.c:696
    197a:	6861      	ldr	r1, [r4, #4]
roundup():
/home/lubuntu/Dokument/GitHub/STM32-Computer/Firmware/STM32-Computer-Firmware/CA7/optee-os-3.19.0-r2/optee-os-stm32mp-3.19.0-stm32mp-r2/ldelf/ta_elf.c:492
    197c:	f603 73ff 	addw	r3, r3, #4095	@ 0xfff
    1980:	1a9b      	subs	r3, r3, r2
    1982:	1b9b      	subs	r3, r3, r6
    1984:	f606 76ff 	addw	r6, r6, #4095	@ 0xfff
    1988:	ea03 030b 	and.w	r3, r3, fp
    198c:	ea06 060b 	and.w	r6, r6, fp
populate_segments_legacy():
/home/lubuntu/Dokument/GitHub/STM32-Computer/Firmware/STM32-Computer-Firmware/CA7/optee-os-3.19.0-r2/optee-os-stm32mp-3.19.0-stm32mp-r2/ldelf/ta_elf.c:696
    1990:	b101      	cbz	r1, 1994 <ta_elf_load_main+0x1d4>
/home/lubuntu/Dokument/GitHub/STM32-Computer/Firmware/STM32-Computer-Firmware/CA7/optee-os-3.19.0-r2/optee-os-stm32mp-3.19.0-stm32mp-r2/ldelf/ta_elf.c:699
    1992:	4411      	add	r1, r2
/home/lubuntu/Dokument/GitHub/STM32-Computer/Firmware/STM32-Computer-Firmware/CA7/optee-os-3.19.0-r2/optee-os-stm32mp-3.19.0-stm32mp-r2/ldelf/ta_elf.c:702
    1994:	692a      	ldr	r2, [r5, #16]
    1996:	9105      	str	r1, [sp, #20]
    1998:	0752      	lsls	r2, r2, #29
    199a:	d40d      	bmi.n	19b8 <ta_elf_load_main+0x1f8>
/home/lubuntu/Dokument/GitHub/STM32-Computer/Firmware/STM32-Computer-Firmware/CA7/optee-os-3.19.0-r2/optee-os-stm32mp-3.19.0-stm32mp-r2/ldelf/ta_elf.c:703
    199c:	4b4f      	ldr	r3, [pc, #316]	@ (1adc <ta_elf_load_main+0x31c>)
    199e:	f240 21bf 	movw	r1, #703	@ 0x2bf
    19a2:	484f      	ldr	r0, [pc, #316]	@ (1ae0 <ta_elf_load_main+0x320>)
    19a4:	447b      	add	r3, pc
    19a6:	9300      	str	r3, [sp, #0]
    19a8:	2301      	movs	r3, #1
    19aa:	4478      	add	r0, pc
    19ac:	461a      	mov	r2, r3
    19ae:	f002 fd83 	bl	44b8 <trace_printf>
    19b2:	483c      	ldr	r0, [pc, #240]	@ (1aa4 <ta_elf_load_main+0x2e4>)
ta_elf_load_main():
/home/lubuntu/Dokument/GitHub/STM32-Computer/Firmware/STM32-Computer-Firmware/CA7/optee-os-3.19.0-r2/optee-os-stm32mp-3.19.0-stm32mp-r2/ldelf/ta_elf.c:1235
    19b4:	f7fe eb60 	blx	78 <_ldelf_return>
populate_segments_legacy():
/home/lubuntu/Dokument/GitHub/STM32-Computer/Firmware/STM32-Computer-Firmware/CA7/optee-os-3.19.0-r2/optee-os-stm32mp-3.19.0-stm32mp-r2/ldelf/ta_elf.c:706
    19b8:	9300      	str	r3, [sp, #0]
    19ba:	2300      	movs	r3, #0
    19bc:	9a03      	ldr	r2, [sp, #12]
    19be:	4619      	mov	r1, r3
    19c0:	4630      	mov	r0, r6
    19c2:	f002 fb1b 	bl	3ffc <sys_map_zi>
/home/lubuntu/Dokument/GitHub/STM32-Computer/Firmware/STM32-Computer-Firmware/CA7/optee-os-3.19.0-r2/optee-os-stm32mp-3.19.0-stm32mp-r2/ldelf/ta_elf.c:707
    19c6:	4680      	mov	r8, r0
    19c8:	b148      	cbz	r0, 19de <ta_elf_load_main+0x21e>
/home/lubuntu/Dokument/GitHub/STM32-Computer/Firmware/STM32-Computer-Firmware/CA7/optee-os-3.19.0-r2/optee-os-stm32mp-3.19.0-stm32mp-r2/ldelf/ta_elf.c:708
    19ca:	4b46      	ldr	r3, [pc, #280]	@ (1ae4 <ta_elf_load_main+0x324>)
    19cc:	f44f 7131 	mov.w	r1, #708	@ 0x2c4
    19d0:	4845      	ldr	r0, [pc, #276]	@ (1ae8 <ta_elf_load_main+0x328>)
    19d2:	447b      	add	r3, pc
    19d4:	9300      	str	r3, [sp, #0]
    19d6:	2301      	movs	r3, #1
    19d8:	4478      	add	r0, pc
    19da:	461a      	mov	r2, r3
    19dc:	e789      	b.n	18f2 <ta_elf_load_main+0x132>
/home/lubuntu/Dokument/GitHub/STM32-Computer/Firmware/STM32-Computer-Firmware/CA7/optee-os-3.19.0-r2/optee-os-stm32mp-3.19.0-stm32mp-r2/ldelf/ta_elf.c:709
    19de:	682b      	ldr	r3, [r5, #0]
    19e0:	f8d4 2084 	ldr.w	r2, [r4, #132]	@ 0x84
    19e4:	68a9      	ldr	r1, [r5, #8]
    19e6:	9805      	ldr	r0, [sp, #20]
    19e8:	f002 fb25 	bl	4036 <sys_copy_from_ta_bin>
/home/lubuntu/Dokument/GitHub/STM32-Computer/Firmware/STM32-Computer-Firmware/CA7/optee-os-3.19.0-r2/optee-os-stm32mp-3.19.0-stm32mp-r2/ldelf/ta_elf.c:711
    19ec:	4680      	mov	r8, r0
    19ee:	b148      	cbz	r0, 1a04 <ta_elf_load_main+0x244>
/home/lubuntu/Dokument/GitHub/STM32-Computer/Firmware/STM32-Computer-Firmware/CA7/optee-os-3.19.0-r2/optee-os-stm32mp-3.19.0-stm32mp-r2/ldelf/ta_elf.c:712
    19f0:	4b3e      	ldr	r3, [pc, #248]	@ (1aec <ta_elf_load_main+0x32c>)
    19f2:	f44f 7132 	mov.w	r1, #712	@ 0x2c8
    19f6:	483e      	ldr	r0, [pc, #248]	@ (1af0 <ta_elf_load_main+0x330>)
    19f8:	447b      	add	r3, pc
    19fa:	9300      	str	r3, [sp, #0]
    19fc:	2301      	movs	r3, #1
    19fe:	4478      	add	r0, pc
    1a00:	461a      	mov	r2, r3
    1a02:	e776      	b.n	18f2 <ta_elf_load_main+0x132>
/home/lubuntu/Dokument/GitHub/STM32-Computer/Firmware/STM32-Computer-Firmware/CA7/optee-os-3.19.0-r2/optee-os-stm32mp-3.19.0-stm32mp-r2/ldelf/ta_elf.c:714
    1a04:	6862      	ldr	r2, [r4, #4]
/home/lubuntu/Dokument/GitHub/STM32-Computer/Firmware/STM32-Computer-Firmware/CA7/optee-os-3.19.0-r2/optee-os-stm32mp-3.19.0-stm32mp-r2/ldelf/ta_elf.c:715
    1a06:	9b05      	ldr	r3, [sp, #20]
/home/lubuntu/Dokument/GitHub/STM32-Computer/Firmware/STM32-Computer-Firmware/CA7/optee-os-3.19.0-r2/optee-os-stm32mp-3.19.0-stm32mp-r2/ldelf/ta_elf.c:714
    1a08:	b902      	cbnz	r2, 1a0c <ta_elf_load_main+0x24c>
/home/lubuntu/Dokument/GitHub/STM32-Computer/Firmware/STM32-Computer-Firmware/CA7/optee-os-3.19.0-r2/optee-os-stm32mp-3.19.0-stm32mp-r2/ldelf/ta_elf.c:715
    1a0a:	6063      	str	r3, [r4, #4]
/home/lubuntu/Dokument/GitHub/STM32-Computer/Firmware/STM32-Computer-Firmware/CA7/optee-os-3.19.0-r2/optee-os-stm32mp-3.19.0-stm32mp-r2/ldelf/ta_elf.c:717
    1a0c:	68aa      	ldr	r2, [r5, #8]
/home/lubuntu/Dokument/GitHub/STM32-Computer/Firmware/STM32-Computer-Firmware/CA7/optee-os-3.19.0-r2/optee-os-stm32mp-3.19.0-stm32mp-r2/ldelf/ta_elf.c:716
    1a0e:	441e      	add	r6, r3
/home/lubuntu/Dokument/GitHub/STM32-Computer/Firmware/STM32-Computer-Firmware/CA7/optee-os-3.19.0-r2/optee-os-stm32mp-3.19.0-stm32mp-r2/ldelf/ta_elf.c:717
    1a10:	682b      	ldr	r3, [r5, #0]
/home/lubuntu/Dokument/GitHub/STM32-Computer/Firmware/STM32-Computer-Firmware/CA7/optee-os-3.19.0-r2/optee-os-stm32mp-3.19.0-stm32mp-r2/ldelf/ta_elf.c:716
    1a12:	60a6      	str	r6, [r4, #8]
/home/lubuntu/Dokument/GitHub/STM32-Computer/Firmware/STM32-Computer-Firmware/CA7/optee-os-3.19.0-r2/optee-os-stm32mp-3.19.0-stm32mp-r2/ldelf/ta_elf.c:717
    1a14:	4413      	add	r3, r2
/home/lubuntu/Dokument/GitHub/STM32-Computer/Firmware/STM32-Computer-Firmware/CA7/optee-os-3.19.0-r2/optee-os-stm32mp-3.19.0-stm32mp-r2/ldelf/ta_elf.c:690
    1a16:	69ed      	ldr	r5, [r5, #28]
/home/lubuntu/Dokument/GitHub/STM32-Computer/Firmware/STM32-Computer-Firmware/CA7/optee-os-3.19.0-r2/optee-os-stm32mp-3.19.0-stm32mp-r2/ldelf/ta_elf.c:717
    1a18:	60e3      	str	r3, [r4, #12]
/home/lubuntu/Dokument/GitHub/STM32-Computer/Firmware/STM32-Computer-Firmware/CA7/optee-os-3.19.0-r2/optee-os-stm32mp-3.19.0-stm32mp-r2/ldelf/ta_elf.c:690
    1a1a:	e77f      	b.n	191c <ta_elf_load_main+0x15c>
ta_elf_load_main():
/home/lubuntu/Dokument/GitHub/STM32-Computer/Firmware/STM32-Computer-Firmware/CA7/optee-os-3.19.0-r2/optee-os-stm32mp-3.19.0-stm32mp-r2/ldelf/ta_elf.c:1229
    1a1c:	7863      	ldrb	r3, [r4, #1]
/home/lubuntu/Dokument/GitHub/STM32-Computer/Firmware/STM32-Computer-Firmware/CA7/optee-os-3.19.0-r2/optee-os-stm32mp-3.19.0-stm32mp-r2/ldelf/ta_elf.c:1230
    1a1e:	aa04      	add	r2, sp, #16
    1a20:	f8d4 0088 	ldr.w	r0, [r4, #136]	@ 0x88
/home/lubuntu/Dokument/GitHub/STM32-Computer/Firmware/STM32-Computer-Firmware/CA7/optee-os-3.19.0-r2/optee-os-stm32mp-3.19.0-stm32mp-r2/ldelf/ta_elf.c:1229
    1a24:	f8c9 3000 	str.w	r3, [r9]
/home/lubuntu/Dokument/GitHub/STM32-Computer/Firmware/STM32-Computer-Firmware/CA7/optee-os-3.19.0-r2/optee-os-stm32mp-3.19.0-stm32mp-r2/ldelf/ta_elf.c:1230
    1a28:	2300      	movs	r3, #0
    1a2a:	9300      	str	r3, [sp, #0]
    1a2c:	4619      	mov	r1, r3
    1a2e:	6900      	ldr	r0, [r0, #16]
    1a30:	f002 fae4 	bl	3ffc <sys_map_zi>
/home/lubuntu/Dokument/GitHub/STM32-Computer/Firmware/STM32-Computer-Firmware/CA7/optee-os-3.19.0-r2/optee-os-stm32mp-3.19.0-stm32mp-r2/ldelf/ta_elf.c:1231
    1a34:	4605      	mov	r5, r0
    1a36:	b148      	cbz	r0, 1a4c <ta_elf_load_main+0x28c>
/home/lubuntu/Dokument/GitHub/STM32-Computer/Firmware/STM32-Computer-Firmware/CA7/optee-os-3.19.0-r2/optee-os-stm32mp-3.19.0-stm32mp-r2/ldelf/ta_elf.c:1232
    1a38:	4b2e      	ldr	r3, [pc, #184]	@ (1af4 <ta_elf_load_main+0x334>)
    1a3a:	f44f 619a 	mov.w	r1, #1232	@ 0x4d0
    1a3e:	482e      	ldr	r0, [pc, #184]	@ (1af8 <ta_elf_load_main+0x338>)
    1a40:	447b      	add	r3, pc
    1a42:	9300      	str	r3, [sp, #0]
    1a44:	2301      	movs	r3, #1
    1a46:	4478      	add	r0, pc
    1a48:	461a      	mov	r2, r3
    1a4a:	e734      	b.n	18b6 <ta_elf_load_main+0xf6>
/home/lubuntu/Dokument/GitHub/STM32-Computer/Firmware/STM32-Computer-Firmware/CA7/optee-os-3.19.0-r2/optee-os-stm32mp-3.19.0-stm32mp-r2/ldelf/ta_elf.c:1234
    1a4c:	f8d4 2088 	ldr.w	r2, [r4, #136]	@ 0x88
    1a50:	6953      	ldr	r3, [r2, #20]
    1a52:	f5b3 6f00 	cmp.w	r3, #2048	@ 0x800
    1a56:	d311      	bcc.n	1a7c <ta_elf_load_main+0x2bc>
/home/lubuntu/Dokument/GitHub/STM32-Computer/Firmware/STM32-Computer-Firmware/CA7/optee-os-3.19.0-r2/optee-os-stm32mp-3.19.0-stm32mp-r2/ldelf/ta_elf.c:1235
    1a58:	f423 63ff 	bic.w	r3, r3, #2040	@ 0x7f8
    1a5c:	f240 41d3 	movw	r1, #1235	@ 0x4d3
    1a60:	f023 0307 	bic.w	r3, r3, #7
    1a64:	9301      	str	r3, [sp, #4]
    1a66:	4b25      	ldr	r3, [pc, #148]	@ (1afc <ta_elf_load_main+0x33c>)
    1a68:	4825      	ldr	r0, [pc, #148]	@ (1b00 <ta_elf_load_main+0x340>)
    1a6a:	447b      	add	r3, pc
    1a6c:	9300      	str	r3, [sp, #0]
    1a6e:	2301      	movs	r3, #1
    1a70:	4478      	add	r0, pc
    1a72:	461a      	mov	r2, r3
    1a74:	f002 fd20 	bl	44b8 <trace_printf>
    1a78:	480b      	ldr	r0, [pc, #44]	@ (1aa8 <ta_elf_load_main+0x2e8>)
    1a7a:	e79b      	b.n	19b4 <ta_elf_load_main+0x1f4>
/home/lubuntu/Dokument/GitHub/STM32-Computer/Firmware/STM32-Computer-Firmware/CA7/optee-os-3.19.0-r2/optee-os-stm32mp-3.19.0-stm32mp-r2/ldelf/ta_elf.c:1238
    1a7c:	9902      	ldr	r1, [sp, #8]
    1a7e:	600b      	str	r3, [r1, #0]
/home/lubuntu/Dokument/GitHub/STM32-Computer/Firmware/STM32-Computer-Firmware/CA7/optee-os-3.19.0-r2/optee-os-stm32mp-3.19.0-stm32mp-r2/ldelf/ta_elf.c:1239
    1a80:	6913      	ldr	r3, [r2, #16]
    1a82:	9a04      	ldr	r2, [sp, #16]
    1a84:	1899      	adds	r1, r3, r2
    1a86:	e9c7 1000 	strd	r1, r0, [r7]
/home/lubuntu/Dokument/GitHub/STM32-Computer/Firmware/STM32-Computer-Firmware/CA7/optee-os-3.19.0-r2/optee-os-stm32mp-3.19.0-stm32mp-r2/ldelf/ta_elf.c:1240
    1a8a:	491e      	ldr	r1, [pc, #120]	@ (1b04 <ta_elf_load_main+0x344>)
    1a8c:	4479      	add	r1, pc
    1a8e:	600a      	str	r2, [r1, #0]
/home/lubuntu/Dokument/GitHub/STM32-Computer/Firmware/STM32-Computer-Firmware/CA7/optee-os-3.19.0-r2/optee-os-stm32mp-3.19.0-stm32mp-r2/ldelf/ta_elf.c:1241
    1a90:	4a1d      	ldr	r2, [pc, #116]	@ (1b08 <ta_elf_load_main+0x348>)
    1a92:	447a      	add	r2, pc
    1a94:	6013      	str	r3, [r2, #0]
/home/lubuntu/Dokument/GitHub/STM32-Computer/Firmware/STM32-Computer-Firmware/CA7/optee-os-3.19.0-r2/optee-os-stm32mp-3.19.0-stm32mp-r2/ldelf/ta_elf.c:1242
    1a96:	b007      	add	sp, #28
    1a98:	e8bd 8ff0 	ldmia.w	sp!, {r4, r5, r6, r7, r8, r9, sl, fp, pc}
    1a9c:	fffff000 	.word	0xfffff000
    1aa0:	ffff0000 	.word	0xffff0000
    1aa4:	ffff000a 	.word	0xffff000a
    1aa8:	ffff0005 	.word	0xffff0005
    1aac:	000038db 	.word	0x000038db
    1ab0:	000034ba 	.word	0x000034ba
    1ab4:	00003460 	.word	0x00003460
    1ab8:	00003861 	.word	0x00003861
    1abc:	00003758 	.word	0x00003758
    1ac0:	0000301e 	.word	0x0000301e
    1ac4:	00003413 	.word	0x00003413
    1ac8:	000037a1 	.word	0x000037a1
    1acc:	000033d7 	.word	0x000033d7
    1ad0:	00003765 	.word	0x00003765
    1ad4:	00003375 	.word	0x00003375
    1ad8:	0000374d 	.word	0x0000374d
    1adc:	00002f61 	.word	0x00002f61
    1ae0:	0000364c 	.word	0x0000364c
    1ae4:	00002f1e 	.word	0x00002f1e
    1ae8:	0000361e 	.word	0x0000361e
    1aec:	00002eb0 	.word	0x00002eb0
    1af0:	000035f8 	.word	0x000035f8
    1af4:	000032b3 	.word	0x000032b3
    1af8:	00003675 	.word	0x00003675
    1afc:	0000329a 	.word	0x0000329a
    1b00:	0000364b 	.word	0x0000364b
    1b04:	00004684 	.word	0x00004684
    1b08:	0000467a 	.word	0x0000467a

00001b0c <ta_elf_load_dependency>:
ta_elf_load_dependency():
/home/lubuntu/Dokument/GitHub/STM32-Computer/Firmware/STM32-Computer-Firmware/CA7/optee-os-3.19.0-r2/optee-os-stm32mp-3.19.0-stm32mp-r2/ldelf/ta_elf.c:1267
    1b0c:	7803      	ldrb	r3, [r0, #0]
/home/lubuntu/Dokument/GitHub/STM32-Computer/Firmware/STM32-Computer-Firmware/CA7/optee-os-3.19.0-r2/optee-os-stm32mp-3.19.0-stm32mp-r2/ldelf/ta_elf.c:1266
    1b0e:	b530      	push	{r4, r5, lr}
    1b10:	4604      	mov	r4, r0
    1b12:	b085      	sub	sp, #20
    1b14:	460d      	mov	r5, r1
/home/lubuntu/Dokument/GitHub/STM32-Computer/Firmware/STM32-Computer-Firmware/CA7/optee-os-3.19.0-r2/optee-os-stm32mp-3.19.0-stm32mp-r2/ldelf/ta_elf.c:1267
    1b16:	2b00      	cmp	r3, #0
    1b18:	d13c      	bne.n	1b94 <ta_elf_load_dependency+0x88>
/home/lubuntu/Dokument/GitHub/STM32-Computer/Firmware/STM32-Computer-Firmware/CA7/optee-os-3.19.0-r2/optee-os-stm32mp-3.19.0-stm32mp-r2/ldelf/ta_elf.c:1270
    1b1a:	f7fe fdeb 	bl	6f4 <init_elf>
/home/lubuntu/Dokument/GitHub/STM32-Computer/Firmware/STM32-Computer-Firmware/CA7/optee-os-3.19.0-r2/optee-os-stm32mp-3.19.0-stm32mp-r2/ldelf/ta_elf.c:1271
    1b1e:	7863      	ldrb	r3, [r4, #1]
    1b20:	429d      	cmp	r5, r3
    1b22:	d01d      	beq.n	1b60 <ta_elf_load_dependency+0x54>
/home/lubuntu/Dokument/GitHub/STM32-Computer/Firmware/STM32-Computer-Firmware/CA7/optee-os-3.19.0-r2/optee-os-stm32mp-3.19.0-stm32mp-r2/ldelf/ta_elf.c:1272
    1b24:	348c      	adds	r4, #140	@ 0x8c
    1b26:	b1ab      	cbz	r3, 1b54 <ta_elf_load_dependency+0x48>
    1b28:	4b1c      	ldr	r3, [pc, #112]	@ (1b9c <ta_elf_load_dependency+0x90>)
    1b2a:	447b      	add	r3, pc
    1b2c:	b1ad      	cbz	r5, 1b5a <ta_elf_load_dependency+0x4e>
    1b2e:	4a1c      	ldr	r2, [pc, #112]	@ (1ba0 <ta_elf_load_dependency+0x94>)
    1b30:	447a      	add	r2, pc
    1b32:	9302      	str	r3, [sp, #8]
    1b34:	f44f 619f 	mov.w	r1, #1272	@ 0x4f8
    1b38:	4b1a      	ldr	r3, [pc, #104]	@ (1ba4 <ta_elf_load_dependency+0x98>)
    1b3a:	481b      	ldr	r0, [pc, #108]	@ (1ba8 <ta_elf_load_dependency+0x9c>)
    1b3c:	447b      	add	r3, pc
    1b3e:	9300      	str	r3, [sp, #0]
    1b40:	2301      	movs	r3, #1
    1b42:	4478      	add	r0, pc
    1b44:	9203      	str	r2, [sp, #12]
    1b46:	461a      	mov	r2, r3
    1b48:	9401      	str	r4, [sp, #4]
    1b4a:	f002 fcb5 	bl	44b8 <trace_printf>
    1b4e:	4812      	ldr	r0, [pc, #72]	@ (1b98 <ta_elf_load_dependency+0x8c>)
    1b50:	f7fe ea92 	blx	78 <_ldelf_return>
    1b54:	4b15      	ldr	r3, [pc, #84]	@ (1bac <ta_elf_load_dependency+0xa0>)
    1b56:	447b      	add	r3, pc
    1b58:	e7e8      	b.n	1b2c <ta_elf_load_dependency+0x20>
    1b5a:	4a15      	ldr	r2, [pc, #84]	@ (1bb0 <ta_elf_load_dependency+0xa4>)
    1b5c:	447a      	add	r2, pc
    1b5e:	e7e8      	b.n	1b32 <ta_elf_load_dependency+0x26>
/home/lubuntu/Dokument/GitHub/STM32-Computer/Firmware/STM32-Computer-Firmware/CA7/optee-os-3.19.0-r2/optee-os-stm32mp-3.19.0-stm32mp-r2/ldelf/ta_elf.c:1276
    1b60:	4620      	mov	r0, r4
    1b62:	f7ff f995 	bl	e90 <map_segments>
/home/lubuntu/Dokument/GitHub/STM32-Computer/Firmware/STM32-Computer-Firmware/CA7/optee-os-3.19.0-r2/optee-os-stm32mp-3.19.0-stm32mp-r2/ldelf/ta_elf.c:1277
    1b66:	4620      	mov	r0, r4
    1b68:	f7fe ffcc 	bl	b04 <populate_segments>
/home/lubuntu/Dokument/GitHub/STM32-Computer/Firmware/STM32-Computer-Firmware/CA7/optee-os-3.19.0-r2/optee-os-stm32mp-3.19.0-stm32mp-r2/ldelf/ta_elf.c:1278
    1b6c:	4620      	mov	r0, r4
    1b6e:	f002 fac0 	bl	40f2 <add_dependencies>
/home/lubuntu/Dokument/GitHub/STM32-Computer/Firmware/STM32-Computer-Firmware/CA7/optee-os-3.19.0-r2/optee-os-stm32mp-3.19.0-stm32mp-r2/ldelf/ta_elf.c:1279
    1b72:	4620      	mov	r0, r4
    1b74:	f7fe ff50 	bl	a18 <copy_section_headers>
/home/lubuntu/Dokument/GitHub/STM32-Computer/Firmware/STM32-Computer-Firmware/CA7/optee-os-3.19.0-r2/optee-os-stm32mp-3.19.0-stm32mp-r2/ldelf/ta_elf.c:1280
    1b78:	4620      	mov	r0, r4
    1b7a:	f7ff fb9b 	bl	12b4 <save_symtab>
/home/lubuntu/Dokument/GitHub/STM32-Computer/Firmware/STM32-Computer-Firmware/CA7/optee-os-3.19.0-r2/optee-os-stm32mp-3.19.0-stm32mp-r2/ldelf/ta_elf.c:1281
    1b7e:	4620      	mov	r0, r4
    1b80:	f7fe fe7c 	bl	87c <close_handle>
/home/lubuntu/Dokument/GitHub/STM32-Computer/Firmware/STM32-Computer-Firmware/CA7/optee-os-3.19.0-r2/optee-os-stm32mp-3.19.0-stm32mp-r2/ldelf/ta_elf.c:1284
    1b84:	78e3      	ldrb	r3, [r4, #3]
    1b86:	b12b      	cbz	r3, 1b94 <ta_elf_load_dependency+0x88>
/home/lubuntu/Dokument/GitHub/STM32-Computer/Firmware/STM32-Computer-Firmware/CA7/optee-os-3.19.0-r2/optee-os-stm32mp-3.19.0-stm32mp-r2/ldelf/ta_elf.c:1285
    1b88:	4620      	mov	r0, r4
/home/lubuntu/Dokument/GitHub/STM32-Computer/Firmware/STM32-Computer-Firmware/CA7/optee-os-3.19.0-r2/optee-os-stm32mp-3.19.0-stm32mp-r2/ldelf/ta_elf.c:1286
    1b8a:	b005      	add	sp, #20
    1b8c:	e8bd 4030 	ldmia.w	sp!, {r4, r5, lr}
/home/lubuntu/Dokument/GitHub/STM32-Computer/Firmware/STM32-Computer-Firmware/CA7/optee-os-3.19.0-r2/optee-os-stm32mp-3.19.0-stm32mp-r2/ldelf/ta_elf.c:1285
    1b90:	f7fe bd8a 	b.w	6a8 <ta_elf_add_bti>
/home/lubuntu/Dokument/GitHub/STM32-Computer/Firmware/STM32-Computer-Firmware/CA7/optee-os-3.19.0-r2/optee-os-stm32mp-3.19.0-stm32mp-r2/ldelf/ta_elf.c:1286
    1b94:	b005      	add	sp, #20
    1b96:	bd30      	pop	{r4, r5, pc}
    1b98:	ffff0005 	.word	0xffff0005
    1b9c:	000031f2 	.word	0x000031f2
    1ba0:	000031ec 	.word	0x000031ec
    1ba4:	000031e3 	.word	0x000031e3
    1ba8:	000033d2 	.word	0x000033d2
    1bac:	00002a6f 	.word	0x00002a6f
    1bb0:	00002a69 	.word	0x00002a69

00001bb4 <ta_elf_finalize_mappings>:
ta_elf_finalize_mappings():
/home/lubuntu/Dokument/GitHub/STM32-Computer/Firmware/STM32-Computer-Firmware/CA7/optee-os-3.19.0-r2/optee-os-stm32mp-3.19.0-stm32mp-r2/ldelf/ta_elf.c:1293
    1bb4:	7883      	ldrb	r3, [r0, #2]
/home/lubuntu/Dokument/GitHub/STM32-Computer/Firmware/STM32-Computer-Firmware/CA7/optee-os-3.19.0-r2/optee-os-stm32mp-3.19.0-stm32mp-r2/ldelf/ta_elf.c:1289
    1bb6:	b573      	push	{r0, r1, r4, r5, r6, lr}
    1bb8:	4605      	mov	r5, r0
/home/lubuntu/Dokument/GitHub/STM32-Computer/Firmware/STM32-Computer-Firmware/CA7/optee-os-3.19.0-r2/optee-os-stm32mp-3.19.0-stm32mp-r2/ldelf/ta_elf.c:1293
    1bba:	b10b      	cbz	r3, 1bc0 <ta_elf_finalize_mappings+0xc>
/home/lubuntu/Dokument/GitHub/STM32-Computer/Firmware/STM32-Computer-Firmware/CA7/optee-os-3.19.0-r2/optee-os-stm32mp-3.19.0-stm32mp-r2/ldelf/ta_elf.c:1296
    1bbc:	6d84      	ldr	r4, [r0, #88]	@ 0x58
    1bbe:	b90c      	cbnz	r4, 1bc4 <ta_elf_finalize_mappings+0x10>
/home/lubuntu/Dokument/GitHub/STM32-Computer/Firmware/STM32-Computer-Firmware/CA7/optee-os-3.19.0-r2/optee-os-stm32mp-3.19.0-stm32mp-r2/ldelf/ta_elf.c:1309
    1bc0:	b002      	add	sp, #8
    1bc2:	bd70      	pop	{r4, r5, r6, pc}
/home/lubuntu/Dokument/GitHub/STM32-Computer/Firmware/STM32-Computer-Firmware/CA7/optee-os-3.19.0-r2/optee-os-stm32mp-3.19.0-stm32mp-r2/ldelf/ta_elf.c:1297
    1bc4:	6863      	ldr	r3, [r4, #4]
    1bc6:	6868      	ldr	r0, [r5, #4]
/home/lubuntu/Dokument/GitHub/STM32-Computer/Firmware/STM32-Computer-Firmware/CA7/optee-os-3.19.0-r2/optee-os-stm32mp-3.19.0-stm32mp-r2/ldelf/ta_elf.c:1305
    1bc8:	68e1      	ldr	r1, [r4, #12]
/home/lubuntu/Dokument/GitHub/STM32-Computer/Firmware/STM32-Computer-Firmware/CA7/optee-os-3.19.0-r2/optee-os-stm32mp-3.19.0-stm32mp-r2/ldelf/ta_elf.c:1297
    1bca:	4418      	add	r0, r3
/home/lubuntu/Dokument/GitHub/STM32-Computer/Firmware/STM32-Computer-Firmware/CA7/optee-os-3.19.0-r2/optee-os-stm32mp-3.19.0-stm32mp-r2/ldelf/ta_elf.c:1300
    1bcc:	6923      	ldr	r3, [r4, #16]
    1bce:	f003 0202 	and.w	r2, r3, #2
/home/lubuntu/Dokument/GitHub/STM32-Computer/Firmware/STM32-Computer-Firmware/CA7/optee-os-3.19.0-r2/optee-os-stm32mp-3.19.0-stm32mp-r2/ldelf/ta_elf.c:1302
    1bd2:	07db      	lsls	r3, r3, #31
/home/lubuntu/Dokument/GitHub/STM32-Computer/Firmware/STM32-Computer-Firmware/CA7/optee-os-3.19.0-r2/optee-os-stm32mp-3.19.0-stm32mp-r2/ldelf/ta_elf.c:1303
    1bd4:	bf48      	it	mi
    1bd6:	f042 0204 	orrmi.w	r2, r2, #4
/home/lubuntu/Dokument/GitHub/STM32-Computer/Firmware/STM32-Computer-Firmware/CA7/optee-os-3.19.0-r2/optee-os-stm32mp-3.19.0-stm32mp-r2/ldelf/ta_elf.c:1305
    1bda:	f002 fa34 	bl	4046 <sys_set_prot>
/home/lubuntu/Dokument/GitHub/STM32-Computer/Firmware/STM32-Computer-Firmware/CA7/optee-os-3.19.0-r2/optee-os-stm32mp-3.19.0-stm32mp-r2/ldelf/ta_elf.c:1306
    1bde:	4606      	mov	r6, r0
    1be0:	b168      	cbz	r0, 1bfe <ta_elf_finalize_mappings+0x4a>
/home/lubuntu/Dokument/GitHub/STM32-Computer/Firmware/STM32-Computer-Firmware/CA7/optee-os-3.19.0-r2/optee-os-stm32mp-3.19.0-stm32mp-r2/ldelf/ta_elf.c:1307
    1be2:	4b08      	ldr	r3, [pc, #32]	@ (1c04 <ta_elf_finalize_mappings+0x50>)
    1be4:	f240 511b 	movw	r1, #1307	@ 0x51b
    1be8:	4807      	ldr	r0, [pc, #28]	@ (1c08 <ta_elf_finalize_mappings+0x54>)
    1bea:	447b      	add	r3, pc
    1bec:	9300      	str	r3, [sp, #0]
    1bee:	2301      	movs	r3, #1
    1bf0:	4478      	add	r0, pc
    1bf2:	461a      	mov	r2, r3
    1bf4:	f002 fc60 	bl	44b8 <trace_printf>
    1bf8:	4630      	mov	r0, r6
    1bfa:	f7fe ea3e 	blx	78 <_ldelf_return>
/home/lubuntu/Dokument/GitHub/STM32-Computer/Firmware/STM32-Computer-Firmware/CA7/optee-os-3.19.0-r2/optee-os-stm32mp-3.19.0-stm32mp-r2/ldelf/ta_elf.c:1296
    1bfe:	69e4      	ldr	r4, [r4, #28]
    1c00:	e7dd      	b.n	1bbe <ta_elf_finalize_mappings+0xa>
    1c02:	bf00      	nop
    1c04:	00002b3e 	.word	0x00002b3e
    1c08:	0000330b 	.word	0x0000330b

00001c0c <ta_elf_print_mappings>:
ta_elf_print_mappings():
/home/lubuntu/Dokument/GitHub/STM32-Computer/Firmware/STM32-Computer-Firmware/CA7/optee-os-3.19.0-r2/optee-os-stm32mp-3.19.0-stm32mp-r2/ldelf/ta_elf.c:1413
    1c0c:	e92d 4ff0 	stmdb	sp!, {r4, r5, r6, r7, r8, r9, sl, fp, lr}
    1c10:	b08b      	sub	sp, #44	@ 0x2c
    1c12:	9207      	str	r2, [sp, #28]
    1c14:	9308      	str	r3, [sp, #32]
get_next_in_order():
/home/lubuntu/Dokument/GitHub/STM32-Computer/Firmware/STM32-Computer-Firmware/CA7/optee-os-3.19.0-r2/optee-os-stm32mp-3.19.0-stm32mp-r2/ldelf/ta_elf.c:1392
    1c16:	6813      	ldr	r3, [r2, #0]
/home/lubuntu/Dokument/GitHub/STM32-Computer/Firmware/STM32-Computer-Firmware/CA7/optee-os-3.19.0-r2/optee-os-stm32mp-3.19.0-stm32mp-r2/ldelf/ta_elf.c:1372
    1c18:	2200      	movs	r2, #0
ta_elf_print_mappings():
/home/lubuntu/Dokument/GitHub/STM32-Computer/Firmware/STM32-Computer-Firmware/CA7/optee-os-3.19.0-r2/optee-os-stm32mp-3.19.0-stm32mp-r2/ldelf/ta_elf.c:1413
    1c1a:	9005      	str	r0, [sp, #20]
get_next_in_order():
/home/lubuntu/Dokument/GitHub/STM32-Computer/Firmware/STM32-Computer-Firmware/CA7/optee-os-3.19.0-r2/optee-os-stm32mp-3.19.0-stm32mp-r2/ldelf/ta_elf.c:1369
    1c1c:	4691      	mov	r9, r2
ta_elf_print_mappings():
/home/lubuntu/Dokument/GitHub/STM32-Computer/Firmware/STM32-Computer-Firmware/CA7/optee-os-3.19.0-r2/optee-os-stm32mp-3.19.0-stm32mp-r2/ldelf/ta_elf.c:1413
    1c1e:	9106      	str	r1, [sp, #24]
get_next_in_order():
/home/lubuntu/Dokument/GitHub/STM32-Computer/Firmware/STM32-Computer-Firmware/CA7/optee-os-3.19.0-r2/optee-os-stm32mp-3.19.0-stm32mp-r2/ldelf/ta_elf.c:1391
    1c20:	4616      	mov	r6, r2
/home/lubuntu/Dokument/GitHub/STM32-Computer/Firmware/STM32-Computer-Firmware/CA7/optee-os-3.19.0-r2/optee-os-stm32mp-3.19.0-stm32mp-r2/ldelf/ta_elf.c:1392
    1c22:	2b00      	cmp	r3, #0
    1c24:	d14e      	bne.n	1cc4 <ta_elf_print_mappings+0xb8>
/home/lubuntu/Dokument/GitHub/STM32-Computer/Firmware/STM32-Computer-Firmware/CA7/optee-os-3.19.0-r2/optee-os-stm32mp-3.19.0-stm32mp-r2/ldelf/ta_elf.c:1401
    1c26:	2e00      	cmp	r6, #0
    1c28:	d05b      	beq.n	1ce2 <ta_elf_print_mappings+0xd6>
/home/lubuntu/Dokument/GitHub/STM32-Computer/Firmware/STM32-Computer-Firmware/CA7/optee-os-3.19.0-r2/optee-os-stm32mp-3.19.0-stm32mp-r2/ldelf/ta_elf.c:1405
    1c2a:	6db4      	ldr	r4, [r6, #88]	@ 0x58
rounddown():
/home/lubuntu/Dokument/GitHub/STM32-Computer/Firmware/STM32-Computer-Firmware/CA7/optee-os-3.19.0-r2/optee-os-stm32mp-3.19.0-stm32mp-r2/ldelf/ta_elf.c:497
    1c2c:	f8df a1d0 	ldr.w	sl, [pc, #464]	@ 1e00 <ta_elf_print_mappings+0x1f4>
get_next_in_order():
/home/lubuntu/Dokument/GitHub/STM32-Computer/Firmware/STM32-Computer-Firmware/CA7/optee-os-3.19.0-r2/optee-os-stm32mp-3.19.0-stm32mp-r2/ldelf/ta_elf.c:1405
    1c30:	f04f 0800 	mov.w	r8, #0
    1c34:	4642      	mov	r2, r8
ta_elf_print_mappings():
/home/lubuntu/Dokument/GitHub/STM32-Computer/Firmware/STM32-Computer-Firmware/CA7/optee-os-3.19.0-r2/optee-os-stm32mp-3.19.0-stm32mp-r2/ldelf/ta_elf.c:1432
    1c36:	2c00      	cmp	r4, #0
    1c38:	d056      	beq.n	1ce8 <ta_elf_print_mappings+0xdc>
/home/lubuntu/Dokument/GitHub/STM32-Computer/Firmware/STM32-Computer-Firmware/CA7/optee-os-3.19.0-r2/optee-os-stm32mp-3.19.0-stm32mp-r2/ldelf/ta_elf.c:1433
    1c3a:	6863      	ldr	r3, [r4, #4]
/home/lubuntu/Dokument/GitHub/STM32-Computer/Firmware/STM32-Computer-Firmware/CA7/optee-os-3.19.0-r2/optee-os-stm32mp-3.19.0-stm32mp-r2/ldelf/ta_elf.c:1434
    1c3c:	68e5      	ldr	r5, [r4, #12]
/home/lubuntu/Dokument/GitHub/STM32-Computer/Firmware/STM32-Computer-Firmware/CA7/optee-os-3.19.0-r2/optee-os-stm32mp-3.19.0-stm32mp-r2/ldelf/ta_elf.c:1433
    1c3e:	6877      	ldr	r7, [r6, #4]
/home/lubuntu/Dokument/GitHub/STM32-Computer/Firmware/STM32-Computer-Firmware/CA7/optee-os-3.19.0-r2/optee-os-stm32mp-3.19.0-stm32mp-r2/ldelf/ta_elf.c:1434
    1c40:	441d      	add	r5, r3
/home/lubuntu/Dokument/GitHub/STM32-Computer/Firmware/STM32-Computer-Firmware/CA7/optee-os-3.19.0-r2/optee-os-stm32mp-3.19.0-stm32mp-r2/ldelf/ta_elf.c:1433
    1c42:	441f      	add	r7, r3
roundup():
/home/lubuntu/Dokument/GitHub/STM32-Computer/Firmware/STM32-Computer-Firmware/CA7/optee-os-3.19.0-r2/optee-os-stm32mp-3.19.0-stm32mp-r2/ldelf/ta_elf.c:492
    1c44:	f605 75ff 	addw	r5, r5, #4095	@ 0xfff
    1c48:	ea05 050a 	and.w	r5, r5, sl
rounddown():
/home/lubuntu/Dokument/GitHub/STM32-Computer/Firmware/STM32-Computer-Firmware/CA7/optee-os-3.19.0-r2/optee-os-stm32mp-3.19.0-stm32mp-r2/ldelf/ta_elf.c:497
    1c4c:	ea03 030a 	and.w	r3, r3, sl
    1c50:	ea07 070a 	and.w	r7, r7, sl
ta_elf_print_mappings():
/home/lubuntu/Dokument/GitHub/STM32-Computer/Firmware/STM32-Computer-Firmware/CA7/optee-os-3.19.0-r2/optee-os-stm32mp-3.19.0-stm32mp-r2/ldelf/ta_elf.c:1434
    1c54:	1aed      	subs	r5, r5, r3
/home/lubuntu/Dokument/GitHub/STM32-Computer/Firmware/STM32-Computer-Firmware/CA7/optee-os-3.19.0-r2/optee-os-stm32mp-3.19.0-stm32mp-r2/ldelf/ta_elf.c:1438
    1c56:	9b08      	ldr	r3, [sp, #32]
    1c58:	4598      	cmp	r8, r3
    1c5a:	d209      	bcs.n	1c70 <ta_elf_print_mappings+0x64>
/home/lubuntu/Dokument/GitHub/STM32-Computer/Firmware/STM32-Computer-Firmware/CA7/optee-os-3.19.0-r2/optee-os-stm32mp-3.19.0-stm32mp-r2/ldelf/ta_elf.c:1438 (discriminator 1)
    1c5c:	ea4f 1308 	mov.w	r3, r8, lsl #4
    1c60:	9814      	ldr	r0, [sp, #80]	@ 0x50
    1c62:	9914      	ldr	r1, [sp, #80]	@ 0x50
    1c64:	f850 c003 	ldr.w	ip, [r0, r3]
    1c68:	eb01 1108 	add.w	r1, r1, r8, lsl #4
    1c6c:	45bc      	cmp	ip, r7
    1c6e:	d93f      	bls.n	1cf0 <ta_elf_print_mappings+0xe4>
/home/lubuntu/Dokument/GitHub/STM32-Computer/Firmware/STM32-Computer-Firmware/CA7/optee-os-3.19.0-r2/optee-os-stm32mp-3.19.0-stm32mp-r2/ldelf/ta_elf.c:1478
    1c70:	2c00      	cmp	r4, #0
    1c72:	f000 80ac 	beq.w	1dce <ta_elf_print_mappings+0x1c2>
/home/lubuntu/Dokument/GitHub/STM32-Computer/Firmware/STM32-Computer-Firmware/CA7/optee-os-3.19.0-r2/optee-os-stm32mp-3.19.0-stm32mp-r2/ldelf/ta_elf.c:1482
    1c76:	6920      	ldr	r0, [r4, #16]
rounddown():
/home/lubuntu/Dokument/GitHub/STM32-Computer/Firmware/STM32-Computer-Firmware/CA7/optee-os-3.19.0-r2/optee-os-stm32mp-3.19.0-stm32mp-r2/ldelf/ta_elf.c:497
    1c78:	6823      	ldr	r3, [r4, #0]
ta_elf_print_mappings():
/home/lubuntu/Dokument/GitHub/STM32-Computer/Firmware/STM32-Computer-Firmware/CA7/optee-os-3.19.0-r2/optee-os-stm32mp-3.19.0-stm32mp-r2/ldelf/ta_elf.c:1489
    1c7a:	9502      	str	r5, [sp, #8]
/home/lubuntu/Dokument/GitHub/STM32-Computer/Firmware/STM32-Computer-Firmware/CA7/optee-os-3.19.0-r2/optee-os-stm32mp-3.19.0-stm32mp-r2/ldelf/ta_elf.c:1483
    1c7c:	f010 0f04 	tst.w	r0, #4
rounddown():
/home/lubuntu/Dokument/GitHub/STM32-Computer/Firmware/STM32-Computer-Firmware/CA7/optee-os-3.19.0-r2/optee-os-stm32mp-3.19.0-stm32mp-r2/ldelf/ta_elf.c:497
    1c80:	ea03 010a 	and.w	r1, r3, sl
ta_elf_print_mappings():
/home/lubuntu/Dokument/GitHub/STM32-Computer/Firmware/STM32-Computer-Firmware/CA7/optee-os-3.19.0-r2/optee-os-stm32mp-3.19.0-stm32mp-r2/ldelf/ta_elf.c:1483
    1c84:	bf18      	it	ne
    1c86:	2309      	movne	r3, #9
/home/lubuntu/Dokument/GitHub/STM32-Computer/Firmware/STM32-Computer-Firmware/CA7/optee-os-3.19.0-r2/optee-os-stm32mp-3.19.0-stm32mp-r2/ldelf/ta_elf.c:1489
    1c88:	9101      	str	r1, [sp, #4]
/home/lubuntu/Dokument/GitHub/STM32-Computer/Firmware/STM32-Computer-Firmware/CA7/optee-os-3.19.0-r2/optee-os-stm32mp-3.19.0-stm32mp-r2/ldelf/ta_elf.c:1483
    1c8a:	bf08      	it	eq
    1c8c:	2308      	moveq	r3, #8
/home/lubuntu/Dokument/GitHub/STM32-Computer/Firmware/STM32-Computer-Firmware/CA7/optee-os-3.19.0-r2/optee-os-stm32mp-3.19.0-stm32mp-r2/ldelf/ta_elf.c:1489
    1c8e:	9906      	ldr	r1, [sp, #24]
/home/lubuntu/Dokument/GitHub/STM32-Computer/Firmware/STM32-Computer-Firmware/CA7/optee-os-3.19.0-r2/optee-os-stm32mp-3.19.0-stm32mp-r2/ldelf/ta_elf.c:1484
    1c90:	f010 0f02 	tst.w	r0, #2
/home/lubuntu/Dokument/GitHub/STM32-Computer/Firmware/STM32-Computer-Firmware/CA7/optee-os-3.19.0-r2/optee-os-stm32mp-3.19.0-stm32mp-r2/ldelf/ta_elf.c:1489
    1c94:	9700      	str	r7, [sp, #0]
/home/lubuntu/Dokument/GitHub/STM32-Computer/Firmware/STM32-Computer-Firmware/CA7/optee-os-3.19.0-r2/optee-os-stm32mp-3.19.0-stm32mp-r2/ldelf/ta_elf.c:1485
    1c96:	bf18      	it	ne
    1c98:	f043 0302 	orrne.w	r3, r3, #2
/home/lubuntu/Dokument/GitHub/STM32-Computer/Firmware/STM32-Computer-Firmware/CA7/optee-os-3.19.0-r2/optee-os-stm32mp-3.19.0-stm32mp-r2/ldelf/ta_elf.c:1486
    1c9c:	07c0      	lsls	r0, r0, #31
/home/lubuntu/Dokument/GitHub/STM32-Computer/Firmware/STM32-Computer-Firmware/CA7/optee-os-3.19.0-r2/optee-os-stm32mp-3.19.0-stm32mp-r2/ldelf/ta_elf.c:1489
    1c9e:	9805      	ldr	r0, [sp, #20]
/home/lubuntu/Dokument/GitHub/STM32-Computer/Firmware/STM32-Computer-Firmware/CA7/optee-os-3.19.0-r2/optee-os-stm32mp-3.19.0-stm32mp-r2/ldelf/ta_elf.c:1487
    1ca0:	bf48      	it	mi
    1ca2:	f043 0304 	orrmi.w	r3, r3, #4
/home/lubuntu/Dokument/GitHub/STM32-Computer/Firmware/STM32-Computer-Firmware/CA7/optee-os-3.19.0-r2/optee-os-stm32mp-3.19.0-stm32mp-r2/ldelf/ta_elf.c:1489
    1ca6:	9303      	str	r3, [sp, #12]
    1ca8:	464b      	mov	r3, r9
    1caa:	9209      	str	r2, [sp, #36]	@ 0x24
    1cac:	f7fe fe42 	bl	934 <print_seg>
get_next_in_order():
/home/lubuntu/Dokument/GitHub/STM32-Computer/Firmware/STM32-Computer-Firmware/CA7/optee-os-3.19.0-r2/optee-os-stm32mp-3.19.0-stm32mp-r2/ldelf/ta_elf.c:1377
    1cb0:	9a09      	ldr	r2, [sp, #36]	@ 0x24
    1cb2:	2e00      	cmp	r6, #0
    1cb4:	d166      	bne.n	1d84 <ta_elf_print_mappings+0x178>
    1cb6:	4a53      	ldr	r2, [pc, #332]	@ (1e04 <ta_elf_print_mappings+0x1f8>)
    1cb8:	f240 5161 	movw	r1, #1377	@ 0x561
    1cbc:	4852      	ldr	r0, [pc, #328]	@ (1e08 <ta_elf_print_mappings+0x1fc>)
    1cbe:	447a      	add	r2, pc
    1cc0:	4478      	add	r0, pc
    1cc2:	e043      	b.n	1d4c <ta_elf_print_mappings+0x140>
/home/lubuntu/Dokument/GitHub/STM32-Computer/Firmware/STM32-Computer-Firmware/CA7/optee-os-3.19.0-r2/optee-os-stm32mp-3.19.0-stm32mp-r2/ldelf/ta_elf.c:1393
    1cc4:	6859      	ldr	r1, [r3, #4]
    1cc6:	b129      	cbz	r1, 1cd4 <ta_elf_print_mappings+0xc8>
/home/lubuntu/Dokument/GitHub/STM32-Computer/Firmware/STM32-Computer-Firmware/CA7/optee-os-3.19.0-r2/optee-os-stm32mp-3.19.0-stm32mp-r2/ldelf/ta_elf.c:1394
    1cc8:	b146      	cbz	r6, 1cdc <ta_elf_print_mappings+0xd0>
    1cca:	6870      	ldr	r0, [r6, #4]
    1ccc:	4281      	cmp	r1, r0
    1cce:	bf3c      	itt	cc
    1cd0:	4691      	movcc	r9, r2
    1cd2:	461e      	movcc	r6, r3
/home/lubuntu/Dokument/GitHub/STM32-Computer/Firmware/STM32-Computer-Firmware/CA7/optee-os-3.19.0-r2/optee-os-stm32mp-3.19.0-stm32mp-r2/ldelf/ta_elf.c:1392
    1cd4:	f8d3 309c 	ldr.w	r3, [r3, #156]	@ 0x9c
/home/lubuntu/Dokument/GitHub/STM32-Computer/Firmware/STM32-Computer-Firmware/CA7/optee-os-3.19.0-r2/optee-os-stm32mp-3.19.0-stm32mp-r2/ldelf/ta_elf.c:1399
    1cd8:	3201      	adds	r2, #1
/home/lubuntu/Dokument/GitHub/STM32-Computer/Firmware/STM32-Computer-Firmware/CA7/optee-os-3.19.0-r2/optee-os-stm32mp-3.19.0-stm32mp-r2/ldelf/ta_elf.c:1392
    1cda:	e7a2      	b.n	1c22 <ta_elf_print_mappings+0x16>
/home/lubuntu/Dokument/GitHub/STM32-Computer/Firmware/STM32-Computer-Firmware/CA7/optee-os-3.19.0-r2/optee-os-stm32mp-3.19.0-stm32mp-r2/ldelf/ta_elf.c:1396
    1cdc:	4691      	mov	r9, r2
    1cde:	461e      	mov	r6, r3
    1ce0:	e7f8      	b.n	1cd4 <ta_elf_print_mappings+0xc8>
ta_elf_print_mappings():
/home/lubuntu/Dokument/GitHub/STM32-Computer/Firmware/STM32-Computer-Firmware/CA7/optee-os-3.19.0-r2/optee-os-stm32mp-3.19.0-stm32mp-r2/ldelf/ta_elf.c:1414
    1ce2:	4634      	mov	r4, r6
/home/lubuntu/Dokument/GitHub/STM32-Computer/Firmware/STM32-Computer-Firmware/CA7/optee-os-3.19.0-r2/optee-os-stm32mp-3.19.0-stm32mp-r2/ldelf/ta_elf.c:1416
    1ce4:	46b1      	mov	r9, r6
    1ce6:	e7a1      	b.n	1c2c <ta_elf_print_mappings+0x20>
/home/lubuntu/Dokument/GitHub/STM32-Computer/Firmware/STM32-Computer-Firmware/CA7/optee-os-3.19.0-r2/optee-os-stm32mp-3.19.0-stm32mp-r2/ldelf/ta_elf.c:1428
    1ce8:	4625      	mov	r5, r4
/home/lubuntu/Dokument/GitHub/STM32-Computer/Firmware/STM32-Computer-Firmware/CA7/optee-os-3.19.0-r2/optee-os-stm32mp-3.19.0-stm32mp-r2/ldelf/ta_elf.c:1427
    1cea:	f04f 37ff 	mov.w	r7, #4294967295	@ 0xffffffff
    1cee:	e7b2      	b.n	1c56 <ta_elf_print_mappings+0x4a>
/home/lubuntu/Dokument/GitHub/STM32-Computer/Firmware/STM32-Computer-Firmware/CA7/optee-os-3.19.0-r2/optee-os-stm32mp-3.19.0-stm32mp-r2/ldelf/ta_elf.c:1450
    1cf0:	6888      	ldr	r0, [r1, #8]
/home/lubuntu/Dokument/GitHub/STM32-Computer/Firmware/STM32-Computer-Firmware/CA7/optee-os-3.19.0-r2/optee-os-stm32mp-3.19.0-stm32mp-r2/ldelf/ta_elf.c:1449
    1cf2:	f108 0b01 	add.w	fp, r8, #1
/home/lubuntu/Dokument/GitHub/STM32-Computer/Firmware/STM32-Computer-Firmware/CA7/optee-os-3.19.0-r2/optee-os-stm32mp-3.19.0-stm32mp-r2/ldelf/ta_elf.c:1442
    1cf6:	d12b      	bne.n	1d50 <ta_elf_print_mappings+0x144>
/home/lubuntu/Dokument/GitHub/STM32-Computer/Firmware/STM32-Computer-Firmware/CA7/optee-os-3.19.0-r2/optee-os-stm32mp-3.19.0-stm32mp-r2/ldelf/ta_elf.c:1449
    1cf8:	f8dd c020 	ldr.w	ip, [sp, #32]
    1cfc:	45dc      	cmp	ip, fp
    1cfe:	d91d      	bls.n	1d3c <ta_elf_print_mappings+0x130>
/home/lubuntu/Dokument/GitHub/STM32-Computer/Firmware/STM32-Computer-Firmware/CA7/optee-os-3.19.0-r2/optee-os-stm32mp-3.19.0-stm32mp-r2/ldelf/ta_elf.c:1449 (discriminator 1)
    1d00:	f5b0 5f80 	cmp.w	r0, #4096	@ 0x1000
    1d04:	d11a      	bne.n	1d3c <ta_elf_print_mappings+0x130>
/home/lubuntu/Dokument/GitHub/STM32-Computer/Firmware/STM32-Computer-Firmware/CA7/optee-os-3.19.0-r2/optee-os-stm32mp-3.19.0-stm32mp-r2/ldelf/ta_elf.c:1456
    1d06:	f8dd e050 	ldr.w	lr, [sp, #80]	@ 0x50
/home/lubuntu/Dokument/GitHub/STM32-Computer/Firmware/STM32-Computer-Firmware/CA7/optee-os-3.19.0-r2/optee-os-stm32mp-3.19.0-stm32mp-r2/ldelf/ta_elf.c:1454
    1d0a:	3310      	adds	r3, #16
    1d0c:	f8dd c050 	ldr.w	ip, [sp, #80]	@ 0x50
    1d10:	449c      	add	ip, r3
/home/lubuntu/Dokument/GitHub/STM32-Computer/Firmware/STM32-Computer-Firmware/CA7/optee-os-3.19.0-r2/optee-os-stm32mp-3.19.0-stm32mp-r2/ldelf/ta_elf.c:1456
    1d12:	f85e 3003 	ldr.w	r3, [lr, r3]
    1d16:	f507 5e80 	add.w	lr, r7, #4096	@ 0x1000
    1d1a:	4573      	cmp	r3, lr
    1d1c:	d10e      	bne.n	1d3c <ta_elf_print_mappings+0x130>
/home/lubuntu/Dokument/GitHub/STM32-Computer/Firmware/STM32-Computer-Firmware/CA7/optee-os-3.19.0-r2/optee-os-stm32mp-3.19.0-stm32mp-r2/ldelf/ta_elf.c:1453 (discriminator 1)
    1d1e:	f8dc 3008 	ldr.w	r3, [ip, #8]
    1d22:	f503 5380 	add.w	r3, r3, #4096	@ 0x1000
/home/lubuntu/Dokument/GitHub/STM32-Computer/Firmware/STM32-Computer-Firmware/CA7/optee-os-3.19.0-r2/optee-os-stm32mp-3.19.0-stm32mp-r2/ldelf/ta_elf.c:1456 (discriminator 1)
    1d26:	42ab      	cmp	r3, r5
    1d28:	d108      	bne.n	1d3c <ta_elf_print_mappings+0x130>
/home/lubuntu/Dokument/GitHub/STM32-Computer/Firmware/STM32-Computer-Firmware/CA7/optee-os-3.19.0-r2/optee-os-stm32mp-3.19.0-stm32mp-r2/ldelf/ta_elf.c:1457
    1d2a:	68c9      	ldr	r1, [r1, #12]
    1d2c:	f8dc 300c 	ldr.w	r3, [ip, #12]
    1d30:	4299      	cmp	r1, r3
    1d32:	d103      	bne.n	1d3c <ta_elf_print_mappings+0x130>
/home/lubuntu/Dokument/GitHub/STM32-Computer/Firmware/STM32-Computer-Firmware/CA7/optee-os-3.19.0-r2/optee-os-stm32mp-3.19.0-stm32mp-r2/ldelf/ta_elf.c:1461 (discriminator 1)
    1d34:	f108 0b02 	add.w	fp, r8, #2
/home/lubuntu/Dokument/GitHub/STM32-Computer/Firmware/STM32-Computer-Firmware/CA7/optee-os-3.19.0-r2/optee-os-stm32mp-3.19.0-stm32mp-r2/ldelf/ta_elf.c:1427
    1d38:	46d8      	mov	r8, fp
    1d3a:	e78c      	b.n	1c56 <ta_elf_print_mappings+0x4a>
/home/lubuntu/Dokument/GitHub/STM32-Computer/Firmware/STM32-Computer-Firmware/CA7/optee-os-3.19.0-r2/optee-os-stm32mp-3.19.0-stm32mp-r2/ldelf/ta_elf.c:1465
    1d3c:	42a8      	cmp	r0, r5
    1d3e:	d0fb      	beq.n	1d38 <ta_elf_print_mappings+0x12c>
/home/lubuntu/Dokument/GitHub/STM32-Computer/Firmware/STM32-Computer-Firmware/CA7/optee-os-3.19.0-r2/optee-os-stm32mp-3.19.0-stm32mp-r2/ldelf/ta_elf.c:1465 (discriminator 1)
    1d40:	4a32      	ldr	r2, [pc, #200]	@ (1e0c <ta_elf_print_mappings+0x200>)
    1d42:	f240 51b9 	movw	r1, #1465	@ 0x5b9
    1d46:	4832      	ldr	r0, [pc, #200]	@ (1e10 <ta_elf_print_mappings+0x204>)
    1d48:	447a      	add	r2, pc
    1d4a:	4478      	add	r0, pc
get_next_in_order():
/home/lubuntu/Dokument/GitHub/STM32-Computer/Firmware/STM32-Computer-Firmware/CA7/optee-os-3.19.0-r2/optee-os-stm32mp-3.19.0-stm32mp-r2/ldelf/ta_elf.c:1377
    1d4c:	f7fe fde6 	bl	91c <_assert_trap.constprop.0>
ta_elf_print_mappings():
/home/lubuntu/Dokument/GitHub/STM32-Computer/Firmware/STM32-Computer-Firmware/CA7/optee-os-3.19.0-r2/optee-os-stm32mp-3.19.0-stm32mp-r2/ldelf/ta_elf.c:1467
    1d50:	9b15      	ldr	r3, [sp, #84]	@ 0x54
/home/lubuntu/Dokument/GitHub/STM32-Computer/Firmware/STM32-Computer-Firmware/CA7/optee-os-3.19.0-r2/optee-os-stm32mp-3.19.0-stm32mp-r2/ldelf/ta_elf.c:1469
    1d52:	9209      	str	r2, [sp, #36]	@ 0x24
/home/lubuntu/Dokument/GitHub/STM32-Computer/Firmware/STM32-Computer-Firmware/CA7/optee-os-3.19.0-r2/optee-os-stm32mp-3.19.0-stm32mp-r2/ldelf/ta_elf.c:1467
    1d54:	ebac 0303 	sub.w	r3, ip, r3
    1d58:	f1d3 0e00 	rsbs	lr, r3, #0
    1d5c:	eb4e 0e03 	adc.w	lr, lr, r3
/home/lubuntu/Dokument/GitHub/STM32-Computer/Firmware/STM32-Computer-Firmware/CA7/optee-os-3.19.0-r2/optee-os-stm32mp-3.19.0-stm32mp-r2/ldelf/ta_elf.c:1469
    1d60:	68cb      	ldr	r3, [r1, #12]
    1d62:	9002      	str	r0, [sp, #8]
    1d64:	ea43 13ce 	orr.w	r3, r3, lr, lsl #7
    1d68:	9303      	str	r3, [sp, #12]
    1d6a:	684b      	ldr	r3, [r1, #4]
    1d6c:	9805      	ldr	r0, [sp, #20]
    1d6e:	9301      	str	r3, [sp, #4]
    1d70:	f04f 33ff 	mov.w	r3, #4294967295	@ 0xffffffff
    1d74:	9906      	ldr	r1, [sp, #24]
    1d76:	f8cd c000 	str.w	ip, [sp]
    1d7a:	f7fe fddb 	bl	934 <print_seg>
/home/lubuntu/Dokument/GitHub/STM32-Computer/Firmware/STM32-Computer-Firmware/CA7/optee-os-3.19.0-r2/optee-os-stm32mp-3.19.0-stm32mp-r2/ldelf/ta_elf.c:1473
    1d7e:	9a09      	ldr	r2, [sp, #36]	@ 0x24
    1d80:	3201      	adds	r2, #1
/home/lubuntu/Dokument/GitHub/STM32-Computer/Firmware/STM32-Computer-Firmware/CA7/optee-os-3.19.0-r2/optee-os-stm32mp-3.19.0-stm32mp-r2/ldelf/ta_elf.c:1475
    1d82:	e7d9      	b.n	1d38 <ta_elf_print_mappings+0x12c>
get_next_in_order():
/home/lubuntu/Dokument/GitHub/STM32-Computer/Firmware/STM32-Computer-Firmware/CA7/optee-os-3.19.0-r2/optee-os-stm32mp-3.19.0-stm32mp-r2/ldelf/ta_elf.c:1380
    1d84:	69e4      	ldr	r4, [r4, #28]
ta_elf_print_mappings():
/home/lubuntu/Dokument/GitHub/STM32-Computer/Firmware/STM32-Computer-Firmware/CA7/optee-os-3.19.0-r2/optee-os-stm32mp-3.19.0-stm32mp-r2/ldelf/ta_elf.c:1490
    1d86:	3201      	adds	r2, #1
get_next_in_order():
/home/lubuntu/Dokument/GitHub/STM32-Computer/Firmware/STM32-Computer-Firmware/CA7/optee-os-3.19.0-r2/optee-os-stm32mp-3.19.0-stm32mp-r2/ldelf/ta_elf.c:1381
    1d88:	2c00      	cmp	r4, #0
    1d8a:	f47f af56 	bne.w	1c3a <ta_elf_print_mappings+0x2e>
/home/lubuntu/Dokument/GitHub/STM32-Computer/Firmware/STM32-Computer-Firmware/CA7/optee-os-3.19.0-r2/optee-os-stm32mp-3.19.0-stm32mp-r2/ldelf/ta_elf.c:1392
    1d8e:	9b07      	ldr	r3, [sp, #28]
/home/lubuntu/Dokument/GitHub/STM32-Computer/Firmware/STM32-Computer-Firmware/CA7/optee-os-3.19.0-r2/optee-os-stm32mp-3.19.0-stm32mp-r2/ldelf/ta_elf.c:1372
    1d90:	4620      	mov	r0, r4
/home/lubuntu/Dokument/GitHub/STM32-Computer/Firmware/STM32-Computer-Firmware/CA7/optee-os-3.19.0-r2/optee-os-stm32mp-3.19.0-stm32mp-r2/ldelf/ta_elf.c:1388
    1d92:	6871      	ldr	r1, [r6, #4]
/home/lubuntu/Dokument/GitHub/STM32-Computer/Firmware/STM32-Computer-Firmware/CA7/optee-os-3.19.0-r2/optee-os-stm32mp-3.19.0-stm32mp-r2/ldelf/ta_elf.c:1392
    1d94:	681d      	ldr	r5, [r3, #0]
/home/lubuntu/Dokument/GitHub/STM32-Computer/Firmware/STM32-Computer-Firmware/CA7/optee-os-3.19.0-r2/optee-os-stm32mp-3.19.0-stm32mp-r2/ldelf/ta_elf.c:1369
    1d96:	4623      	mov	r3, r4
/home/lubuntu/Dokument/GitHub/STM32-Computer/Firmware/STM32-Computer-Firmware/CA7/optee-os-3.19.0-r2/optee-os-stm32mp-3.19.0-stm32mp-r2/ldelf/ta_elf.c:1392
    1d98:	b945      	cbnz	r5, 1dac <ta_elf_print_mappings+0x1a0>
ta_elf_print_mappings():
/home/lubuntu/Dokument/GitHub/STM32-Computer/Firmware/STM32-Computer-Firmware/CA7/optee-os-3.19.0-r2/optee-os-stm32mp-3.19.0-stm32mp-r2/ldelf/ta_elf.c:1427
    1d9a:	f04f 37ff 	mov.w	r7, #4294967295	@ 0xffffffff
get_next_in_order():
/home/lubuntu/Dokument/GitHub/STM32-Computer/Firmware/STM32-Computer-Firmware/CA7/optee-os-3.19.0-r2/optee-os-stm32mp-3.19.0-stm32mp-r2/ldelf/ta_elf.c:1401
    1d9e:	2c00      	cmp	r4, #0
    1da0:	f43f af59 	beq.w	1c56 <ta_elf_print_mappings+0x4a>
/home/lubuntu/Dokument/GitHub/STM32-Computer/Firmware/STM32-Computer-Firmware/CA7/optee-os-3.19.0-r2/optee-os-stm32mp-3.19.0-stm32mp-r2/ldelf/ta_elf.c:1405
    1da4:	4626      	mov	r6, r4
    1da6:	4699      	mov	r9, r3
    1da8:	6da4      	ldr	r4, [r4, #88]	@ 0x58
    1daa:	e744      	b.n	1c36 <ta_elf_print_mappings+0x2a>
/home/lubuntu/Dokument/GitHub/STM32-Computer/Firmware/STM32-Computer-Firmware/CA7/optee-os-3.19.0-r2/optee-os-stm32mp-3.19.0-stm32mp-r2/ldelf/ta_elf.c:1393
    1dac:	686f      	ldr	r7, [r5, #4]
    1dae:	42b9      	cmp	r1, r7
    1db0:	d206      	bcs.n	1dc0 <ta_elf_print_mappings+0x1b4>
/home/lubuntu/Dokument/GitHub/STM32-Computer/Firmware/STM32-Computer-Firmware/CA7/optee-os-3.19.0-r2/optee-os-stm32mp-3.19.0-stm32mp-r2/ldelf/ta_elf.c:1394
    1db2:	b14c      	cbz	r4, 1dc8 <ta_elf_print_mappings+0x1bc>
    1db4:	f8d4 c004 	ldr.w	ip, [r4, #4]
    1db8:	4567      	cmp	r7, ip
    1dba:	bf3c      	itt	cc
    1dbc:	4603      	movcc	r3, r0
    1dbe:	462c      	movcc	r4, r5
/home/lubuntu/Dokument/GitHub/STM32-Computer/Firmware/STM32-Computer-Firmware/CA7/optee-os-3.19.0-r2/optee-os-stm32mp-3.19.0-stm32mp-r2/ldelf/ta_elf.c:1392
    1dc0:	f8d5 509c 	ldr.w	r5, [r5, #156]	@ 0x9c
/home/lubuntu/Dokument/GitHub/STM32-Computer/Firmware/STM32-Computer-Firmware/CA7/optee-os-3.19.0-r2/optee-os-stm32mp-3.19.0-stm32mp-r2/ldelf/ta_elf.c:1399
    1dc4:	3001      	adds	r0, #1
/home/lubuntu/Dokument/GitHub/STM32-Computer/Firmware/STM32-Computer-Firmware/CA7/optee-os-3.19.0-r2/optee-os-stm32mp-3.19.0-stm32mp-r2/ldelf/ta_elf.c:1392
    1dc6:	e7e7      	b.n	1d98 <ta_elf_print_mappings+0x18c>
/home/lubuntu/Dokument/GitHub/STM32-Computer/Firmware/STM32-Computer-Firmware/CA7/optee-os-3.19.0-r2/optee-os-stm32mp-3.19.0-stm32mp-r2/ldelf/ta_elf.c:1396
    1dc8:	4603      	mov	r3, r0
    1dca:	462c      	mov	r4, r5
    1dcc:	e7f8      	b.n	1dc0 <ta_elf_print_mappings+0x1b4>
ta_elf_print_mappings():
/home/lubuntu/Dokument/GitHub/STM32-Computer/Firmware/STM32-Computer-Firmware/CA7/optee-os-3.19.0-r2/optee-os-stm32mp-3.19.0-stm32mp-r2/ldelf/ta_elf.c:1497
    1dce:	9b07      	ldr	r3, [sp, #28]
/home/lubuntu/Dokument/GitHub/STM32-Computer/Firmware/STM32-Computer-Firmware/CA7/optee-os-3.19.0-r2/optee-os-stm32mp-3.19.0-stm32mp-r2/ldelf/ta_elf.c:1498
    1dd0:	2708      	movs	r7, #8
    1dd2:	4e10      	ldr	r6, [pc, #64]	@ (1e14 <ta_elf_print_mappings+0x208>)
/home/lubuntu/Dokument/GitHub/STM32-Computer/Firmware/STM32-Computer-Firmware/CA7/optee-os-3.19.0-r2/optee-os-stm32mp-3.19.0-stm32mp-r2/ldelf/ta_elf.c:1497
    1dd4:	681d      	ldr	r5, [r3, #0]
/home/lubuntu/Dokument/GitHub/STM32-Computer/Firmware/STM32-Computer-Firmware/CA7/optee-os-3.19.0-r2/optee-os-stm32mp-3.19.0-stm32mp-r2/ldelf/ta_elf.c:1498
    1dd6:	447e      	add	r6, pc
/home/lubuntu/Dokument/GitHub/STM32-Computer/Firmware/STM32-Computer-Firmware/CA7/optee-os-3.19.0-r2/optee-os-stm32mp-3.19.0-stm32mp-r2/ldelf/ta_elf.c:1497 (discriminator 1)
    1dd8:	b915      	cbnz	r5, 1de0 <ta_elf_print_mappings+0x1d4>
/home/lubuntu/Dokument/GitHub/STM32-Computer/Firmware/STM32-Computer-Firmware/CA7/optee-os-3.19.0-r2/optee-os-stm32mp-3.19.0-stm32mp-r2/ldelf/ta_elf.c:1503
    1dda:	b00b      	add	sp, #44	@ 0x2c
    1ddc:	e8bd 8ff0 	ldmia.w	sp!, {r4, r5, r6, r7, r8, r9, sl, fp, pc}
/home/lubuntu/Dokument/GitHub/STM32-Computer/Firmware/STM32-Computer-Firmware/CA7/optee-os-3.19.0-r2/optee-os-stm32mp-3.19.0-stm32mp-r2/ldelf/ta_elf.c:1498 (discriminator 3)
    1de0:	686b      	ldr	r3, [r5, #4]
    1de2:	4632      	mov	r2, r6
    1de4:	9906      	ldr	r1, [sp, #24]
    1de6:	9302      	str	r3, [sp, #8]
/home/lubuntu/Dokument/GitHub/STM32-Computer/Firmware/STM32-Computer-Firmware/CA7/optee-os-3.19.0-r2/optee-os-stm32mp-3.19.0-stm32mp-r2/ldelf/ta_elf.c:1500 (discriminator 3)
    1de8:	f105 038c 	add.w	r3, r5, #140	@ 0x8c
/home/lubuntu/Dokument/GitHub/STM32-Computer/Firmware/STM32-Computer-Firmware/CA7/optee-os-3.19.0-r2/optee-os-stm32mp-3.19.0-stm32mp-r2/ldelf/ta_elf.c:1498 (discriminator 3)
    1dec:	9300      	str	r3, [sp, #0]
    1dee:	4623      	mov	r3, r4
    1df0:	9805      	ldr	r0, [sp, #20]
/home/lubuntu/Dokument/GitHub/STM32-Computer/Firmware/STM32-Computer-Firmware/CA7/optee-os-3.19.0-r2/optee-os-stm32mp-3.19.0-stm32mp-r2/ldelf/ta_elf.c:1501 (discriminator 3)
    1df2:	3401      	adds	r4, #1
/home/lubuntu/Dokument/GitHub/STM32-Computer/Firmware/STM32-Computer-Firmware/CA7/optee-os-3.19.0-r2/optee-os-stm32mp-3.19.0-stm32mp-r2/ldelf/ta_elf.c:1498 (discriminator 3)
    1df4:	9701      	str	r7, [sp, #4]
    1df6:	f002 f92c 	bl	4052 <print_wrapper>
/home/lubuntu/Dokument/GitHub/STM32-Computer/Firmware/STM32-Computer-Firmware/CA7/optee-os-3.19.0-r2/optee-os-stm32mp-3.19.0-stm32mp-r2/ldelf/ta_elf.c:1497 (discriminator 3)
    1dfa:	f8d5 509c 	ldr.w	r5, [r5, #156]	@ 0x9c
    1dfe:	e7eb      	b.n	1dd8 <ta_elf_print_mappings+0x1cc>
    1e00:	fffff000 	.word	0xfffff000
    1e04:	00003215 	.word	0x00003215
    1e08:	00003099 	.word	0x00003099
    1e0c:	0000319d 	.word	0x0000319d
    1e10:	00002ff8 	.word	0x00002ff8
    1e14:	00002fb8 	.word	0x00002fb8

00001e18 <find_exidx>:
find_exidx():
/home/lubuntu/Dokument/GitHub/STM32-Computer/Firmware/STM32-Computer-Firmware/CA7/optee-os-3.19.0-r2/optee-os-stm32mp-3.19.0-stm32mp-r2/ldelf/ta_elf.c:1513
    1e18:	4b12      	ldr	r3, [pc, #72]	@ (1e64 <find_exidx+0x4c>)
/home/lubuntu/Dokument/GitHub/STM32-Computer/Firmware/STM32-Computer-Firmware/CA7/optee-os-3.19.0-r2/optee-os-stm32mp-3.19.0-stm32mp-r2/ldelf/ta_elf.c:1508
    1e1a:	b5f0      	push	{r4, r5, r6, r7, lr}
    1e1c:	4604      	mov	r4, r0
/home/lubuntu/Dokument/GitHub/STM32-Computer/Firmware/STM32-Computer-Firmware/CA7/optee-os-3.19.0-r2/optee-os-stm32mp-3.19.0-stm32mp-r2/ldelf/ta_elf.c:1513
    1e1e:	447b      	add	r3, pc
    1e20:	6818      	ldr	r0, [r3, #0]
/home/lubuntu/Dokument/GitHub/STM32-Computer/Firmware/STM32-Computer-Firmware/CA7/optee-os-3.19.0-r2/optee-os-stm32mp-3.19.0-stm32mp-r2/ldelf/ta_elf.c:1513 (discriminator 1)
    1e22:	b1d8      	cbz	r0, 1e5c <find_exidx+0x44>
/home/lubuntu/Dokument/GitHub/STM32-Computer/Firmware/STM32-Computer-Firmware/CA7/optee-os-3.19.0-r2/optee-os-stm32mp-3.19.0-stm32mp-r2/ldelf/ta_elf.c:1514
    1e24:	6846      	ldr	r6, [r0, #4]
    1e26:	42a6      	cmp	r6, r4
    1e28:	d803      	bhi.n	1e32 <find_exidx+0x1a>
/home/lubuntu/Dokument/GitHub/STM32-Computer/Firmware/STM32-Computer-Firmware/CA7/optee-os-3.19.0-r2/optee-os-stm32mp-3.19.0-stm32mp-r2/ldelf/ta_elf.c:1516
    1e2a:	eba4 0c06 	sub.w	ip, r4, r6
/home/lubuntu/Dokument/GitHub/STM32-Computer/Firmware/STM32-Computer-Firmware/CA7/optee-os-3.19.0-r2/optee-os-stm32mp-3.19.0-stm32mp-r2/ldelf/ta_elf.c:1517
    1e2e:	6d83      	ldr	r3, [r0, #88]	@ 0x58
/home/lubuntu/Dokument/GitHub/STM32-Computer/Firmware/STM32-Computer-Firmware/CA7/optee-os-3.19.0-r2/optee-os-stm32mp-3.19.0-stm32mp-r2/ldelf/ta_elf.c:1517 (discriminator 1)
    1e30:	b913      	cbnz	r3, 1e38 <find_exidx+0x20>
/home/lubuntu/Dokument/GitHub/STM32-Computer/Firmware/STM32-Computer-Firmware/CA7/optee-os-3.19.0-r2/optee-os-stm32mp-3.19.0-stm32mp-r2/ldelf/ta_elf.c:1513 (discriminator 2)
    1e32:	f8d0 009c 	ldr.w	r0, [r0, #156]	@ 0x9c
    1e36:	e7f4      	b.n	1e22 <find_exidx+0xa>
/home/lubuntu/Dokument/GitHub/STM32-Computer/Firmware/STM32-Computer-Firmware/CA7/optee-os-3.19.0-r2/optee-os-stm32mp-3.19.0-stm32mp-r2/ldelf/ta_elf.c:1518
    1e38:	685d      	ldr	r5, [r3, #4]
    1e3a:	4565      	cmp	r5, ip
    1e3c:	d80f      	bhi.n	1e5e <find_exidx+0x46>
/home/lubuntu/Dokument/GitHub/STM32-Computer/Firmware/STM32-Computer-Firmware/CA7/optee-os-3.19.0-r2/optee-os-stm32mp-3.19.0-stm32mp-r2/ldelf/ta_elf.c:1520
    1e3e:	689f      	ldr	r7, [r3, #8]
    1e40:	ebac 0505 	sub.w	r5, ip, r5
    1e44:	42bd      	cmp	r5, r7
    1e46:	d20a      	bcs.n	1e5e <find_exidx+0x46>
/home/lubuntu/Dokument/GitHub/STM32-Computer/Firmware/STM32-Computer-Firmware/CA7/optee-os-3.19.0-r2/optee-os-stm32mp-3.19.0-stm32mp-r2/ldelf/ta_elf.c:1521
    1e48:	6e03      	ldr	r3, [r0, #96]	@ 0x60
    1e4a:	4433      	add	r3, r6
    1e4c:	600b      	str	r3, [r1, #0]
/home/lubuntu/Dokument/GitHub/STM32-Computer/Firmware/STM32-Computer-Firmware/CA7/optee-os-3.19.0-r2/optee-os-stm32mp-3.19.0-stm32mp-r2/ldelf/ta_elf.c:1522
    1e4e:	6841      	ldr	r1, [r0, #4]
    1e50:	6e03      	ldr	r3, [r0, #96]	@ 0x60
    1e52:	440b      	add	r3, r1
    1e54:	6e41      	ldr	r1, [r0, #100]	@ 0x64
/home/lubuntu/Dokument/GitHub/STM32-Computer/Firmware/STM32-Computer-Firmware/CA7/optee-os-3.19.0-r2/optee-os-stm32mp-3.19.0-stm32mp-r2/ldelf/ta_elf.c:1524
    1e56:	2001      	movs	r0, #1
/home/lubuntu/Dokument/GitHub/STM32-Computer/Firmware/STM32-Computer-Firmware/CA7/optee-os-3.19.0-r2/optee-os-stm32mp-3.19.0-stm32mp-r2/ldelf/ta_elf.c:1522
    1e58:	440b      	add	r3, r1
    1e5a:	6013      	str	r3, [r2, #0]
/home/lubuntu/Dokument/GitHub/STM32-Computer/Firmware/STM32-Computer-Firmware/CA7/optee-os-3.19.0-r2/optee-os-stm32mp-3.19.0-stm32mp-r2/ldelf/ta_elf.c:1530
    1e5c:	bdf0      	pop	{r4, r5, r6, r7, pc}
/home/lubuntu/Dokument/GitHub/STM32-Computer/Firmware/STM32-Computer-Firmware/CA7/optee-os-3.19.0-r2/optee-os-stm32mp-3.19.0-stm32mp-r2/ldelf/ta_elf.c:1517 (discriminator 2)
    1e5e:	69db      	ldr	r3, [r3, #28]
    1e60:	e7e6      	b.n	1e30 <find_exidx+0x18>
    1e62:	bf00      	nop
    1e64:	00004286 	.word	0x00004286

00001e68 <ta_elf_stack_trace_a32>:
ta_elf_stack_trace_a32():
/home/lubuntu/Dokument/GitHub/STM32-Computer/Firmware/STM32-Computer-Firmware/CA7/optee-os-3.19.0-r2/optee-os-stm32mp-3.19.0-stm32mp-r2/ldelf/ta_elf.c:1533
    1e68:	b510      	push	{r4, lr}
    1e6a:	b096      	sub	sp, #88	@ 0x58
    1e6c:	4604      	mov	r4, r0
/home/lubuntu/Dokument/GitHub/STM32-Computer/Firmware/STM32-Computer-Firmware/CA7/optee-os-3.19.0-r2/optee-os-stm32mp-3.19.0-stm32mp-r2/ldelf/ta_elf.c:1534
    1e6e:	2214      	movs	r2, #20
    1e70:	2100      	movs	r1, #0
    1e72:	a811      	add	r0, sp, #68	@ 0x44
    1e74:	f002 fa66 	bl	4344 <memset>
/home/lubuntu/Dokument/GitHub/STM32-Computer/Firmware/STM32-Computer-Firmware/CA7/optee-os-3.19.0-r2/optee-os-stm32mp-3.19.0-stm32mp-r2/ldelf/ta_elf.c:1536
    1e78:	ab01      	add	r3, sp, #4
    1e7a:	4621      	mov	r1, r4
    1e7c:	4618      	mov	r0, r3
    1e7e:	2240      	movs	r2, #64	@ 0x40
    1e80:	f001 fc28 	bl	36d4 <memcpy>
/home/lubuntu/Dokument/GitHub/STM32-Computer/Firmware/STM32-Computer-Firmware/CA7/optee-os-3.19.0-r2/optee-os-stm32mp-3.19.0-stm32mp-r2/ldelf/ta_elf.c:1537
    1e84:	4a04      	ldr	r2, [pc, #16]	@ (1e98 <ta_elf_stack_trace_a32+0x30>)
    1e86:	4905      	ldr	r1, [pc, #20]	@ (1e9c <ta_elf_stack_trace_a32+0x34>)
    1e88:	447a      	add	r2, pc
    1e8a:	4479      	add	r1, pc
    1e8c:	6812      	ldr	r2, [r2, #0]
    1e8e:	6809      	ldr	r1, [r1, #0]
    1e90:	f001 f82a 	bl	2ee8 <print_stack_arm32>
/home/lubuntu/Dokument/GitHub/STM32-Computer/Firmware/STM32-Computer-Firmware/CA7/optee-os-3.19.0-r2/optee-os-stm32mp-3.19.0-stm32mp-r2/ldelf/ta_elf.c:1538
    1e94:	b016      	add	sp, #88	@ 0x58
    1e96:	bd10      	pop	{r4, pc}
    1e98:	00004284 	.word	0x00004284
    1e9c:	00004286 	.word	0x00004286

00001ea0 <ta_elf_set_init_fini_info_compat>:
ta_elf_set_init_fini_info_compat():
/home/lubuntu/Dokument/GitHub/STM32-Computer/Firmware/STM32-Computer-Firmware/CA7/optee-os-3.19.0-r2/optee-os-stm32mp-3.19.0-stm32mp-r2/ldelf/ta_elf.c:1793
    1ea0:	e92d 4ff0 	stmdb	sp!, {r4, r5, r6, r7, r8, r9, sl, fp, lr}
    1ea4:	4607      	mov	r7, r0
/home/lubuntu/Dokument/GitHub/STM32-Computer/Firmware/STM32-Computer-Firmware/CA7/optee-os-3.19.0-r2/optee-os-stm32mp-3.19.0-stm32mp-r2/ldelf/ta_elf.c:1800
    1ea6:	4855      	ldr	r0, [pc, #340]	@ (1ffc <ta_elf_set_init_fini_info_compat+0x15c>)
/home/lubuntu/Dokument/GitHub/STM32-Computer/Firmware/STM32-Computer-Firmware/CA7/optee-os-3.19.0-r2/optee-os-stm32mp-3.19.0-stm32mp-r2/ldelf/ta_elf.c:1793
    1ea8:	b08b      	sub	sp, #44	@ 0x2c
/home/lubuntu/Dokument/GitHub/STM32-Computer/Firmware/STM32-Computer-Firmware/CA7/optee-os-3.19.0-r2/optee-os-stm32mp-3.19.0-stm32mp-r2/ldelf/ta_elf.c:1797
    1eaa:	2300      	movs	r3, #0
/home/lubuntu/Dokument/GitHub/STM32-Computer/Firmware/STM32-Computer-Firmware/CA7/optee-os-3.19.0-r2/optee-os-stm32mp-3.19.0-stm32mp-r2/ldelf/ta_elf.c:1800
    1eac:	a905      	add	r1, sp, #20
    1eae:	4478      	add	r0, pc
    1eb0:	461a      	mov	r2, r3
/home/lubuntu/Dokument/GitHub/STM32-Computer/Firmware/STM32-Computer-Firmware/CA7/optee-os-3.19.0-r2/optee-os-stm32mp-3.19.0-stm32mp-r2/ldelf/ta_elf.c:1797
    1eb2:	9305      	str	r3, [sp, #20]
/home/lubuntu/Dokument/GitHub/STM32-Computer/Firmware/STM32-Computer-Firmware/CA7/optee-os-3.19.0-r2/optee-os-stm32mp-3.19.0-stm32mp-r2/ldelf/ta_elf.c:1800
    1eb4:	f000 fbd8 	bl	2668 <ta_elf_resolve_sym>
/home/lubuntu/Dokument/GitHub/STM32-Computer/Firmware/STM32-Computer-Firmware/CA7/optee-os-3.19.0-r2/optee-os-stm32mp-3.19.0-stm32mp-r2/ldelf/ta_elf.c:1801
    1eb8:	b130      	cbz	r0, 1ec8 <ta_elf_set_init_fini_info_compat+0x28>
/home/lubuntu/Dokument/GitHub/STM32-Computer/Firmware/STM32-Computer-Firmware/CA7/optee-os-3.19.0-r2/optee-os-stm32mp-3.19.0-stm32mp-r2/ldelf/ta_elf.c:1802
    1eba:	4b4d      	ldr	r3, [pc, #308]	@ (1ff0 <ta_elf_set_init_fini_info_compat+0x150>)
    1ebc:	4298      	cmp	r0, r3
    1ebe:	d100      	bne.n	1ec2 <ta_elf_set_init_fini_info_compat+0x22>
/home/lubuntu/Dokument/GitHub/STM32-Computer/Firmware/STM32-Computer-Firmware/CA7/optee-os-3.19.0-r2/optee-os-stm32mp-3.19.0-stm32mp-r2/ldelf/ta_elf.c:1807
    1ec0:	2000      	movs	r0, #0
/home/lubuntu/Dokument/GitHub/STM32-Computer/Firmware/STM32-Computer-Firmware/CA7/optee-os-3.19.0-r2/optee-os-stm32mp-3.19.0-stm32mp-r2/ldelf/ta_elf.c:1837
    1ec2:	b00b      	add	sp, #44	@ 0x2c
    1ec4:	e8bd 8ff0 	ldmia.w	sp!, {r4, r5, r6, r7, r8, r9, sl, fp, pc}
/home/lubuntu/Dokument/GitHub/STM32-Computer/Firmware/STM32-Computer-Firmware/CA7/optee-os-3.19.0-r2/optee-os-stm32mp-3.19.0-stm32mp-r2/ldelf/ta_elf.c:1811
    1ec8:	9c05      	ldr	r4, [sp, #20]
    1eca:	b93c      	cbnz	r4, 1edc <ta_elf_set_init_fini_info_compat+0x3c>
/home/lubuntu/Dokument/GitHub/STM32-Computer/Firmware/STM32-Computer-Firmware/CA7/optee-os-3.19.0-r2/optee-os-stm32mp-3.19.0-stm32mp-r2/ldelf/ta_elf.c:1811 (discriminator 1)
    1ecc:	4a4c      	ldr	r2, [pc, #304]	@ (2000 <ta_elf_set_init_fini_info_compat+0x160>)
    1ece:	f240 7113 	movw	r1, #1811	@ 0x713
    1ed2:	484c      	ldr	r0, [pc, #304]	@ (2004 <ta_elf_set_init_fini_info_compat+0x164>)
    1ed4:	447a      	add	r2, pc
    1ed6:	4478      	add	r0, pc
/home/lubuntu/Dokument/GitHub/STM32-Computer/Firmware/STM32-Computer-Firmware/CA7/optee-os-3.19.0-r2/optee-os-stm32mp-3.19.0-stm32mp-r2/ldelf/ta_elf.c:1821 (discriminator 1)
    1ed8:	f7fe fd20 	bl	91c <_assert_trap.constprop.0>
/home/lubuntu/Dokument/GitHub/STM32-Computer/Firmware/STM32-Computer-Firmware/CA7/optee-os-3.19.0-r2/optee-os-stm32mp-3.19.0-stm32mp-r2/ldelf/ta_elf.c:1814
    1edc:	6826      	ldr	r6, [r4, #0]
    1ede:	2e00      	cmp	r6, #0
    1ee0:	f040 8084 	bne.w	1fec <ta_elf_set_init_fini_info_compat+0x14c>
/home/lubuntu/Dokument/GitHub/STM32-Computer/Firmware/STM32-Computer-Firmware/CA7/optee-os-3.19.0-r2/optee-os-stm32mp-3.19.0-stm32mp-r2/ldelf/ta_elf.c:1817
    1ee4:	4b48      	ldr	r3, [pc, #288]	@ (2008 <ta_elf_set_init_fini_info_compat+0x168>)
/home/lubuntu/Dokument/GitHub/STM32-Computer/Firmware/STM32-Computer-Firmware/CA7/optee-os-3.19.0-r2/optee-os-stm32mp-3.19.0-stm32mp-r2/ldelf/ta_elf.c:1798
    1ee6:	4635      	mov	r5, r6
/home/lubuntu/Dokument/GitHub/STM32-Computer/Firmware/STM32-Computer-Firmware/CA7/optee-os-3.19.0-r2/optee-os-stm32mp-3.19.0-stm32mp-r2/ldelf/ta_elf.c:1817
    1ee8:	447b      	add	r3, pc
    1eea:	f8d3 9000 	ldr.w	r9, [r3]
/home/lubuntu/Dokument/GitHub/STM32-Computer/Firmware/STM32-Computer-Firmware/CA7/optee-os-3.19.0-r2/optee-os-stm32mp-3.19.0-stm32mp-r2/ldelf/ta_elf.c:1817 (discriminator 1)
    1eee:	f1b9 0f00 	cmp.w	r9, #0
    1ef2:	d107      	bne.n	1f04 <ta_elf_set_init_fini_info_compat+0x64>
/home/lubuntu/Dokument/GitHub/STM32-Computer/Firmware/STM32-Computer-Firmware/CA7/optee-os-3.19.0-r2/optee-os-stm32mp-3.19.0-stm32mp-r2/ldelf/ta_elf.c:1821
    1ef4:	b955      	cbnz	r5, 1f0c <ta_elf_set_init_fini_info_compat+0x6c>
/home/lubuntu/Dokument/GitHub/STM32-Computer/Firmware/STM32-Computer-Firmware/CA7/optee-os-3.19.0-r2/optee-os-stm32mp-3.19.0-stm32mp-r2/ldelf/ta_elf.c:1821 (discriminator 1)
    1ef6:	4a45      	ldr	r2, [pc, #276]	@ (200c <ta_elf_set_init_fini_info_compat+0x16c>)
    1ef8:	f240 711d 	movw	r1, #1821	@ 0x71d
    1efc:	4844      	ldr	r0, [pc, #272]	@ (2010 <ta_elf_set_init_fini_info_compat+0x170>)
    1efe:	447a      	add	r2, pc
    1f00:	4478      	add	r0, pc
    1f02:	e7e9      	b.n	1ed8 <ta_elf_set_init_fini_info_compat+0x38>
/home/lubuntu/Dokument/GitHub/STM32-Computer/Firmware/STM32-Computer-Firmware/CA7/optee-os-3.19.0-r2/optee-os-stm32mp-3.19.0-stm32mp-r2/ldelf/ta_elf.c:1817 (discriminator 3)
    1f04:	f8d9 909c 	ldr.w	r9, [r9, #156]	@ 0x9c
/home/lubuntu/Dokument/GitHub/STM32-Computer/Firmware/STM32-Computer-Firmware/CA7/optee-os-3.19.0-r2/optee-os-stm32mp-3.19.0-stm32mp-r2/ldelf/ta_elf.c:1818 (discriminator 3)
    1f08:	3501      	adds	r5, #1
/home/lubuntu/Dokument/GitHub/STM32-Computer/Firmware/STM32-Computer-Firmware/CA7/optee-os-3.19.0-r2/optee-os-stm32mp-3.19.0-stm32mp-r2/ldelf/ta_elf.c:1817 (discriminator 3)
    1f0a:	e7f0      	b.n	1eee <ta_elf_set_init_fini_info_compat+0x4e>
realloc_ifs():
/home/lubuntu/Dokument/GitHub/STM32-Computer/Firmware/STM32-Computer-Firmware/CA7/optee-os-3.19.0-r2/optee-os-stm32mp-3.19.0-stm32mp-r2/ldelf/ta_elf.c:1713
    1f0c:	68a0      	ldr	r0, [r4, #8]
/home/lubuntu/Dokument/GitHub/STM32-Computer/Firmware/STM32-Computer-Firmware/CA7/optee-os-3.19.0-r2/optee-os-stm32mp-3.19.0-stm32mp-r2/ldelf/ta_elf.c:1714
    1f0e:	0129      	lsls	r1, r5, #4
/home/lubuntu/Dokument/GitHub/STM32-Computer/Firmware/STM32-Computer-Firmware/CA7/optee-os-3.19.0-r2/optee-os-stm32mp-3.19.0-stm32mp-r2/ldelf/ta_elf.c:1712
    1f10:	b36f      	cbz	r7, 1f6e <ta_elf_set_init_fini_info_compat+0xce>
/home/lubuntu/Dokument/GitHub/STM32-Computer/Firmware/STM32-Computer-Firmware/CA7/optee-os-3.19.0-r2/optee-os-stm32mp-3.19.0-stm32mp-r2/ldelf/ta_elf.c:1714
    1f12:	f001 fbc1 	bl	3698 <realloc>
/home/lubuntu/Dokument/GitHub/STM32-Computer/Firmware/STM32-Computer-Firmware/CA7/optee-os-3.19.0-r2/optee-os-stm32mp-3.19.0-stm32mp-r2/ldelf/ta_elf.c:1715
    1f16:	4680      	mov	r8, r0
    1f18:	b3a0      	cbz	r0, 1f84 <ta_elf_set_init_fini_info_compat+0xe4>
/home/lubuntu/Dokument/GitHub/STM32-Computer/Firmware/STM32-Computer-Firmware/CA7/optee-os-3.19.0-r2/optee-os-stm32mp-3.19.0-stm32mp-r2/ldelf/ta_elf.c:1718
    1f1a:	88a0      	ldrh	r0, [r4, #4]
/home/lubuntu/Dokument/GitHub/STM32-Computer/Firmware/STM32-Computer-Firmware/CA7/optee-os-3.19.0-r2/optee-os-stm32mp-3.19.0-stm32mp-r2/ldelf/ta_elf.c:1719
    1f1c:	4285      	cmp	r5, r0
    1f1e:	d906      	bls.n	1f2e <ta_elf_set_init_fini_info_compat+0x8e>
/home/lubuntu/Dokument/GitHub/STM32-Computer/Firmware/STM32-Computer-Firmware/CA7/optee-os-3.19.0-r2/optee-os-stm32mp-3.19.0-stm32mp-r2/ldelf/ta_elf.c:1721
    1f20:	1a2a      	subs	r2, r5, r0
/home/lubuntu/Dokument/GitHub/STM32-Computer/Firmware/STM32-Computer-Firmware/CA7/optee-os-3.19.0-r2/optee-os-stm32mp-3.19.0-stm32mp-r2/ldelf/ta_elf.c:1720
    1f22:	4649      	mov	r1, r9
    1f24:	0112      	lsls	r2, r2, #4
/home/lubuntu/Dokument/GitHub/STM32-Computer/Firmware/STM32-Computer-Firmware/CA7/optee-os-3.19.0-r2/optee-os-stm32mp-3.19.0-stm32mp-r2/ldelf/ta_elf.c:1731
    1f26:	eb08 1000 	add.w	r0, r8, r0, lsl #4
    1f2a:	f002 fa0b 	bl	4344 <memset>
ta_elf_set_init_fini_info_compat():
/home/lubuntu/Dokument/GitHub/STM32-Computer/Firmware/STM32-Computer-Firmware/CA7/optee-os-3.19.0-r2/optee-os-stm32mp-3.19.0-stm32mp-r2/ldelf/ta_elf.c:1828
    1f2e:	4b39      	ldr	r3, [pc, #228]	@ (2014 <ta_elf_set_init_fini_info_compat+0x174>)
fill_ifs():
/home/lubuntu/Dokument/GitHub/STM32-Computer/Firmware/STM32-Computer-Firmware/CA7/optee-os-3.19.0-r2/optee-os-stm32mp-3.19.0-stm32mp-r2/ldelf/ta_elf.c:1775
    1f30:	f10d 0b18 	add.w	fp, sp, #24
realloc_ifs():
/home/lubuntu/Dokument/GitHub/STM32-Computer/Firmware/STM32-Computer-Firmware/CA7/optee-os-3.19.0-r2/optee-os-stm32mp-3.19.0-stm32mp-r2/ldelf/ta_elf.c:1734
    1f34:	80a5      	strh	r5, [r4, #4]
fill_ifs():
/home/lubuntu/Dokument/GitHub/STM32-Computer/Firmware/STM32-Computer-Firmware/CA7/optee-os-3.19.0-r2/optee-os-stm32mp-3.19.0-stm32mp-r2/ldelf/ta_elf.c:1746
    1f36:	2500      	movs	r5, #0
ta_elf_set_init_fini_info_compat():
/home/lubuntu/Dokument/GitHub/STM32-Computer/Firmware/STM32-Computer-Firmware/CA7/optee-os-3.19.0-r2/optee-os-stm32mp-3.19.0-stm32mp-r2/ldelf/ta_elf.c:1828
    1f38:	447b      	add	r3, pc
realloc_ifs():
/home/lubuntu/Dokument/GitHub/STM32-Computer/Firmware/STM32-Computer-Firmware/CA7/optee-os-3.19.0-r2/optee-os-stm32mp-3.19.0-stm32mp-r2/ldelf/ta_elf.c:1733
    1f3a:	f8c4 8008 	str.w	r8, [r4, #8]
ta_elf_set_init_fini_info_compat():
/home/lubuntu/Dokument/GitHub/STM32-Computer/Firmware/STM32-Computer-Firmware/CA7/optee-os-3.19.0-r2/optee-os-stm32mp-3.19.0-stm32mp-r2/ldelf/ta_elf.c:1828
    1f3e:	f8d3 a000 	ldr.w	sl, [r3]
fill_ifs():
/home/lubuntu/Dokument/GitHub/STM32-Computer/Firmware/STM32-Computer-Firmware/CA7/optee-os-3.19.0-r2/optee-os-stm32mp-3.19.0-stm32mp-r2/ldelf/ta_elf.c:1775
    1f42:	ab09      	add	r3, sp, #36	@ 0x24
    1f44:	9303      	str	r3, [sp, #12]
ta_elf_set_init_fini_info_compat():
/home/lubuntu/Dokument/GitHub/STM32-Computer/Firmware/STM32-Computer-Firmware/CA7/optee-os-3.19.0-r2/optee-os-stm32mp-3.19.0-stm32mp-r2/ldelf/ta_elf.c:1828 (discriminator 1)
    1f46:	f1ba 0f00 	cmp.w	sl, #0
    1f4a:	d0b9      	beq.n	1ec0 <ta_elf_set_init_fini_info_compat+0x20>
fill_ifs():
/home/lubuntu/Dokument/GitHub/STM32-Computer/Firmware/STM32-Computer-Firmware/CA7/optee-os-3.19.0-r2/optee-os-stm32mp-3.19.0-stm32mp-r2/ldelf/ta_elf.c:1742 (discriminator 3)
    1f4c:	9b05      	ldr	r3, [sp, #20]
/home/lubuntu/Dokument/GitHub/STM32-Computer/Firmware/STM32-Computer-Firmware/CA7/optee-os-3.19.0-r2/optee-os-stm32mp-3.19.0-stm32mp-r2/ldelf/ta_elf.c:1746 (discriminator 3)
    1f4e:	0134      	lsls	r4, r6, #4
/home/lubuntu/Dokument/GitHub/STM32-Computer/Firmware/STM32-Computer-Firmware/CA7/optee-os-3.19.0-r2/optee-os-stm32mp-3.19.0-stm32mp-r2/ldelf/ta_elf.c:1752 (discriminator 3)
    1f50:	889a      	ldrh	r2, [r3, #4]
/home/lubuntu/Dokument/GitHub/STM32-Computer/Firmware/STM32-Computer-Firmware/CA7/optee-os-3.19.0-r2/optee-os-stm32mp-3.19.0-stm32mp-r2/ldelf/ta_elf.c:1747 (discriminator 3)
    1f52:	e9cd 5506 	strd	r5, r5, [sp, #24]
/home/lubuntu/Dokument/GitHub/STM32-Computer/Firmware/STM32-Computer-Firmware/CA7/optee-os-3.19.0-r2/optee-os-stm32mp-3.19.0-stm32mp-r2/ldelf/ta_elf.c:1749 (discriminator 3)
    1f56:	e9cd 5508 	strd	r5, r5, [sp, #32]
/home/lubuntu/Dokument/GitHub/STM32-Computer/Firmware/STM32-Computer-Firmware/CA7/optee-os-3.19.0-r2/optee-os-stm32mp-3.19.0-stm32mp-r2/ldelf/ta_elf.c:1751 (discriminator 3)
    1f5a:	b1c7      	cbz	r7, 1f8e <ta_elf_set_init_fini_info_compat+0xee>
/home/lubuntu/Dokument/GitHub/STM32-Computer/Firmware/STM32-Computer-Firmware/CA7/optee-os-3.19.0-r2/optee-os-stm32mp-3.19.0-stm32mp-r2/ldelf/ta_elf.c:1752
    1f5c:	4296      	cmp	r6, r2
    1f5e:	d31f      	bcc.n	1fa0 <ta_elf_set_init_fini_info_compat+0x100>
    1f60:	4a2d      	ldr	r2, [pc, #180]	@ (2018 <ta_elf_set_init_fini_info_compat+0x178>)
    1f62:	f44f 61db 	mov.w	r1, #1752	@ 0x6d8
    1f66:	482d      	ldr	r0, [pc, #180]	@ (201c <ta_elf_set_init_fini_info_compat+0x17c>)
    1f68:	447a      	add	r2, pc
    1f6a:	4478      	add	r0, pc
    1f6c:	e7b4      	b.n	1ed8 <ta_elf_set_init_fini_info_compat+0x38>
realloc_ifs():
/home/lubuntu/Dokument/GitHub/STM32-Computer/Firmware/STM32-Computer-Firmware/CA7/optee-os-3.19.0-r2/optee-os-stm32mp-3.19.0-stm32mp-r2/ldelf/ta_elf.c:1725
    1f6e:	f001 fb93 	bl	3698 <realloc>
/home/lubuntu/Dokument/GitHub/STM32-Computer/Firmware/STM32-Computer-Firmware/CA7/optee-os-3.19.0-r2/optee-os-stm32mp-3.19.0-stm32mp-r2/ldelf/ta_elf.c:1726
    1f72:	4680      	mov	r8, r0
    1f74:	b130      	cbz	r0, 1f84 <ta_elf_set_init_fini_info_compat+0xe4>
/home/lubuntu/Dokument/GitHub/STM32-Computer/Firmware/STM32-Computer-Firmware/CA7/optee-os-3.19.0-r2/optee-os-stm32mp-3.19.0-stm32mp-r2/ldelf/ta_elf.c:1729
    1f76:	88a0      	ldrh	r0, [r4, #4]
/home/lubuntu/Dokument/GitHub/STM32-Computer/Firmware/STM32-Computer-Firmware/CA7/optee-os-3.19.0-r2/optee-os-stm32mp-3.19.0-stm32mp-r2/ldelf/ta_elf.c:1730
    1f78:	4285      	cmp	r5, r0
    1f7a:	d9d8      	bls.n	1f2e <ta_elf_set_init_fini_info_compat+0x8e>
/home/lubuntu/Dokument/GitHub/STM32-Computer/Firmware/STM32-Computer-Firmware/CA7/optee-os-3.19.0-r2/optee-os-stm32mp-3.19.0-stm32mp-r2/ldelf/ta_elf.c:1732
    1f7c:	1a2a      	subs	r2, r5, r0
/home/lubuntu/Dokument/GitHub/STM32-Computer/Firmware/STM32-Computer-Firmware/CA7/optee-os-3.19.0-r2/optee-os-stm32mp-3.19.0-stm32mp-r2/ldelf/ta_elf.c:1731
    1f7e:	4639      	mov	r1, r7
    1f80:	0112      	lsls	r2, r2, #4
    1f82:	e7d0      	b.n	1f26 <ta_elf_set_init_fini_info_compat+0x86>
ta_elf_set_init_fini_info_compat():
/home/lubuntu/Dokument/GitHub/STM32-Computer/Firmware/STM32-Computer-Firmware/CA7/optee-os-3.19.0-r2/optee-os-stm32mp-3.19.0-stm32mp-r2/ldelf/ta_elf.c:1835
    1f84:	4620      	mov	r0, r4
    1f86:	f001 fb95 	bl	36b4 <free>
/home/lubuntu/Dokument/GitHub/STM32-Computer/Firmware/STM32-Computer-Firmware/CA7/optee-os-3.19.0-r2/optee-os-stm32mp-3.19.0-stm32mp-r2/ldelf/ta_elf.c:1836
    1f8a:	481a      	ldr	r0, [pc, #104]	@ (1ff4 <ta_elf_set_init_fini_info_compat+0x154>)
    1f8c:	e799      	b.n	1ec2 <ta_elf_set_init_fini_info_compat+0x22>
fill_ifs():
/home/lubuntu/Dokument/GitHub/STM32-Computer/Firmware/STM32-Computer-Firmware/CA7/optee-os-3.19.0-r2/optee-os-stm32mp-3.19.0-stm32mp-r2/ldelf/ta_elf.c:1769
    1f8e:	4296      	cmp	r6, r2
    1f90:	d306      	bcc.n	1fa0 <ta_elf_set_init_fini_info_compat+0x100>
    1f92:	4a23      	ldr	r2, [pc, #140]	@ (2020 <ta_elf_set_init_fini_info_compat+0x180>)
    1f94:	f240 61e9 	movw	r1, #1769	@ 0x6e9
    1f98:	4822      	ldr	r0, [pc, #136]	@ (2024 <ta_elf_set_init_fini_info_compat+0x184>)
    1f9a:	447a      	add	r2, pc
    1f9c:	4478      	add	r0, pc
    1f9e:	e79b      	b.n	1ed8 <ta_elf_set_init_fini_info_compat+0x38>
/home/lubuntu/Dokument/GitHub/STM32-Computer/Firmware/STM32-Computer-Firmware/CA7/optee-os-3.19.0-r2/optee-os-stm32mp-3.19.0-stm32mp-r2/ldelf/ta_elf.c:1770
    1fa0:	f8d3 8008 	ldr.w	r8, [r3, #8]
/home/lubuntu/Dokument/GitHub/STM32-Computer/Firmware/STM32-Computer-Firmware/CA7/optee-os-3.19.0-r2/optee-os-stm32mp-3.19.0-stm32mp-r2/ldelf/ta_elf.c:1772
    1fa4:	f858 3004 	ldr.w	r3, [r8, r4]
/home/lubuntu/Dokument/GitHub/STM32-Computer/Firmware/STM32-Computer-Firmware/CA7/optee-os-3.19.0-r2/optee-os-stm32mp-3.19.0-stm32mp-r2/ldelf/ta_elf.c:1770
    1fa8:	eb08 0904 	add.w	r9, r8, r4
/home/lubuntu/Dokument/GitHub/STM32-Computer/Firmware/STM32-Computer-Firmware/CA7/optee-os-3.19.0-r2/optee-os-stm32mp-3.19.0-stm32mp-r2/ldelf/ta_elf.c:1772
    1fac:	07db      	lsls	r3, r3, #31
    1fae:	d419      	bmi.n	1fe4 <ta_elf_set_init_fini_info_compat+0x144>
/home/lubuntu/Dokument/GitHub/STM32-Computer/Firmware/STM32-Computer-Firmware/CA7/optee-os-3.19.0-r2/optee-os-stm32mp-3.19.0-stm32mp-r2/ldelf/ta_elf.c:1775
    1fb0:	ab07      	add	r3, sp, #28
    1fb2:	465a      	mov	r2, fp
    1fb4:	9300      	str	r3, [sp, #0]
    1fb6:	a908      	add	r1, sp, #32
    1fb8:	9b03      	ldr	r3, [sp, #12]
    1fba:	4650      	mov	r0, sl
    1fbc:	f002 f86b 	bl	4096 <elf_get_init_fini_array.constprop.0>
/home/lubuntu/Dokument/GitHub/STM32-Computer/Firmware/STM32-Computer-Firmware/CA7/optee-os-3.19.0-r2/optee-os-stm32mp-3.19.0-stm32mp-r2/ldelf/ta_elf.c:1778
    1fc0:	9b08      	ldr	r3, [sp, #32]
    1fc2:	f8c9 3008 	str.w	r3, [r9, #8]
/home/lubuntu/Dokument/GitHub/STM32-Computer/Firmware/STM32-Computer-Firmware/CA7/optee-os-3.19.0-r2/optee-os-stm32mp-3.19.0-stm32mp-r2/ldelf/ta_elf.c:1779
    1fc6:	9b06      	ldr	r3, [sp, #24]
    1fc8:	f8a9 3004 	strh.w	r3, [r9, #4]
/home/lubuntu/Dokument/GitHub/STM32-Computer/Firmware/STM32-Computer-Firmware/CA7/optee-os-3.19.0-r2/optee-os-stm32mp-3.19.0-stm32mp-r2/ldelf/ta_elf.c:1781
    1fcc:	9b09      	ldr	r3, [sp, #36]	@ 0x24
    1fce:	f8c9 300c 	str.w	r3, [r9, #12]
/home/lubuntu/Dokument/GitHub/STM32-Computer/Firmware/STM32-Computer-Firmware/CA7/optee-os-3.19.0-r2/optee-os-stm32mp-3.19.0-stm32mp-r2/ldelf/ta_elf.c:1782
    1fd2:	9b07      	ldr	r3, [sp, #28]
    1fd4:	f8a9 3006 	strh.w	r3, [r9, #6]
/home/lubuntu/Dokument/GitHub/STM32-Computer/Firmware/STM32-Computer-Firmware/CA7/optee-os-3.19.0-r2/optee-os-stm32mp-3.19.0-stm32mp-r2/ldelf/ta_elf.c:1784
    1fd8:	f858 3004 	ldr.w	r3, [r8, r4]
    1fdc:	f043 0301 	orr.w	r3, r3, #1
    1fe0:	f848 3004 	str.w	r3, [r8, r4]
ta_elf_set_init_fini_info_compat():
/home/lubuntu/Dokument/GitHub/STM32-Computer/Firmware/STM32-Computer-Firmware/CA7/optee-os-3.19.0-r2/optee-os-stm32mp-3.19.0-stm32mp-r2/ldelf/ta_elf.c:1828
    1fe4:	f8da a09c 	ldr.w	sl, [sl, #156]	@ 0x9c
/home/lubuntu/Dokument/GitHub/STM32-Computer/Firmware/STM32-Computer-Firmware/CA7/optee-os-3.19.0-r2/optee-os-stm32mp-3.19.0-stm32mp-r2/ldelf/ta_elf.c:1830
    1fe8:	3601      	adds	r6, #1
/home/lubuntu/Dokument/GitHub/STM32-Computer/Firmware/STM32-Computer-Firmware/CA7/optee-os-3.19.0-r2/optee-os-stm32mp-3.19.0-stm32mp-r2/ldelf/ta_elf.c:1828
    1fea:	e7ac      	b.n	1f46 <ta_elf_set_init_fini_info_compat+0xa6>
/home/lubuntu/Dokument/GitHub/STM32-Computer/Firmware/STM32-Computer-Firmware/CA7/optee-os-3.19.0-r2/optee-os-stm32mp-3.19.0-stm32mp-r2/ldelf/ta_elf.c:1815
    1fec:	4802      	ldr	r0, [pc, #8]	@ (1ff8 <ta_elf_set_init_fini_info_compat+0x158>)
    1fee:	e768      	b.n	1ec2 <ta_elf_set_init_fini_info_compat+0x22>
    1ff0:	ffff0008 	.word	0xffff0008
    1ff4:	ffff000c 	.word	0xffff000c
    1ff8:	ffff000a 	.word	0xffff000a
    1ffc:	00002ef7 	.word	0x00002ef7
    2000:	00002fcb 	.word	0x00002fcb
    2004:	00002ee0 	.word	0x00002ee0
    2008:	000041bc 	.word	0x000041bc
    200c:	00002fa1 	.word	0x00002fa1
    2010:	00002ebe 	.word	0x00002ebe
    2014:	0000416c 	.word	0x0000416c
    2018:	00002f2e 	.word	0x00002f2e
    201c:	00002e58 	.word	0x00002e58
    2020:	00002efc 	.word	0x00002efc
    2024:	00002e39 	.word	0x00002e39

00002028 <ta_elf_set_elf_phdr_info>:
ta_elf_set_elf_phdr_info():
/home/lubuntu/Dokument/GitHub/STM32-Computer/Firmware/STM32-Computer-Firmware/CA7/optee-os-3.19.0-r2/optee-os-stm32mp-3.19.0-stm32mp-r2/ldelf/ta_elf.c:1919
    2028:	e92d 4ff7 	stmdb	sp!, {r0, r1, r2, r4, r5, r6, r7, r8, r9, sl, fp, lr}
    202c:	4605      	mov	r5, r0
/home/lubuntu/Dokument/GitHub/STM32-Computer/Firmware/STM32-Computer-Firmware/CA7/optee-os-3.19.0-r2/optee-os-stm32mp-3.19.0-stm32mp-r2/ldelf/ta_elf.c:1926
    202e:	4850      	ldr	r0, [pc, #320]	@ (2170 <ta_elf_set_elf_phdr_info+0x148>)
/home/lubuntu/Dokument/GitHub/STM32-Computer/Firmware/STM32-Computer-Firmware/CA7/optee-os-3.19.0-r2/optee-os-stm32mp-3.19.0-stm32mp-r2/ldelf/ta_elf.c:1923
    2030:	2300      	movs	r3, #0
    2032:	9301      	str	r3, [sp, #4]
/home/lubuntu/Dokument/GitHub/STM32-Computer/Firmware/STM32-Computer-Firmware/CA7/optee-os-3.19.0-r2/optee-os-stm32mp-3.19.0-stm32mp-r2/ldelf/ta_elf.c:1926
    2034:	461a      	mov	r2, r3
    2036:	4478      	add	r0, pc
    2038:	a901      	add	r1, sp, #4
    203a:	f000 fb15 	bl	2668 <ta_elf_resolve_sym>
/home/lubuntu/Dokument/GitHub/STM32-Computer/Firmware/STM32-Computer-Firmware/CA7/optee-os-3.19.0-r2/optee-os-stm32mp-3.19.0-stm32mp-r2/ldelf/ta_elf.c:1927
    203e:	b130      	cbz	r0, 204e <ta_elf_set_elf_phdr_info+0x26>
/home/lubuntu/Dokument/GitHub/STM32-Computer/Firmware/STM32-Computer-Firmware/CA7/optee-os-3.19.0-r2/optee-os-stm32mp-3.19.0-stm32mp-r2/ldelf/ta_elf.c:1928
    2040:	4b48      	ldr	r3, [pc, #288]	@ (2164 <ta_elf_set_elf_phdr_info+0x13c>)
    2042:	4298      	cmp	r0, r3
    2044:	d100      	bne.n	2048 <ta_elf_set_elf_phdr_info+0x20>
/home/lubuntu/Dokument/GitHub/STM32-Computer/Firmware/STM32-Computer-Firmware/CA7/optee-os-3.19.0-r2/optee-os-stm32mp-3.19.0-stm32mp-r2/ldelf/ta_elf.c:1930
    2046:	2000      	movs	r0, #0
/home/lubuntu/Dokument/GitHub/STM32-Computer/Firmware/STM32-Computer-Firmware/CA7/optee-os-3.19.0-r2/optee-os-stm32mp-3.19.0-stm32mp-r2/ldelf/ta_elf.c:1954
    2048:	b003      	add	sp, #12
    204a:	e8bd 8ff0 	ldmia.w	sp!, {r4, r5, r6, r7, r8, r9, sl, fp, pc}
/home/lubuntu/Dokument/GitHub/STM32-Computer/Firmware/STM32-Computer-Firmware/CA7/optee-os-3.19.0-r2/optee-os-stm32mp-3.19.0-stm32mp-r2/ldelf/ta_elf.c:1934
    204e:	9e01      	ldr	r6, [sp, #4]
    2050:	b93e      	cbnz	r6, 2062 <ta_elf_set_elf_phdr_info+0x3a>
/home/lubuntu/Dokument/GitHub/STM32-Computer/Firmware/STM32-Computer-Firmware/CA7/optee-os-3.19.0-r2/optee-os-stm32mp-3.19.0-stm32mp-r2/ldelf/ta_elf.c:1934 (discriminator 1)
    2052:	4a48      	ldr	r2, [pc, #288]	@ (2174 <ta_elf_set_elf_phdr_info+0x14c>)
    2054:	f240 718e 	movw	r1, #1934	@ 0x78e
    2058:	4847      	ldr	r0, [pc, #284]	@ (2178 <ta_elf_set_elf_phdr_info+0x150>)
    205a:	447a      	add	r2, pc
    205c:	4478      	add	r0, pc
fill_elf_phdr_info():
/home/lubuntu/Dokument/GitHub/STM32-Computer/Firmware/STM32-Computer-Firmware/CA7/optee-os-3.19.0-r2/optee-os-stm32mp-3.19.0-stm32mp-r2/ldelf/ta_elf.c:1885
    205e:	f7fe fc5d 	bl	91c <_assert_trap.constprop.0>
ta_elf_set_elf_phdr_info():
/home/lubuntu/Dokument/GitHub/STM32-Computer/Firmware/STM32-Computer-Firmware/CA7/optee-os-3.19.0-r2/optee-os-stm32mp-3.19.0-stm32mp-r2/ldelf/ta_elf.c:1937
    2062:	6834      	ldr	r4, [r6, #0]
    2064:	2c00      	cmp	r4, #0
    2066:	d17a      	bne.n	215e <ta_elf_set_elf_phdr_info+0x136>
/home/lubuntu/Dokument/GitHub/STM32-Computer/Firmware/STM32-Computer-Firmware/CA7/optee-os-3.19.0-r2/optee-os-stm32mp-3.19.0-stm32mp-r2/ldelf/ta_elf.c:1940
    2068:	4b44      	ldr	r3, [pc, #272]	@ (217c <ta_elf_set_elf_phdr_info+0x154>)
/home/lubuntu/Dokument/GitHub/STM32-Computer/Firmware/STM32-Computer-Firmware/CA7/optee-os-3.19.0-r2/optee-os-stm32mp-3.19.0-stm32mp-r2/ldelf/ta_elf.c:1924
    206a:	4627      	mov	r7, r4
/home/lubuntu/Dokument/GitHub/STM32-Computer/Firmware/STM32-Computer-Firmware/CA7/optee-os-3.19.0-r2/optee-os-stm32mp-3.19.0-stm32mp-r2/ldelf/ta_elf.c:1940
    206c:	447b      	add	r3, pc
    206e:	f8d3 a000 	ldr.w	sl, [r3]
/home/lubuntu/Dokument/GitHub/STM32-Computer/Firmware/STM32-Computer-Firmware/CA7/optee-os-3.19.0-r2/optee-os-stm32mp-3.19.0-stm32mp-r2/ldelf/ta_elf.c:1940 (discriminator 1)
    2072:	f1ba 0f00 	cmp.w	sl, #0
    2076:	d10b      	bne.n	2090 <ta_elf_set_elf_phdr_info+0x68>
realloc_elf_phdr_info():
/home/lubuntu/Dokument/GitHub/STM32-Computer/Firmware/STM32-Computer-Firmware/CA7/optee-os-3.19.0-r2/optee-os-stm32mp-3.19.0-stm32mp-r2/ldelf/ta_elf.c:1849
    2078:	68b0      	ldr	r0, [r6, #8]
/home/lubuntu/Dokument/GitHub/STM32-Computer/Firmware/STM32-Computer-Firmware/CA7/optee-os-3.19.0-r2/optee-os-stm32mp-3.19.0-stm32mp-r2/ldelf/ta_elf.c:1850
    207a:	f04f 0928 	mov.w	r9, #40	@ 0x28
    207e:	fb09 f107 	mul.w	r1, r9, r7
/home/lubuntu/Dokument/GitHub/STM32-Computer/Firmware/STM32-Computer-Firmware/CA7/optee-os-3.19.0-r2/optee-os-stm32mp-3.19.0-stm32mp-r2/ldelf/ta_elf.c:1848
    2082:	b395      	cbz	r5, 20ea <ta_elf_set_elf_phdr_info+0xc2>
/home/lubuntu/Dokument/GitHub/STM32-Computer/Firmware/STM32-Computer-Firmware/CA7/optee-os-3.19.0-r2/optee-os-stm32mp-3.19.0-stm32mp-r2/ldelf/ta_elf.c:1850
    2084:	f001 fb08 	bl	3698 <realloc>
/home/lubuntu/Dokument/GitHub/STM32-Computer/Firmware/STM32-Computer-Firmware/CA7/optee-os-3.19.0-r2/optee-os-stm32mp-3.19.0-stm32mp-r2/ldelf/ta_elf.c:1851
    2088:	4680      	mov	r8, r0
    208a:	b928      	cbnz	r0, 2098 <ta_elf_set_elf_phdr_info+0x70>
/home/lubuntu/Dokument/GitHub/STM32-Computer/Firmware/STM32-Computer-Firmware/CA7/optee-os-3.19.0-r2/optee-os-stm32mp-3.19.0-stm32mp-r2/ldelf/ta_elf.c:1852
    208c:	4836      	ldr	r0, [pc, #216]	@ (2168 <ta_elf_set_elf_phdr_info+0x140>)
    208e:	e7db      	b.n	2048 <ta_elf_set_elf_phdr_info+0x20>
ta_elf_set_elf_phdr_info():
/home/lubuntu/Dokument/GitHub/STM32-Computer/Firmware/STM32-Computer-Firmware/CA7/optee-os-3.19.0-r2/optee-os-stm32mp-3.19.0-stm32mp-r2/ldelf/ta_elf.c:1940 (discriminator 3)
    2090:	f8da a09c 	ldr.w	sl, [sl, #156]	@ 0x9c
/home/lubuntu/Dokument/GitHub/STM32-Computer/Firmware/STM32-Computer-Firmware/CA7/optee-os-3.19.0-r2/optee-os-stm32mp-3.19.0-stm32mp-r2/ldelf/ta_elf.c:1941 (discriminator 3)
    2094:	3701      	adds	r7, #1
/home/lubuntu/Dokument/GitHub/STM32-Computer/Firmware/STM32-Computer-Firmware/CA7/optee-os-3.19.0-r2/optee-os-stm32mp-3.19.0-stm32mp-r2/ldelf/ta_elf.c:1940 (discriminator 3)
    2096:	e7ec      	b.n	2072 <ta_elf_set_elf_phdr_info+0x4a>
realloc_elf_phdr_info():
/home/lubuntu/Dokument/GitHub/STM32-Computer/Firmware/STM32-Computer-Firmware/CA7/optee-os-3.19.0-r2/optee-os-stm32mp-3.19.0-stm32mp-r2/ldelf/ta_elf.c:1854
    2098:	88b0      	ldrh	r0, [r6, #4]
/home/lubuntu/Dokument/GitHub/STM32-Computer/Firmware/STM32-Computer-Firmware/CA7/optee-os-3.19.0-r2/optee-os-stm32mp-3.19.0-stm32mp-r2/ldelf/ta_elf.c:1855
    209a:	4287      	cmp	r7, r0
    209c:	d907      	bls.n	20ae <ta_elf_set_elf_phdr_info+0x86>
/home/lubuntu/Dokument/GitHub/STM32-Computer/Firmware/STM32-Computer-Firmware/CA7/optee-os-3.19.0-r2/optee-os-stm32mp-3.19.0-stm32mp-r2/ldelf/ta_elf.c:1857
    209e:	1a3a      	subs	r2, r7, r0
/home/lubuntu/Dokument/GitHub/STM32-Computer/Firmware/STM32-Computer-Firmware/CA7/optee-os-3.19.0-r2/optee-os-stm32mp-3.19.0-stm32mp-r2/ldelf/ta_elf.c:1856
    20a0:	4651      	mov	r1, sl
    20a2:	fb09 f202 	mul.w	r2, r9, r2
/home/lubuntu/Dokument/GitHub/STM32-Computer/Firmware/STM32-Computer-Firmware/CA7/optee-os-3.19.0-r2/optee-os-stm32mp-3.19.0-stm32mp-r2/ldelf/ta_elf.c:1867
    20a6:	fb09 8000 	mla	r0, r9, r0, r8
    20aa:	f002 f94b 	bl	4344 <memset>
ta_elf_set_elf_phdr_info():
/home/lubuntu/Dokument/GitHub/STM32-Computer/Firmware/STM32-Computer-Firmware/CA7/optee-os-3.19.0-r2/optee-os-stm32mp-3.19.0-stm32mp-r2/ldelf/ta_elf.c:1948
    20ae:	4b34      	ldr	r3, [pc, #208]	@ (2180 <ta_elf_set_elf_phdr_info+0x158>)
    20b0:	f04f 0928 	mov.w	r9, #40	@ 0x28
realloc_elf_phdr_info():
/home/lubuntu/Dokument/GitHub/STM32-Computer/Firmware/STM32-Computer-Firmware/CA7/optee-os-3.19.0-r2/optee-os-stm32mp-3.19.0-stm32mp-r2/ldelf/ta_elf.c:1869
    20b4:	f8c6 8008 	str.w	r8, [r6, #8]
fill_elf_phdr_info():
/home/lubuntu/Dokument/GitHub/STM32-Computer/Firmware/STM32-Computer-Firmware/CA7/optee-os-3.19.0-r2/optee-os-stm32mp-3.19.0-stm32mp-r2/ldelf/ta_elf.c:1910
    20b8:	2001      	movs	r0, #1
ta_elf_set_elf_phdr_info():
/home/lubuntu/Dokument/GitHub/STM32-Computer/Firmware/STM32-Computer-Firmware/CA7/optee-os-3.19.0-r2/optee-os-stm32mp-3.19.0-stm32mp-r2/ldelf/ta_elf.c:1948
    20ba:	447b      	add	r3, pc
fill_elf_phdr_info():
/home/lubuntu/Dokument/GitHub/STM32-Computer/Firmware/STM32-Computer-Firmware/CA7/optee-os-3.19.0-r2/optee-os-stm32mp-3.19.0-stm32mp-r2/ldelf/ta_elf.c:1910
    20bc:	2100      	movs	r1, #0
/home/lubuntu/Dokument/GitHub/STM32-Computer/Firmware/STM32-Computer-Firmware/CA7/optee-os-3.19.0-r2/optee-os-stm32mp-3.19.0-stm32mp-r2/ldelf/ta_elf.c:1879
    20be:	f8dd e004 	ldr.w	lr, [sp, #4]
realloc_elf_phdr_info():
/home/lubuntu/Dokument/GitHub/STM32-Computer/Firmware/STM32-Computer-Firmware/CA7/optee-os-3.19.0-r2/optee-os-stm32mp-3.19.0-stm32mp-r2/ldelf/ta_elf.c:1870
    20c2:	80b7      	strh	r7, [r6, #4]
fill_elf_phdr_info():
/home/lubuntu/Dokument/GitHub/STM32-Computer/Firmware/STM32-Computer-Firmware/CA7/optee-os-3.19.0-r2/optee-os-stm32mp-3.19.0-stm32mp-r2/ldelf/ta_elf.c:1911
    20c4:	2600      	movs	r6, #0
ta_elf_set_elf_phdr_info():
/home/lubuntu/Dokument/GitHub/STM32-Computer/Firmware/STM32-Computer-Firmware/CA7/optee-os-3.19.0-r2/optee-os-stm32mp-3.19.0-stm32mp-r2/ldelf/ta_elf.c:1948
    20c6:	681b      	ldr	r3, [r3, #0]
fill_elf_phdr_info():
/home/lubuntu/Dokument/GitHub/STM32-Computer/Firmware/STM32-Computer-Firmware/CA7/optee-os-3.19.0-r2/optee-os-stm32mp-3.19.0-stm32mp-r2/ldelf/ta_elf.c:1907
    20c8:	f10e 0807 	add.w	r8, lr, #7
/home/lubuntu/Dokument/GitHub/STM32-Computer/Firmware/STM32-Computer-Firmware/CA7/optee-os-3.19.0-r2/optee-os-stm32mp-3.19.0-stm32mp-r2/ldelf/ta_elf.c:1911
    20cc:	2700      	movs	r7, #0
ta_elf_set_elf_phdr_info():
/home/lubuntu/Dokument/GitHub/STM32-Computer/Firmware/STM32-Computer-Firmware/CA7/optee-os-3.19.0-r2/optee-os-stm32mp-3.19.0-stm32mp-r2/ldelf/ta_elf.c:1948 (discriminator 1)
    20ce:	2b00      	cmp	r3, #0
    20d0:	d0b9      	beq.n	2046 <ta_elf_set_elf_phdr_info+0x1e>
fill_elf_phdr_info():
/home/lubuntu/Dokument/GitHub/STM32-Computer/Firmware/STM32-Computer-Firmware/CA7/optee-os-3.19.0-r2/optee-os-stm32mp-3.19.0-stm32mp-r2/ldelf/ta_elf.c:1885 (discriminator 3)
    20d2:	f8be 2004 	ldrh.w	r2, [lr, #4]
/home/lubuntu/Dokument/GitHub/STM32-Computer/Firmware/STM32-Computer-Firmware/CA7/optee-os-3.19.0-r2/optee-os-stm32mp-3.19.0-stm32mp-r2/ldelf/ta_elf.c:1884 (discriminator 3)
    20d6:	b1ad      	cbz	r5, 2104 <ta_elf_set_elf_phdr_info+0xdc>
/home/lubuntu/Dokument/GitHub/STM32-Computer/Firmware/STM32-Computer-Firmware/CA7/optee-os-3.19.0-r2/optee-os-stm32mp-3.19.0-stm32mp-r2/ldelf/ta_elf.c:1885
    20d8:	4294      	cmp	r4, r2
    20da:	d31c      	bcc.n	2116 <ta_elf_set_elf_phdr_info+0xee>
    20dc:	4a29      	ldr	r2, [pc, #164]	@ (2184 <ta_elf_set_elf_phdr_info+0x15c>)
    20de:	f240 715d 	movw	r1, #1885	@ 0x75d
    20e2:	4829      	ldr	r0, [pc, #164]	@ (2188 <ta_elf_set_elf_phdr_info+0x160>)
    20e4:	447a      	add	r2, pc
    20e6:	4478      	add	r0, pc
    20e8:	e7b9      	b.n	205e <ta_elf_set_elf_phdr_info+0x36>
realloc_elf_phdr_info():
/home/lubuntu/Dokument/GitHub/STM32-Computer/Firmware/STM32-Computer-Firmware/CA7/optee-os-3.19.0-r2/optee-os-stm32mp-3.19.0-stm32mp-r2/ldelf/ta_elf.c:1861
    20ea:	f001 fad5 	bl	3698 <realloc>
/home/lubuntu/Dokument/GitHub/STM32-Computer/Firmware/STM32-Computer-Firmware/CA7/optee-os-3.19.0-r2/optee-os-stm32mp-3.19.0-stm32mp-r2/ldelf/ta_elf.c:1862
    20ee:	4680      	mov	r8, r0
    20f0:	2800      	cmp	r0, #0
    20f2:	d0cb      	beq.n	208c <ta_elf_set_elf_phdr_info+0x64>
/home/lubuntu/Dokument/GitHub/STM32-Computer/Firmware/STM32-Computer-Firmware/CA7/optee-os-3.19.0-r2/optee-os-stm32mp-3.19.0-stm32mp-r2/ldelf/ta_elf.c:1865
    20f4:	88b0      	ldrh	r0, [r6, #4]
/home/lubuntu/Dokument/GitHub/STM32-Computer/Firmware/STM32-Computer-Firmware/CA7/optee-os-3.19.0-r2/optee-os-stm32mp-3.19.0-stm32mp-r2/ldelf/ta_elf.c:1866
    20f6:	4287      	cmp	r7, r0
    20f8:	d9d9      	bls.n	20ae <ta_elf_set_elf_phdr_info+0x86>
/home/lubuntu/Dokument/GitHub/STM32-Computer/Firmware/STM32-Computer-Firmware/CA7/optee-os-3.19.0-r2/optee-os-stm32mp-3.19.0-stm32mp-r2/ldelf/ta_elf.c:1868
    20fa:	1a3a      	subs	r2, r7, r0
/home/lubuntu/Dokument/GitHub/STM32-Computer/Firmware/STM32-Computer-Firmware/CA7/optee-os-3.19.0-r2/optee-os-stm32mp-3.19.0-stm32mp-r2/ldelf/ta_elf.c:1867
    20fc:	4629      	mov	r1, r5
    20fe:	fb09 f202 	mul.w	r2, r9, r2
    2102:	e7d0      	b.n	20a6 <ta_elf_set_elf_phdr_info+0x7e>
fill_elf_phdr_info():
/home/lubuntu/Dokument/GitHub/STM32-Computer/Firmware/STM32-Computer-Firmware/CA7/optee-os-3.19.0-r2/optee-os-stm32mp-3.19.0-stm32mp-r2/ldelf/ta_elf.c:1900
    2104:	4294      	cmp	r4, r2
    2106:	d306      	bcc.n	2116 <ta_elf_set_elf_phdr_info+0xee>
    2108:	4a20      	ldr	r2, [pc, #128]	@ (218c <ta_elf_set_elf_phdr_info+0x164>)
    210a:	f240 716c 	movw	r1, #1900	@ 0x76c
    210e:	4820      	ldr	r0, [pc, #128]	@ (2190 <ta_elf_set_elf_phdr_info+0x168>)
    2110:	447a      	add	r2, pc
    2112:	4478      	add	r0, pc
    2114:	e7a3      	b.n	205e <ta_elf_set_elf_phdr_info+0x36>
/home/lubuntu/Dokument/GitHub/STM32-Computer/Firmware/STM32-Computer-Firmware/CA7/optee-os-3.19.0-r2/optee-os-stm32mp-3.19.0-stm32mp-r2/ldelf/ta_elf.c:1901
    2116:	f8de 2008 	ldr.w	r2, [lr, #8]
/home/lubuntu/Dokument/GitHub/STM32-Computer/Firmware/STM32-Computer-Firmware/CA7/optee-os-3.19.0-r2/optee-os-stm32mp-3.19.0-stm32mp-r2/ldelf/ta_elf.c:1903
    211a:	f8d3 b004 	ldr.w	fp, [r3, #4]
/home/lubuntu/Dokument/GitHub/STM32-Computer/Firmware/STM32-Computer-Firmware/CA7/optee-os-3.19.0-r2/optee-os-stm32mp-3.19.0-stm32mp-r2/ldelf/ta_elf.c:1901
    211e:	fb09 fa04 	mul.w	sl, r9, r4
ta_elf_set_elf_phdr_info():
/home/lubuntu/Dokument/GitHub/STM32-Computer/Firmware/STM32-Computer-Firmware/CA7/optee-os-3.19.0-r2/optee-os-stm32mp-3.19.0-stm32mp-r2/ldelf/ta_elf.c:1950
    2122:	3401      	adds	r4, #1
fill_elf_phdr_info():
/home/lubuntu/Dokument/GitHub/STM32-Computer/Firmware/STM32-Computer-Firmware/CA7/optee-os-3.19.0-r2/optee-os-stm32mp-3.19.0-stm32mp-r2/ldelf/ta_elf.c:1903
    2124:	f842 b00a 	str.w	fp, [r2, sl]
/home/lubuntu/Dokument/GitHub/STM32-Computer/Firmware/STM32-Computer-Firmware/CA7/optee-os-3.19.0-r2/optee-os-stm32mp-3.19.0-stm32mp-r2/ldelf/ta_elf.c:1901
    2128:	eb02 0c0a 	add.w	ip, r2, sl
/home/lubuntu/Dokument/GitHub/STM32-Computer/Firmware/STM32-Computer-Firmware/CA7/optee-os-3.19.0-r2/optee-os-stm32mp-3.19.0-stm32mp-r2/ldelf/ta_elf.c:1904
    212c:	6d5a      	ldr	r2, [r3, #84]	@ 0x54
/home/lubuntu/Dokument/GitHub/STM32-Computer/Firmware/STM32-Computer-Firmware/CA7/optee-os-3.19.0-r2/optee-os-stm32mp-3.19.0-stm32mp-r2/ldelf/ta_elf.c:1907
    212e:	2a00      	cmp	r2, #0
    2130:	bf08      	it	eq
    2132:	4642      	moveq	r2, r8
    2134:	f8cc 2004 	str.w	r2, [ip, #4]
/home/lubuntu/Dokument/GitHub/STM32-Computer/Firmware/STM32-Computer-Firmware/CA7/optee-os-3.19.0-r2/optee-os-stm32mp-3.19.0-stm32mp-r2/ldelf/ta_elf.c:1908
    2138:	6b1a      	ldr	r2, [r3, #48]	@ 0x30
    213a:	f8cc 2008 	str.w	r2, [ip, #8]
/home/lubuntu/Dokument/GitHub/STM32-Computer/Firmware/STM32-Computer-Firmware/CA7/optee-os-3.19.0-r2/optee-os-stm32mp-3.19.0-stm32mp-r2/ldelf/ta_elf.c:1909
    213e:	6a1a      	ldr	r2, [r3, #32]
/home/lubuntu/Dokument/GitHub/STM32-Computer/Firmware/STM32-Computer-Firmware/CA7/optee-os-3.19.0-r2/optee-os-stm32mp-3.19.0-stm32mp-r2/ldelf/ta_elf.c:1910
    2140:	e9cc 0104 	strd	r0, r1, [ip, #16]
/home/lubuntu/Dokument/GitHub/STM32-Computer/Firmware/STM32-Computer-Firmware/CA7/optee-os-3.19.0-r2/optee-os-stm32mp-3.19.0-stm32mp-r2/ldelf/ta_elf.c:1909
    2144:	f8ac 200c 	strh.w	r2, [ip, #12]
/home/lubuntu/Dokument/GitHub/STM32-Computer/Firmware/STM32-Computer-Firmware/CA7/optee-os-3.19.0-r2/optee-os-stm32mp-3.19.0-stm32mp-r2/ldelf/ta_elf.c:1912
    2148:	6e9a      	ldr	r2, [r3, #104]	@ 0x68
/home/lubuntu/Dokument/GitHub/STM32-Computer/Firmware/STM32-Computer-Firmware/CA7/optee-os-3.19.0-r2/optee-os-stm32mp-3.19.0-stm32mp-r2/ldelf/ta_elf.c:1911
    214a:	e9cc 6706 	strd	r6, r7, [ip, #24]
/home/lubuntu/Dokument/GitHub/STM32-Computer/Firmware/STM32-Computer-Firmware/CA7/optee-os-3.19.0-r2/optee-os-stm32mp-3.19.0-stm32mp-r2/ldelf/ta_elf.c:1912
    214e:	f8cc 2020 	str.w	r2, [ip, #32]
/home/lubuntu/Dokument/GitHub/STM32-Computer/Firmware/STM32-Computer-Firmware/CA7/optee-os-3.19.0-r2/optee-os-stm32mp-3.19.0-stm32mp-r2/ldelf/ta_elf.c:1913
    2152:	6eda      	ldr	r2, [r3, #108]	@ 0x6c
    2154:	f8cc 2024 	str.w	r2, [ip, #36]	@ 0x24
ta_elf_set_elf_phdr_info():
/home/lubuntu/Dokument/GitHub/STM32-Computer/Firmware/STM32-Computer-Firmware/CA7/optee-os-3.19.0-r2/optee-os-stm32mp-3.19.0-stm32mp-r2/ldelf/ta_elf.c:1948
    2158:	f8d3 309c 	ldr.w	r3, [r3, #156]	@ 0x9c
    215c:	e7b7      	b.n	20ce <ta_elf_set_elf_phdr_info+0xa6>
/home/lubuntu/Dokument/GitHub/STM32-Computer/Firmware/STM32-Computer-Firmware/CA7/optee-os-3.19.0-r2/optee-os-stm32mp-3.19.0-stm32mp-r2/ldelf/ta_elf.c:1938
    215e:	4803      	ldr	r0, [pc, #12]	@ (216c <ta_elf_set_elf_phdr_info+0x144>)
    2160:	e772      	b.n	2048 <ta_elf_set_elf_phdr_info+0x20>
    2162:	bf00      	nop
    2164:	ffff0008 	.word	0xffff0008
    2168:	ffff000c 	.word	0xffff000c
    216c:	ffff000a 	.word	0xffff000a
    2170:	00002db0 	.word	0x00002db0
    2174:	00002e0f 	.word	0x00002e0f
    2178:	00002d5a 	.word	0x00002d5a
    217c:	00004038 	.word	0x00004038
    2180:	00003fea 	.word	0x00003fea
    2184:	00002d72 	.word	0x00002d72
    2188:	00002d10 	.word	0x00002d10
    218c:	00002d46 	.word	0x00002d46
    2190:	00002cf8 	.word	0x00002cf8

00002194 <ta_elf_finalize_load_main>:
ta_elf_finalize_load_main():
/home/lubuntu/Dokument/GitHub/STM32-Computer/Firmware/STM32-Computer-Firmware/CA7/optee-os-3.19.0-r2/optee-os-stm32mp-3.19.0-stm32mp-r2/ldelf/ta_elf.c:1246
    2194:	4b1f      	ldr	r3, [pc, #124]	@ (2214 <ta_elf_finalize_load_main+0x80>)
/home/lubuntu/Dokument/GitHub/STM32-Computer/Firmware/STM32-Computer-Firmware/CA7/optee-os-3.19.0-r2/optee-os-stm32mp-3.19.0-stm32mp-r2/ldelf/ta_elf.c:1245
    2196:	b573      	push	{r0, r1, r4, r5, r6, lr}
    2198:	4605      	mov	r5, r0
/home/lubuntu/Dokument/GitHub/STM32-Computer/Firmware/STM32-Computer-Firmware/CA7/optee-os-3.19.0-r2/optee-os-stm32mp-3.19.0-stm32mp-r2/ldelf/ta_elf.c:1246
    219a:	447b      	add	r3, pc
    219c:	681c      	ldr	r4, [r3, #0]
/home/lubuntu/Dokument/GitHub/STM32-Computer/Firmware/STM32-Computer-Firmware/CA7/optee-os-3.19.0-r2/optee-os-stm32mp-3.19.0-stm32mp-r2/ldelf/ta_elf.c:1249
    219e:	7823      	ldrb	r3, [r4, #0]
    21a0:	b93b      	cbnz	r3, 21b2 <ta_elf_finalize_load_main+0x1e>
/home/lubuntu/Dokument/GitHub/STM32-Computer/Firmware/STM32-Computer-Firmware/CA7/optee-os-3.19.0-r2/optee-os-stm32mp-3.19.0-stm32mp-r2/ldelf/ta_elf.c:1249 (discriminator 1)
    21a2:	4a1d      	ldr	r2, [pc, #116]	@ (2218 <ta_elf_finalize_load_main+0x84>)
    21a4:	f240 41e1 	movw	r1, #1249	@ 0x4e1
    21a8:	481c      	ldr	r0, [pc, #112]	@ (221c <ta_elf_finalize_load_main+0x88>)
    21aa:	447a      	add	r2, pc
    21ac:	4478      	add	r0, pc
    21ae:	f7fe fbb5 	bl	91c <_assert_trap.constprop.0>
/home/lubuntu/Dokument/GitHub/STM32-Computer/Firmware/STM32-Computer-Firmware/CA7/optee-os-3.19.0-r2/optee-os-stm32mp-3.19.0-stm32mp-r2/ldelf/ta_elf.c:1251
    21b2:	7860      	ldrb	r0, [r4, #1]
    21b4:	f7ff fe74 	bl	1ea0 <ta_elf_set_init_fini_info_compat>
/home/lubuntu/Dokument/GitHub/STM32-Computer/Firmware/STM32-Computer-Firmware/CA7/optee-os-3.19.0-r2/optee-os-stm32mp-3.19.0-stm32mp-r2/ldelf/ta_elf.c:1252
    21b8:	4606      	mov	r6, r0
    21ba:	b168      	cbz	r0, 21d8 <ta_elf_finalize_load_main+0x44>
/home/lubuntu/Dokument/GitHub/STM32-Computer/Firmware/STM32-Computer-Firmware/CA7/optee-os-3.19.0-r2/optee-os-stm32mp-3.19.0-stm32mp-r2/ldelf/ta_elf.c:1253
    21bc:	4b18      	ldr	r3, [pc, #96]	@ (2220 <ta_elf_finalize_load_main+0x8c>)
    21be:	f240 41e5 	movw	r1, #1253	@ 0x4e5
    21c2:	4818      	ldr	r0, [pc, #96]	@ (2224 <ta_elf_finalize_load_main+0x90>)
    21c4:	447b      	add	r3, pc
    21c6:	9300      	str	r3, [sp, #0]
    21c8:	2301      	movs	r3, #1
    21ca:	4478      	add	r0, pc
    21cc:	461a      	mov	r2, r3
/home/lubuntu/Dokument/GitHub/STM32-Computer/Firmware/STM32-Computer-Firmware/CA7/optee-os-3.19.0-r2/optee-os-stm32mp-3.19.0-stm32mp-r2/ldelf/ta_elf.c:1256
    21ce:	f002 f973 	bl	44b8 <trace_printf>
    21d2:	4630      	mov	r0, r6
    21d4:	f7fd ef50 	blx	78 <_ldelf_return>
/home/lubuntu/Dokument/GitHub/STM32-Computer/Firmware/STM32-Computer-Firmware/CA7/optee-os-3.19.0-r2/optee-os-stm32mp-3.19.0-stm32mp-r2/ldelf/ta_elf.c:1254
    21d8:	7860      	ldrb	r0, [r4, #1]
    21da:	f7ff ff25 	bl	2028 <ta_elf_set_elf_phdr_info>
/home/lubuntu/Dokument/GitHub/STM32-Computer/Firmware/STM32-Computer-Firmware/CA7/optee-os-3.19.0-r2/optee-os-stm32mp-3.19.0-stm32mp-r2/ldelf/ta_elf.c:1255
    21de:	4606      	mov	r6, r0
    21e0:	b148      	cbz	r0, 21f6 <ta_elf_finalize_load_main+0x62>
/home/lubuntu/Dokument/GitHub/STM32-Computer/Firmware/STM32-Computer-Firmware/CA7/optee-os-3.19.0-r2/optee-os-stm32mp-3.19.0-stm32mp-r2/ldelf/ta_elf.c:1256
    21e2:	4b11      	ldr	r3, [pc, #68]	@ (2228 <ta_elf_finalize_load_main+0x94>)
    21e4:	f44f 619d 	mov.w	r1, #1256	@ 0x4e8
    21e8:	4810      	ldr	r0, [pc, #64]	@ (222c <ta_elf_finalize_load_main+0x98>)
    21ea:	447b      	add	r3, pc
    21ec:	9300      	str	r3, [sp, #0]
    21ee:	2301      	movs	r3, #1
    21f0:	4478      	add	r0, pc
    21f2:	461a      	mov	r2, r3
    21f4:	e7eb      	b.n	21ce <ta_elf_finalize_load_main+0x3a>
/home/lubuntu/Dokument/GitHub/STM32-Computer/Firmware/STM32-Computer-Firmware/CA7/optee-os-3.19.0-r2/optee-os-stm32mp-3.19.0-stm32mp-r2/ldelf/ta_elf.c:1258
    21f6:	78a3      	ldrb	r3, [r4, #2]
    21f8:	b13b      	cbz	r3, 220a <ta_elf_finalize_load_main+0x76>
/home/lubuntu/Dokument/GitHub/STM32-Computer/Firmware/STM32-Computer-Firmware/CA7/optee-os-3.19.0-r2/optee-os-stm32mp-3.19.0-stm32mp-r2/ldelf/ta_elf.c:1259
    21fa:	f8d4 3088 	ldr.w	r3, [r4, #136]	@ 0x88
    21fe:	e9d3 2306 	ldrd	r2, r3, [r3, #24]
    2202:	e9c5 2300 	strd	r2, r3, [r5]
/home/lubuntu/Dokument/GitHub/STM32-Computer/Firmware/STM32-Computer-Firmware/CA7/optee-os-3.19.0-r2/optee-os-stm32mp-3.19.0-stm32mp-r2/ldelf/ta_elf.c:1262
    2206:	b002      	add	sp, #8
    2208:	bd70      	pop	{r4, r5, r6, pc}
/home/lubuntu/Dokument/GitHub/STM32-Computer/Firmware/STM32-Computer-Firmware/CA7/optee-os-3.19.0-r2/optee-os-stm32mp-3.19.0-stm32mp-r2/ldelf/ta_elf.c:1261
    220a:	6962      	ldr	r2, [r4, #20]
    220c:	6861      	ldr	r1, [r4, #4]
    220e:	440a      	add	r2, r1
    2210:	e7f7      	b.n	2202 <ta_elf_finalize_load_main+0x6e>
    2212:	bf00      	nop
    2214:	00003f0a 	.word	0x00003f0a
    2218:	00002d81 	.word	0x00002d81
    221c:	00002430 	.word	0x00002430
    2220:	00002c58 	.word	0x00002c58
    2224:	00002d61 	.word	0x00002d61
    2228:	00002c53 	.word	0x00002c53
    222c:	00002d3b 	.word	0x00002d3b

00002230 <ta_elf_add_library>:
ta_elf_add_library():
/home/lubuntu/Dokument/GitHub/STM32-Computer/Firmware/STM32-Computer-Firmware/CA7/optee-os-3.19.0-r2/optee-os-stm32mp-3.19.0-stm32mp-r2/ldelf/ta_elf.c:1549
    2230:	b5f0      	push	{r4, r5, r6, r7, lr}
    2232:	b085      	sub	sp, #20
    2234:	4604      	mov	r4, r0
/home/lubuntu/Dokument/GitHub/STM32-Computer/Firmware/STM32-Computer-Firmware/CA7/optee-os-3.19.0-r2/optee-os-stm32mp-3.19.0-stm32mp-r2/ldelf/ta_elf.c:1552
    2236:	f7ff fa03 	bl	1640 <ta_elf_find_elf>
/home/lubuntu/Dokument/GitHub/STM32-Computer/Firmware/STM32-Computer-Firmware/CA7/optee-os-3.19.0-r2/optee-os-stm32mp-3.19.0-stm32mp-r2/ldelf/ta_elf.c:1555
    223a:	2800      	cmp	r0, #0
    223c:	d13b      	bne.n	22b6 <ta_elf_add_library+0x86>
/home/lubuntu/Dokument/GitHub/STM32-Computer/Firmware/STM32-Computer-Firmware/CA7/optee-os-3.19.0-r2/optee-os-stm32mp-3.19.0-stm32mp-r2/ldelf/ta_elf.c:1551
    223e:	4b21      	ldr	r3, [pc, #132]	@ (22c4 <ta_elf_add_library+0x94>)
/home/lubuntu/Dokument/GitHub/STM32-Computer/Firmware/STM32-Computer-Firmware/CA7/optee-os-3.19.0-r2/optee-os-stm32mp-3.19.0-stm32mp-r2/ldelf/ta_elf.c:1558
    2240:	4620      	mov	r0, r4
/home/lubuntu/Dokument/GitHub/STM32-Computer/Firmware/STM32-Computer-Firmware/CA7/optee-os-3.19.0-r2/optee-os-stm32mp-3.19.0-stm32mp-r2/ldelf/ta_elf.c:1551
    2242:	447b      	add	r3, pc
    2244:	681e      	ldr	r6, [r3, #0]
/home/lubuntu/Dokument/GitHub/STM32-Computer/Firmware/STM32-Computer-Firmware/CA7/optee-os-3.19.0-r2/optee-os-stm32mp-3.19.0-stm32mp-r2/ldelf/ta_elf.c:1558
    2246:	f7fe f9a5 	bl	594 <queue_elf_helper>
/home/lubuntu/Dokument/GitHub/STM32-Computer/Firmware/STM32-Computer-Firmware/CA7/optee-os-3.19.0-r2/optee-os-stm32mp-3.19.0-stm32mp-r2/ldelf/ta_elf.c:1559
    224a:	4604      	mov	r4, r0
    224c:	2800      	cmp	r0, #0
    224e:	d035      	beq.n	22bc <ta_elf_add_library+0x8c>
    2250:	4605      	mov	r5, r0
/home/lubuntu/Dokument/GitHub/STM32-Computer/Firmware/STM32-Computer-Firmware/CA7/optee-os-3.19.0-r2/optee-os-stm32mp-3.19.0-stm32mp-r2/ldelf/ta_elf.c:1563 (discriminator 3)
    2252:	7871      	ldrb	r1, [r6, #1]
    2254:	4628      	mov	r0, r5
    2256:	f7ff fc59 	bl	1b0c <ta_elf_load_dependency>
/home/lubuntu/Dokument/GitHub/STM32-Computer/Firmware/STM32-Computer-Firmware/CA7/optee-os-3.19.0-r2/optee-os-stm32mp-3.19.0-stm32mp-r2/ldelf/ta_elf.c:1562 (discriminator 3)
    225a:	f8d5 509c 	ldr.w	r5, [r5, #156]	@ 0x9c
    225e:	2d00      	cmp	r5, #0
    2260:	d1f7      	bne.n	2252 <ta_elf_add_library+0x22>
    2262:	4625      	mov	r5, r4
/home/lubuntu/Dokument/GitHub/STM32-Computer/Firmware/STM32-Computer-Firmware/CA7/optee-os-3.19.0-r2/optee-os-stm32mp-3.19.0-stm32mp-r2/ldelf/ta_elf.c:1566 (discriminator 3)
    2264:	4628      	mov	r0, r5
    2266:	f000 fa73 	bl	2750 <ta_elf_relocate>
/home/lubuntu/Dokument/GitHub/STM32-Computer/Firmware/STM32-Computer-Firmware/CA7/optee-os-3.19.0-r2/optee-os-stm32mp-3.19.0-stm32mp-r2/ldelf/ta_elf.c:1567 (discriminator 3)
    226a:	4628      	mov	r0, r5
    226c:	f7ff fca2 	bl	1bb4 <ta_elf_finalize_mappings>
/home/lubuntu/Dokument/GitHub/STM32-Computer/Firmware/STM32-Computer-Firmware/CA7/optee-os-3.19.0-r2/optee-os-stm32mp-3.19.0-stm32mp-r2/ldelf/ta_elf.c:1565 (discriminator 3)
    2270:	f8d5 509c 	ldr.w	r5, [r5, #156]	@ 0x9c
    2274:	2d00      	cmp	r5, #0
    2276:	d1f5      	bne.n	2264 <ta_elf_add_library+0x34>
/home/lubuntu/Dokument/GitHub/STM32-Computer/Firmware/STM32-Computer-Firmware/CA7/optee-os-3.19.0-r2/optee-os-stm32mp-3.19.0-stm32mp-r2/ldelf/ta_elf.c:1571
    2278:	4d13      	ldr	r5, [pc, #76]	@ (22c8 <ta_elf_add_library+0x98>)
    227a:	4f14      	ldr	r7, [pc, #80]	@ (22cc <ta_elf_add_library+0x9c>)
    227c:	447d      	add	r5, pc
    227e:	447f      	add	r7, pc
/home/lubuntu/Dokument/GitHub/STM32-Computer/Firmware/STM32-Computer-Firmware/CA7/optee-os-3.19.0-r2/optee-os-stm32mp-3.19.0-stm32mp-r2/ldelf/ta_elf.c:1571 (discriminator 3)
    2280:	6863      	ldr	r3, [r4, #4]
    2282:	2203      	movs	r2, #3
    2284:	9700      	str	r7, [sp, #0]
    2286:	f240 6123 	movw	r1, #1571	@ 0x623
    228a:	9302      	str	r3, [sp, #8]
    228c:	f104 038c 	add.w	r3, r4, #140	@ 0x8c
    2290:	9301      	str	r3, [sp, #4]
    2292:	4628      	mov	r0, r5
    2294:	2301      	movs	r3, #1
    2296:	f002 f90f 	bl	44b8 <trace_printf>
/home/lubuntu/Dokument/GitHub/STM32-Computer/Firmware/STM32-Computer-Firmware/CA7/optee-os-3.19.0-r2/optee-os-stm32mp-3.19.0-stm32mp-r2/ldelf/ta_elf.c:1570 (discriminator 3)
    229a:	f8d4 409c 	ldr.w	r4, [r4, #156]	@ 0x9c
    229e:	2c00      	cmp	r4, #0
    22a0:	d1ee      	bne.n	2280 <ta_elf_add_library+0x50>
/home/lubuntu/Dokument/GitHub/STM32-Computer/Firmware/STM32-Computer-Firmware/CA7/optee-os-3.19.0-r2/optee-os-stm32mp-3.19.0-stm32mp-r2/ldelf/ta_elf.c:1574
    22a2:	7870      	ldrb	r0, [r6, #1]
    22a4:	f7ff fdfc 	bl	1ea0 <ta_elf_set_init_fini_info_compat>
/home/lubuntu/Dokument/GitHub/STM32-Computer/Firmware/STM32-Computer-Firmware/CA7/optee-os-3.19.0-r2/optee-os-stm32mp-3.19.0-stm32mp-r2/ldelf/ta_elf.c:1575
    22a8:	b930      	cbnz	r0, 22b8 <ta_elf_add_library+0x88>
/home/lubuntu/Dokument/GitHub/STM32-Computer/Firmware/STM32-Computer-Firmware/CA7/optee-os-3.19.0-r2/optee-os-stm32mp-3.19.0-stm32mp-r2/ldelf/ta_elf.c:1578
    22aa:	7870      	ldrb	r0, [r6, #1]
/home/lubuntu/Dokument/GitHub/STM32-Computer/Firmware/STM32-Computer-Firmware/CA7/optee-os-3.19.0-r2/optee-os-stm32mp-3.19.0-stm32mp-r2/ldelf/ta_elf.c:1579
    22ac:	b005      	add	sp, #20
    22ae:	e8bd 40f0 	ldmia.w	sp!, {r4, r5, r6, r7, lr}
/home/lubuntu/Dokument/GitHub/STM32-Computer/Firmware/STM32-Computer-Firmware/CA7/optee-os-3.19.0-r2/optee-os-stm32mp-3.19.0-stm32mp-r2/ldelf/ta_elf.c:1578
    22b2:	f7ff beb9 	b.w	2028 <ta_elf_set_elf_phdr_info>
/home/lubuntu/Dokument/GitHub/STM32-Computer/Firmware/STM32-Computer-Firmware/CA7/optee-os-3.19.0-r2/optee-os-stm32mp-3.19.0-stm32mp-r2/ldelf/ta_elf.c:1556
    22b6:	2000      	movs	r0, #0
/home/lubuntu/Dokument/GitHub/STM32-Computer/Firmware/STM32-Computer-Firmware/CA7/optee-os-3.19.0-r2/optee-os-stm32mp-3.19.0-stm32mp-r2/ldelf/ta_elf.c:1579
    22b8:	b005      	add	sp, #20
    22ba:	bdf0      	pop	{r4, r5, r6, r7, pc}
/home/lubuntu/Dokument/GitHub/STM32-Computer/Firmware/STM32-Computer-Firmware/CA7/optee-os-3.19.0-r2/optee-os-stm32mp-3.19.0-stm32mp-r2/ldelf/ta_elf.c:1560
    22bc:	4800      	ldr	r0, [pc, #0]	@ (22c0 <ta_elf_add_library+0x90>)
    22be:	e7fb      	b.n	22b8 <ta_elf_add_library+0x88>
    22c0:	ffff000c 	.word	0xffff000c
    22c4:	00003e62 	.word	0x00003e62
    22c8:	00002c44 	.word	0x00002c44
    22cc:	000023b2 	.word	0x000023b2

000022d0 <check_found_sym>:
check_found_sym():
/home/lubuntu/Dokument/GitHub/STM32-Computer/Firmware/STM32-Computer-Firmware/CA7/optee-os-3.19.0-r2/optee-os-stm32mp-3.19.0-stm32mp-r2/ldelf/ta_elf_rel.c:94
    22d0:	e92d 4ff7 	stmdb	sp!, {r0, r1, r2, r4, r5, r6, r7, r8, r9, sl, fp, lr}
    22d4:	4606      	mov	r6, r0
    22d6:	980c      	ldr	r0, [sp, #48]	@ 0x30
    22d8:	4688      	mov	r8, r1
/home/lubuntu/Dokument/GitHub/STM32-Computer/Firmware/STM32-Computer-Firmware/CA7/optee-os-3.19.0-r2/optee-os-stm32mp-3.19.0-stm32mp-r2/ldelf/ta_elf_rel.c:103
    22da:	6bf1      	ldr	r1, [r6, #60]	@ 0x3c
/home/lubuntu/Dokument/GitHub/STM32-Computer/Firmware/STM32-Computer-Firmware/CA7/optee-os-3.19.0-r2/optee-os-stm32mp-3.19.0-stm32mp-r2/ldelf/ta_elf_rel.c:94
    22dc:	4691      	mov	r9, r2
    22de:	461d      	mov	r5, r3
/home/lubuntu/Dokument/GitHub/STM32-Computer/Firmware/STM32-Computer-Firmware/CA7/optee-os-3.19.0-r2/optee-os-stm32mp-3.19.0-stm32mp-r2/ldelf/ta_elf_rel.c:103
    22e0:	4281      	cmp	r1, r0
    22e2:	d80c      	bhi.n	22fe <check_found_sym+0x2e>
/home/lubuntu/Dokument/GitHub/STM32-Computer/Firmware/STM32-Computer-Firmware/CA7/optee-os-3.19.0-r2/optee-os-stm32mp-3.19.0-stm32mp-r2/ldelf/ta_elf_rel.c:104
    22e4:	4b46      	ldr	r3, [pc, #280]	@ (2400 <check_found_sym+0x130>)
    22e6:	2168      	movs	r1, #104	@ 0x68
    22e8:	4846      	ldr	r0, [pc, #280]	@ (2404 <check_found_sym+0x134>)
    22ea:	447b      	add	r3, pc
    22ec:	9300      	str	r3, [sp, #0]
    22ee:	2301      	movs	r3, #1
    22f0:	4478      	add	r0, pc
    22f2:	461a      	mov	r2, r3
sym_compare():
/home/lubuntu/Dokument/GitHub/STM32-Computer/Firmware/STM32-Computer-Firmware/CA7/optee-os-3.19.0-r2/optee-os-stm32mp-3.19.0-stm32mp-r2/ldelf/ta_elf_rel.c:56
    22f4:	f002 f8e0 	bl	44b8 <trace_printf>
    22f8:	483f      	ldr	r0, [pc, #252]	@ (23f8 <check_found_sym+0x128>)
    22fa:	f7fd eebe 	blx	78 <_ldelf_return>
check_found_sym():
/home/lubuntu/Dokument/GitHub/STM32-Computer/Firmware/STM32-Computer-Firmware/CA7/optee-os-3.19.0-r2/optee-os-stm32mp-3.19.0-stm32mp-r2/ldelf/ta_elf_rel.c:112
    22fe:	f001 ff1e 	bl	413e <confine_array_index>
/home/lubuntu/Dokument/GitHub/STM32-Computer/Firmware/STM32-Computer-Firmware/CA7/optee-os-3.19.0-r2/optee-os-stm32mp-3.19.0-stm32mp-r2/ldelf/ta_elf_rel.c:114
    2302:	7872      	ldrb	r2, [r6, #1]
    2304:	6bb3      	ldr	r3, [r6, #56]	@ 0x38
    2306:	b1ca      	cbz	r2, 233c <check_found_sym+0x6c>
/home/lubuntu/Dokument/GitHub/STM32-Computer/Firmware/STM32-Computer-Firmware/CA7/optee-os-3.19.0-r2/optee-os-stm32mp-3.19.0-stm32mp-r2/ldelf/ta_elf_rel.c:116
    2308:	eb03 1400 	add.w	r4, r3, r0, lsl #4
    230c:	0102      	lsls	r2, r0, #4
    230e:	7b27      	ldrb	r7, [r4, #12]
/home/lubuntu/Dokument/GitHub/STM32-Computer/Firmware/STM32-Computer-Firmware/CA7/optee-os-3.19.0-r2/optee-os-stm32mp-3.19.0-stm32mp-r2/ldelf/ta_elf_rel.c:118
    2310:	f8b4 a00e 	ldrh.w	sl, [r4, #14]
/home/lubuntu/Dokument/GitHub/STM32-Computer/Firmware/STM32-Computer-Firmware/CA7/optee-os-3.19.0-r2/optee-os-stm32mp-3.19.0-stm32mp-r2/ldelf/ta_elf_rel.c:116
    2314:	ea4f 1b17 	mov.w	fp, r7, lsr #4
/home/lubuntu/Dokument/GitHub/STM32-Computer/Firmware/STM32-Computer-Firmware/CA7/optee-os-3.19.0-r2/optee-os-stm32mp-3.19.0-stm32mp-r2/ldelf/ta_elf_rel.c:117
    2318:	f007 070f 	and.w	r7, r7, #15
/home/lubuntu/Dokument/GitHub/STM32-Computer/Firmware/STM32-Computer-Firmware/CA7/optee-os-3.19.0-r2/optee-os-stm32mp-3.19.0-stm32mp-r2/ldelf/ta_elf_rel.c:119
    231c:	589b      	ldr	r3, [r3, r2]
/home/lubuntu/Dokument/GitHub/STM32-Computer/Firmware/STM32-Computer-Firmware/CA7/optee-os-3.19.0-r2/optee-os-stm32mp-3.19.0-stm32mp-r2/ldelf/ta_elf_rel.c:120
    231e:	6864      	ldr	r4, [r4, #4]
sym_compare():
/home/lubuntu/Dokument/GitHub/STM32-Computer/Firmware/STM32-Computer-Firmware/CA7/optee-os-3.19.0-r2/optee-os-stm32mp-3.19.0-stm32mp-r2/ldelf/ta_elf_rel.c:53
    2320:	2b00      	cmp	r3, #0
    2322:	d066      	beq.n	23f2 <check_found_sym+0x122>
/home/lubuntu/Dokument/GitHub/STM32-Computer/Firmware/STM32-Computer-Firmware/CA7/optee-os-3.19.0-r2/optee-os-stm32mp-3.19.0-stm32mp-r2/ldelf/ta_elf_rel.c:55
    2324:	6c72      	ldr	r2, [r6, #68]	@ 0x44
    2326:	4293      	cmp	r3, r2
    2328:	d916      	bls.n	2358 <check_found_sym+0x88>
/home/lubuntu/Dokument/GitHub/STM32-Computer/Firmware/STM32-Computer-Firmware/CA7/optee-os-3.19.0-r2/optee-os-stm32mp-3.19.0-stm32mp-r2/ldelf/ta_elf_rel.c:56
    232a:	4b37      	ldr	r3, [pc, #220]	@ (2408 <check_found_sym+0x138>)
    232c:	2138      	movs	r1, #56	@ 0x38
    232e:	4837      	ldr	r0, [pc, #220]	@ (240c <check_found_sym+0x13c>)
    2330:	447b      	add	r3, pc
    2332:	9300      	str	r3, [sp, #0]
    2334:	2301      	movs	r3, #1
    2336:	4478      	add	r0, pc
    2338:	461a      	mov	r2, r3
    233a:	e7db      	b.n	22f4 <check_found_sym+0x24>
check_found_sym():
/home/lubuntu/Dokument/GitHub/STM32-Computer/Firmware/STM32-Computer-Firmware/CA7/optee-os-3.19.0-r2/optee-os-stm32mp-3.19.0-stm32mp-r2/ldelf/ta_elf_rel.c:123
    233c:	2218      	movs	r2, #24
    233e:	fb02 f400 	mul.w	r4, r2, r0
    2342:	191a      	adds	r2, r3, r4
/home/lubuntu/Dokument/GitHub/STM32-Computer/Firmware/STM32-Computer-Firmware/CA7/optee-os-3.19.0-r2/optee-os-stm32mp-3.19.0-stm32mp-r2/ldelf/ta_elf_rel.c:126
    2344:	591b      	ldr	r3, [r3, r4]
/home/lubuntu/Dokument/GitHub/STM32-Computer/Firmware/STM32-Computer-Firmware/CA7/optee-os-3.19.0-r2/optee-os-stm32mp-3.19.0-stm32mp-r2/ldelf/ta_elf_rel.c:123
    2346:	7917      	ldrb	r7, [r2, #4]
/home/lubuntu/Dokument/GitHub/STM32-Computer/Firmware/STM32-Computer-Firmware/CA7/optee-os-3.19.0-r2/optee-os-stm32mp-3.19.0-stm32mp-r2/ldelf/ta_elf_rel.c:125
    2348:	f8b2 a006 	ldrh.w	sl, [r2, #6]
/home/lubuntu/Dokument/GitHub/STM32-Computer/Firmware/STM32-Computer-Firmware/CA7/optee-os-3.19.0-r2/optee-os-stm32mp-3.19.0-stm32mp-r2/ldelf/ta_elf_rel.c:123
    234c:	ea4f 1b17 	mov.w	fp, r7, lsr #4
/home/lubuntu/Dokument/GitHub/STM32-Computer/Firmware/STM32-Computer-Firmware/CA7/optee-os-3.19.0-r2/optee-os-stm32mp-3.19.0-stm32mp-r2/ldelf/ta_elf_rel.c:124
    2350:	f007 070f 	and.w	r7, r7, #15
/home/lubuntu/Dokument/GitHub/STM32-Computer/Firmware/STM32-Computer-Firmware/CA7/optee-os-3.19.0-r2/optee-os-stm32mp-3.19.0-stm32mp-r2/ldelf/ta_elf_rel.c:127
    2354:	6894      	ldr	r4, [r2, #8]
    2356:	e7e3      	b.n	2320 <check_found_sym+0x50>
sym_compare():
/home/lubuntu/Dokument/GitHub/STM32-Computer/Firmware/STM32-Computer-Firmware/CA7/optee-os-3.19.0-r2/optee-os-stm32mp-3.19.0-stm32mp-r2/ldelf/ta_elf_rel.c:57
    2358:	6c31      	ldr	r1, [r6, #64]	@ 0x40
    235a:	4640      	mov	r0, r8
    235c:	4419      	add	r1, r3
    235e:	f001 fff9 	bl	4354 <strcmp>
    2362:	2800      	cmp	r0, #0
    2364:	d145      	bne.n	23f2 <check_found_sym+0x122>
/home/lubuntu/Dokument/GitHub/STM32-Computer/Firmware/STM32-Computer-Firmware/CA7/optee-os-3.19.0-r2/optee-os-stm32mp-3.19.0-stm32mp-r2/ldelf/ta_elf_rel.c:59
    2366:	f1bb 0f01 	cmp.w	fp, #1
    236a:	d010      	beq.n	238e <check_found_sym+0xbe>
    236c:	b15d      	cbz	r5, 2386 <check_found_sym+0xb6>
    236e:	f1bb 0f02 	cmp.w	fp, #2
    2372:	d13e      	bne.n	23f2 <check_found_sym+0x122>
/home/lubuntu/Dokument/GitHub/STM32-Computer/Firmware/STM32-Computer-Firmware/CA7/optee-os-3.19.0-r2/optee-os-stm32mp-3.19.0-stm32mp-r2/ldelf/ta_elf_rel.c:63
    2374:	f1ba 0f00 	cmp.w	sl, #0
    2378:	d10c      	bne.n	2394 <check_found_sym+0xc4>
/home/lubuntu/Dokument/GitHub/STM32-Computer/Firmware/STM32-Computer-Firmware/CA7/optee-os-3.19.0-r2/optee-os-stm32mp-3.19.0-stm32mp-r2/ldelf/ta_elf_rel.c:64
    237a:	f1b9 0f00 	cmp.w	r9, #0
    237e:	d001      	beq.n	2384 <check_found_sym+0xb4>
/home/lubuntu/Dokument/GitHub/STM32-Computer/Firmware/STM32-Computer-Firmware/CA7/optee-os-3.19.0-r2/optee-os-stm32mp-3.19.0-stm32mp-r2/ldelf/ta_elf_rel.c:65
    2380:	f8c9 a000 	str.w	sl, [r9]
/home/lubuntu/Dokument/GitHub/STM32-Computer/Firmware/STM32-Computer-Firmware/CA7/optee-os-3.19.0-r2/optee-os-stm32mp-3.19.0-stm32mp-r2/ldelf/ta_elf_rel.c:66
    2384:	2501      	movs	r5, #1
check_found_sym():
/home/lubuntu/Dokument/GitHub/STM32-Computer/Firmware/STM32-Computer-Firmware/CA7/optee-os-3.19.0-r2/optee-os-stm32mp-3.19.0-stm32mp-r2/ldelf/ta_elf_rel.c:132
    2386:	4628      	mov	r0, r5
    2388:	b003      	add	sp, #12
    238a:	e8bd 8ff0 	ldmia.w	sp!, {r4, r5, r6, r7, r8, r9, sl, fp, pc}
sym_compare():
/home/lubuntu/Dokument/GitHub/STM32-Computer/Firmware/STM32-Computer-Firmware/CA7/optee-os-3.19.0-r2/optee-os-stm32mp-3.19.0-stm32mp-r2/ldelf/ta_elf_rel.c:68
    238e:	f1ba 0f00 	cmp.w	sl, #0
    2392:	d02e      	beq.n	23f2 <check_found_sym+0x122>
    2394:	f64f 73ff 	movw	r3, #65535	@ 0xffff
    2398:	459a      	cmp	sl, r3
    239a:	d02a      	beq.n	23f2 <check_found_sym+0x122>
/home/lubuntu/Dokument/GitHub/STM32-Computer/Firmware/STM32-Computer-Firmware/CA7/optee-os-3.19.0-r2/optee-os-stm32mp-3.19.0-stm32mp-r2/ldelf/ta_elf_rel.c:71
    239c:	2f02      	cmp	r7, #2
    239e:	d90d      	bls.n	23bc <check_found_sym+0xec>
    23a0:	2f06      	cmp	r7, #6
    23a2:	d020      	beq.n	23e6 <check_found_sym+0x116>
/home/lubuntu/Dokument/GitHub/STM32-Computer/Firmware/STM32-Computer-Firmware/CA7/optee-os-3.19.0-r2/optee-os-stm32mp-3.19.0-stm32mp-r2/ldelf/ta_elf_rel.c:86
    23a4:	4b1a      	ldr	r3, [pc, #104]	@ (2410 <check_found_sym+0x140>)
    23a6:	2156      	movs	r1, #86	@ 0x56
    23a8:	481a      	ldr	r0, [pc, #104]	@ (2414 <check_found_sym+0x144>)
    23aa:	447b      	add	r3, pc
    23ac:	9300      	str	r3, [sp, #0]
    23ae:	2301      	movs	r3, #1
    23b0:	4478      	add	r0, pc
    23b2:	461a      	mov	r2, r3
    23b4:	f002 f880 	bl	44b8 <trace_printf>
    23b8:	4810      	ldr	r0, [pc, #64]	@ (23fc <check_found_sym+0x12c>)
    23ba:	e79e      	b.n	22fa <check_found_sym+0x2a>
/home/lubuntu/Dokument/GitHub/STM32-Computer/Firmware/STM32-Computer-Firmware/CA7/optee-os-3.19.0-r2/optee-os-stm32mp-3.19.0-stm32mp-r2/ldelf/ta_elf_rel.c:75
    23bc:	6873      	ldr	r3, [r6, #4]
    23be:	68b2      	ldr	r2, [r6, #8]
    23c0:	1ad2      	subs	r2, r2, r3
    23c2:	4294      	cmp	r4, r2
    23c4:	d908      	bls.n	23d8 <check_found_sym+0x108>
/home/lubuntu/Dokument/GitHub/STM32-Computer/Firmware/STM32-Computer-Firmware/CA7/optee-os-3.19.0-r2/optee-os-stm32mp-3.19.0-stm32mp-r2/ldelf/ta_elf_rel.c:76
    23c6:	4b14      	ldr	r3, [pc, #80]	@ (2418 <check_found_sym+0x148>)
    23c8:	214c      	movs	r1, #76	@ 0x4c
    23ca:	4814      	ldr	r0, [pc, #80]	@ (241c <check_found_sym+0x14c>)
    23cc:	447b      	add	r3, pc
    23ce:	9300      	str	r3, [sp, #0]
    23d0:	2301      	movs	r3, #1
    23d2:	4478      	add	r0, pc
    23d4:	461a      	mov	r2, r3
    23d6:	e78d      	b.n	22f4 <check_found_sym+0x24>
/home/lubuntu/Dokument/GitHub/STM32-Computer/Firmware/STM32-Computer-Firmware/CA7/optee-os-3.19.0-r2/optee-os-stm32mp-3.19.0-stm32mp-r2/ldelf/ta_elf_rel.c:78
    23d8:	f1b9 0f00 	cmp.w	r9, #0
    23dc:	d0d2      	beq.n	2384 <check_found_sym+0xb4>
/home/lubuntu/Dokument/GitHub/STM32-Computer/Firmware/STM32-Computer-Firmware/CA7/optee-os-3.19.0-r2/optee-os-stm32mp-3.19.0-stm32mp-r2/ldelf/ta_elf_rel.c:79
    23de:	4423      	add	r3, r4
    23e0:	f8c9 3000 	str.w	r3, [r9]
    23e4:	e7ce      	b.n	2384 <check_found_sym+0xb4>
/home/lubuntu/Dokument/GitHub/STM32-Computer/Firmware/STM32-Computer-Firmware/CA7/optee-os-3.19.0-r2/optee-os-stm32mp-3.19.0-stm32mp-r2/ldelf/ta_elf_rel.c:82
    23e6:	f1b9 0f00 	cmp.w	r9, #0
    23ea:	d0cb      	beq.n	2384 <check_found_sym+0xb4>
/home/lubuntu/Dokument/GitHub/STM32-Computer/Firmware/STM32-Computer-Firmware/CA7/optee-os-3.19.0-r2/optee-os-stm32mp-3.19.0-stm32mp-r2/ldelf/ta_elf_rel.c:83
    23ec:	f8c9 4000 	str.w	r4, [r9]
    23f0:	e7c8      	b.n	2384 <check_found_sym+0xb4>
/home/lubuntu/Dokument/GitHub/STM32-Computer/Firmware/STM32-Computer-Firmware/CA7/optee-os-3.19.0-r2/optee-os-stm32mp-3.19.0-stm32mp-r2/ldelf/ta_elf_rel.c:54
    23f2:	2500      	movs	r5, #0
    23f4:	e7c7      	b.n	2386 <check_found_sym+0xb6>
    23f6:	bf00      	nop
    23f8:	ffff0005 	.word	0xffff0005
    23fc:	ffff000a 	.word	0xffff000a
    2400:	00002de2 	.word	0x00002de2
    2404:	0000303d 	.word	0x0000303d
    2408:	00002daf 	.word	0x00002daf
    240c:	00002feb 	.word	0x00002feb
    2410:	00002d6b 	.word	0x00002d6b
    2414:	00002f71 	.word	0x00002f71
    2418:	00002d2c 	.word	0x00002d2c
    241c:	00002f4f 	.word	0x00002f4f

00002420 <resolve_sym_helper>:
resolve_sym_helper():
/home/lubuntu/Dokument/GitHub/STM32-Computer/Firmware/STM32-Computer-Firmware/CA7/optee-os-3.19.0-r2/optee-os-stm32mp-3.19.0-stm32mp-r2/ldelf/ta_elf_rel.c:136
    2420:	e92d 4ff0 	stmdb	sp!, {r4, r5, r6, r7, r8, r9, sl, fp, lr}
    2424:	b087      	sub	sp, #28
/home/lubuntu/Dokument/GitHub/STM32-Computer/Firmware/STM32-Computer-Firmware/CA7/optee-os-3.19.0-r2/optee-os-stm32mp-3.19.0-stm32mp-r2/ldelf/ta_elf_rel.c:140
    2426:	6cd4      	ldr	r4, [r2, #76]	@ 0x4c
/home/lubuntu/Dokument/GitHub/STM32-Computer/Firmware/STM32-Computer-Firmware/CA7/optee-os-3.19.0-r2/optee-os-stm32mp-3.19.0-stm32mp-r2/ldelf/ta_elf_rel.c:136
    2428:	4607      	mov	r7, r0
    242a:	9103      	str	r1, [sp, #12]
    242c:	4616      	mov	r6, r2
    242e:	4699      	mov	r9, r3
/home/lubuntu/Dokument/GitHub/STM32-Computer/Firmware/STM32-Computer-Firmware/CA7/optee-os-3.19.0-r2/optee-os-stm32mp-3.19.0-stm32mp-r2/ldelf/ta_elf_rel.c:140
    2430:	2c00      	cmp	r4, #0
    2432:	f000 8095 	beq.w	2560 <resolve_sym_helper+0x140>
/home/lubuntu/Dokument/GitHub/STM32-Computer/Firmware/STM32-Computer-Firmware/CA7/optee-os-3.19.0-r2/optee-os-stm32mp-3.19.0-stm32mp-r2/ldelf/ta_elf_rel.c:143
    2436:	6d10      	ldr	r0, [r2, #80]	@ 0x50
gnu_hash():
/home/lubuntu/Dokument/GitHub/STM32-Computer/Firmware/STM32-Computer-Firmware/CA7/optee-os-3.19.0-r2/optee-os-stm32mp-3.19.0-stm32mp-r2/ldelf/ta_elf_rel.c:40
    2438:	1e79      	subs	r1, r7, #1
/home/lubuntu/Dokument/GitHub/STM32-Computer/Firmware/STM32-Computer-Firmware/CA7/optee-os-3.19.0-r2/optee-os-stm32mp-3.19.0-stm32mp-r2/ldelf/ta_elf_rel.c:38
    243a:	f241 5305 	movw	r3, #5381	@ 0x1505
/home/lubuntu/Dokument/GitHub/STM32-Computer/Firmware/STM32-Computer-Firmware/CA7/optee-os-3.19.0-r2/optee-os-stm32mp-3.19.0-stm32mp-r2/ldelf/ta_elf_rel.c:40
    243e:	f811 2f01 	ldrb.w	r2, [r1, #1]!
    2442:	bb0a      	cbnz	r2, 2488 <resolve_sym_helper+0x68>
resolve_sym_helper():
/home/lubuntu/Dokument/GitHub/STM32-Computer/Firmware/STM32-Computer-Firmware/CA7/optee-os-3.19.0-r2/optee-os-stm32mp-3.19.0-stm32mp-r2/ldelf/ta_elf_rel.c:154
    2444:	68e1      	ldr	r1, [r4, #12]
    2446:	2201      	movs	r2, #1
/home/lubuntu/Dokument/GitHub/STM32-Computer/Firmware/STM32-Computer-Firmware/CA7/optee-os-3.19.0-r2/optee-os-stm32mp-3.19.0-stm32mp-r2/ldelf/ta_elf_rel.c:150
    2448:	f896 c001 	ldrb.w	ip, [r6, #1]
/home/lubuntu/Dokument/GitHub/STM32-Computer/Firmware/STM32-Computer-Firmware/CA7/optee-os-3.19.0-r2/optee-os-stm32mp-3.19.0-stm32mp-r2/ldelf/ta_elf_rel.c:152
    244c:	68a5      	ldr	r5, [r4, #8]
/home/lubuntu/Dokument/GitHub/STM32-Computer/Firmware/STM32-Computer-Firmware/CA7/optee-os-3.19.0-r2/optee-os-stm32mp-3.19.0-stm32mp-r2/ldelf/ta_elf_rel.c:154
    244e:	fa23 f101 	lsr.w	r1, r3, r1
/home/lubuntu/Dokument/GitHub/STM32-Computer/Firmware/STM32-Computer-Firmware/CA7/optee-os-3.19.0-r2/optee-os-stm32mp-3.19.0-stm32mp-r2/ldelf/ta_elf_rel.c:150
    2452:	f1bc 0f00 	cmp.w	ip, #0
    2456:	d044      	beq.n	24e2 <resolve_sym_helper+0xc2>
/home/lubuntu/Dokument/GitHub/STM32-Computer/Firmware/STM32-Computer-Firmware/CA7/optee-os-3.19.0-r2/optee-os-stm32mp-3.19.0-stm32mp-r2/ldelf/ta_elf_rel.c:153
    2458:	f003 0c1f 	and.w	ip, r3, #31
/home/lubuntu/Dokument/GitHub/STM32-Computer/Firmware/STM32-Computer-Firmware/CA7/optee-os-3.19.0-r2/optee-os-stm32mp-3.19.0-stm32mp-r2/ldelf/ta_elf_rel.c:154
    245c:	f001 011f 	and.w	r1, r1, #31
/home/lubuntu/Dokument/GitHub/STM32-Computer/Firmware/STM32-Computer-Firmware/CA7/optee-os-3.19.0-r2/optee-os-stm32mp-3.19.0-stm32mp-r2/ldelf/ta_elf_rel.c:153
    2460:	fa02 fc0c 	lsl.w	ip, r2, ip
/home/lubuntu/Dokument/GitHub/STM32-Computer/Firmware/STM32-Computer-Firmware/CA7/optee-os-3.19.0-r2/optee-os-stm32mp-3.19.0-stm32mp-r2/ldelf/ta_elf_rel.c:154
    2464:	fa02 f101 	lsl.w	r1, r2, r1
/home/lubuntu/Dokument/GitHub/STM32-Computer/Firmware/STM32-Computer-Firmware/CA7/optee-os-3.19.0-r2/optee-os-stm32mp-3.19.0-stm32mp-r2/ldelf/ta_elf_rel.c:152
    2468:	095a      	lsrs	r2, r3, #5
/home/lubuntu/Dokument/GitHub/STM32-Computer/Firmware/STM32-Computer-Firmware/CA7/optee-os-3.19.0-r2/optee-os-stm32mp-3.19.0-stm32mp-r2/ldelf/ta_elf_rel.c:153
    246a:	ea4c 0101 	orr.w	r1, ip, r1
/home/lubuntu/Dokument/GitHub/STM32-Computer/Firmware/STM32-Computer-Firmware/CA7/optee-os-3.19.0-r2/optee-os-stm32mp-3.19.0-stm32mp-r2/ldelf/ta_elf_rel.c:152
    246e:	fbb2 fcf5 	udiv	ip, r2, r5
    2472:	fb05 221c 	mls	r2, r5, ip, r2
    2476:	eb04 0282 	add.w	r2, r4, r2, lsl #2
/home/lubuntu/Dokument/GitHub/STM32-Computer/Firmware/STM32-Computer-Firmware/CA7/optee-os-3.19.0-r2/optee-os-stm32mp-3.19.0-stm32mp-r2/ldelf/ta_elf_rel.c:156
    247a:	6912      	ldr	r2, [r2, #16]
    247c:	4391      	bics	r1, r2
    247e:	d007      	beq.n	2490 <resolve_sym_helper+0x70>
/home/lubuntu/Dokument/GitHub/STM32-Computer/Firmware/STM32-Computer-Firmware/CA7/optee-os-3.19.0-r2/optee-os-stm32mp-3.19.0-stm32mp-r2/ldelf/ta_elf_rel.c:157
    2480:	4853      	ldr	r0, [pc, #332]	@ (25d0 <resolve_sym_helper+0x1b0>)
/home/lubuntu/Dokument/GitHub/STM32-Computer/Firmware/STM32-Computer-Firmware/CA7/optee-os-3.19.0-r2/optee-os-stm32mp-3.19.0-stm32mp-r2/ldelf/ta_elf_rel.c:212
    2482:	b007      	add	sp, #28
    2484:	e8bd 8ff0 	ldmia.w	sp!, {r4, r5, r6, r7, r8, r9, sl, fp, pc}
gnu_hash():
/home/lubuntu/Dokument/GitHub/STM32-Computer/Firmware/STM32-Computer-Firmware/CA7/optee-os-3.19.0-r2/optee-os-stm32mp-3.19.0-stm32mp-r2/ldelf/ta_elf_rel.c:41
    2488:	eb03 1343 	add.w	r3, r3, r3, lsl #5
    248c:	4413      	add	r3, r2
    248e:	e7d6      	b.n	243e <resolve_sym_helper+0x1e>
resolve_sym_helper():
/home/lubuntu/Dokument/GitHub/STM32-Computer/Firmware/STM32-Computer-Firmware/CA7/optee-os-3.19.0-r2/optee-os-stm32mp-3.19.0-stm32mp-r2/ldelf/ta_elf_rel.c:158
    2490:	eb04 0585 	add.w	r5, r4, r5, lsl #2
/home/lubuntu/Dokument/GitHub/STM32-Computer/Firmware/STM32-Computer-Firmware/CA7/optee-os-3.19.0-r2/optee-os-stm32mp-3.19.0-stm32mp-r2/ldelf/ta_elf_rel.c:169
    2494:	f8d4 a000 	ldr.w	sl, [r4]
/home/lubuntu/Dokument/GitHub/STM32-Computer/Firmware/STM32-Computer-Firmware/CA7/optee-os-3.19.0-r2/optee-os-stm32mp-3.19.0-stm32mp-r2/ldelf/ta_elf_rel.c:167
    2498:	3510      	adds	r5, #16
/home/lubuntu/Dokument/GitHub/STM32-Computer/Firmware/STM32-Computer-Firmware/CA7/optee-os-3.19.0-r2/optee-os-stm32mp-3.19.0-stm32mp-r2/ldelf/ta_elf_rel.c:171
    249a:	fbb3 f2fa 	udiv	r2, r3, sl
    249e:	fb0a 3212 	mls	r2, sl, r2, r3
    24a2:	f855 8022 	ldr.w	r8, [r5, r2, lsl #2]
/home/lubuntu/Dokument/GitHub/STM32-Computer/Firmware/STM32-Computer-Firmware/CA7/optee-os-3.19.0-r2/optee-os-stm32mp-3.19.0-stm32mp-r2/ldelf/ta_elf_rel.c:172
    24a6:	6862      	ldr	r2, [r4, #4]
    24a8:	4542      	cmp	r2, r8
    24aa:	d8e9      	bhi.n	2480 <resolve_sym_helper+0x60>
/home/lubuntu/Dokument/GitHub/STM32-Computer/Firmware/STM32-Computer-Firmware/CA7/optee-os-3.19.0-r2/optee-os-stm32mp-3.19.0-stm32mp-r2/ldelf/ta_elf_rel.c:142
    24ac:	1822      	adds	r2, r4, r0
/home/lubuntu/Dokument/GitHub/STM32-Computer/Firmware/STM32-Computer-Firmware/CA7/optee-os-3.19.0-r2/optee-os-stm32mp-3.19.0-stm32mp-r2/ldelf/ta_elf_rel.c:175
    24ae:	f043 0301 	orr.w	r3, r3, #1
/home/lubuntu/Dokument/GitHub/STM32-Computer/Firmware/STM32-Computer-Firmware/CA7/optee-os-3.19.0-r2/optee-os-stm32mp-3.19.0-stm32mp-r2/ldelf/ta_elf_rel.c:142
    24b2:	9204      	str	r2, [sp, #16]
/home/lubuntu/Dokument/GitHub/STM32-Computer/Firmware/STM32-Computer-Firmware/CA7/optee-os-3.19.0-r2/optee-os-stm32mp-3.19.0-stm32mp-r2/ldelf/ta_elf_rel.c:175
    24b4:	9305      	str	r3, [sp, #20]
/home/lubuntu/Dokument/GitHub/STM32-Computer/Firmware/STM32-Computer-Firmware/CA7/optee-os-3.19.0-r2/optee-os-stm32mp-3.19.0-stm32mp-r2/ldelf/ta_elf_rel.c:179
    24b6:	6863      	ldr	r3, [r4, #4]
    24b8:	9904      	ldr	r1, [sp, #16]
    24ba:	ebaa 0303 	sub.w	r3, sl, r3
    24be:	4443      	add	r3, r8
    24c0:	eb05 0283 	add.w	r2, r5, r3, lsl #2
    24c4:	428a      	cmp	r2, r1
    24c6:	d8db      	bhi.n	2480 <resolve_sym_helper+0x60>
/home/lubuntu/Dokument/GitHub/STM32-Computer/Firmware/STM32-Computer-Firmware/CA7/optee-os-3.19.0-r2/optee-os-stm32mp-3.19.0-stm32mp-r2/ldelf/ta_elf_rel.c:182
    24c8:	f855 b023 	ldr.w	fp, [r5, r3, lsl #2]
/home/lubuntu/Dokument/GitHub/STM32-Computer/Firmware/STM32-Computer-Firmware/CA7/optee-os-3.19.0-r2/optee-os-stm32mp-3.19.0-stm32mp-r2/ldelf/ta_elf_rel.c:184
    24cc:	9a05      	ldr	r2, [sp, #20]
    24ce:	f04b 0301 	orr.w	r3, fp, #1
    24d2:	4293      	cmp	r3, r2
    24d4:	d038      	beq.n	2548 <resolve_sym_helper+0x128>
/home/lubuntu/Dokument/GitHub/STM32-Computer/Firmware/STM32-Computer-Firmware/CA7/optee-os-3.19.0-r2/optee-os-stm32mp-3.19.0-stm32mp-r2/ldelf/ta_elf_rel.c:189
    24d6:	f01b 0f01 	tst.w	fp, #1
/home/lubuntu/Dokument/GitHub/STM32-Computer/Firmware/STM32-Computer-Firmware/CA7/optee-os-3.19.0-r2/optee-os-stm32mp-3.19.0-stm32mp-r2/ldelf/ta_elf_rel.c:188
    24da:	f108 0801 	add.w	r8, r8, #1
/home/lubuntu/Dokument/GitHub/STM32-Computer/Firmware/STM32-Computer-Firmware/CA7/optee-os-3.19.0-r2/optee-os-stm32mp-3.19.0-stm32mp-r2/ldelf/ta_elf_rel.c:189
    24de:	d0ea      	beq.n	24b6 <resolve_sym_helper+0x96>
    24e0:	e7ce      	b.n	2480 <resolve_sym_helper+0x60>
/home/lubuntu/Dokument/GitHub/STM32-Computer/Firmware/STM32-Computer-Firmware/CA7/optee-os-3.19.0-r2/optee-os-stm32mp-3.19.0-stm32mp-r2/ldelf/ta_elf_rel.c:162
    24e2:	f003 083f 	and.w	r8, r3, #63	@ 0x3f
/home/lubuntu/Dokument/GitHub/STM32-Computer/Firmware/STM32-Computer-Firmware/CA7/optee-os-3.19.0-r2/optee-os-stm32mp-3.19.0-stm32mp-r2/ldelf/ta_elf_rel.c:163
    24e6:	f001 013f 	and.w	r1, r1, #63	@ 0x3f
/home/lubuntu/Dokument/GitHub/STM32-Computer/Firmware/STM32-Computer-Firmware/CA7/optee-os-3.19.0-r2/optee-os-stm32mp-3.19.0-stm32mp-r2/ldelf/ta_elf_rel.c:162
    24ea:	f1a8 0e20 	sub.w	lr, r8, #32
    24ee:	f1c8 0c20 	rsb	ip, r8, #32
    24f2:	fa02 f808 	lsl.w	r8, r2, r8
/home/lubuntu/Dokument/GitHub/STM32-Computer/Firmware/STM32-Computer-Firmware/CA7/optee-os-3.19.0-r2/optee-os-stm32mp-3.19.0-stm32mp-r2/ldelf/ta_elf_rel.c:163
    24f6:	f1c1 0a20 	rsb	sl, r1, #32
/home/lubuntu/Dokument/GitHub/STM32-Computer/Firmware/STM32-Computer-Firmware/CA7/optee-os-3.19.0-r2/optee-os-stm32mp-3.19.0-stm32mp-r2/ldelf/ta_elf_rel.c:162
    24fa:	fa22 fc0c 	lsr.w	ip, r2, ip
    24fe:	fa02 fe0e 	lsl.w	lr, r2, lr
    2502:	ea4e 0e0c 	orr.w	lr, lr, ip
/home/lubuntu/Dokument/GitHub/STM32-Computer/Firmware/STM32-Computer-Firmware/CA7/optee-os-3.19.0-r2/optee-os-stm32mp-3.19.0-stm32mp-r2/ldelf/ta_elf_rel.c:163
    2506:	f1a1 0c20 	sub.w	ip, r1, #32
    250a:	fa22 fa0a 	lsr.w	sl, r2, sl
    250e:	fa02 fc0c 	lsl.w	ip, r2, ip
    2512:	408a      	lsls	r2, r1
/home/lubuntu/Dokument/GitHub/STM32-Computer/Firmware/STM32-Computer-Firmware/CA7/optee-os-3.19.0-r2/optee-os-stm32mp-3.19.0-stm32mp-r2/ldelf/ta_elf_rel.c:161
    2514:	0999      	lsrs	r1, r3, #6
/home/lubuntu/Dokument/GitHub/STM32-Computer/Firmware/STM32-Computer-Firmware/CA7/optee-os-3.19.0-r2/optee-os-stm32mp-3.19.0-stm32mp-r2/ldelf/ta_elf_rel.c:163
    2516:	ea4c 0c0a 	orr.w	ip, ip, sl
/home/lubuntu/Dokument/GitHub/STM32-Computer/Firmware/STM32-Computer-Firmware/CA7/optee-os-3.19.0-r2/optee-os-stm32mp-3.19.0-stm32mp-r2/ldelf/ta_elf_rel.c:162
    251a:	ea4e 0c0c 	orr.w	ip, lr, ip
/home/lubuntu/Dokument/GitHub/STM32-Computer/Firmware/STM32-Computer-Firmware/CA7/optee-os-3.19.0-r2/optee-os-stm32mp-3.19.0-stm32mp-r2/ldelf/ta_elf_rel.c:161
    251e:	fbb1 fef5 	udiv	lr, r1, r5
    2522:	fb05 111e 	mls	r1, r5, lr, r1
/home/lubuntu/Dokument/GitHub/STM32-Computer/Firmware/STM32-Computer-Firmware/CA7/optee-os-3.19.0-r2/optee-os-stm32mp-3.19.0-stm32mp-r2/ldelf/ta_elf_rel.c:162
    2526:	ea48 0202 	orr.w	r2, r8, r2
/home/lubuntu/Dokument/GitHub/STM32-Computer/Firmware/STM32-Computer-Firmware/CA7/optee-os-3.19.0-r2/optee-os-stm32mp-3.19.0-stm32mp-r2/ldelf/ta_elf_rel.c:161
    252a:	eb04 01c1 	add.w	r1, r4, r1, lsl #3
/home/lubuntu/Dokument/GitHub/STM32-Computer/Firmware/STM32-Computer-Firmware/CA7/optee-os-3.19.0-r2/optee-os-stm32mp-3.19.0-stm32mp-r2/ldelf/ta_elf_rel.c:165
    252e:	e9d1 e104 	ldrd	lr, r1, [r1, #16]
    2532:	ea02 0e0e 	and.w	lr, r2, lr
    2536:	ea0c 0101 	and.w	r1, ip, r1
    253a:	4561      	cmp	r1, ip
    253c:	bf08      	it	eq
    253e:	4596      	cmpeq	lr, r2
    2540:	d19e      	bne.n	2480 <resolve_sym_helper+0x60>
/home/lubuntu/Dokument/GitHub/STM32-Computer/Firmware/STM32-Computer-Firmware/CA7/optee-os-3.19.0-r2/optee-os-stm32mp-3.19.0-stm32mp-r2/ldelf/ta_elf_rel.c:167
    2542:	eb04 05c5 	add.w	r5, r4, r5, lsl #3
    2546:	e7a5      	b.n	2494 <resolve_sym_helper+0x74>
/home/lubuntu/Dokument/GitHub/STM32-Computer/Firmware/STM32-Computer-Firmware/CA7/optee-os-3.19.0-r2/optee-os-stm32mp-3.19.0-stm32mp-r2/ldelf/ta_elf_rel.c:185 (discriminator 1)
    2548:	9a03      	ldr	r2, [sp, #12]
    254a:	464b      	mov	r3, r9
    254c:	f8cd 8000 	str.w	r8, [sp]
    2550:	4639      	mov	r1, r7
    2552:	4630      	mov	r0, r6
    2554:	f7ff febc 	bl	22d0 <check_found_sym>
/home/lubuntu/Dokument/GitHub/STM32-Computer/Firmware/STM32-Computer-Firmware/CA7/optee-os-3.19.0-r2/optee-os-stm32mp-3.19.0-stm32mp-r2/ldelf/ta_elf_rel.c:184 (discriminator 1)
    2558:	2800      	cmp	r0, #0
    255a:	d0bc      	beq.n	24d6 <resolve_sym_helper+0xb6>
/home/lubuntu/Dokument/GitHub/STM32-Computer/Firmware/STM32-Computer-Firmware/CA7/optee-os-3.19.0-r2/optee-os-stm32mp-3.19.0-stm32mp-r2/ldelf/ta_elf_rel.c:186
    255c:	2000      	movs	r0, #0
    255e:	e790      	b.n	2482 <resolve_sym_helper+0x62>
/home/lubuntu/Dokument/GitHub/STM32-Computer/Firmware/STM32-Computer-Firmware/CA7/optee-os-3.19.0-r2/optee-os-stm32mp-3.19.0-stm32mp-r2/ldelf/ta_elf_rel.c:190
    2560:	6c95      	ldr	r5, [r2, #72]	@ 0x48
    2562:	2d00      	cmp	r5, #0
    2564:	d08c      	beq.n	2480 <resolve_sym_helper+0x60>
/home/lubuntu/Dokument/GitHub/STM32-Computer/Firmware/STM32-Computer-Firmware/CA7/optee-os-3.19.0-r2/optee-os-stm32mp-3.19.0-stm32mp-r2/ldelf/ta_elf_rel.c:197
    2566:	e9d5 8a00 	ldrd	r8, sl, [r5]
/home/lubuntu/Dokument/GitHub/STM32-Computer/Firmware/STM32-Computer-Firmware/CA7/optee-os-3.19.0-r2/optee-os-stm32mp-3.19.0-stm32mp-r2/ldelf/ta_elf_rel.c:198
    256a:	1e42      	subs	r2, r0, #1
    256c:	3508      	adds	r5, #8
elf_hash():
/home/lubuntu/Dokument/GitHub/STM32-Computer/Firmware/STM32-Computer-Firmware/CA7/optee-os-3.19.0-r2/optee-os-stm32mp-3.19.0-stm32mp-r2/ldelf/ta_elf_rel.c:25
    256e:	f812 3f01 	ldrb.w	r3, [r2, #1]!
    2572:	b9bb      	cbnz	r3, 25a4 <resolve_sym_helper+0x184>
resolve_sym_helper():
/home/lubuntu/Dokument/GitHub/STM32-Computer/Firmware/STM32-Computer-Firmware/CA7/optee-os-3.19.0-r2/optee-os-stm32mp-3.19.0-stm32mp-r2/ldelf/ta_elf_rel.c:203
    2574:	fbb4 f3f8 	udiv	r3, r4, r8
    2578:	fb08 4413 	mls	r4, r8, r3, r4
/home/lubuntu/Dokument/GitHub/STM32-Computer/Firmware/STM32-Computer-Firmware/CA7/optee-os-3.19.0-r2/optee-os-stm32mp-3.19.0-stm32mp-r2/ldelf/ta_elf_rel.c:203 (discriminator 2)
    257c:	f855 4024 	ldr.w	r4, [r5, r4, lsl #2]
    2580:	2c00      	cmp	r4, #0
    2582:	f43f af7d 	beq.w	2480 <resolve_sym_helper+0x60>
/home/lubuntu/Dokument/GitHub/STM32-Computer/Firmware/STM32-Computer-Firmware/CA7/optee-os-3.19.0-r2/optee-os-stm32mp-3.19.0-stm32mp-r2/ldelf/ta_elf_rel.c:204
    2586:	4554      	cmp	r4, sl
    2588:	d316      	bcc.n	25b8 <resolve_sym_helper+0x198>
/home/lubuntu/Dokument/GitHub/STM32-Computer/Firmware/STM32-Computer-Firmware/CA7/optee-os-3.19.0-r2/optee-os-stm32mp-3.19.0-stm32mp-r2/ldelf/ta_elf_rel.c:205
    258a:	4b13      	ldr	r3, [pc, #76]	@ (25d8 <resolve_sym_helper+0x1b8>)
    258c:	21cd      	movs	r1, #205	@ 0xcd
    258e:	4813      	ldr	r0, [pc, #76]	@ (25dc <resolve_sym_helper+0x1bc>)
    2590:	447b      	add	r3, pc
    2592:	9300      	str	r3, [sp, #0]
    2594:	2301      	movs	r3, #1
    2596:	4478      	add	r0, pc
    2598:	461a      	mov	r2, r3
    259a:	f001 ff8d 	bl	44b8 <trace_printf>
    259e:	480d      	ldr	r0, [pc, #52]	@ (25d4 <resolve_sym_helper+0x1b4>)
    25a0:	f7fd ed6a 	blx	78 <_ldelf_return>
elf_hash():
/home/lubuntu/Dokument/GitHub/STM32-Computer/Firmware/STM32-Computer-Firmware/CA7/optee-os-3.19.0-r2/optee-os-stm32mp-3.19.0-stm32mp-r2/ldelf/ta_elf_rel.c:26
    25a4:	eb03 1404 	add.w	r4, r3, r4, lsl #4
/home/lubuntu/Dokument/GitHub/STM32-Computer/Firmware/STM32-Computer-Firmware/CA7/optee-os-3.19.0-r2/optee-os-stm32mp-3.19.0-stm32mp-r2/ldelf/ta_elf_rel.c:28
    25a8:	f014 4370 	ands.w	r3, r4, #4026531840	@ 0xf0000000
/home/lubuntu/Dokument/GitHub/STM32-Computer/Firmware/STM32-Computer-Firmware/CA7/optee-os-3.19.0-r2/optee-os-stm32mp-3.19.0-stm32mp-r2/ldelf/ta_elf_rel.c:29
    25ac:	bf18      	it	ne
    25ae:	ea84 6413 	eorne.w	r4, r4, r3, lsr #24
/home/lubuntu/Dokument/GitHub/STM32-Computer/Firmware/STM32-Computer-Firmware/CA7/optee-os-3.19.0-r2/optee-os-stm32mp-3.19.0-stm32mp-r2/ldelf/ta_elf_rel.c:30
    25b2:	ea24 0403 	bic.w	r4, r4, r3
    25b6:	e7da      	b.n	256e <resolve_sym_helper+0x14e>
resolve_sym_helper():
/home/lubuntu/Dokument/GitHub/STM32-Computer/Firmware/STM32-Computer-Firmware/CA7/optee-os-3.19.0-r2/optee-os-stm32mp-3.19.0-stm32mp-r2/ldelf/ta_elf_rel.c:206
    25b8:	9a03      	ldr	r2, [sp, #12]
    25ba:	464b      	mov	r3, r9
    25bc:	9400      	str	r4, [sp, #0]
    25be:	4639      	mov	r1, r7
    25c0:	4630      	mov	r0, r6
    25c2:	f7ff fe85 	bl	22d0 <check_found_sym>
    25c6:	2800      	cmp	r0, #0
    25c8:	d1c8      	bne.n	255c <resolve_sym_helper+0x13c>
/home/lubuntu/Dokument/GitHub/STM32-Computer/Firmware/STM32-Computer-Firmware/CA7/optee-os-3.19.0-r2/optee-os-stm32mp-3.19.0-stm32mp-r2/ldelf/ta_elf_rel.c:203 (discriminator 2)
    25ca:	4444      	add	r4, r8
    25cc:	e7d6      	b.n	257c <resolve_sym_helper+0x15c>
    25ce:	bf00      	nop
    25d0:	ffff0008 	.word	0xffff0008
    25d4:	ffff0005 	.word	0xffff0005
    25d8:	00002b3c 	.word	0x00002b3c
    25dc:	00002da7 	.word	0x00002da7

000025e0 <e32_get_sym_name.constprop.0.isra.0>:
e32_get_sym_name():
/home/lubuntu/Dokument/GitHub/STM32-Computer/Firmware/STM32-Computer-Firmware/CA7/optee-os-3.19.0-r2/optee-os-stm32mp-3.19.0-stm32mp-r2/ldelf/ta_elf_rel.c:250
    25e0:	b573      	push	{r0, r1, r4, r5, r6, lr}
    25e2:	4604      	mov	r4, r0
    25e4:	9e06      	ldr	r6, [sp, #24]
    25e6:	9d08      	ldr	r5, [sp, #32]
/home/lubuntu/Dokument/GitHub/STM32-Computer/Firmware/STM32-Computer-Firmware/CA7/optee-os-3.19.0-r2/optee-os-stm32mp-3.19.0-stm32mp-r2/ldelf/ta_elf_rel.c:259
    25e8:	ebb1 2f16 	cmp.w	r1, r6, lsr #8
/home/lubuntu/Dokument/GitHub/STM32-Computer/Firmware/STM32-Computer-Firmware/CA7/optee-os-3.19.0-r2/optee-os-stm32mp-3.19.0-stm32mp-r2/ldelf/ta_elf_rel.c:258
    25ec:	ea4f 2016 	mov.w	r0, r6, lsr #8
/home/lubuntu/Dokument/GitHub/STM32-Computer/Firmware/STM32-Computer-Firmware/CA7/optee-os-3.19.0-r2/optee-os-stm32mp-3.19.0-stm32mp-r2/ldelf/ta_elf_rel.c:259
    25f0:	d80d      	bhi.n	260e <e32_get_sym_name.constprop.0.isra.0+0x2e>
/home/lubuntu/Dokument/GitHub/STM32-Computer/Firmware/STM32-Computer-Firmware/CA7/optee-os-3.19.0-r2/optee-os-stm32mp-3.19.0-stm32mp-r2/ldelf/ta_elf_rel.c:260
    25f2:	4b19      	ldr	r3, [pc, #100]	@ (2658 <e32_get_sym_name.constprop.0.isra.0+0x78>)
    25f4:	f44f 7182 	mov.w	r1, #260	@ 0x104
    25f8:	4818      	ldr	r0, [pc, #96]	@ (265c <e32_get_sym_name.constprop.0.isra.0+0x7c>)
    25fa:	447b      	add	r3, pc
    25fc:	9300      	str	r3, [sp, #0]
    25fe:	2301      	movs	r3, #1
    2600:	4478      	add	r0, pc
    2602:	461a      	mov	r2, r3
/home/lubuntu/Dokument/GitHub/STM32-Computer/Firmware/STM32-Computer-Firmware/CA7/optee-os-3.19.0-r2/optee-os-stm32mp-3.19.0-stm32mp-r2/ldelf/ta_elf_rel.c:265
    2604:	f001 ff58 	bl	44b8 <trace_printf>
    2608:	4812      	ldr	r0, [pc, #72]	@ (2654 <e32_get_sym_name.constprop.0.isra.0+0x74>)
    260a:	f7fd ed36 	blx	78 <_ldelf_return>
/home/lubuntu/Dokument/GitHub/STM32-Computer/Firmware/STM32-Computer-Firmware/CA7/optee-os-3.19.0-r2/optee-os-stm32mp-3.19.0-stm32mp-r2/ldelf/ta_elf_rel.c:261
    260e:	f001 fd96 	bl	413e <confine_array_index>
/home/lubuntu/Dokument/GitHub/STM32-Computer/Firmware/STM32-Computer-Firmware/CA7/optee-os-3.19.0-r2/optee-os-stm32mp-3.19.0-stm32mp-r2/ldelf/ta_elf_rel.c:263
    2612:	0106      	lsls	r6, r0, #4
    2614:	eb04 1100 	add.w	r1, r4, r0, lsl #4
    2618:	59a0      	ldr	r0, [r4, r6]
/home/lubuntu/Dokument/GitHub/STM32-Computer/Firmware/STM32-Computer-Firmware/CA7/optee-os-3.19.0-r2/optee-os-stm32mp-3.19.0-stm32mp-r2/ldelf/ta_elf_rel.c:264
    261a:	4298      	cmp	r0, r3
    261c:	d309      	bcc.n	2632 <e32_get_sym_name.constprop.0.isra.0+0x52>
/home/lubuntu/Dokument/GitHub/STM32-Computer/Firmware/STM32-Computer-Firmware/CA7/optee-os-3.19.0-r2/optee-os-stm32mp-3.19.0-stm32mp-r2/ldelf/ta_elf_rel.c:265
    261e:	4b10      	ldr	r3, [pc, #64]	@ (2660 <e32_get_sym_name.constprop.0.isra.0+0x80>)
    2620:	f240 1109 	movw	r1, #265	@ 0x109
    2624:	480f      	ldr	r0, [pc, #60]	@ (2664 <e32_get_sym_name.constprop.0.isra.0+0x84>)
    2626:	447b      	add	r3, pc
    2628:	9300      	str	r3, [sp, #0]
    262a:	2301      	movs	r3, #1
    262c:	4478      	add	r0, pc
    262e:	461a      	mov	r2, r3
    2630:	e7e8      	b.n	2604 <e32_get_sym_name.constprop.0.isra.0+0x24>
/home/lubuntu/Dokument/GitHub/STM32-Computer/Firmware/STM32-Computer-Firmware/CA7/optee-os-3.19.0-r2/optee-os-stm32mp-3.19.0-stm32mp-r2/ldelf/ta_elf_rel.c:266
    2632:	9b07      	ldr	r3, [sp, #28]
    2634:	4402      	add	r2, r0
    2636:	601a      	str	r2, [r3, #0]
/home/lubuntu/Dokument/GitHub/STM32-Computer/Firmware/STM32-Computer-Firmware/CA7/optee-os-3.19.0-r2/optee-os-stm32mp-3.19.0-stm32mp-r2/ldelf/ta_elf_rel.c:268
    2638:	b13d      	cbz	r5, 264a <e32_get_sym_name.constprop.0.isra.0+0x6a>
/home/lubuntu/Dokument/GitHub/STM32-Computer/Firmware/STM32-Computer-Firmware/CA7/optee-os-3.19.0-r2/optee-os-stm32mp-3.19.0-stm32mp-r2/ldelf/ta_elf_rel.c:270
    263a:	89cb      	ldrh	r3, [r1, #14]
    263c:	b93b      	cbnz	r3, 264e <e32_get_sym_name.constprop.0.isra.0+0x6e>
/home/lubuntu/Dokument/GitHub/STM32-Computer/Firmware/STM32-Computer-Firmware/CA7/optee-os-3.19.0-r2/optee-os-stm32mp-3.19.0-stm32mp-r2/ldelf/ta_elf_rel.c:271
    263e:	7b0b      	ldrb	r3, [r1, #12]
/home/lubuntu/Dokument/GitHub/STM32-Computer/Firmware/STM32-Computer-Firmware/CA7/optee-os-3.19.0-r2/optee-os-stm32mp-3.19.0-stm32mp-r2/ldelf/ta_elf_rel.c:270
    2640:	091b      	lsrs	r3, r3, #4
    2642:	2b02      	cmp	r3, #2
    2644:	d103      	bne.n	264e <e32_get_sym_name.constprop.0.isra.0+0x6e>
/home/lubuntu/Dokument/GitHub/STM32-Computer/Firmware/STM32-Computer-Firmware/CA7/optee-os-3.19.0-r2/optee-os-stm32mp-3.19.0-stm32mp-r2/ldelf/ta_elf_rel.c:272
    2646:	2301      	movs	r3, #1
/home/lubuntu/Dokument/GitHub/STM32-Computer/Firmware/STM32-Computer-Firmware/CA7/optee-os-3.19.0-r2/optee-os-stm32mp-3.19.0-stm32mp-r2/ldelf/ta_elf_rel.c:274
    2648:	702b      	strb	r3, [r5, #0]
/home/lubuntu/Dokument/GitHub/STM32-Computer/Firmware/STM32-Computer-Firmware/CA7/optee-os-3.19.0-r2/optee-os-stm32mp-3.19.0-stm32mp-r2/ldelf/ta_elf_rel.c:275
    264a:	b002      	add	sp, #8
    264c:	bd70      	pop	{r4, r5, r6, pc}
/home/lubuntu/Dokument/GitHub/STM32-Computer/Firmware/STM32-Computer-Firmware/CA7/optee-os-3.19.0-r2/optee-os-stm32mp-3.19.0-stm32mp-r2/ldelf/ta_elf_rel.c:274
    264e:	2300      	movs	r3, #0
    2650:	e7fa      	b.n	2648 <e32_get_sym_name.constprop.0.isra.0+0x68>
    2652:	bf00      	nop
    2654:	ffff0005 	.word	0xffff0005
    2658:	00002b35 	.word	0x00002b35
    265c:	00002d03 	.word	0x00002d03
    2660:	00002b23 	.word	0x00002b23
    2664:	00002cd7 	.word	0x00002cd7

00002668 <ta_elf_resolve_sym>:
ta_elf_resolve_sym():
/home/lubuntu/Dokument/GitHub/STM32-Computer/Firmware/STM32-Computer-Firmware/CA7/optee-os-3.19.0-r2/optee-os-stm32mp-3.19.0-stm32mp-r2/ldelf/ta_elf_rel.c:225
    2668:	e92d 41f0 	stmdb	sp!, {r4, r5, r6, r7, r8, lr}
    266c:	4605      	mov	r5, r0
    266e:	f8df 806c 	ldr.w	r8, [pc, #108]	@ 26dc <ta_elf_resolve_sym+0x74>
    2672:	460e      	mov	r6, r1
    2674:	4617      	mov	r7, r2
/home/lubuntu/Dokument/GitHub/STM32-Computer/Firmware/STM32-Computer-Firmware/CA7/optee-os-3.19.0-r2/optee-os-stm32mp-3.19.0-stm32mp-r2/ldelf/ta_elf_rel.c:226
    2676:	461c      	mov	r4, r3
/home/lubuntu/Dokument/GitHub/STM32-Computer/Firmware/STM32-Computer-Firmware/CA7/optee-os-3.19.0-r2/optee-os-stm32mp-3.19.0-stm32mp-r2/ldelf/ta_elf_rel.c:225
    2678:	44f8      	add	r8, pc
/home/lubuntu/Dokument/GitHub/STM32-Computer/Firmware/STM32-Computer-Firmware/CA7/optee-os-3.19.0-r2/optee-os-stm32mp-3.19.0-stm32mp-r2/ldelf/ta_elf_rel.c:226
    267a:	b93b      	cbnz	r3, 268c <ta_elf_resolve_sym+0x24>
/home/lubuntu/Dokument/GitHub/STM32-Computer/Firmware/STM32-Computer-Firmware/CA7/optee-os-3.19.0-r2/optee-os-stm32mp-3.19.0-stm32mp-r2/ldelf/ta_elf_rel.c:235
    267c:	4b18      	ldr	r3, [pc, #96]	@ (26e0 <ta_elf_resolve_sym+0x78>)
    267e:	f858 3003 	ldr.w	r3, [r8, r3]
    2682:	681c      	ldr	r4, [r3, #0]
/home/lubuntu/Dokument/GitHub/STM32-Computer/Firmware/STM32-Computer-Firmware/CA7/optee-os-3.19.0-r2/optee-os-stm32mp-3.19.0-stm32mp-r2/ldelf/ta_elf_rel.c:235 (discriminator 1)
    2684:	b994      	cbnz	r4, 26ac <ta_elf_resolve_sym+0x44>
/home/lubuntu/Dokument/GitHub/STM32-Computer/Firmware/STM32-Computer-Firmware/CA7/optee-os-3.19.0-r2/optee-os-stm32mp-3.19.0-stm32mp-r2/ldelf/ta_elf_rel.c:242
    2686:	4814      	ldr	r0, [pc, #80]	@ (26d8 <ta_elf_resolve_sym+0x70>)
/home/lubuntu/Dokument/GitHub/STM32-Computer/Firmware/STM32-Computer-Firmware/CA7/optee-os-3.19.0-r2/optee-os-stm32mp-3.19.0-stm32mp-r2/ldelf/ta_elf_rel.c:248
    2688:	e8bd 81f0 	ldmia.w	sp!, {r4, r5, r6, r7, r8, pc}
/home/lubuntu/Dokument/GitHub/STM32-Computer/Firmware/STM32-Computer-Firmware/CA7/optee-os-3.19.0-r2/optee-os-stm32mp-3.19.0-stm32mp-r2/ldelf/ta_elf_rel.c:228
    268c:	2300      	movs	r3, #0
    268e:	4622      	mov	r2, r4
    2690:	f7ff fec6 	bl	2420 <resolve_sym_helper>
    2694:	b138      	cbz	r0, 26a6 <ta_elf_resolve_sym+0x3e>
/home/lubuntu/Dokument/GitHub/STM32-Computer/Firmware/STM32-Computer-Firmware/CA7/optee-os-3.19.0-r2/optee-os-stm32mp-3.19.0-stm32mp-r2/ldelf/ta_elf_rel.c:231
    2696:	2301      	movs	r3, #1
    2698:	4622      	mov	r2, r4
    269a:	4631      	mov	r1, r6
    269c:	4628      	mov	r0, r5
    269e:	f7ff febf 	bl	2420 <resolve_sym_helper>
    26a2:	2800      	cmp	r0, #0
    26a4:	d1ea      	bne.n	267c <ta_elf_resolve_sym+0x14>
/home/lubuntu/Dokument/GitHub/STM32-Computer/Firmware/STM32-Computer-Firmware/CA7/optee-os-3.19.0-r2/optee-os-stm32mp-3.19.0-stm32mp-r2/ldelf/ta_elf_rel.c:245
    26a6:	b9a7      	cbnz	r7, 26d2 <ta_elf_resolve_sym+0x6a>
/home/lubuntu/Dokument/GitHub/STM32-Computer/Firmware/STM32-Computer-Firmware/CA7/optee-os-3.19.0-r2/optee-os-stm32mp-3.19.0-stm32mp-r2/ldelf/ta_elf_rel.c:247
    26a8:	2000      	movs	r0, #0
    26aa:	e7ed      	b.n	2688 <ta_elf_resolve_sym+0x20>
/home/lubuntu/Dokument/GitHub/STM32-Computer/Firmware/STM32-Computer-Firmware/CA7/optee-os-3.19.0-r2/optee-os-stm32mp-3.19.0-stm32mp-r2/ldelf/ta_elf_rel.c:236
    26ac:	2300      	movs	r3, #0
    26ae:	4622      	mov	r2, r4
    26b0:	4631      	mov	r1, r6
    26b2:	4628      	mov	r0, r5
    26b4:	f7ff feb4 	bl	2420 <resolve_sym_helper>
    26b8:	2800      	cmp	r0, #0
    26ba:	d0f4      	beq.n	26a6 <ta_elf_resolve_sym+0x3e>
/home/lubuntu/Dokument/GitHub/STM32-Computer/Firmware/STM32-Computer-Firmware/CA7/optee-os-3.19.0-r2/optee-os-stm32mp-3.19.0-stm32mp-r2/ldelf/ta_elf_rel.c:238
    26bc:	2301      	movs	r3, #1
    26be:	4622      	mov	r2, r4
    26c0:	4631      	mov	r1, r6
    26c2:	4628      	mov	r0, r5
    26c4:	f7ff feac 	bl	2420 <resolve_sym_helper>
    26c8:	2800      	cmp	r0, #0
    26ca:	d0ec      	beq.n	26a6 <ta_elf_resolve_sym+0x3e>
/home/lubuntu/Dokument/GitHub/STM32-Computer/Firmware/STM32-Computer-Firmware/CA7/optee-os-3.19.0-r2/optee-os-stm32mp-3.19.0-stm32mp-r2/ldelf/ta_elf_rel.c:235 (discriminator 2)
    26cc:	f8d4 409c 	ldr.w	r4, [r4, #156]	@ 0x9c
    26d0:	e7d8      	b.n	2684 <ta_elf_resolve_sym+0x1c>
/home/lubuntu/Dokument/GitHub/STM32-Computer/Firmware/STM32-Computer-Firmware/CA7/optee-os-3.19.0-r2/optee-os-stm32mp-3.19.0-stm32mp-r2/ldelf/ta_elf_rel.c:246
    26d2:	603c      	str	r4, [r7, #0]
    26d4:	e7e8      	b.n	26a8 <ta_elf_resolve_sym+0x40>
    26d6:	bf00      	nop
    26d8:	ffff0008 	.word	0xffff0008
    26dc:	00003a0c 	.word	0x00003a0c
    26e0:	0000000c 	.word	0x0000000c

000026e4 <e32_process_dyn_rel>:
e32_process_dyn_rel():
/home/lubuntu/Dokument/GitHub/STM32-Computer/Firmware/STM32-Computer-Firmware/CA7/optee-os-3.19.0-r2/optee-os-stm32mp-3.19.0-stm32mp-r2/ldelf/ta_elf_rel.c:293
    26e4:	b5f0      	push	{r4, r5, r6, r7, lr}
    26e6:	b089      	sub	sp, #36	@ 0x24
/home/lubuntu/Dokument/GitHub/STM32-Computer/Firmware/STM32-Computer-Firmware/CA7/optee-os-3.19.0-r2/optee-os-stm32mp-3.19.0-stm32mp-r2/ldelf/ta_elf_rel.c:298
    26e8:	f10d 0517 	add.w	r5, sp, #23
/home/lubuntu/Dokument/GitHub/STM32-Computer/Firmware/STM32-Computer-Firmware/CA7/optee-os-3.19.0-r2/optee-os-stm32mp-3.19.0-stm32mp-r2/ldelf/ta_elf_rel.c:294
    26ec:	2400      	movs	r4, #0
/home/lubuntu/Dokument/GitHub/STM32-Computer/Firmware/STM32-Computer-Firmware/CA7/optee-os-3.19.0-r2/optee-os-stm32mp-3.19.0-stm32mp-r2/ldelf/ta_elf_rel.c:298
    26ee:	9502      	str	r5, [sp, #8]
    26f0:	ad06      	add	r5, sp, #24
    26f2:	9501      	str	r5, [sp, #4]
    26f4:	9d0e      	ldr	r5, [sp, #56]	@ 0x38
/home/lubuntu/Dokument/GitHub/STM32-Computer/Firmware/STM32-Computer-Firmware/CA7/optee-os-3.19.0-r2/optee-os-stm32mp-3.19.0-stm32mp-r2/ldelf/ta_elf_rel.c:295
    26f6:	e9cd 4406 	strd	r4, r4, [sp, #24]
/home/lubuntu/Dokument/GitHub/STM32-Computer/Firmware/STM32-Computer-Firmware/CA7/optee-os-3.19.0-r2/optee-os-stm32mp-3.19.0-stm32mp-r2/ldelf/ta_elf_rel.c:298
    26fa:	686d      	ldr	r5, [r5, #4]
/home/lubuntu/Dokument/GitHub/STM32-Computer/Firmware/STM32-Computer-Firmware/CA7/optee-os-3.19.0-r2/optee-os-stm32mp-3.19.0-stm32mp-r2/ldelf/ta_elf_rel.c:296
    26fc:	f88d 4017 	strb.w	r4, [sp, #23]
/home/lubuntu/Dokument/GitHub/STM32-Computer/Firmware/STM32-Computer-Firmware/CA7/optee-os-3.19.0-r2/optee-os-stm32mp-3.19.0-stm32mp-r2/ldelf/ta_elf_rel.c:298
    2700:	9500      	str	r5, [sp, #0]
    2702:	f7ff ff6d 	bl	25e0 <e32_get_sym_name.constprop.0.isra.0>
/home/lubuntu/Dokument/GitHub/STM32-Computer/Firmware/STM32-Computer-Firmware/CA7/optee-os-3.19.0-r2/optee-os-stm32mp-3.19.0-stm32mp-r2/ldelf/ta_elf_rel.c:300
    2706:	9e06      	ldr	r6, [sp, #24]
resolve_sym():
/home/lubuntu/Dokument/GitHub/STM32-Computer/Firmware/STM32-Computer-Firmware/CA7/optee-os-3.19.0-r2/optee-os-stm32mp-3.19.0-stm32mp-r2/ldelf/ta_elf_rel.c:280
    2708:	4623      	mov	r3, r4
e32_process_dyn_rel():
/home/lubuntu/Dokument/GitHub/STM32-Computer/Firmware/STM32-Computer-Firmware/CA7/optee-os-3.19.0-r2/optee-os-stm32mp-3.19.0-stm32mp-r2/ldelf/ta_elf_rel.c:300
    270a:	f89d 7017 	ldrb.w	r7, [sp, #23]
resolve_sym():
/home/lubuntu/Dokument/GitHub/STM32-Computer/Firmware/STM32-Computer-Firmware/CA7/optee-os-3.19.0-r2/optee-os-stm32mp-3.19.0-stm32mp-r2/ldelf/ta_elf_rel.c:280
    270e:	4622      	mov	r2, r4
    2710:	a907      	add	r1, sp, #28
    2712:	4630      	mov	r0, r6
    2714:	f7ff ffa8 	bl	2668 <ta_elf_resolve_sym>
/home/lubuntu/Dokument/GitHub/STM32-Computer/Firmware/STM32-Computer-Firmware/CA7/optee-os-3.19.0-r2/optee-os-stm32mp-3.19.0-stm32mp-r2/ldelf/ta_elf_rel.c:282
    2718:	4605      	mov	r5, r0
    271a:	b180      	cbz	r0, 273e <e32_process_dyn_rel+0x5a>
/home/lubuntu/Dokument/GitHub/STM32-Computer/Firmware/STM32-Computer-Firmware/CA7/optee-os-3.19.0-r2/optee-os-stm32mp-3.19.0-stm32mp-r2/ldelf/ta_elf_rel.c:283
    271c:	b977      	cbnz	r7, 273c <e32_process_dyn_rel+0x58>
/home/lubuntu/Dokument/GitHub/STM32-Computer/Firmware/STM32-Computer-Firmware/CA7/optee-os-3.19.0-r2/optee-os-stm32mp-3.19.0-stm32mp-r2/ldelf/ta_elf_rel.c:284
    271e:	4b0a      	ldr	r3, [pc, #40]	@ (2748 <e32_process_dyn_rel+0x64>)
    2720:	f44f 718e 	mov.w	r1, #284	@ 0x11c
    2724:	4809      	ldr	r0, [pc, #36]	@ (274c <e32_process_dyn_rel+0x68>)
    2726:	447b      	add	r3, pc
    2728:	9300      	str	r3, [sp, #0]
    272a:	2301      	movs	r3, #1
    272c:	4478      	add	r0, pc
    272e:	461a      	mov	r2, r3
    2730:	9601      	str	r6, [sp, #4]
    2732:	f001 fec1 	bl	44b8 <trace_printf>
    2736:	4628      	mov	r0, r5
    2738:	f7fd ec9e 	blx	78 <_ldelf_return>
/home/lubuntu/Dokument/GitHub/STM32-Computer/Firmware/STM32-Computer-Firmware/CA7/optee-os-3.19.0-r2/optee-os-stm32mp-3.19.0-stm32mp-r2/ldelf/ta_elf_rel.c:286
    273c:	9407      	str	r4, [sp, #28]
e32_process_dyn_rel():
/home/lubuntu/Dokument/GitHub/STM32-Computer/Firmware/STM32-Computer-Firmware/CA7/optee-os-3.19.0-r2/optee-os-stm32mp-3.19.0-stm32mp-r2/ldelf/ta_elf_rel.c:301
    273e:	9b0f      	ldr	r3, [sp, #60]	@ 0x3c
    2740:	9a07      	ldr	r2, [sp, #28]
    2742:	601a      	str	r2, [r3, #0]
/home/lubuntu/Dokument/GitHub/STM32-Computer/Firmware/STM32-Computer-Firmware/CA7/optee-os-3.19.0-r2/optee-os-stm32mp-3.19.0-stm32mp-r2/ldelf/ta_elf_rel.c:302
    2744:	b009      	add	sp, #36	@ 0x24
    2746:	bdf0      	pop	{r4, r5, r6, r7, pc}
    2748:	00002a3b 	.word	0x00002a3b
    274c:	00002bcb 	.word	0x00002bcb

00002750 <ta_elf_relocate>:
ta_elf_relocate():
/home/lubuntu/Dokument/GitHub/STM32-Computer/Firmware/STM32-Computer-Firmware/CA7/optee-os-3.19.0-r2/optee-os-stm32mp-3.19.0-stm32mp-r2/ldelf/ta_elf_rel.c:710
    2750:	e92d 4ff0 	stmdb	sp!, {r4, r5, r6, r7, r8, r9, sl, fp, lr}
    2754:	b08f      	sub	sp, #60	@ 0x3c
/home/lubuntu/Dokument/GitHub/STM32-Computer/Firmware/STM32-Computer-Firmware/CA7/optee-os-3.19.0-r2/optee-os-stm32mp-3.19.0-stm32mp-r2/ldelf/ta_elf_rel.c:714
    2756:	6b43      	ldr	r3, [r0, #52]	@ 0x34
/home/lubuntu/Dokument/GitHub/STM32-Computer/Firmware/STM32-Computer-Firmware/CA7/optee-os-3.19.0-r2/optee-os-stm32mp-3.19.0-stm32mp-r2/ldelf/ta_elf_rel.c:710
    2758:	4606      	mov	r6, r0
/home/lubuntu/Dokument/GitHub/STM32-Computer/Firmware/STM32-Computer-Firmware/CA7/optee-os-3.19.0-r2/optee-os-stm32mp-3.19.0-stm32mp-r2/ldelf/ta_elf_rel.c:722
    275a:	6a41      	ldr	r1, [r0, #36]	@ 0x24
/home/lubuntu/Dokument/GitHub/STM32-Computer/Firmware/STM32-Computer-Firmware/CA7/optee-os-3.19.0-r2/optee-os-stm32mp-3.19.0-stm32mp-r2/ldelf/ta_elf_rel.c:714
    275c:	9306      	str	r3, [sp, #24]
/home/lubuntu/Dokument/GitHub/STM32-Computer/Firmware/STM32-Computer-Firmware/CA7/optee-os-3.19.0-r2/optee-os-stm32mp-3.19.0-stm32mp-r2/ldelf/ta_elf_rel.c:713
    275e:	7843      	ldrb	r3, [r0, #1]
    2760:	2b00      	cmp	r3, #0
    2762:	f040 8229 	bne.w	2bb8 <ta_elf_relocate+0x468>
/home/lubuntu/Dokument/GitHub/STM32-Computer/Firmware/STM32-Computer-Firmware/CA7/optee-os-3.19.0-r2/optee-os-stm32mp-3.19.0-stm32mp-r2/ldelf/ta_elf_rel.c:723
    2766:	9a06      	ldr	r2, [sp, #24]
    2768:	3204      	adds	r2, #4
/home/lubuntu/Dokument/GitHub/STM32-Computer/Firmware/STM32-Computer-Firmware/CA7/optee-os-3.19.0-r2/optee-os-stm32mp-3.19.0-stm32mp-r2/ldelf/ta_elf_rel.c:722 (discriminator 1)
    276a:	428b      	cmp	r3, r1
    276c:	d020      	beq.n	27b0 <ta_elf_relocate+0x60>
/home/lubuntu/Dokument/GitHub/STM32-Computer/Firmware/STM32-Computer-Firmware/CA7/optee-os-3.19.0-r2/optee-os-stm32mp-3.19.0-stm32mp-r2/ldelf/ta_elf_rel.c:723
    276e:	0198      	lsls	r0, r3, #6
    2770:	5810      	ldr	r0, [r2, r0]
    2772:	2804      	cmp	r0, #4
    2774:	f040 8222 	bne.w	2bbc <ta_elf_relocate+0x46c>
e64_relocate():
/home/lubuntu/Dokument/GitHub/STM32-Computer/Firmware/STM32-Computer-Firmware/CA7/optee-os-3.19.0-r2/optee-os-stm32mp-3.19.0-stm32mp-r2/ldelf/ta_elf_rel.c:705
    2778:	4baf      	ldr	r3, [pc, #700]	@ (2a38 <ta_elf_relocate+0x2e8>)
    277a:	f240 21c1 	movw	r1, #705	@ 0x2c1
    277e:	48af      	ldr	r0, [pc, #700]	@ (2a3c <ta_elf_relocate+0x2ec>)
    2780:	447b      	add	r3, pc
    2782:	9300      	str	r3, [sp, #0]
    2784:	2301      	movs	r3, #1
    2786:	4478      	add	r0, pc
    2788:	461a      	mov	r2, r3
    278a:	f001 fe95 	bl	44b8 <trace_printf>
    278e:	48a8      	ldr	r0, [pc, #672]	@ (2a30 <ta_elf_relocate+0x2e0>)
    2790:	e040      	b.n	2814 <ta_elf_relocate+0xc4>
ta_elf_relocate():
/home/lubuntu/Dokument/GitHub/STM32-Computer/Firmware/STM32-Computer-Firmware/CA7/optee-os-3.19.0-r2/optee-os-stm32mp-3.19.0-stm32mp-r2/ldelf/ta_elf_rel.c:717
    2792:	9b05      	ldr	r3, [sp, #20]
    2794:	2228      	movs	r2, #40	@ 0x28
    2796:	4353      	muls	r3, r2
    2798:	9a06      	ldr	r2, [sp, #24]
    279a:	3204      	adds	r2, #4
    279c:	58d2      	ldr	r2, [r2, r3]
    279e:	2a09      	cmp	r2, #9
    27a0:	d009      	beq.n	27b6 <ta_elf_relocate+0x66>
/home/lubuntu/Dokument/GitHub/STM32-Computer/Firmware/STM32-Computer-Firmware/CA7/optee-os-3.19.0-r2/optee-os-stm32mp-3.19.0-stm32mp-r2/ldelf/ta_elf_rel.c:716
    27a2:	9b05      	ldr	r3, [sp, #20]
    27a4:	3301      	adds	r3, #1
    27a6:	9305      	str	r3, [sp, #20]
    27a8:	6a71      	ldr	r1, [r6, #36]	@ 0x24
    27aa:	9b05      	ldr	r3, [sp, #20]
    27ac:	4299      	cmp	r1, r3
    27ae:	d8f0      	bhi.n	2792 <ta_elf_relocate+0x42>
/home/lubuntu/Dokument/GitHub/STM32-Computer/Firmware/STM32-Computer-Firmware/CA7/optee-os-3.19.0-r2/optee-os-stm32mp-3.19.0-stm32mp-r2/ldelf/ta_elf_rel.c:727
    27b0:	b00f      	add	sp, #60	@ 0x3c
    27b2:	e8bd 8ff0 	ldmia.w	sp!, {r4, r5, r6, r7, r8, r9, sl, fp, pc}
e32_relocate():
/home/lubuntu/Dokument/GitHub/STM32-Computer/Firmware/STM32-Computer-Firmware/CA7/optee-os-3.19.0-r2/optee-os-stm32mp-3.19.0-stm32mp-r2/ldelf/ta_elf_rel.c:338
    27b6:	6b72      	ldr	r2, [r6, #52]	@ 0x34
/home/lubuntu/Dokument/GitHub/STM32-Computer/Firmware/STM32-Computer-Firmware/CA7/optee-os-3.19.0-r2/optee-os-stm32mp-3.19.0-stm32mp-r2/ldelf/ta_elf_rel.c:348
    27b8:	4413      	add	r3, r2
    27ba:	6858      	ldr	r0, [r3, #4]
    27bc:	2809      	cmp	r0, #9
    27be:	d00b      	beq.n	27d8 <ta_elf_relocate+0x88>
_assert_trap():
/home/lubuntu/Dokument/GitHub/STM32-Computer/Firmware/STM32-Computer-Firmware/CA7/optee-os-3.19.0-r2/optee-os-stm32mp-3.19.0-stm32mp-r2/lib/libutils/isoc/include/assert.h:19
    27c0:	4b9f      	ldr	r3, [pc, #636]	@ (2a40 <ta_elf_relocate+0x2f0>)
    27c2:	f44f 72ae 	mov.w	r2, #348	@ 0x15c
    27c6:	499f      	ldr	r1, [pc, #636]	@ (2a44 <ta_elf_relocate+0x2f4>)
    27c8:	489f      	ldr	r0, [pc, #636]	@ (2a48 <ta_elf_relocate+0x2f8>)
    27ca:	447b      	add	r3, pc
    27cc:	4479      	add	r1, pc
    27ce:	4478      	add	r0, pc
    27d0:	f000 fbb0 	bl	2f34 <_assert_log>
/home/lubuntu/Dokument/GitHub/STM32-Computer/Firmware/STM32-Computer-Firmware/CA7/optee-os-3.19.0-r2/optee-os-stm32mp-3.19.0-stm32mp-r2/lib/libutils/isoc/include/assert.h:20
    27d4:	f000 fbc2 	bl	2f5c <_assert_break>
e32_relocate():
/home/lubuntu/Dokument/GitHub/STM32-Computer/Firmware/STM32-Computer-Firmware/CA7/optee-os-3.19.0-r2/optee-os-stm32mp-3.19.0-stm32mp-r2/ldelf/ta_elf_rel.c:350
    27d8:	6a58      	ldr	r0, [r3, #36]	@ 0x24
    27da:	2808      	cmp	r0, #8
    27dc:	d008      	beq.n	27f0 <ta_elf_relocate+0xa0>
_assert_trap():
/home/lubuntu/Dokument/GitHub/STM32-Computer/Firmware/STM32-Computer-Firmware/CA7/optee-os-3.19.0-r2/optee-os-stm32mp-3.19.0-stm32mp-r2/lib/libutils/isoc/include/assert.h:19
    27de:	4b9b      	ldr	r3, [pc, #620]	@ (2a4c <ta_elf_relocate+0x2fc>)
    27e0:	f44f 72af 	mov.w	r2, #350	@ 0x15e
    27e4:	499a      	ldr	r1, [pc, #616]	@ (2a50 <ta_elf_relocate+0x300>)
    27e6:	489b      	ldr	r0, [pc, #620]	@ (2a54 <ta_elf_relocate+0x304>)
    27e8:	447b      	add	r3, pc
    27ea:	4479      	add	r1, pc
    27ec:	4478      	add	r0, pc
    27ee:	e7ef      	b.n	27d0 <ta_elf_relocate+0x80>
e32_relocate():
/home/lubuntu/Dokument/GitHub/STM32-Computer/Firmware/STM32-Computer-Firmware/CA7/optee-os-3.19.0-r2/optee-os-stm32mp-3.19.0-stm32mp-r2/ldelf/ta_elf_rel.c:352
    27f0:	699c      	ldr	r4, [r3, #24]
/home/lubuntu/Dokument/GitHub/STM32-Computer/Firmware/STM32-Computer-Firmware/CA7/optee-os-3.19.0-r2/optee-os-stm32mp-3.19.0-stm32mp-r2/ldelf/ta_elf_rel.c:353
    27f2:	2c00      	cmp	r4, #0
    27f4:	f000 808b 	beq.w	290e <ta_elf_relocate+0x1be>
/home/lubuntu/Dokument/GitHub/STM32-Computer/Firmware/STM32-Computer-Firmware/CA7/optee-os-3.19.0-r2/optee-os-stm32mp-3.19.0-stm32mp-r2/ldelf/ta_elf_rel.c:356
    27f8:	42a1      	cmp	r1, r4
    27fa:	d80d      	bhi.n	2818 <ta_elf_relocate+0xc8>
/home/lubuntu/Dokument/GitHub/STM32-Computer/Firmware/STM32-Computer-Firmware/CA7/optee-os-3.19.0-r2/optee-os-stm32mp-3.19.0-stm32mp-r2/ldelf/ta_elf_rel.c:357
    27fc:	4b96      	ldr	r3, [pc, #600]	@ (2a58 <ta_elf_relocate+0x308>)
    27fe:	f240 1165 	movw	r1, #357	@ 0x165
    2802:	4896      	ldr	r0, [pc, #600]	@ (2a5c <ta_elf_relocate+0x30c>)
    2804:	447b      	add	r3, pc
    2806:	9300      	str	r3, [sp, #0]
    2808:	2301      	movs	r3, #1
    280a:	4478      	add	r0, pc
    280c:	461a      	mov	r2, r3
/home/lubuntu/Dokument/GitHub/STM32-Computer/Firmware/STM32-Computer-Firmware/CA7/optee-os-3.19.0-r2/optee-os-stm32mp-3.19.0-stm32mp-r2/ldelf/ta_elf_rel.c:365
    280e:	f001 fe53 	bl	44b8 <trace_printf>
/home/lubuntu/Dokument/GitHub/STM32-Computer/Firmware/STM32-Computer-Firmware/CA7/optee-os-3.19.0-r2/optee-os-stm32mp-3.19.0-stm32mp-r2/ldelf/ta_elf_rel.c:475
    2812:	4888      	ldr	r0, [pc, #544]	@ (2a34 <ta_elf_relocate+0x2e4>)
e64_relocate():
/home/lubuntu/Dokument/GitHub/STM32-Computer/Firmware/STM32-Computer-Firmware/CA7/optee-os-3.19.0-r2/optee-os-stm32mp-3.19.0-stm32mp-r2/ldelf/ta_elf_rel.c:705
    2814:	f7fd ec30 	blx	78 <_ldelf_return>
e32_relocate():
/home/lubuntu/Dokument/GitHub/STM32-Computer/Firmware/STM32-Computer-Firmware/CA7/optee-os-3.19.0-r2/optee-os-stm32mp-3.19.0-stm32mp-r2/ldelf/ta_elf_rel.c:358
    2818:	4620      	mov	r0, r4
/home/lubuntu/Dokument/GitHub/STM32-Computer/Firmware/STM32-Computer-Firmware/CA7/optee-os-3.19.0-r2/optee-os-stm32mp-3.19.0-stm32mp-r2/ldelf/ta_elf_rel.c:360
    281a:	2428      	movs	r4, #40	@ 0x28
/home/lubuntu/Dokument/GitHub/STM32-Computer/Firmware/STM32-Computer-Firmware/CA7/optee-os-3.19.0-r2/optee-os-stm32mp-3.19.0-stm32mp-r2/ldelf/ta_elf_rel.c:358
    281c:	f001 fc8f 	bl	413e <confine_array_index>
/home/lubuntu/Dokument/GitHub/STM32-Computer/Firmware/STM32-Computer-Firmware/CA7/optee-os-3.19.0-r2/optee-os-stm32mp-3.19.0-stm32mp-r2/ldelf/ta_elf_rel.c:360
    2820:	fb04 2000 	mla	r0, r4, r0, r2
    2824:	6a44      	ldr	r4, [r0, #36]	@ 0x24
    2826:	2c10      	cmp	r4, #16
    2828:	d008      	beq.n	283c <ta_elf_relocate+0xec>
_assert_trap():
/home/lubuntu/Dokument/GitHub/STM32-Computer/Firmware/STM32-Computer-Firmware/CA7/optee-os-3.19.0-r2/optee-os-stm32mp-3.19.0-stm32mp-r2/lib/libutils/isoc/include/assert.h:19
    282a:	4b8d      	ldr	r3, [pc, #564]	@ (2a60 <ta_elf_relocate+0x310>)
    282c:	f44f 72b4 	mov.w	r2, #360	@ 0x168
    2830:	498c      	ldr	r1, [pc, #560]	@ (2a64 <ta_elf_relocate+0x314>)
    2832:	488d      	ldr	r0, [pc, #564]	@ (2a68 <ta_elf_relocate+0x318>)
    2834:	447b      	add	r3, pc
    2836:	4479      	add	r1, pc
    2838:	4478      	add	r0, pc
    283a:	e7c9      	b.n	27d0 <ta_elf_relocate+0x80>
e32_relocate():
/home/lubuntu/Dokument/GitHub/STM32-Computer/Firmware/STM32-Computer-Firmware/CA7/optee-os-3.19.0-r2/optee-os-stm32mp-3.19.0-stm32mp-r2/ldelf/ta_elf_rel.c:363
    283c:	68c5      	ldr	r5, [r0, #12]
    283e:	6944      	ldr	r4, [r0, #20]
    2840:	eb15 0c04 	adds.w	ip, r5, r4
    2844:	d210      	bcs.n	2868 <ta_elf_relocate+0x118>
/home/lubuntu/Dokument/GitHub/STM32-Computer/Firmware/STM32-Computer-Firmware/CA7/optee-os-3.19.0-r2/optee-os-stm32mp-3.19.0-stm32mp-r2/ldelf/ta_elf_rel.c:366
    2846:	f8d6 b004 	ldr.w	fp, [r6, #4]
    284a:	68b7      	ldr	r7, [r6, #8]
    284c:	eba7 070b 	sub.w	r7, r7, fp
    2850:	45bc      	cmp	ip, r7
    2852:	d313      	bcc.n	287c <ta_elf_relocate+0x12c>
/home/lubuntu/Dokument/GitHub/STM32-Computer/Firmware/STM32-Computer-Firmware/CA7/optee-os-3.19.0-r2/optee-os-stm32mp-3.19.0-stm32mp-r2/ldelf/ta_elf_rel.c:367
    2854:	4b85      	ldr	r3, [pc, #532]	@ (2a6c <ta_elf_relocate+0x31c>)
    2856:	f240 116f 	movw	r1, #367	@ 0x16f
    285a:	4885      	ldr	r0, [pc, #532]	@ (2a70 <ta_elf_relocate+0x320>)
    285c:	447b      	add	r3, pc
    285e:	9300      	str	r3, [sp, #0]
    2860:	2301      	movs	r3, #1
    2862:	4478      	add	r0, pc
    2864:	461a      	mov	r2, r3
    2866:	e7d2      	b.n	280e <ta_elf_relocate+0xbe>
/home/lubuntu/Dokument/GitHub/STM32-Computer/Firmware/STM32-Computer-Firmware/CA7/optee-os-3.19.0-r2/optee-os-stm32mp-3.19.0-stm32mp-r2/ldelf/ta_elf_rel.c:365
    2868:	4b82      	ldr	r3, [pc, #520]	@ (2a74 <ta_elf_relocate+0x324>)
    286a:	f240 116d 	movw	r1, #365	@ 0x16d
    286e:	4882      	ldr	r0, [pc, #520]	@ (2a78 <ta_elf_relocate+0x328>)
    2870:	447b      	add	r3, pc
    2872:	9300      	str	r3, [sp, #0]
    2874:	2301      	movs	r3, #1
    2876:	4478      	add	r0, pc
    2878:	461a      	mov	r2, r3
    287a:	e7c8      	b.n	280e <ta_elf_relocate+0xbe>
/home/lubuntu/Dokument/GitHub/STM32-Computer/Firmware/STM32-Computer-Firmware/CA7/optee-os-3.19.0-r2/optee-os-stm32mp-3.19.0-stm32mp-r2/ldelf/ta_elf_rel.c:374
    287c:	f8d0 9018 	ldr.w	r9, [r0, #24]
/home/lubuntu/Dokument/GitHub/STM32-Computer/Firmware/STM32-Computer-Firmware/CA7/optee-os-3.19.0-r2/optee-os-stm32mp-3.19.0-stm32mp-r2/ldelf/ta_elf_rel.c:369
    2880:	445d      	add	r5, fp
/home/lubuntu/Dokument/GitHub/STM32-Computer/Firmware/STM32-Computer-Firmware/CA7/optee-os-3.19.0-r2/optee-os-stm32mp-3.19.0-stm32mp-r2/ldelf/ta_elf_rel.c:372
    2882:	0924      	lsrs	r4, r4, #4
/home/lubuntu/Dokument/GitHub/STM32-Computer/Firmware/STM32-Computer-Firmware/CA7/optee-os-3.19.0-r2/optee-os-stm32mp-3.19.0-stm32mp-r2/ldelf/ta_elf_rel.c:375
    2884:	f1b9 0f00 	cmp.w	r9, #0
    2888:	d045      	beq.n	2916 <ta_elf_relocate+0x1c6>
/home/lubuntu/Dokument/GitHub/STM32-Computer/Firmware/STM32-Computer-Firmware/CA7/optee-os-3.19.0-r2/optee-os-stm32mp-3.19.0-stm32mp-r2/ldelf/ta_elf_rel.c:376
    288a:	4549      	cmp	r1, r9
    288c:	d809      	bhi.n	28a2 <ta_elf_relocate+0x152>
/home/lubuntu/Dokument/GitHub/STM32-Computer/Firmware/STM32-Computer-Firmware/CA7/optee-os-3.19.0-r2/optee-os-stm32mp-3.19.0-stm32mp-r2/ldelf/ta_elf_rel.c:377
    288e:	4b7b      	ldr	r3, [pc, #492]	@ (2a7c <ta_elf_relocate+0x32c>)
    2890:	f240 1179 	movw	r1, #377	@ 0x179
    2894:	487a      	ldr	r0, [pc, #488]	@ (2a80 <ta_elf_relocate+0x330>)
    2896:	447b      	add	r3, pc
    2898:	9300      	str	r3, [sp, #0]
    289a:	2301      	movs	r3, #1
    289c:	4478      	add	r0, pc
    289e:	461a      	mov	r2, r3
    28a0:	e7b5      	b.n	280e <ta_elf_relocate+0xbe>
/home/lubuntu/Dokument/GitHub/STM32-Computer/Firmware/STM32-Computer-Firmware/CA7/optee-os-3.19.0-r2/optee-os-stm32mp-3.19.0-stm32mp-r2/ldelf/ta_elf_rel.c:379
    28a2:	4648      	mov	r0, r9
    28a4:	f001 fc4b 	bl	413e <confine_array_index>
/home/lubuntu/Dokument/GitHub/STM32-Computer/Firmware/STM32-Computer-Firmware/CA7/optee-os-3.19.0-r2/optee-os-stm32mp-3.19.0-stm32mp-r2/ldelf/ta_elf_rel.c:383
    28a8:	2128      	movs	r1, #40	@ 0x28
    28aa:	fb01 2200 	mla	r2, r1, r0, r2
    28ae:	68d1      	ldr	r1, [r2, #12]
    28b0:	f8d2 9014 	ldr.w	r9, [r2, #20]
    28b4:	eb11 0209 	adds.w	r2, r1, r9
    28b8:	d20b      	bcs.n	28d2 <ta_elf_relocate+0x182>
/home/lubuntu/Dokument/GitHub/STM32-Computer/Firmware/STM32-Computer-Firmware/CA7/optee-os-3.19.0-r2/optee-os-stm32mp-3.19.0-stm32mp-r2/ldelf/ta_elf_rel.c:386
    28ba:	4297      	cmp	r7, r2
    28bc:	d813      	bhi.n	28e6 <ta_elf_relocate+0x196>
/home/lubuntu/Dokument/GitHub/STM32-Computer/Firmware/STM32-Computer-Firmware/CA7/optee-os-3.19.0-r2/optee-os-stm32mp-3.19.0-stm32mp-r2/ldelf/ta_elf_rel.c:387
    28be:	4b71      	ldr	r3, [pc, #452]	@ (2a84 <ta_elf_relocate+0x334>)
    28c0:	f240 1183 	movw	r1, #387	@ 0x183
    28c4:	4870      	ldr	r0, [pc, #448]	@ (2a88 <ta_elf_relocate+0x338>)
    28c6:	447b      	add	r3, pc
    28c8:	9300      	str	r3, [sp, #0]
    28ca:	2301      	movs	r3, #1
    28cc:	4478      	add	r0, pc
    28ce:	461a      	mov	r2, r3
    28d0:	e79d      	b.n	280e <ta_elf_relocate+0xbe>
/home/lubuntu/Dokument/GitHub/STM32-Computer/Firmware/STM32-Computer-Firmware/CA7/optee-os-3.19.0-r2/optee-os-stm32mp-3.19.0-stm32mp-r2/ldelf/ta_elf_rel.c:385
    28d2:	4b6e      	ldr	r3, [pc, #440]	@ (2a8c <ta_elf_relocate+0x33c>)
    28d4:	f240 1181 	movw	r1, #385	@ 0x181
    28d8:	486d      	ldr	r0, [pc, #436]	@ (2a90 <ta_elf_relocate+0x340>)
    28da:	447b      	add	r3, pc
    28dc:	9300      	str	r3, [sp, #0]
    28de:	2301      	movs	r3, #1
    28e0:	4478      	add	r0, pc
    28e2:	461a      	mov	r2, r3
    28e4:	e793      	b.n	280e <ta_elf_relocate+0xbe>
/home/lubuntu/Dokument/GitHub/STM32-Computer/Firmware/STM32-Computer-Firmware/CA7/optee-os-3.19.0-r2/optee-os-stm32mp-3.19.0-stm32mp-r2/ldelf/ta_elf_rel.c:390
    28e6:	448b      	add	fp, r1
/home/lubuntu/Dokument/GitHub/STM32-Computer/Firmware/STM32-Computer-Firmware/CA7/optee-os-3.19.0-r2/optee-os-stm32mp-3.19.0-stm32mp-r2/ldelf/ta_elf_rel.c:397
    28e8:	68df      	ldr	r7, [r3, #12]
    28ea:	695b      	ldr	r3, [r3, #20]
    28ec:	18f8      	adds	r0, r7, r3
    28ee:	d215      	bcs.n	291c <ta_elf_relocate+0x1cc>
/home/lubuntu/Dokument/GitHub/STM32-Computer/Firmware/STM32-Computer-Firmware/CA7/optee-os-3.19.0-r2/optee-os-stm32mp-3.19.0-stm32mp-r2/ldelf/ta_elf_rel.c:400
    28f0:	6871      	ldr	r1, [r6, #4]
    28f2:	68b2      	ldr	r2, [r6, #8]
    28f4:	1a52      	subs	r2, r2, r1
    28f6:	4290      	cmp	r0, r2
    28f8:	d31a      	bcc.n	2930 <ta_elf_relocate+0x1e0>
/home/lubuntu/Dokument/GitHub/STM32-Computer/Firmware/STM32-Computer-Firmware/CA7/optee-os-3.19.0-r2/optee-os-stm32mp-3.19.0-stm32mp-r2/ldelf/ta_elf_rel.c:401
    28fa:	4b66      	ldr	r3, [pc, #408]	@ (2a94 <ta_elf_relocate+0x344>)
    28fc:	f240 1191 	movw	r1, #401	@ 0x191
    2900:	4865      	ldr	r0, [pc, #404]	@ (2a98 <ta_elf_relocate+0x348>)
    2902:	447b      	add	r3, pc
    2904:	9300      	str	r3, [sp, #0]
    2906:	2301      	movs	r3, #1
    2908:	4478      	add	r0, pc
    290a:	461a      	mov	r2, r3
    290c:	e77f      	b.n	280e <ta_elf_relocate+0xbe>
/home/lubuntu/Dokument/GitHub/STM32-Computer/Firmware/STM32-Computer-Firmware/CA7/optee-os-3.19.0-r2/optee-os-stm32mp-3.19.0-stm32mp-r2/ldelf/ta_elf_rel.c:346
    290e:	46a1      	mov	r9, r4
/home/lubuntu/Dokument/GitHub/STM32-Computer/Firmware/STM32-Computer-Firmware/CA7/optee-os-3.19.0-r2/optee-os-stm32mp-3.19.0-stm32mp-r2/ldelf/ta_elf_rel.c:345
    2910:	46a3      	mov	fp, r4
/home/lubuntu/Dokument/GitHub/STM32-Computer/Firmware/STM32-Computer-Firmware/CA7/optee-os-3.19.0-r2/optee-os-stm32mp-3.19.0-stm32mp-r2/ldelf/ta_elf_rel.c:342
    2912:	4625      	mov	r5, r4
    2914:	e7e8      	b.n	28e8 <ta_elf_relocate+0x198>
/home/lubuntu/Dokument/GitHub/STM32-Computer/Firmware/STM32-Computer-Firmware/CA7/optee-os-3.19.0-r2/optee-os-stm32mp-3.19.0-stm32mp-r2/ldelf/ta_elf_rel.c:345
    2916:	f04f 0b00 	mov.w	fp, #0
    291a:	e7e5      	b.n	28e8 <ta_elf_relocate+0x198>
/home/lubuntu/Dokument/GitHub/STM32-Computer/Firmware/STM32-Computer-Firmware/CA7/optee-os-3.19.0-r2/optee-os-stm32mp-3.19.0-stm32mp-r2/ldelf/ta_elf_rel.c:399
    291c:	4b5f      	ldr	r3, [pc, #380]	@ (2a9c <ta_elf_relocate+0x34c>)
    291e:	f240 118f 	movw	r1, #399	@ 0x18f
    2922:	485f      	ldr	r0, [pc, #380]	@ (2aa0 <ta_elf_relocate+0x350>)
    2924:	447b      	add	r3, pc
    2926:	9300      	str	r3, [sp, #0]
    2928:	2301      	movs	r3, #1
    292a:	4478      	add	r0, pc
    292c:	461a      	mov	r2, r3
    292e:	e76e      	b.n	280e <ta_elf_relocate+0xbe>
/home/lubuntu/Dokument/GitHub/STM32-Computer/Firmware/STM32-Computer-Firmware/CA7/optee-os-3.19.0-r2/optee-os-stm32mp-3.19.0-stm32mp-r2/ldelf/ta_elf_rel.c:402
    2930:	440f      	add	r7, r1
/home/lubuntu/Dokument/GitHub/STM32-Computer/Firmware/STM32-Computer-Firmware/CA7/optee-os-3.19.0-r2/optee-os-stm32mp-3.19.0-stm32mp-r2/ldelf/ta_elf_rel.c:404
    2932:	f023 0307 	bic.w	r3, r3, #7
    2936:	18fb      	adds	r3, r7, r3
    2938:	9308      	str	r3, [sp, #32]
e32_tls_resolve():
/home/lubuntu/Dokument/GitHub/STM32-Computer/Firmware/STM32-Computer-Firmware/CA7/optee-os-3.19.0-r2/optee-os-stm32mp-3.19.0-stm32mp-r2/ldelf/ta_elf_rel.c:331
    293a:	ab0d      	add	r3, sp, #52	@ 0x34
    293c:	9307      	str	r3, [sp, #28]
resolve_sym():
/home/lubuntu/Dokument/GitHub/STM32-Computer/Firmware/STM32-Computer-Firmware/CA7/optee-os-3.19.0-r2/optee-os-stm32mp-3.19.0-stm32mp-r2/ldelf/ta_elf_rel.c:280
    293e:	ab0c      	add	r3, sp, #48	@ 0x30
    2940:	9309      	str	r3, [sp, #36]	@ 0x24
e32_relocate():
/home/lubuntu/Dokument/GitHub/STM32-Computer/Firmware/STM32-Computer-Firmware/CA7/optee-os-3.19.0-r2/optee-os-stm32mp-3.19.0-stm32mp-r2/ldelf/ta_elf_rel.c:405
    2942:	9b08      	ldr	r3, [sp, #32]
    2944:	42bb      	cmp	r3, r7
    2946:	f67f af2c 	bls.w	27a2 <ta_elf_relocate+0x52>
/home/lubuntu/Dokument/GitHub/STM32-Computer/Firmware/STM32-Computer-Firmware/CA7/optee-os-3.19.0-r2/optee-os-stm32mp-3.19.0-stm32mp-r2/ldelf/ta_elf_rel.c:412
    294a:	f8d6 8004 	ldr.w	r8, [r6, #4]
/home/lubuntu/Dokument/GitHub/STM32-Computer/Firmware/STM32-Computer-Firmware/CA7/optee-os-3.19.0-r2/optee-os-stm32mp-3.19.0-stm32mp-r2/ldelf/ta_elf_rel.c:406
    294e:	2300      	movs	r3, #0
    2950:	930b      	str	r3, [sp, #44]	@ 0x2c
/home/lubuntu/Dokument/GitHub/STM32-Computer/Firmware/STM32-Computer-Firmware/CA7/optee-os-3.19.0-r2/optee-os-stm32mp-3.19.0-stm32mp-r2/ldelf/ta_elf_rel.c:409
    2952:	930c      	str	r3, [sp, #48]	@ 0x30
/home/lubuntu/Dokument/GitHub/STM32-Computer/Firmware/STM32-Computer-Firmware/CA7/optee-os-3.19.0-r2/optee-os-stm32mp-3.19.0-stm32mp-r2/ldelf/ta_elf_rel.c:412
    2954:	68b3      	ldr	r3, [r6, #8]
    2956:	f8d7 a000 	ldr.w	sl, [r7]
    295a:	eba3 0308 	sub.w	r3, r3, r8
    295e:	459a      	cmp	sl, r3
    2960:	d309      	bcc.n	2976 <ta_elf_relocate+0x226>
/home/lubuntu/Dokument/GitHub/STM32-Computer/Firmware/STM32-Computer-Firmware/CA7/optee-os-3.19.0-r2/optee-os-stm32mp-3.19.0-stm32mp-r2/ldelf/ta_elf_rel.c:413
    2962:	4b50      	ldr	r3, [pc, #320]	@ (2aa4 <ta_elf_relocate+0x354>)
    2964:	f240 119d 	movw	r1, #413	@ 0x19d
    2968:	484f      	ldr	r0, [pc, #316]	@ (2aa8 <ta_elf_relocate+0x358>)
    296a:	447b      	add	r3, pc
    296c:	9300      	str	r3, [sp, #0]
    296e:	2301      	movs	r3, #1
    2970:	4478      	add	r0, pc
    2972:	461a      	mov	r2, r3
    2974:	e74b      	b.n	280e <ta_elf_relocate+0xbe>
/home/lubuntu/Dokument/GitHub/STM32-Computer/Firmware/STM32-Computer-Firmware/CA7/optee-os-3.19.0-r2/optee-os-stm32mp-3.19.0-stm32mp-r2/ldelf/ta_elf_rel.c:417
    2976:	687b      	ldr	r3, [r7, #4]
/home/lubuntu/Dokument/GitHub/STM32-Computer/Firmware/STM32-Computer-Firmware/CA7/optee-os-3.19.0-r2/optee-os-stm32mp-3.19.0-stm32mp-r2/ldelf/ta_elf_rel.c:415
    2978:	eb0a 0108 	add.w	r1, sl, r8
/home/lubuntu/Dokument/GitHub/STM32-Computer/Firmware/STM32-Computer-Firmware/CA7/optee-os-3.19.0-r2/optee-os-stm32mp-3.19.0-stm32mp-r2/ldelf/ta_elf_rel.c:417
    297c:	b2da      	uxtb	r2, r3
    297e:	2a17      	cmp	r2, #23
    2980:	f200 810d 	bhi.w	2b9e <ta_elf_relocate+0x44e>
    2984:	e8df f012 	tbh	[pc, r2, lsl #1]
    2988:	010b0033 	.word	0x010b0033
    298c:	003d0018 	.word	0x003d0018
    2990:	010b010b 	.word	0x010b010b
    2994:	010b010b 	.word	0x010b010b
    2998:	010b010b 	.word	0x010b010b
    299c:	010b010b 	.word	0x010b010b
    29a0:	010b010b 	.word	0x010b010b
    29a4:	010b010b 	.word	0x010b010b
    29a8:	00aa010b 	.word	0x00aa010b
    29ac:	010b00e9 	.word	0x010b00e9
    29b0:	009e010b 	.word	0x009e010b
    29b4:	009a009e 	.word	0x009a009e
/home/lubuntu/Dokument/GitHub/STM32-Computer/Firmware/STM32-Computer-Firmware/CA7/optee-os-3.19.0-r2/optee-os-stm32mp-3.19.0-stm32mp-r2/ldelf/ta_elf_rel.c:427
    29b8:	ebb4 2f13 	cmp.w	r4, r3, lsr #8
/home/lubuntu/Dokument/GitHub/STM32-Computer/Firmware/STM32-Computer-Firmware/CA7/optee-os-3.19.0-r2/optee-os-stm32mp-3.19.0-stm32mp-r2/ldelf/ta_elf_rel.c:426
    29bc:	ea4f 2213 	mov.w	r2, r3, lsr #8
/home/lubuntu/Dokument/GitHub/STM32-Computer/Firmware/STM32-Computer-Firmware/CA7/optee-os-3.19.0-r2/optee-os-stm32mp-3.19.0-stm32mp-r2/ldelf/ta_elf_rel.c:427
    29c0:	d809      	bhi.n	29d6 <ta_elf_relocate+0x286>
/home/lubuntu/Dokument/GitHub/STM32-Computer/Firmware/STM32-Computer-Firmware/CA7/optee-os-3.19.0-r2/optee-os-stm32mp-3.19.0-stm32mp-r2/ldelf/ta_elf_rel.c:428
    29c2:	4b3a      	ldr	r3, [pc, #232]	@ (2aac <ta_elf_relocate+0x35c>)
    29c4:	f44f 71d6 	mov.w	r1, #428	@ 0x1ac
    29c8:	4839      	ldr	r0, [pc, #228]	@ (2ab0 <ta_elf_relocate+0x360>)
    29ca:	447b      	add	r3, pc
    29cc:	9300      	str	r3, [sp, #0]
    29ce:	2301      	movs	r3, #1
    29d0:	4478      	add	r0, pc
    29d2:	461a      	mov	r2, r3
    29d4:	e71b      	b.n	280e <ta_elf_relocate+0xbe>
/home/lubuntu/Dokument/GitHub/STM32-Computer/Firmware/STM32-Computer-Firmware/CA7/optee-os-3.19.0-r2/optee-os-stm32mp-3.19.0-stm32mp-r2/ldelf/ta_elf_rel.c:430
    29d6:	eb05 1202 	add.w	r2, r5, r2, lsl #4
    29da:	89d3      	ldrh	r3, [r2, #14]
    29dc:	b94b      	cbnz	r3, 29f2 <ta_elf_relocate+0x2a2>
/home/lubuntu/Dokument/GitHub/STM32-Computer/Firmware/STM32-Computer-Firmware/CA7/optee-os-3.19.0-r2/optee-os-stm32mp-3.19.0-stm32mp-r2/ldelf/ta_elf_rel.c:454
    29de:	9101      	str	r1, [sp, #4]
    29e0:	464b      	mov	r3, r9
    29e2:	9700      	str	r7, [sp, #0]
    29e4:	465a      	mov	r2, fp
    29e6:	4621      	mov	r1, r4
    29e8:	4628      	mov	r0, r5
    29ea:	f7ff fe7b 	bl	26e4 <e32_process_dyn_rel>
/home/lubuntu/Dokument/GitHub/STM32-Computer/Firmware/STM32-Computer-Firmware/CA7/optee-os-3.19.0-r2/optee-os-stm32mp-3.19.0-stm32mp-r2/ldelf/ta_elf_rel.c:405
    29ee:	3708      	adds	r7, #8
    29f0:	e7a7      	b.n	2942 <ta_elf_relocate+0x1f2>
/home/lubuntu/Dokument/GitHub/STM32-Computer/Firmware/STM32-Computer-Firmware/CA7/optee-os-3.19.0-r2/optee-os-stm32mp-3.19.0-stm32mp-r2/ldelf/ta_elf_rel.c:435
    29f2:	f85a 3008 	ldr.w	r3, [sl, r8]
    29f6:	6852      	ldr	r2, [r2, #4]
    29f8:	4443      	add	r3, r8
/home/lubuntu/Dokument/GitHub/STM32-Computer/Firmware/STM32-Computer-Firmware/CA7/optee-os-3.19.0-r2/optee-os-stm32mp-3.19.0-stm32mp-r2/ldelf/ta_elf_rel.c:444
    29fa:	4413      	add	r3, r2
/home/lubuntu/Dokument/GitHub/STM32-Computer/Firmware/STM32-Computer-Firmware/CA7/optee-os-3.19.0-r2/optee-os-stm32mp-3.19.0-stm32mp-r2/ldelf/ta_elf_rel.c:472
    29fc:	f84a 3008 	str.w	r3, [sl, r8]
/home/lubuntu/Dokument/GitHub/STM32-Computer/Firmware/STM32-Computer-Firmware/CA7/optee-os-3.19.0-r2/optee-os-stm32mp-3.19.0-stm32mp-r2/ldelf/ta_elf_rel.c:473
    2a00:	e7f5      	b.n	29ee <ta_elf_relocate+0x29e>
/home/lubuntu/Dokument/GitHub/STM32-Computer/Firmware/STM32-Computer-Firmware/CA7/optee-os-3.19.0-r2/optee-os-stm32mp-3.19.0-stm32mp-r2/ldelf/ta_elf_rel.c:441
    2a02:	ebb4 2f13 	cmp.w	r4, r3, lsr #8
/home/lubuntu/Dokument/GitHub/STM32-Computer/Firmware/STM32-Computer-Firmware/CA7/optee-os-3.19.0-r2/optee-os-stm32mp-3.19.0-stm32mp-r2/ldelf/ta_elf_rel.c:440
    2a06:	ea4f 2113 	mov.w	r1, r3, lsr #8
/home/lubuntu/Dokument/GitHub/STM32-Computer/Firmware/STM32-Computer-Firmware/CA7/optee-os-3.19.0-r2/optee-os-stm32mp-3.19.0-stm32mp-r2/ldelf/ta_elf_rel.c:441
    2a0a:	d809      	bhi.n	2a20 <ta_elf_relocate+0x2d0>
/home/lubuntu/Dokument/GitHub/STM32-Computer/Firmware/STM32-Computer-Firmware/CA7/optee-os-3.19.0-r2/optee-os-stm32mp-3.19.0-stm32mp-r2/ldelf/ta_elf_rel.c:442
    2a0c:	4b29      	ldr	r3, [pc, #164]	@ (2ab4 <ta_elf_relocate+0x364>)
    2a0e:	f44f 71dd 	mov.w	r1, #442	@ 0x1ba
    2a12:	4829      	ldr	r0, [pc, #164]	@ (2ab8 <ta_elf_relocate+0x368>)
    2a14:	447b      	add	r3, pc
    2a16:	9300      	str	r3, [sp, #0]
    2a18:	2301      	movs	r3, #1
    2a1a:	4478      	add	r0, pc
    2a1c:	461a      	mov	r2, r3
    2a1e:	e6f6      	b.n	280e <ta_elf_relocate+0xbe>
/home/lubuntu/Dokument/GitHub/STM32-Computer/Firmware/STM32-Computer-Firmware/CA7/optee-os-3.19.0-r2/optee-os-stm32mp-3.19.0-stm32mp-r2/ldelf/ta_elf_rel.c:444
    2a20:	f85a 3008 	ldr.w	r3, [sl, r8]
    2a24:	eb05 1101 	add.w	r1, r5, r1, lsl #4
    2a28:	eba3 020a 	sub.w	r2, r3, sl
    2a2c:	684b      	ldr	r3, [r1, #4]
    2a2e:	e7e4      	b.n	29fa <ta_elf_relocate+0x2aa>
    2a30:	ffff000a 	.word	0xffff000a
    2a34:	ffff0005 	.word	0xffff0005
    2a38:	00002b43 	.word	0x00002b43
    2a3c:	00002b51 	.word	0x00002b51
    2a40:	00002b4a 	.word	0x00002b4a
    2a44:	000029a9 	.word	0x000029a9
    2a48:	000029ba 	.word	0x000029ba
    2a4c:	00002b2c 	.word	0x00002b2c
    2a50:	0000298b 	.word	0x0000298b
    2a54:	000029be 	.word	0x000029be
    2a58:	000029d5 	.word	0x000029d5
    2a5c:	00002b0a 	.word	0x00002b0a
    2a60:	00002ae0 	.word	0x00002ae0
    2a64:	0000293f 	.word	0x0000293f
    2a68:	000029bb 	.word	0x000029bb
    2a6c:	000029d2 	.word	0x000029d2
    2a70:	00002ab2 	.word	0x00002ab2
    2a74:	000029b5 	.word	0x000029b5
    2a78:	00002a9e 	.word	0x00002a9e
    2a7c:	000029ac 	.word	0x000029ac
    2a80:	00002a78 	.word	0x00002a78
    2a84:	000023c2 	.word	0x000023c2
    2a88:	00002a48 	.word	0x00002a48
    2a8c:	0000294b 	.word	0x0000294b
    2a90:	00002a34 	.word	0x00002a34
    2a94:	0000295a 	.word	0x0000295a
    2a98:	00002a0c 	.word	0x00002a0c
    2a9c:	00002901 	.word	0x00002901
    2aa0:	000029ea 	.word	0x000029ea
    2aa4:	0000290a 	.word	0x0000290a
    2aa8:	000029a4 	.word	0x000029a4
    2aac:	00002765 	.word	0x00002765
    2ab0:	00002944 	.word	0x00002944
    2ab4:	0000271b 	.word	0x0000271b
    2ab8:	000028fa 	.word	0x000028fa
/home/lubuntu/Dokument/GitHub/STM32-Computer/Firmware/STM32-Computer-Firmware/CA7/optee-os-3.19.0-r2/optee-os-stm32mp-3.19.0-stm32mp-r2/ldelf/ta_elf_rel.c:447
    2abc:	f85a 3008 	ldr.w	r3, [sl, r8]
    2ac0:	4443      	add	r3, r8
    2ac2:	e79b      	b.n	29fc <ta_elf_relocate+0x2ac>
/home/lubuntu/Dokument/GitHub/STM32-Computer/Firmware/STM32-Computer-Firmware/CA7/optee-os-3.19.0-r2/optee-os-stm32mp-3.19.0-stm32mp-r2/ldelf/ta_elf_rel.c:451
    2ac4:	2d00      	cmp	r5, #0
    2ac6:	d18a      	bne.n	29de <ta_elf_relocate+0x28e>
/home/lubuntu/Dokument/GitHub/STM32-Computer/Firmware/STM32-Computer-Firmware/CA7/optee-os-3.19.0-r2/optee-os-stm32mp-3.19.0-stm32mp-r2/ldelf/ta_elf_rel.c:452
    2ac8:	4b3d      	ldr	r3, [pc, #244]	@ (2bc0 <ta_elf_relocate+0x470>)
    2aca:	f44f 71e2 	mov.w	r1, #452	@ 0x1c4
    2ace:	483d      	ldr	r0, [pc, #244]	@ (2bc4 <ta_elf_relocate+0x474>)
    2ad0:	447b      	add	r3, pc
    2ad2:	9300      	str	r3, [sp, #0]
    2ad4:	2301      	movs	r3, #1
    2ad6:	4478      	add	r0, pc
    2ad8:	461a      	mov	r2, r3
    2ada:	e698      	b.n	280e <ta_elf_relocate+0xbe>
/home/lubuntu/Dokument/GitHub/STM32-Computer/Firmware/STM32-Computer-Firmware/CA7/optee-os-3.19.0-r2/optee-os-stm32mp-3.19.0-stm32mp-r2/ldelf/ta_elf_rel.c:458
    2adc:	b94d      	cbnz	r5, 2af2 <ta_elf_relocate+0x3a2>
/home/lubuntu/Dokument/GitHub/STM32-Computer/Firmware/STM32-Computer-Firmware/CA7/optee-os-3.19.0-r2/optee-os-stm32mp-3.19.0-stm32mp-r2/ldelf/ta_elf_rel.c:459
    2ade:	4b3a      	ldr	r3, [pc, #232]	@ (2bc8 <ta_elf_relocate+0x478>)
    2ae0:	f240 11cb 	movw	r1, #459	@ 0x1cb
    2ae4:	4839      	ldr	r0, [pc, #228]	@ (2bcc <ta_elf_relocate+0x47c>)
    2ae6:	447b      	add	r3, pc
    2ae8:	9300      	str	r3, [sp, #0]
    2aea:	2301      	movs	r3, #1
    2aec:	4478      	add	r0, pc
    2aee:	461a      	mov	r2, r3
    2af0:	e68d      	b.n	280e <ta_elf_relocate+0xbe>
e32_tls_get_module():
/home/lubuntu/Dokument/GitHub/STM32-Computer/Firmware/STM32-Computer-Firmware/CA7/optee-os-3.19.0-r2/optee-os-stm32mp-3.19.0-stm32mp-r2/ldelf/ta_elf_rel.c:312
    2af2:	ebb4 2f13 	cmp.w	r4, r3, lsr #8
/home/lubuntu/Dokument/GitHub/STM32-Computer/Firmware/STM32-Computer-Firmware/CA7/optee-os-3.19.0-r2/optee-os-stm32mp-3.19.0-stm32mp-r2/ldelf/ta_elf_rel.c:308
    2af6:	f04f 0200 	mov.w	r2, #0
/home/lubuntu/Dokument/GitHub/STM32-Computer/Firmware/STM32-Computer-Firmware/CA7/optee-os-3.19.0-r2/optee-os-stm32mp-3.19.0-stm32mp-r2/ldelf/ta_elf_rel.c:311
    2afa:	ea4f 2013 	mov.w	r0, r3, lsr #8
e32_relocate():
/home/lubuntu/Dokument/GitHub/STM32-Computer/Firmware/STM32-Computer-Firmware/CA7/optee-os-3.19.0-r2/optee-os-stm32mp-3.19.0-stm32mp-r2/ldelf/ta_elf_rel.c:461
    2afe:	960b      	str	r6, [sp, #44]	@ 0x2c
e32_tls_get_module():
/home/lubuntu/Dokument/GitHub/STM32-Computer/Firmware/STM32-Computer-Firmware/CA7/optee-os-3.19.0-r2/optee-os-stm32mp-3.19.0-stm32mp-r2/ldelf/ta_elf_rel.c:308
    2b00:	920d      	str	r2, [sp, #52]	@ 0x34
/home/lubuntu/Dokument/GitHub/STM32-Computer/Firmware/STM32-Computer-Firmware/CA7/optee-os-3.19.0-r2/optee-os-stm32mp-3.19.0-stm32mp-r2/ldelf/ta_elf_rel.c:312
    2b02:	d809      	bhi.n	2b18 <ta_elf_relocate+0x3c8>
/home/lubuntu/Dokument/GitHub/STM32-Computer/Firmware/STM32-Computer-Firmware/CA7/optee-os-3.19.0-r2/optee-os-stm32mp-3.19.0-stm32mp-r2/ldelf/ta_elf_rel.c:313
    2b04:	4b32      	ldr	r3, [pc, #200]	@ (2bd0 <ta_elf_relocate+0x480>)
    2b06:	f240 1139 	movw	r1, #313	@ 0x139
    2b0a:	4832      	ldr	r0, [pc, #200]	@ (2bd4 <ta_elf_relocate+0x484>)
    2b0c:	447b      	add	r3, pc
    2b0e:	9300      	str	r3, [sp, #0]
    2b10:	2301      	movs	r3, #1
    2b12:	4478      	add	r0, pc
    2b14:	461a      	mov	r2, r3
    2b16:	e67a      	b.n	280e <ta_elf_relocate+0xbe>
/home/lubuntu/Dokument/GitHub/STM32-Computer/Firmware/STM32-Computer-Firmware/CA7/optee-os-3.19.0-r2/optee-os-stm32mp-3.19.0-stm32mp-r2/ldelf/ta_elf_rel.c:314
    2b18:	4621      	mov	r1, r4
    2b1a:	f001 fb10 	bl	413e <confine_array_index>
/home/lubuntu/Dokument/GitHub/STM32-Computer/Firmware/STM32-Computer-Firmware/CA7/optee-os-3.19.0-r2/optee-os-stm32mp-3.19.0-stm32mp-r2/ldelf/ta_elf_rel.c:315
    2b1e:	b120      	cbz	r0, 2b2a <ta_elf_relocate+0x3da>
    2b20:	eb05 1000 	add.w	r0, r5, r0, lsl #4
    2b24:	89c2      	ldrh	r2, [r0, #14]
    2b26:	9204      	str	r2, [sp, #16]
    2b28:	b112      	cbz	r2, 2b30 <ta_elf_relocate+0x3e0>
e32_relocate():
/home/lubuntu/Dokument/GitHub/STM32-Computer/Firmware/STM32-Computer-Firmware/CA7/optee-os-3.19.0-r2/optee-os-stm32mp-3.19.0-stm32mp-r2/ldelf/ta_elf_rel.c:464
    2b2a:	9b0b      	ldr	r3, [sp, #44]	@ 0x2c
    2b2c:	6e9b      	ldr	r3, [r3, #104]	@ 0x68
    2b2e:	e765      	b.n	29fc <ta_elf_relocate+0x2ac>
e32_tls_get_module():
/home/lubuntu/Dokument/GitHub/STM32-Computer/Firmware/STM32-Computer-Firmware/CA7/optee-os-3.19.0-r2/optee-os-stm32mp-3.19.0-stm32mp-r2/ldelf/ta_elf_rel.c:320
    2b30:	9a04      	ldr	r2, [sp, #16]
    2b32:	4628      	mov	r0, r5
    2b34:	9300      	str	r3, [sp, #0]
    2b36:	464b      	mov	r3, r9
    2b38:	9202      	str	r2, [sp, #8]
    2b3a:	9a07      	ldr	r2, [sp, #28]
    2b3c:	9201      	str	r2, [sp, #4]
    2b3e:	465a      	mov	r2, fp
    2b40:	f7ff fd4e 	bl	25e0 <e32_get_sym_name.constprop.0.isra.0>
resolve_sym():
/home/lubuntu/Dokument/GitHub/STM32-Computer/Firmware/STM32-Computer-Firmware/CA7/optee-os-3.19.0-r2/optee-os-stm32mp-3.19.0-stm32mp-r2/ldelf/ta_elf_rel.c:280
    2b44:	9b04      	ldr	r3, [sp, #16]
    2b46:	aa0b      	add	r2, sp, #44	@ 0x2c
    2b48:	980d      	ldr	r0, [sp, #52]	@ 0x34
    2b4a:	4619      	mov	r1, r3
    2b4c:	f7ff fd8c 	bl	2668 <ta_elf_resolve_sym>
/home/lubuntu/Dokument/GitHub/STM32-Computer/Firmware/STM32-Computer-Firmware/CA7/optee-os-3.19.0-r2/optee-os-stm32mp-3.19.0-stm32mp-r2/ldelf/ta_elf_rel.c:282
    2b50:	2800      	cmp	r0, #0
    2b52:	d0ea      	beq.n	2b2a <ta_elf_relocate+0x3da>
/home/lubuntu/Dokument/GitHub/STM32-Computer/Firmware/STM32-Computer-Firmware/CA7/optee-os-3.19.0-r2/optee-os-stm32mp-3.19.0-stm32mp-r2/ldelf/ta_elf_rel.c:286
    2b54:	9b04      	ldr	r3, [sp, #16]
    2b56:	601b      	str	r3, [r3, #0]
    2b58:	deff      	udf	#255	@ 0xff
e32_relocate():
/home/lubuntu/Dokument/GitHub/STM32-Computer/Firmware/STM32-Computer-Firmware/CA7/optee-os-3.19.0-r2/optee-os-stm32mp-3.19.0-stm32mp-r2/ldelf/ta_elf_rel.c:467
    2b5a:	b94d      	cbnz	r5, 2b70 <ta_elf_relocate+0x420>
/home/lubuntu/Dokument/GitHub/STM32-Computer/Firmware/STM32-Computer-Firmware/CA7/optee-os-3.19.0-r2/optee-os-stm32mp-3.19.0-stm32mp-r2/ldelf/ta_elf_rel.c:468
    2b5c:	4b1e      	ldr	r3, [pc, #120]	@ (2bd8 <ta_elf_relocate+0x488>)
    2b5e:	f44f 71ea 	mov.w	r1, #468	@ 0x1d4
    2b62:	481e      	ldr	r0, [pc, #120]	@ (2bdc <ta_elf_relocate+0x48c>)
    2b64:	447b      	add	r3, pc
    2b66:	9300      	str	r3, [sp, #0]
    2b68:	2301      	movs	r3, #1
    2b6a:	4478      	add	r0, pc
    2b6c:	461a      	mov	r2, r3
    2b6e:	e64e      	b.n	280e <ta_elf_relocate+0xbe>
e32_tls_resolve():
/home/lubuntu/Dokument/GitHub/STM32-Computer/Firmware/STM32-Computer-Firmware/CA7/optee-os-3.19.0-r2/optee-os-stm32mp-3.19.0-stm32mp-r2/ldelf/ta_elf_rel.c:331
    2b70:	9907      	ldr	r1, [sp, #28]
/home/lubuntu/Dokument/GitHub/STM32-Computer/Firmware/STM32-Computer-Firmware/CA7/optee-os-3.19.0-r2/optee-os-stm32mp-3.19.0-stm32mp-r2/ldelf/ta_elf_rel.c:329
    2b72:	2200      	movs	r2, #0
    2b74:	920d      	str	r2, [sp, #52]	@ 0x34
/home/lubuntu/Dokument/GitHub/STM32-Computer/Firmware/STM32-Computer-Firmware/CA7/optee-os-3.19.0-r2/optee-os-stm32mp-3.19.0-stm32mp-r2/ldelf/ta_elf_rel.c:331
    2b76:	4628      	mov	r0, r5
    2b78:	9202      	str	r2, [sp, #8]
    2b7a:	465a      	mov	r2, fp
    2b7c:	9101      	str	r1, [sp, #4]
    2b7e:	4621      	mov	r1, r4
    2b80:	9300      	str	r3, [sp, #0]
    2b82:	464b      	mov	r3, r9
    2b84:	f7ff fd2c 	bl	25e0 <e32_get_sym_name.constprop.0.isra.0>
resolve_sym():
/home/lubuntu/Dokument/GitHub/STM32-Computer/Firmware/STM32-Computer-Firmware/CA7/optee-os-3.19.0-r2/optee-os-stm32mp-3.19.0-stm32mp-r2/ldelf/ta_elf_rel.c:280
    2b88:	9909      	ldr	r1, [sp, #36]	@ 0x24
    2b8a:	2300      	movs	r3, #0
    2b8c:	980d      	ldr	r0, [sp, #52]	@ 0x34
    2b8e:	461a      	mov	r2, r3
    2b90:	f7ff fd6a 	bl	2668 <ta_elf_resolve_sym>
/home/lubuntu/Dokument/GitHub/STM32-Computer/Firmware/STM32-Computer-Firmware/CA7/optee-os-3.19.0-r2/optee-os-stm32mp-3.19.0-stm32mp-r2/ldelf/ta_elf_rel.c:282
    2b94:	b108      	cbz	r0, 2b9a <ta_elf_relocate+0x44a>
/home/lubuntu/Dokument/GitHub/STM32-Computer/Firmware/STM32-Computer-Firmware/CA7/optee-os-3.19.0-r2/optee-os-stm32mp-3.19.0-stm32mp-r2/ldelf/ta_elf_rel.c:286
    2b96:	2200      	movs	r2, #0
    2b98:	920c      	str	r2, [sp, #48]	@ 0x30
e32_relocate():
/home/lubuntu/Dokument/GitHub/STM32-Computer/Firmware/STM32-Computer-Firmware/CA7/optee-os-3.19.0-r2/optee-os-stm32mp-3.19.0-stm32mp-r2/ldelf/ta_elf_rel.c:472
    2b9a:	9b0c      	ldr	r3, [sp, #48]	@ 0x30
    2b9c:	e72e      	b.n	29fc <ta_elf_relocate+0x2ac>
/home/lubuntu/Dokument/GitHub/STM32-Computer/Firmware/STM32-Computer-Firmware/CA7/optee-os-3.19.0-r2/optee-os-stm32mp-3.19.0-stm32mp-r2/ldelf/ta_elf_rel.c:475
    2b9e:	4b10      	ldr	r3, [pc, #64]	@ (2be0 <ta_elf_relocate+0x490>)
    2ba0:	f240 11db 	movw	r1, #475	@ 0x1db
    2ba4:	480f      	ldr	r0, [pc, #60]	@ (2be4 <ta_elf_relocate+0x494>)
    2ba6:	447b      	add	r3, pc
    2ba8:	9300      	str	r3, [sp, #0]
    2baa:	2301      	movs	r3, #1
    2bac:	9201      	str	r2, [sp, #4]
    2bae:	461a      	mov	r2, r3
    2bb0:	4478      	add	r0, pc
    2bb2:	f001 fc81 	bl	44b8 <trace_printf>
    2bb6:	e62c      	b.n	2812 <ta_elf_relocate+0xc2>
ta_elf_relocate():
/home/lubuntu/Dokument/GitHub/STM32-Computer/Firmware/STM32-Computer-Firmware/CA7/optee-os-3.19.0-r2/optee-os-stm32mp-3.19.0-stm32mp-r2/ldelf/ta_elf_rel.c:716
    2bb8:	2300      	movs	r3, #0
    2bba:	e5f4      	b.n	27a6 <ta_elf_relocate+0x56>
/home/lubuntu/Dokument/GitHub/STM32-Computer/Firmware/STM32-Computer-Firmware/CA7/optee-os-3.19.0-r2/optee-os-stm32mp-3.19.0-stm32mp-r2/ldelf/ta_elf_rel.c:722 (discriminator 2)
    2bbc:	3301      	adds	r3, #1
    2bbe:	e5d4      	b.n	276a <ta_elf_relocate+0x1a>
    2bc0:	000027c3 	.word	0x000027c3
    2bc4:	0000283e 	.word	0x0000283e
    2bc8:	000027ad 	.word	0x000027ad
    2bcc:	00002828 	.word	0x00002828
    2bd0:	00002623 	.word	0x00002623
    2bd4:	000027d2 	.word	0x000027d2
    2bd8:	0000272f 	.word	0x0000272f
    2bdc:	000027aa 	.word	0x000027aa
    2be0:	00002702 	.word	0x00002702
    2be4:	00002764 	.word	0x00002764

00002be8 <unwind_stack_arm32>:
unwind_stack_arm32():
/home/lubuntu/Dokument/GitHub/STM32-Computer/Firmware/STM32-Computer-Firmware/CA7/optee-os-3.19.0-r2/optee-os-stm32mp-3.19.0-stm32mp-r2/lib/libunw/unwind_arm32.c:368
    2be8:	e92d 4ff0 	stmdb	sp!, {r4, r5, r6, r7, r8, r9, sl, fp, lr}
    2bec:	b08d      	sub	sp, #52	@ 0x34
/home/lubuntu/Dokument/GitHub/STM32-Computer/Firmware/STM32-Computer-Firmware/CA7/optee-os-3.19.0-r2/optee-os-stm32mp-3.19.0-stm32mp-r2/lib/libunw/unwind_arm32.c:376
    2bee:	6bc7      	ldr	r7, [r0, #60]	@ 0x3c
find_index():
/home/lubuntu/Dokument/GitHub/STM32-Computer/Firmware/STM32-Computer-Firmware/CA7/optee-os-3.19.0-r2/optee-os-stm32mp-3.19.0-stm32mp-r2/lib/libunw/unwind_arm32.c:127
    2bf0:	ab0a      	add	r3, sp, #40	@ 0x28
    2bf2:	9304      	str	r3, [sp, #16]
unwind_stack_arm32():
/home/lubuntu/Dokument/GitHub/STM32-Computer/Firmware/STM32-Computer-Firmware/CA7/optee-os-3.19.0-r2/optee-os-stm32mp-3.19.0-stm32mp-r2/lib/libunw/unwind_arm32.c:373
    2bf4:	f04f 0800 	mov.w	r8, #0
/home/lubuntu/Dokument/GitHub/STM32-Computer/Firmware/STM32-Computer-Firmware/CA7/optee-os-3.19.0-r2/optee-os-stm32mp-3.19.0-stm32mp-r2/lib/libunw/unwind_arm32.c:376
    2bf8:	6407      	str	r7, [r0, #64]	@ 0x40
find_index():
/home/lubuntu/Dokument/GitHub/STM32-Computer/Firmware/STM32-Computer-Firmware/CA7/optee-os-3.19.0-r2/optee-os-stm32mp-3.19.0-stm32mp-r2/lib/libunw/unwind_arm32.c:127
    2bfa:	f10d 092c 	add.w	r9, sp, #44	@ 0x2c
unwind_stack_arm32():
/home/lubuntu/Dokument/GitHub/STM32-Computer/Firmware/STM32-Computer-Firmware/CA7/optee-os-3.19.0-r2/optee-os-stm32mp-3.19.0-stm32mp-r2/lib/libunw/unwind_arm32.c:373
    2bfe:	f8a0 8050 	strh.w	r8, [r0, #80]	@ 0x50
/home/lubuntu/Dokument/GitHub/STM32-Computer/Firmware/STM32-Computer-Firmware/CA7/optee-os-3.19.0-r2/optee-os-stm32mp-3.19.0-stm32mp-r2/lib/libunw/unwind_arm32.c:384
    2c02:	3f02      	subs	r7, #2
/home/lubuntu/Dokument/GitHub/STM32-Computer/Firmware/STM32-Computer-Firmware/CA7/optee-os-3.19.0-r2/optee-os-stm32mp-3.19.0-stm32mp-r2/lib/libunw/unwind_arm32.c:368
    2c04:	4604      	mov	r4, r0
    2c06:	468b      	mov	fp, r1
    2c08:	4616      	mov	r6, r2
find_index():
/home/lubuntu/Dokument/GitHub/STM32-Computer/Firmware/STM32-Computer-Firmware/CA7/optee-os-3.19.0-r2/optee-os-stm32mp-3.19.0-stm32mp-r2/lib/libunw/unwind_arm32.c:127
    2c0a:	4619      	mov	r1, r3
    2c0c:	464a      	mov	r2, r9
    2c0e:	4638      	mov	r0, r7
/home/lubuntu/Dokument/GitHub/STM32-Computer/Firmware/STM32-Computer-Firmware/CA7/optee-os-3.19.0-r2/optee-os-stm32mp-3.19.0-stm32mp-r2/lib/libunw/unwind_arm32.c:118
    2c10:	e9cd 880a 	strd	r8, r8, [sp, #40]	@ 0x28
/home/lubuntu/Dokument/GitHub/STM32-Computer/Firmware/STM32-Computer-Firmware/CA7/optee-os-3.19.0-r2/optee-os-stm32mp-3.19.0-stm32mp-r2/lib/libunw/unwind_arm32.c:127
    2c14:	f7ff f900 	bl	1e18 <find_exidx>
    2c18:	9003      	str	r0, [sp, #12]
    2c1a:	b158      	cbz	r0, 2c34 <unwind_stack_arm32+0x4c>
/home/lubuntu/Dokument/GitHub/STM32-Computer/Firmware/STM32-Computer-Firmware/CA7/optee-os-3.19.0-r2/optee-os-stm32mp-3.19.0-stm32mp-r2/lib/libunw/unwind_arm32.c:133
    2c1c:	e9dd 520a 	ldrd	r5, r2, [sp, #40]	@ 0x28
/home/lubuntu/Dokument/GitHub/STM32-Computer/Firmware/STM32-Computer-Firmware/CA7/optee-os-3.19.0-r2/optee-os-stm32mp-3.19.0-stm32mp-r2/lib/libunw/unwind_arm32.c:132
    2c20:	4643      	mov	r3, r8
/home/lubuntu/Dokument/GitHub/STM32-Computer/Firmware/STM32-Computer-Firmware/CA7/optee-os-3.19.0-r2/optee-os-stm32mp-3.19.0-stm32mp-r2/lib/libunw/unwind_arm32.c:133
    2c22:	1b52      	subs	r2, r2, r5
    2c24:	08d2      	lsrs	r2, r2, #3
/home/lubuntu/Dokument/GitHub/STM32-Computer/Firmware/STM32-Computer-Firmware/CA7/optee-os-3.19.0-r2/optee-os-stm32mp-3.19.0-stm32mp-r2/lib/libunw/unwind_arm32.c:136
    2c26:	f102 0801 	add.w	r8, r2, #1
/home/lubuntu/Dokument/GitHub/STM32-Computer/Firmware/STM32-Computer-Firmware/CA7/optee-os-3.19.0-r2/optee-os-stm32mp-3.19.0-stm32mp-r2/lib/libunw/unwind_arm32.c:135
    2c2a:	4293      	cmp	r3, r2
    2c2c:	d106      	bne.n	2c3c <unwind_stack_arm32+0x54>
unwind_stack_arm32():
/home/lubuntu/Dokument/GitHub/STM32-Computer/Firmware/STM32-Computer-Firmware/CA7/optee-os-3.19.0-r2/optee-os-stm32mp-3.19.0-stm32mp-r2/lib/libunw/unwind_arm32.c:385
    2c2e:	eb15 05c3 	adds.w	r5, r5, r3, lsl #3
    2c32:	d118      	bne.n	2c66 <unwind_stack_arm32+0x7e>
/home/lubuntu/Dokument/GitHub/STM32-Computer/Firmware/STM32-Computer-Firmware/CA7/optee-os-3.19.0-r2/optee-os-stm32mp-3.19.0-stm32mp-r2/lib/libunw/unwind_arm32.c:386
    2c34:	2000      	movs	r0, #0
/home/lubuntu/Dokument/GitHub/STM32-Computer/Firmware/STM32-Computer-Firmware/CA7/optee-os-3.19.0-r2/optee-os-stm32mp-3.19.0-stm32mp-r2/lib/libunw/unwind_arm32.c:408
    2c36:	b00d      	add	sp, #52	@ 0x34
    2c38:	e8bd 8ff0 	ldmia.w	sp!, {r4, r5, r6, r7, r8, r9, sl, fp, pc}
find_index():
/home/lubuntu/Dokument/GitHub/STM32-Computer/Firmware/STM32-Computer-Firmware/CA7/optee-os-3.19.0-r2/optee-os-stm32mp-3.19.0-stm32mp-r2/lib/libunw/unwind_arm32.c:136
    2c3c:	eba8 0103 	sub.w	r1, r8, r3
    2c40:	eb03 0151 	add.w	r1, r3, r1, lsr #1
/home/lubuntu/Dokument/GitHub/STM32-Computer/Firmware/STM32-Computer-Firmware/CA7/optee-os-3.19.0-r2/optee-os-stm32mp-3.19.0-stm32mp-r2/lib/libunw/unwind_arm32.c:140
    2c44:	f855 e031 	ldr.w	lr, [r5, r1, lsl #3]
/home/lubuntu/Dokument/GitHub/STM32-Computer/Firmware/STM32-Computer-Firmware/CA7/optee-os-3.19.0-r2/optee-os-stm32mp-3.19.0-stm32mp-r2/lib/libunw/unwind_arm32.c:138
    2c48:	eb05 0cc1 	add.w	ip, r5, r1, lsl #3
expand_prel31():
/home/lubuntu/Dokument/GitHub/STM32-Computer/Firmware/STM32-Computer-Firmware/CA7/optee-os-3.19.0-r2/optee-os-stm32mp-3.19.0-stm32mp-r2/lib/libunw/unwind_arm32.c:108
    2c4c:	ea4f 004e 	mov.w	r0, lr, lsl #1
    2c50:	f000 4000 	and.w	r0, r0, #2147483648	@ 0x80000000
    2c54:	ea40 000e 	orr.w	r0, r0, lr
find_index():
/home/lubuntu/Dokument/GitHub/STM32-Computer/Firmware/STM32-Computer-Firmware/CA7/optee-os-3.19.0-r2/optee-os-stm32mp-3.19.0-stm32mp-r2/lib/libunw/unwind_arm32.c:141
    2c58:	4484      	add	ip, r0
/home/lubuntu/Dokument/GitHub/STM32-Computer/Firmware/STM32-Computer-Firmware/CA7/optee-os-3.19.0-r2/optee-os-stm32mp-3.19.0-stm32mp-r2/lib/libunw/unwind_arm32.c:143
    2c5a:	4567      	cmp	r7, ip
    2c5c:	d201      	bcs.n	2c62 <unwind_stack_arm32+0x7a>
/home/lubuntu/Dokument/GitHub/STM32-Computer/Firmware/STM32-Computer-Firmware/CA7/optee-os-3.19.0-r2/optee-os-stm32mp-3.19.0-stm32mp-r2/lib/libunw/unwind_arm32.c:146
    2c5e:	1e4a      	subs	r2, r1, #1
    2c60:	e7e1      	b.n	2c26 <unwind_stack_arm32+0x3e>
/home/lubuntu/Dokument/GitHub/STM32-Computer/Firmware/STM32-Computer-Firmware/CA7/optee-os-3.19.0-r2/optee-os-stm32mp-3.19.0-stm32mp-r2/lib/libunw/unwind_arm32.c:136
    2c62:	460b      	mov	r3, r1
    2c64:	e7e1      	b.n	2c2a <unwind_stack_arm32+0x42>
unwind_stack_arm32():
/home/lubuntu/Dokument/GitHub/STM32-Computer/Firmware/STM32-Computer-Firmware/CA7/optee-os-3.19.0-r2/optee-os-stm32mp-3.19.0-stm32mp-r2/lib/libunw/unwind_arm32.c:389
    2c66:	686a      	ldr	r2, [r5, #4]
    2c68:	2a01      	cmp	r2, #1
    2c6a:	d104      	bne.n	2c76 <unwind_stack_arm32+0x8e>
/home/lubuntu/Dokument/GitHub/STM32-Computer/Firmware/STM32-Computer-Firmware/CA7/optee-os-3.19.0-r2/optee-os-stm32mp-3.19.0-stm32mp-r2/lib/libunw/unwind_arm32.c:405
    2c6c:	9803      	ldr	r0, [sp, #12]
/home/lubuntu/Dokument/GitHub/STM32-Computer/Firmware/STM32-Computer-Firmware/CA7/optee-os-3.19.0-r2/optee-os-stm32mp-3.19.0-stm32mp-r2/lib/libunw/unwind_arm32.c:407
    2c6e:	f080 0001 	eor.w	r0, r0, #1
    2c72:	b2c0      	uxtb	r0, r0
    2c74:	e7df      	b.n	2c36 <unwind_stack_arm32+0x4e>
/home/lubuntu/Dokument/GitHub/STM32-Computer/Firmware/STM32-Computer-Firmware/CA7/optee-os-3.19.0-r2/optee-os-stm32mp-3.19.0-stm32mp-r2/lib/libunw/unwind_arm32.c:390
    2c76:	2a00      	cmp	r2, #0
/home/lubuntu/Dokument/GitHub/STM32-Computer/Firmware/STM32-Computer-Firmware/CA7/optee-os-3.19.0-r2/optee-os-stm32mp-3.19.0-stm32mp-r2/lib/libunw/unwind_arm32.c:392
    2c78:	f105 0104 	add.w	r1, r5, #4
expand_prel31():
/home/lubuntu/Dokument/GitHub/STM32-Computer/Firmware/STM32-Computer-Firmware/CA7/optee-os-3.19.0-r2/optee-os-stm32mp-3.19.0-stm32mp-r2/lib/libunw/unwind_arm32.c:108
    2c7c:	bfa8      	it	ge
    2c7e:	0053      	lslge	r3, r2, #1
copy_in():
/home/lubuntu/Dokument/GitHub/STM32-Computer/Firmware/STM32-Computer-Firmware/CA7/optee-os-3.19.0-r2/optee-os-stm32mp-3.19.0-stm32mp-r2/lib/libunw/unwind_arm32.c:101
    2c80:	a808      	add	r0, sp, #32
expand_prel31():
/home/lubuntu/Dokument/GitHub/STM32-Computer/Firmware/STM32-Computer-Firmware/CA7/optee-os-3.19.0-r2/optee-os-stm32mp-3.19.0-stm32mp-r2/lib/libunw/unwind_arm32.c:108
    2c82:	bfa4      	itt	ge
    2c84:	f003 4300 	andge.w	r3, r3, #2147483648	@ 0x80000000
    2c88:	4313      	orrge	r3, r2
copy_in():
/home/lubuntu/Dokument/GitHub/STM32-Computer/Firmware/STM32-Computer-Firmware/CA7/optee-os-3.19.0-r2/optee-os-stm32mp-3.19.0-stm32mp-r2/lib/libunw/unwind_arm32.c:101
    2c8a:	f04f 0204 	mov.w	r2, #4
unwind_stack_arm32():
/home/lubuntu/Dokument/GitHub/STM32-Computer/Firmware/STM32-Computer-Firmware/CA7/optee-os-3.19.0-r2/optee-os-stm32mp-3.19.0-stm32mp-r2/lib/libunw/unwind_arm32.c:395
    2c8e:	bfa8      	it	ge
    2c90:	18c9      	addge	r1, r1, r3
unwind_tab():
/home/lubuntu/Dokument/GitHub/STM32-Computer/Firmware/STM32-Computer-Firmware/CA7/optee-os-3.19.0-r2/optee-os-stm32mp-3.19.0-stm32mp-r2/lib/libunw/unwind_arm32.c:324
    2c92:	2300      	movs	r3, #0
    2c94:	63e3      	str	r3, [r4, #60]	@ 0x3c
    2c96:	6461      	str	r1, [r4, #68]	@ 0x44
copy_in():
/home/lubuntu/Dokument/GitHub/STM32-Computer/Firmware/STM32-Computer-Firmware/CA7/optee-os-3.19.0-r2/optee-os-stm32mp-3.19.0-stm32mp-r2/lib/libunw/unwind_arm32.c:101
    2c98:	f000 fd1c 	bl	36d4 <memcpy>
unwind_tab():
/home/lubuntu/Dokument/GitHub/STM32-Computer/Firmware/STM32-Computer-Firmware/CA7/optee-os-3.19.0-r2/optee-os-stm32mp-3.19.0-stm32mp-r2/lib/libunw/unwind_arm32.c:332
    2c9c:	9b08      	ldr	r3, [sp, #32]
    2c9e:	f003 427f 	and.w	r2, r3, #4278190080	@ 0xff000000
/home/lubuntu/Dokument/GitHub/STM32-Computer/Firmware/STM32-Computer-Firmware/CA7/optee-os-3.19.0-r2/optee-os-stm32mp-3.19.0-stm32mp-r2/lib/libunw/unwind_arm32.c:334
    2ca2:	f1b2 4f00 	cmp.w	r2, #2147483648	@ 0x80000000
    2ca6:	f000 8105 	beq.w	2eb4 <unwind_stack_arm32+0x2cc>
/home/lubuntu/Dokument/GitHub/STM32-Computer/Firmware/STM32-Computer-Firmware/CA7/optee-os-3.19.0-r2/optee-os-stm32mp-3.19.0-stm32mp-r2/lib/libunw/unwind_arm32.c:337
    2caa:	f1b2 4f01 	cmp.w	r2, #2164260864	@ 0x81000000
    2cae:	d108      	bne.n	2cc2 <unwind_stack_arm32+0xda>
/home/lubuntu/Dokument/GitHub/STM32-Computer/Firmware/STM32-Computer-Firmware/CA7/optee-os-3.19.0-r2/optee-os-stm32mp-3.19.0-stm32mp-r2/lib/libunw/unwind_arm32.c:339
    2cb0:	f3c3 4307 	ubfx	r3, r3, #16, #8
    2cb4:	2201      	movs	r2, #1
    2cb6:	3301      	adds	r3, #1
    2cb8:	64a3      	str	r3, [r4, #72]	@ 0x48
unwind_exec_insn():
/home/lubuntu/Dokument/GitHub/STM32-Computer/Firmware/STM32-Computer-Firmware/CA7/optee-os-3.19.0-r2/optee-os-stm32mp-3.19.0-stm32mp-r2/lib/libunw/unwind_arm32.c:199
    2cba:	ab09      	add	r3, sp, #36	@ 0x24
unwind_tab():
/home/lubuntu/Dokument/GitHub/STM32-Computer/Firmware/STM32-Computer-Firmware/CA7/optee-os-3.19.0-r2/optee-os-stm32mp-3.19.0-stm32mp-r2/lib/libunw/unwind_arm32.c:338
    2cbc:	64e2      	str	r2, [r4, #76]	@ 0x4c
unwind_exec_insn():
/home/lubuntu/Dokument/GitHub/STM32-Computer/Firmware/STM32-Computer-Firmware/CA7/optee-os-3.19.0-r2/optee-os-stm32mp-3.19.0-stm32mp-r2/lib/libunw/unwind_arm32.c:199
    2cbe:	9306      	str	r3, [sp, #24]
    2cc0:	e020      	b.n	2d04 <unwind_stack_arm32+0x11c>
unwind_tab():
/home/lubuntu/Dokument/GitHub/STM32-Computer/Firmware/STM32-Computer-Firmware/CA7/optee-os-3.19.0-r2/optee-os-stm32mp-3.19.0-stm32mp-r2/lib/libunw/unwind_arm32.c:341
    2cc2:	4b85      	ldr	r3, [pc, #532]	@ (2ed8 <unwind_stack_arm32+0x2f0>)
    2cc4:	f240 1155 	movw	r1, #341	@ 0x155
    2cc8:	4884      	ldr	r0, [pc, #528]	@ (2edc <unwind_stack_arm32+0x2f4>)
    2cca:	447b      	add	r3, pc
    2ccc:	9201      	str	r2, [sp, #4]
    2cce:	2203      	movs	r2, #3
    2cd0:	9300      	str	r3, [sp, #0]
    2cd2:	2301      	movs	r3, #1
    2cd4:	4478      	add	r0, pc
unwind_exec_insn():
/home/lubuntu/Dokument/GitHub/STM32-Computer/Firmware/STM32-Computer-Firmware/CA7/optee-os-3.19.0-r2/optee-os-stm32mp-3.19.0-stm32mp-r2/lib/libunw/unwind_arm32.c:306
    2cd6:	f001 fbef 	bl	44b8 <trace_printf>
/home/lubuntu/Dokument/GitHub/STM32-Computer/Firmware/STM32-Computer-Firmware/CA7/optee-os-3.19.0-r2/optee-os-stm32mp-3.19.0-stm32mp-r2/lib/libunw/unwind_arm32.c:307
    2cda:	e09b      	b.n	2e14 <unwind_stack_arm32+0x22c>
/home/lubuntu/Dokument/GitHub/STM32-Computer/Firmware/STM32-Computer-Firmware/CA7/optee-os-3.19.0-r2/optee-os-stm32mp-3.19.0-stm32mp-r2/lib/libunw/unwind_arm32.c:195
    2cdc:	f8d4 8034 	ldr.w	r8, [r4, #52]	@ 0x34
/home/lubuntu/Dokument/GitHub/STM32-Computer/Firmware/STM32-Computer-Firmware/CA7/optee-os-3.19.0-r2/optee-os-stm32mp-3.19.0-stm32mp-r2/lib/libunw/unwind_arm32.c:199
    2ce0:	4620      	mov	r0, r4
    2ce2:	9906      	ldr	r1, [sp, #24]
/home/lubuntu/Dokument/GitHub/STM32-Computer/Firmware/STM32-Computer-Firmware/CA7/optee-os-3.19.0-r2/optee-os-stm32mp-3.19.0-stm32mp-r2/lib/libunw/unwind_arm32.c:195
    2ce4:	f8cd 8028 	str.w	r8, [sp, #40]	@ 0x28
/home/lubuntu/Dokument/GitHub/STM32-Computer/Firmware/STM32-Computer-Firmware/CA7/optee-os-3.19.0-r2/optee-os-stm32mp-3.19.0-stm32mp-r2/lib/libunw/unwind_arm32.c:199
    2ce8:	f001 fa43 	bl	4172 <unwind_exec_read_byte>
    2cec:	2800      	cmp	r0, #0
    2cee:	f000 8091 	beq.w	2e14 <unwind_stack_arm32+0x22c>
/home/lubuntu/Dokument/GitHub/STM32-Computer/Firmware/STM32-Computer-Firmware/CA7/optee-os-3.19.0-r2/optee-os-stm32mp-3.19.0-stm32mp-r2/lib/libunw/unwind_arm32.c:202
    2cf2:	9f09      	ldr	r7, [sp, #36]	@ 0x24
    2cf4:	f017 03c0 	ands.w	r3, r7, #192	@ 0xc0
    2cf8:	d110      	bne.n	2d1c <unwind_stack_arm32+0x134>
/home/lubuntu/Dokument/GitHub/STM32-Computer/Firmware/STM32-Computer-Firmware/CA7/optee-os-3.19.0-r2/optee-os-stm32mp-3.19.0-stm32mp-r2/lib/libunw/unwind_arm32.c:203
    2cfa:	00bf      	lsls	r7, r7, #2
    2cfc:	b2ff      	uxtb	r7, r7
    2cfe:	3704      	adds	r7, #4
    2d00:	4447      	add	r7, r8
/home/lubuntu/Dokument/GitHub/STM32-Computer/Firmware/STM32-Computer-Firmware/CA7/optee-os-3.19.0-r2/optee-os-stm32mp-3.19.0-stm32mp-r2/lib/libunw/unwind_arm32.c:206
    2d02:	6367      	str	r7, [r4, #52]	@ 0x34
unwind_tab():
/home/lubuntu/Dokument/GitHub/STM32-Computer/Firmware/STM32-Computer-Firmware/CA7/optee-os-3.19.0-r2/optee-os-stm32mp-3.19.0-stm32mp-r2/lib/libunw/unwind_arm32.c:345
    2d04:	6ca3      	ldr	r3, [r4, #72]	@ 0x48
    2d06:	2b00      	cmp	r3, #0
    2d08:	d1e8      	bne.n	2cdc <unwind_stack_arm32+0xf4>
/home/lubuntu/Dokument/GitHub/STM32-Computer/Firmware/STM32-Computer-Firmware/CA7/optee-os-3.19.0-r2/optee-os-stm32mp-3.19.0-stm32mp-r2/lib/libunw/unwind_arm32.c:353
    2d0a:	6be3      	ldr	r3, [r4, #60]	@ 0x3c
    2d0c:	2b00      	cmp	r3, #0
    2d0e:	f000 80d4 	beq.w	2eba <unwind_stack_arm32+0x2d2>
/home/lubuntu/Dokument/GitHub/STM32-Computer/Firmware/STM32-Computer-Firmware/CA7/optee-os-3.19.0-r2/optee-os-stm32mp-3.19.0-stm32mp-r2/lib/libunw/unwind_arm32.c:363
    2d12:	2000      	movs	r0, #0
unwind_stack_arm32():
/home/lubuntu/Dokument/GitHub/STM32-Computer/Firmware/STM32-Computer-Firmware/CA7/optee-os-3.19.0-r2/optee-os-stm32mp-3.19.0-stm32mp-r2/lib/libunw/unwind_arm32.c:404
    2d14:	686b      	ldr	r3, [r5, #4]
    2d16:	2b01      	cmp	r3, #1
    2d18:	d1a9      	bne.n	2c6e <unwind_stack_arm32+0x86>
    2d1a:	e7a7      	b.n	2c6c <unwind_stack_arm32+0x84>
unwind_exec_insn():
/home/lubuntu/Dokument/GitHub/STM32-Computer/Firmware/STM32-Computer-Firmware/CA7/optee-os-3.19.0-r2/optee-os-stm32mp-3.19.0-stm32mp-r2/lib/libunw/unwind_arm32.c:205
    2d1c:	2b40      	cmp	r3, #64	@ 0x40
    2d1e:	d105      	bne.n	2d2c <unwind_stack_arm32+0x144>
/home/lubuntu/Dokument/GitHub/STM32-Computer/Firmware/STM32-Computer-Firmware/CA7/optee-os-3.19.0-r2/optee-os-stm32mp-3.19.0-stm32mp-r2/lib/libunw/unwind_arm32.c:206
    2d20:	00bf      	lsls	r7, r7, #2
    2d22:	b2ff      	uxtb	r7, r7
    2d24:	eba8 0707 	sub.w	r7, r8, r7
    2d28:	3f04      	subs	r7, #4
    2d2a:	e7ea      	b.n	2d02 <unwind_stack_arm32+0x11a>
/home/lubuntu/Dokument/GitHub/STM32-Computer/Firmware/STM32-Computer-Firmware/CA7/optee-os-3.19.0-r2/optee-os-stm32mp-3.19.0-stm32mp-r2/lib/libunw/unwind_arm32.c:208
    2d2c:	f007 03f0 	and.w	r3, r7, #240	@ 0xf0
    2d30:	2b80      	cmp	r3, #128	@ 0x80
    2d32:	d139      	bne.n	2da8 <unwind_stack_arm32+0x1c0>
/home/lubuntu/Dokument/GitHub/STM32-Computer/Firmware/STM32-Computer-Firmware/CA7/optee-os-3.19.0-r2/optee-os-stm32mp-3.19.0-stm32mp-r2/lib/libunw/unwind_arm32.c:213
    2d34:	4649      	mov	r1, r9
    2d36:	4620      	mov	r0, r4
    2d38:	f001 fa1b 	bl	4172 <unwind_exec_read_byte>
    2d3c:	2800      	cmp	r0, #0
    2d3e:	d069      	beq.n	2e14 <unwind_stack_arm32+0x22c>
/home/lubuntu/Dokument/GitHub/STM32-Computer/Firmware/STM32-Computer-Firmware/CA7/optee-os-3.19.0-r2/optee-os-stm32mp-3.19.0-stm32mp-r2/lib/libunw/unwind_arm32.c:215
    2d40:	9b0b      	ldr	r3, [sp, #44]	@ 0x2c
    2d42:	023f      	lsls	r7, r7, #8
    2d44:	f407 6770 	and.w	r7, r7, #3840	@ 0xf00
    2d48:	431f      	orrs	r7, r3
    2d4a:	970b      	str	r7, [sp, #44]	@ 0x2c
/home/lubuntu/Dokument/GitHub/STM32-Computer/Firmware/STM32-Computer-Firmware/CA7/optee-os-3.19.0-r2/optee-os-stm32mp-3.19.0-stm32mp-r2/lib/libunw/unwind_arm32.c:218
    2d4c:	2f00      	cmp	r7, #0
    2d4e:	d061      	beq.n	2e14 <unwind_stack_arm32+0x22c>
/home/lubuntu/Dokument/GitHub/STM32-Computer/Firmware/STM32-Computer-Firmware/CA7/optee-os-3.19.0-r2/optee-os-stm32mp-3.19.0-stm32mp-r2/lib/libunw/unwind_arm32.c:225
    2d50:	2704      	movs	r7, #4
/home/lubuntu/Dokument/GitHub/STM32-Computer/Firmware/STM32-Computer-Firmware/CA7/optee-os-3.19.0-r2/optee-os-stm32mp-3.19.0-stm32mp-r2/lib/libunw/unwind_arm32.c:222
    2d52:	f04f 0a01 	mov.w	sl, #1
/home/lubuntu/Dokument/GitHub/STM32-Computer/Firmware/STM32-Computer-Firmware/CA7/optee-os-3.19.0-r2/optee-os-stm32mp-3.19.0-stm32mp-r2/lib/libunw/unwind_arm32.c:225
    2d56:	f8dd 802c 	ldr.w	r8, [sp, #44]	@ 0x2c
    2d5a:	f1b8 0f00 	cmp.w	r8, #0
    2d5e:	d001      	beq.n	2d64 <unwind_stack_arm32+0x17c>
    2d60:	2f10      	cmp	r7, #16
    2d62:	d104      	bne.n	2d6e <unwind_stack_arm32+0x186>
/home/lubuntu/Dokument/GitHub/STM32-Computer/Firmware/STM32-Computer-Firmware/CA7/optee-os-3.19.0-r2/optee-os-stm32mp-3.19.0-stm32mp-r2/lib/libunw/unwind_arm32.c:310
    2d64:	f1ba 0f00 	cmp.w	sl, #0
    2d68:	d0cc      	beq.n	2d04 <unwind_stack_arm32+0x11c>
/home/lubuntu/Dokument/GitHub/STM32-Computer/Firmware/STM32-Computer-Firmware/CA7/optee-os-3.19.0-r2/optee-os-stm32mp-3.19.0-stm32mp-r2/lib/libunw/unwind_arm32.c:311
    2d6a:	9b0a      	ldr	r3, [sp, #40]	@ 0x28
    2d6c:	e026      	b.n	2dbc <unwind_stack_arm32+0x1d4>
/home/lubuntu/Dokument/GitHub/STM32-Computer/Firmware/STM32-Computer-Firmware/CA7/optee-os-3.19.0-r2/optee-os-stm32mp-3.19.0-stm32mp-r2/lib/libunw/unwind_arm32.c:226
    2d6e:	f018 0f01 	tst.w	r8, #1
    2d72:	d014      	beq.n	2d9e <unwind_stack_arm32+0x1b6>
/home/lubuntu/Dokument/GitHub/STM32-Computer/Firmware/STM32-Computer-Firmware/CA7/optee-os-3.19.0-r2/optee-os-stm32mp-3.19.0-stm32mp-r2/lib/libunw/unwind_arm32.c:227
    2d74:	9904      	ldr	r1, [sp, #16]
    2d76:	4633      	mov	r3, r6
    2d78:	eb04 0087 	add.w	r0, r4, r7, lsl #2
    2d7c:	465a      	mov	r2, fp
    2d7e:	f001 f9e4 	bl	414a <pop_vsp>
    2d82:	2800      	cmp	r0, #0
    2d84:	d046      	beq.n	2e14 <unwind_stack_arm32+0x22c>
/home/lubuntu/Dokument/GitHub/STM32-Computer/Firmware/STM32-Computer-Firmware/CA7/optee-os-3.19.0-r2/optee-os-stm32mp-3.19.0-stm32mp-r2/lib/libunw/unwind_arm32.c:230
    2d86:	f8b4 2050 	ldrh.w	r2, [r4, #80]	@ 0x50
    2d8a:	2301      	movs	r3, #1
/home/lubuntu/Dokument/GitHub/STM32-Computer/Firmware/STM32-Computer-Firmware/CA7/optee-os-3.19.0-r2/optee-os-stm32mp-3.19.0-stm32mp-r2/lib/libunw/unwind_arm32.c:234
    2d8c:	2f0d      	cmp	r7, #13
/home/lubuntu/Dokument/GitHub/STM32-Computer/Firmware/STM32-Computer-Firmware/CA7/optee-os-3.19.0-r2/optee-os-stm32mp-3.19.0-stm32mp-r2/lib/libunw/unwind_arm32.c:230
    2d8e:	fa03 f307 	lsl.w	r3, r3, r7
/home/lubuntu/Dokument/GitHub/STM32-Computer/Firmware/STM32-Computer-Firmware/CA7/optee-os-3.19.0-r2/optee-os-stm32mp-3.19.0-stm32mp-r2/lib/libunw/unwind_arm32.c:234
    2d92:	bf08      	it	eq
    2d94:	f04f 0a00 	moveq.w	sl, #0
/home/lubuntu/Dokument/GitHub/STM32-Computer/Firmware/STM32-Computer-Firmware/CA7/optee-os-3.19.0-r2/optee-os-stm32mp-3.19.0-stm32mp-r2/lib/libunw/unwind_arm32.c:230
    2d98:	4313      	orrs	r3, r2
    2d9a:	f8a4 3050 	strh.w	r3, [r4, #80]	@ 0x50
/home/lubuntu/Dokument/GitHub/STM32-Computer/Firmware/STM32-Computer-Firmware/CA7/optee-os-3.19.0-r2/optee-os-stm32mp-3.19.0-stm32mp-r2/lib/libunw/unwind_arm32.c:225
    2d9e:	ea4f 0358 	mov.w	r3, r8, lsr #1
    2da2:	3701      	adds	r7, #1
    2da4:	930b      	str	r3, [sp, #44]	@ 0x2c
    2da6:	e7d6      	b.n	2d56 <unwind_stack_arm32+0x16e>
/home/lubuntu/Dokument/GitHub/STM32-Computer/Firmware/STM32-Computer-Firmware/CA7/optee-os-3.19.0-r2/optee-os-stm32mp-3.19.0-stm32mp-r2/lib/libunw/unwind_arm32.c:238
    2da8:	2b90      	cmp	r3, #144	@ 0x90
    2daa:	d109      	bne.n	2dc0 <unwind_stack_arm32+0x1d8>
    2dac:	f007 030d 	and.w	r3, r7, #13
    2db0:	2b0d      	cmp	r3, #13
    2db2:	d031      	beq.n	2e18 <unwind_stack_arm32+0x230>
/home/lubuntu/Dokument/GitHub/STM32-Computer/Firmware/STM32-Computer-Firmware/CA7/optee-os-3.19.0-r2/optee-os-stm32mp-3.19.0-stm32mp-r2/lib/libunw/unwind_arm32.c:239
    2db4:	f007 070f 	and.w	r7, r7, #15
/home/lubuntu/Dokument/GitHub/STM32-Computer/Firmware/STM32-Computer-Firmware/CA7/optee-os-3.19.0-r2/optee-os-stm32mp-3.19.0-stm32mp-r2/lib/libunw/unwind_arm32.c:243
    2db8:	f854 3027 	ldr.w	r3, [r4, r7, lsl #2]
/home/lubuntu/Dokument/GitHub/STM32-Computer/Firmware/STM32-Computer-Firmware/CA7/optee-os-3.19.0-r2/optee-os-stm32mp-3.19.0-stm32mp-r2/lib/libunw/unwind_arm32.c:311
    2dbc:	6363      	str	r3, [r4, #52]	@ 0x34
    2dbe:	e7a1      	b.n	2d04 <unwind_stack_arm32+0x11c>
/home/lubuntu/Dokument/GitHub/STM32-Computer/Firmware/STM32-Computer-Firmware/CA7/optee-os-3.19.0-r2/optee-os-stm32mp-3.19.0-stm32mp-r2/lib/libunw/unwind_arm32.c:245
    2dc0:	2ba0      	cmp	r3, #160	@ 0xa0
    2dc2:	d129      	bne.n	2e18 <unwind_stack_arm32+0x230>
/home/lubuntu/Dokument/GitHub/STM32-Computer/Firmware/STM32-Computer-Firmware/CA7/optee-os-3.19.0-r2/optee-os-stm32mp-3.19.0-stm32mp-r2/lib/libunw/unwind_arm32.c:249
    2dc4:	f007 0307 	and.w	r3, r7, #7
/home/lubuntu/Dokument/GitHub/STM32-Computer/Firmware/STM32-Computer-Firmware/CA7/optee-os-3.19.0-r2/optee-os-stm32mp-3.19.0-stm32mp-r2/lib/libunw/unwind_arm32.c:255
    2dc8:	f04f 0804 	mov.w	r8, #4
/home/lubuntu/Dokument/GitHub/STM32-Computer/Firmware/STM32-Computer-Firmware/CA7/optee-os-3.19.0-r2/optee-os-stm32mp-3.19.0-stm32mp-r2/lib/libunw/unwind_arm32.c:256
    2dcc:	a90a      	add	r1, sp, #40	@ 0x28
/home/lubuntu/Dokument/GitHub/STM32-Computer/Firmware/STM32-Computer-Firmware/CA7/optee-os-3.19.0-r2/optee-os-stm32mp-3.19.0-stm32mp-r2/lib/libunw/unwind_arm32.c:259
    2dce:	f04f 0a01 	mov.w	sl, #1
/home/lubuntu/Dokument/GitHub/STM32-Computer/Firmware/STM32-Computer-Firmware/CA7/optee-os-3.19.0-r2/optee-os-stm32mp-3.19.0-stm32mp-r2/lib/libunw/unwind_arm32.c:255
    2dd2:	3304      	adds	r3, #4
    2dd4:	9305      	str	r3, [sp, #20]
/home/lubuntu/Dokument/GitHub/STM32-Computer/Firmware/STM32-Computer-Firmware/CA7/optee-os-3.19.0-r2/optee-os-stm32mp-3.19.0-stm32mp-r2/lib/libunw/unwind_arm32.c:256
    2dd6:	9107      	str	r1, [sp, #28]
    2dd8:	4633      	mov	r3, r6
    2dda:	eb04 0088 	add.w	r0, r4, r8, lsl #2
    2dde:	465a      	mov	r2, fp
    2de0:	f001 f9b3 	bl	414a <pop_vsp>
    2de4:	b1b0      	cbz	r0, 2e14 <unwind_stack_arm32+0x22c>
/home/lubuntu/Dokument/GitHub/STM32-Computer/Firmware/STM32-Computer-Firmware/CA7/optee-os-3.19.0-r2/optee-os-stm32mp-3.19.0-stm32mp-r2/lib/libunw/unwind_arm32.c:259
    2de6:	f8b4 2050 	ldrh.w	r2, [r4, #80]	@ 0x50
    2dea:	fa0a f308 	lsl.w	r3, sl, r8
/home/lubuntu/Dokument/GitHub/STM32-Computer/Firmware/STM32-Computer-Firmware/CA7/optee-os-3.19.0-r2/optee-os-stm32mp-3.19.0-stm32mp-r2/lib/libunw/unwind_arm32.c:255
    2dee:	f108 0801 	add.w	r8, r8, #1
/home/lubuntu/Dokument/GitHub/STM32-Computer/Firmware/STM32-Computer-Firmware/CA7/optee-os-3.19.0-r2/optee-os-stm32mp-3.19.0-stm32mp-r2/lib/libunw/unwind_arm32.c:259
    2df2:	4313      	orrs	r3, r2
    2df4:	f8a4 3050 	strh.w	r3, [r4, #80]	@ 0x50
/home/lubuntu/Dokument/GitHub/STM32-Computer/Firmware/STM32-Computer-Firmware/CA7/optee-os-3.19.0-r2/optee-os-stm32mp-3.19.0-stm32mp-r2/lib/libunw/unwind_arm32.c:255
    2df8:	9b05      	ldr	r3, [sp, #20]
    2dfa:	9907      	ldr	r1, [sp, #28]
    2dfc:	4543      	cmp	r3, r8
    2dfe:	d2ea      	bcs.n	2dd6 <unwind_stack_arm32+0x1ee>
/home/lubuntu/Dokument/GitHub/STM32-Computer/Firmware/STM32-Computer-Firmware/CA7/optee-os-3.19.0-r2/optee-os-stm32mp-3.19.0-stm32mp-r2/lib/libunw/unwind_arm32.c:263
    2e00:	073b      	lsls	r3, r7, #28
    2e02:	d5b2      	bpl.n	2d6a <unwind_stack_arm32+0x182>
/home/lubuntu/Dokument/GitHub/STM32-Computer/Firmware/STM32-Computer-Firmware/CA7/optee-os-3.19.0-r2/optee-os-stm32mp-3.19.0-stm32mp-r2/lib/libunw/unwind_arm32.c:264
    2e04:	4633      	mov	r3, r6
    2e06:	465a      	mov	r2, fp
    2e08:	f104 0038 	add.w	r0, r4, #56	@ 0x38
    2e0c:	f001 f99d 	bl	414a <pop_vsp>
    2e10:	2800      	cmp	r0, #0
    2e12:	d1aa      	bne.n	2d6a <unwind_stack_arm32+0x182>
unwind_tab():
/home/lubuntu/Dokument/GitHub/STM32-Computer/Firmware/STM32-Computer-Firmware/CA7/optee-os-3.19.0-r2/optee-os-stm32mp-3.19.0-stm32mp-r2/lib/libunw/unwind_arm32.c:342
    2e14:	9803      	ldr	r0, [sp, #12]
    2e16:	e77d      	b.n	2d14 <unwind_stack_arm32+0x12c>
unwind_exec_insn():
/home/lubuntu/Dokument/GitHub/STM32-Computer/Firmware/STM32-Computer-Firmware/CA7/optee-os-3.19.0-r2/optee-os-stm32mp-3.19.0-stm32mp-r2/lib/libunw/unwind_arm32.c:269
    2e18:	2fb0      	cmp	r7, #176	@ 0xb0
    2e1a:	d102      	bne.n	2e22 <unwind_stack_arm32+0x23a>
/home/lubuntu/Dokument/GitHub/STM32-Computer/Firmware/STM32-Computer-Firmware/CA7/optee-os-3.19.0-r2/optee-os-stm32mp-3.19.0-stm32mp-r2/lib/libunw/unwind_arm32.c:271
    2e1c:	2300      	movs	r3, #0
    2e1e:	64a3      	str	r3, [r4, #72]	@ 0x48
/home/lubuntu/Dokument/GitHub/STM32-Computer/Firmware/STM32-Computer-Firmware/CA7/optee-os-3.19.0-r2/optee-os-stm32mp-3.19.0-stm32mp-r2/lib/libunw/unwind_arm32.c:310
    2e20:	e770      	b.n	2d04 <unwind_stack_arm32+0x11c>
/home/lubuntu/Dokument/GitHub/STM32-Computer/Firmware/STM32-Computer-Firmware/CA7/optee-os-3.19.0-r2/optee-os-stm32mp-3.19.0-stm32mp-r2/lib/libunw/unwind_arm32.c:273
    2e22:	2fb1      	cmp	r7, #177	@ 0xb1
    2e24:	d12c      	bne.n	2e80 <unwind_stack_arm32+0x298>
/home/lubuntu/Dokument/GitHub/STM32-Computer/Firmware/STM32-Computer-Firmware/CA7/optee-os-3.19.0-r2/optee-os-stm32mp-3.19.0-stm32mp-r2/lib/libunw/unwind_arm32.c:277
    2e26:	4649      	mov	r1, r9
    2e28:	4620      	mov	r0, r4
    2e2a:	f001 f9a2 	bl	4172 <unwind_exec_read_byte>
    2e2e:	2800      	cmp	r0, #0
    2e30:	d0f0      	beq.n	2e14 <unwind_stack_arm32+0x22c>
/home/lubuntu/Dokument/GitHub/STM32-Computer/Firmware/STM32-Computer-Firmware/CA7/optee-os-3.19.0-r2/optee-os-stm32mp-3.19.0-stm32mp-r2/lib/libunw/unwind_arm32.c:279
    2e32:	9f0b      	ldr	r7, [sp, #44]	@ 0x2c
    2e34:	2f00      	cmp	r7, #0
    2e36:	d0ed      	beq.n	2e14 <unwind_stack_arm32+0x22c>
    2e38:	f017 07f0 	ands.w	r7, r7, #240	@ 0xf0
    2e3c:	d1ea      	bne.n	2e14 <unwind_stack_arm32+0x22c>
/home/lubuntu/Dokument/GitHub/STM32-Computer/Firmware/STM32-Computer-Firmware/CA7/optee-os-3.19.0-r2/optee-os-stm32mp-3.19.0-stm32mp-r2/lib/libunw/unwind_arm32.c:291
    2e3e:	f04f 0a01 	mov.w	sl, #1
/home/lubuntu/Dokument/GitHub/STM32-Computer/Firmware/STM32-Computer-Firmware/CA7/optee-os-3.19.0-r2/optee-os-stm32mp-3.19.0-stm32mp-r2/lib/libunw/unwind_arm32.c:286
    2e42:	f8dd 802c 	ldr.w	r8, [sp, #44]	@ 0x2c
    2e46:	f1b8 0f00 	cmp.w	r8, #0
    2e4a:	d08e      	beq.n	2d6a <unwind_stack_arm32+0x182>
    2e4c:	2f04      	cmp	r7, #4
    2e4e:	d08c      	beq.n	2d6a <unwind_stack_arm32+0x182>
/home/lubuntu/Dokument/GitHub/STM32-Computer/Firmware/STM32-Computer-Firmware/CA7/optee-os-3.19.0-r2/optee-os-stm32mp-3.19.0-stm32mp-r2/lib/libunw/unwind_arm32.c:287
    2e50:	f018 0f01 	tst.w	r8, #1
    2e54:	d00f      	beq.n	2e76 <unwind_stack_arm32+0x28e>
/home/lubuntu/Dokument/GitHub/STM32-Computer/Firmware/STM32-Computer-Firmware/CA7/optee-os-3.19.0-r2/optee-os-stm32mp-3.19.0-stm32mp-r2/lib/libunw/unwind_arm32.c:288
    2e56:	9904      	ldr	r1, [sp, #16]
    2e58:	4633      	mov	r3, r6
    2e5a:	eb04 0087 	add.w	r0, r4, r7, lsl #2
    2e5e:	465a      	mov	r2, fp
    2e60:	f001 f973 	bl	414a <pop_vsp>
    2e64:	2800      	cmp	r0, #0
    2e66:	d0d5      	beq.n	2e14 <unwind_stack_arm32+0x22c>
/home/lubuntu/Dokument/GitHub/STM32-Computer/Firmware/STM32-Computer-Firmware/CA7/optee-os-3.19.0-r2/optee-os-stm32mp-3.19.0-stm32mp-r2/lib/libunw/unwind_arm32.c:291
    2e68:	f8b4 2050 	ldrh.w	r2, [r4, #80]	@ 0x50
    2e6c:	fa0a f307 	lsl.w	r3, sl, r7
    2e70:	4313      	orrs	r3, r2
    2e72:	f8a4 3050 	strh.w	r3, [r4, #80]	@ 0x50
/home/lubuntu/Dokument/GitHub/STM32-Computer/Firmware/STM32-Computer-Firmware/CA7/optee-os-3.19.0-r2/optee-os-stm32mp-3.19.0-stm32mp-r2/lib/libunw/unwind_arm32.c:286
    2e76:	ea4f 0358 	mov.w	r3, r8, lsr #1
    2e7a:	3701      	adds	r7, #1
    2e7c:	930b      	str	r3, [sp, #44]	@ 0x2c
    2e7e:	e7e0      	b.n	2e42 <unwind_stack_arm32+0x25a>
/home/lubuntu/Dokument/GitHub/STM32-Computer/Firmware/STM32-Computer-Firmware/CA7/optee-os-3.19.0-r2/optee-os-stm32mp-3.19.0-stm32mp-r2/lib/libunw/unwind_arm32.c:295
    2e80:	b2fb      	uxtb	r3, r7
    2e82:	2bb2      	cmp	r3, #178	@ 0xb2
    2e84:	d10b      	bne.n	2e9e <unwind_stack_arm32+0x2b6>
/home/lubuntu/Dokument/GitHub/STM32-Computer/Firmware/STM32-Computer-Firmware/CA7/optee-os-3.19.0-r2/optee-os-stm32mp-3.19.0-stm32mp-r2/lib/libunw/unwind_arm32.c:299
    2e86:	4649      	mov	r1, r9
    2e88:	4620      	mov	r0, r4
    2e8a:	f001 f972 	bl	4172 <unwind_exec_read_byte>
    2e8e:	2800      	cmp	r0, #0
    2e90:	d0c0      	beq.n	2e14 <unwind_stack_arm32+0x22c>
/home/lubuntu/Dokument/GitHub/STM32-Computer/Firmware/STM32-Computer-Firmware/CA7/optee-os-3.19.0-r2/optee-os-stm32mp-3.19.0-stm32mp-r2/lib/libunw/unwind_arm32.c:302
    2e92:	9b0b      	ldr	r3, [sp, #44]	@ 0x2c
    2e94:	eb08 0883 	add.w	r8, r8, r3, lsl #2
    2e98:	f508 7301 	add.w	r3, r8, #516	@ 0x204
    2e9c:	e78e      	b.n	2dbc <unwind_stack_arm32+0x1d4>
/home/lubuntu/Dokument/GitHub/STM32-Computer/Firmware/STM32-Computer-Firmware/CA7/optee-os-3.19.0-r2/optee-os-stm32mp-3.19.0-stm32mp-r2/lib/libunw/unwind_arm32.c:306
    2e9e:	4b10      	ldr	r3, [pc, #64]	@ (2ee0 <unwind_stack_arm32+0x2f8>)
    2ea0:	2203      	movs	r2, #3
    2ea2:	4810      	ldr	r0, [pc, #64]	@ (2ee4 <unwind_stack_arm32+0x2fc>)
    2ea4:	f44f 7199 	mov.w	r1, #306	@ 0x132
    2ea8:	447b      	add	r3, pc
    2eaa:	9300      	str	r3, [sp, #0]
    2eac:	2301      	movs	r3, #1
    2eae:	4478      	add	r0, pc
    2eb0:	9701      	str	r7, [sp, #4]
    2eb2:	e710      	b.n	2cd6 <unwind_stack_arm32+0xee>
unwind_tab():
/home/lubuntu/Dokument/GitHub/STM32-Computer/Firmware/STM32-Computer-Firmware/CA7/optee-os-3.19.0-r2/optee-os-stm32mp-3.19.0-stm32mp-r2/lib/libunw/unwind_arm32.c:306
    2eb4:	2202      	movs	r2, #2
    2eb6:	2301      	movs	r3, #1
    2eb8:	e6fe      	b.n	2cb8 <unwind_stack_arm32+0xd0>
/home/lubuntu/Dokument/GitHub/STM32-Computer/Firmware/STM32-Computer-Firmware/CA7/optee-os-3.19.0-r2/optee-os-stm32mp-3.19.0-stm32mp-r2/lib/libunw/unwind_arm32.c:354
    2eba:	6ba3      	ldr	r3, [r4, #56]	@ 0x38
/home/lubuntu/Dokument/GitHub/STM32-Computer/Firmware/STM32-Computer-Firmware/CA7/optee-os-3.19.0-r2/optee-os-stm32mp-3.19.0-stm32mp-r2/lib/libunw/unwind_arm32.c:359
    2ebc:	6c22      	ldr	r2, [r4, #64]	@ 0x40
/home/lubuntu/Dokument/GitHub/STM32-Computer/Firmware/STM32-Computer-Firmware/CA7/optee-os-3.19.0-r2/optee-os-stm32mp-3.19.0-stm32mp-r2/lib/libunw/unwind_arm32.c:354
    2ebe:	63e3      	str	r3, [r4, #60]	@ 0x3c
/home/lubuntu/Dokument/GitHub/STM32-Computer/Firmware/STM32-Computer-Firmware/CA7/optee-os-3.19.0-r2/optee-os-stm32mp-3.19.0-stm32mp-r2/lib/libunw/unwind_arm32.c:359
    2ec0:	4293      	cmp	r3, r2
    2ec2:	f43f af26 	beq.w	2d12 <unwind_stack_arm32+0x12a>
/home/lubuntu/Dokument/GitHub/STM32-Computer/Firmware/STM32-Computer-Firmware/CA7/optee-os-3.19.0-r2/optee-os-stm32mp-3.19.0-stm32mp-r2/lib/libunw/unwind_arm32.c:360
    2ec6:	f8b4 3050 	ldrh.w	r3, [r4, #80]	@ 0x50
    2eca:	ea6f 4343 	mvn.w	r3, r3, lsl #17
    2ece:	ea6f 4353 	mvn.w	r3, r3, lsr #17
    2ed2:	f8a4 3050 	strh.w	r3, [r4, #80]	@ 0x50
    2ed6:	e71c      	b.n	2d12 <unwind_stack_arm32+0x12a>
    2ed8:	00002686 	.word	0x00002686
    2edc:	000026ce 	.word	0x000026ce
    2ee0:	000024ba 	.word	0x000024ba
    2ee4:	000024e3 	.word	0x000024e3

00002ee8 <print_stack_arm32>:
print_stack_arm32():
/home/lubuntu/Dokument/GitHub/STM32-Computer/Firmware/STM32-Computer-Firmware/CA7/optee-os-3.19.0-r2/optee-os-stm32mp-3.19.0-stm32mp-r2/lib/libunw/unwind_arm32.c:413
    2ee8:	4b10      	ldr	r3, [pc, #64]	@ (2f2c <print_stack_arm32+0x44>)
/home/lubuntu/Dokument/GitHub/STM32-Computer/Firmware/STM32-Computer-Firmware/CA7/optee-os-3.19.0-r2/optee-os-stm32mp-3.19.0-stm32mp-r2/lib/libunw/unwind_arm32.c:412
    2eea:	b5f7      	push	{r0, r1, r2, r4, r5, r6, r7, lr}
    2eec:	460d      	mov	r5, r1
/home/lubuntu/Dokument/GitHub/STM32-Computer/Firmware/STM32-Computer-Firmware/CA7/optee-os-3.19.0-r2/optee-os-stm32mp-3.19.0-stm32mp-r2/lib/libunw/unwind_arm32.c:413
    2eee:	447b      	add	r3, pc
    2ef0:	2100      	movs	r1, #0
/home/lubuntu/Dokument/GitHub/STM32-Computer/Firmware/STM32-Computer-Firmware/CA7/optee-os-3.19.0-r2/optee-os-stm32mp-3.19.0-stm32mp-r2/lib/libunw/unwind_arm32.c:415
    2ef2:	4f0f      	ldr	r7, [pc, #60]	@ (2f30 <print_stack_arm32+0x48>)
/home/lubuntu/Dokument/GitHub/STM32-Computer/Firmware/STM32-Computer-Firmware/CA7/optee-os-3.19.0-r2/optee-os-stm32mp-3.19.0-stm32mp-r2/lib/libunw/unwind_arm32.c:412
    2ef4:	4604      	mov	r4, r0
/home/lubuntu/Dokument/GitHub/STM32-Computer/Firmware/STM32-Computer-Firmware/CA7/optee-os-3.19.0-r2/optee-os-stm32mp-3.19.0-stm32mp-r2/lib/libunw/unwind_arm32.c:413
    2ef6:	9300      	str	r3, [sp, #0]
    2ef8:	2301      	movs	r3, #1
/home/lubuntu/Dokument/GitHub/STM32-Computer/Firmware/STM32-Computer-Firmware/CA7/optee-os-3.19.0-r2/optee-os-stm32mp-3.19.0-stm32mp-r2/lib/libunw/unwind_arm32.c:415
    2efa:	447f      	add	r7, pc
/home/lubuntu/Dokument/GitHub/STM32-Computer/Firmware/STM32-Computer-Firmware/CA7/optee-os-3.19.0-r2/optee-os-stm32mp-3.19.0-stm32mp-r2/lib/libunw/unwind_arm32.c:412
    2efc:	4616      	mov	r6, r2
/home/lubuntu/Dokument/GitHub/STM32-Computer/Firmware/STM32-Computer-Firmware/CA7/optee-os-3.19.0-r2/optee-os-stm32mp-3.19.0-stm32mp-r2/lib/libunw/unwind_arm32.c:413
    2efe:	4608      	mov	r0, r1
    2f00:	461a      	mov	r2, r3
    2f02:	f001 fad9 	bl	44b8 <trace_printf>
/home/lubuntu/Dokument/GitHub/STM32-Computer/Firmware/STM32-Computer-Firmware/CA7/optee-os-3.19.0-r2/optee-os-stm32mp-3.19.0-stm32mp-r2/lib/libunw/unwind_arm32.c:415 (discriminator 1)
    2f06:	6be3      	ldr	r3, [r4, #60]	@ 0x3c
    2f08:	2100      	movs	r1, #0
    2f0a:	9700      	str	r7, [sp, #0]
    2f0c:	4608      	mov	r0, r1
    2f0e:	9301      	str	r3, [sp, #4]
    2f10:	2301      	movs	r3, #1
    2f12:	461a      	mov	r2, r3
    2f14:	f001 fad0 	bl	44b8 <trace_printf>
/home/lubuntu/Dokument/GitHub/STM32-Computer/Firmware/STM32-Computer-Firmware/CA7/optee-os-3.19.0-r2/optee-os-stm32mp-3.19.0-stm32mp-r2/lib/libunw/unwind_arm32.c:417 (discriminator 1)
    2f18:	4632      	mov	r2, r6
    2f1a:	4629      	mov	r1, r5
    2f1c:	4620      	mov	r0, r4
    2f1e:	f7ff fe63 	bl	2be8 <unwind_stack_arm32>
    2f22:	2800      	cmp	r0, #0
    2f24:	d1ef      	bne.n	2f06 <print_stack_arm32+0x1e>
/home/lubuntu/Dokument/GitHub/STM32-Computer/Firmware/STM32-Computer-Firmware/CA7/optee-os-3.19.0-r2/optee-os-stm32mp-3.19.0-stm32mp-r2/lib/libunw/unwind_arm32.c:418
    2f26:	b003      	add	sp, #12
    2f28:	bdf0      	pop	{r4, r5, r6, r7, pc}
    2f2a:	bf00      	nop
    2f2c:	0000248f 	.word	0x0000248f
    2f30:	0000248f 	.word	0x0000248f

00002f34 <_assert_log>:
_assert_log():
/home/lubuntu/Dokument/GitHub/STM32-Computer/Firmware/STM32-Computer-Firmware/CA7/optee-os-3.19.0-r2/optee-os-stm32mp-3.19.0-stm32mp-r2/lib/libutee/assert.c:17
    2f34:	b57f      	push	{r0, r1, r2, r3, r4, r5, r6, lr}
/home/lubuntu/Dokument/GitHub/STM32-Computer/Firmware/STM32-Computer-Firmware/CA7/optee-os-3.19.0-r2/optee-os-stm32mp-3.19.0-stm32mp-r2/lib/libutee/assert.c:18
    2f36:	9304      	str	r3, [sp, #16]
    2f38:	4b07      	ldr	r3, [pc, #28]	@ (2f58 <_assert_log+0x24>)
    2f3a:	9102      	str	r1, [sp, #8]
    2f3c:	2100      	movs	r1, #0
    2f3e:	447b      	add	r3, pc
    2f40:	9300      	str	r3, [sp, #0]
    2f42:	2301      	movs	r3, #1
    2f44:	9203      	str	r2, [sp, #12]
    2f46:	461a      	mov	r2, r3
    2f48:	9001      	str	r0, [sp, #4]
    2f4a:	4608      	mov	r0, r1
    2f4c:	f001 fab4 	bl	44b8 <trace_printf>
/home/lubuntu/Dokument/GitHub/STM32-Computer/Firmware/STM32-Computer-Firmware/CA7/optee-os-3.19.0-r2/optee-os-stm32mp-3.19.0-stm32mp-r2/lib/libutee/assert.c:20
    2f50:	b007      	add	sp, #28
    2f52:	f85d fb04 	ldr.w	pc, [sp], #4
    2f56:	bf00      	nop
    2f58:	0000246f 	.word	0x0000246f

00002f5c <_assert_break>:
_assert_break():
/home/lubuntu/Dokument/GitHub/STM32-Computer/Firmware/STM32-Computer-Firmware/CA7/optee-os-3.19.0-r2/optee-os-stm32mp-3.19.0-stm32mp-r2/lib/libutee/assert.c:24
    2f5c:	4802      	ldr	r0, [pc, #8]	@ (2f68 <_assert_break+0xc>)
/home/lubuntu/Dokument/GitHub/STM32-Computer/Firmware/STM32-Computer-Firmware/CA7/optee-os-3.19.0-r2/optee-os-stm32mp-3.19.0-stm32mp-r2/lib/libutee/assert.c:23
    2f5e:	b508      	push	{r3, lr}
/home/lubuntu/Dokument/GitHub/STM32-Computer/Firmware/STM32-Computer-Firmware/CA7/optee-os-3.19.0-r2/optee-os-stm32mp-3.19.0-stm32mp-r2/lib/libutee/assert.c:24
    2f60:	f000 e88c 	blx	307c <_utee_panic>
/home/lubuntu/Dokument/GitHub/STM32-Computer/Firmware/STM32-Computer-Firmware/CA7/optee-os-3.19.0-r2/optee-os-stm32mp-3.19.0-stm32mp-r2/lib/libutee/assert.c:26 (discriminator 1)
    2f64:	e7fe      	b.n	2f64 <_assert_break+0x8>
    2f66:	bf00      	nop
    2f68:	ffff0000 	.word	0xffff0000

00002f6c <parse_hex>:
parse_hex():
/home/lubuntu/Dokument/GitHub/STM32-Computer/Firmware/STM32-Computer-Firmware/CA7/optee-os-3.19.0-r2/optee-os-stm32mp-3.19.0-stm32mp-r2/lib/libutee/tee_uuid_from_str.c:24
    2f6c:	e92d 41f0 	stmdb	sp!, {r4, r5, r6, r7, r8, lr}
    2f70:	4617      	mov	r7, r2
    2f72:	eb00 0801 	add.w	r8, r0, r1
    2f76:	4604      	mov	r4, r0
/home/lubuntu/Dokument/GitHub/STM32-Computer/Firmware/STM32-Computer-Firmware/CA7/optee-os-3.19.0-r2/optee-os-stm32mp-3.19.0-stm32mp-r2/lib/libutee/tee_uuid_from_str.c:25
    2f78:	2600      	movs	r6, #0
/home/lubuntu/Dokument/GitHub/STM32-Computer/Firmware/STM32-Computer-Firmware/CA7/optee-os-3.19.0-r2/optee-os-stm32mp-3.19.0-stm32mp-r2/lib/libutee/tee_uuid_from_str.c:29 (discriminator 1)
    2f7a:	4544      	cmp	r4, r8
    2f7c:	d104      	bne.n	2f88 <parse_hex+0x1c>
    2f7e:	2300      	movs	r3, #0
/home/lubuntu/Dokument/GitHub/STM32-Computer/Firmware/STM32-Computer-Firmware/CA7/optee-os-3.19.0-r2/optee-os-stm32mp-3.19.0-stm32mp-r2/lib/libutee/tee_uuid_from_str.c:32
    2f80:	603b      	str	r3, [r7, #0]
/home/lubuntu/Dokument/GitHub/STM32-Computer/Firmware/STM32-Computer-Firmware/CA7/optee-os-3.19.0-r2/optee-os-stm32mp-3.19.0-stm32mp-r2/lib/libutee/tee_uuid_from_str.c:40
    2f82:	4630      	mov	r0, r6
    2f84:	e8bd 81f0 	ldmia.w	sp!, {r4, r5, r6, r7, r8, pc}
hex():
/home/lubuntu/Dokument/GitHub/STM32-Computer/Firmware/STM32-Computer-Firmware/CA7/optee-os-3.19.0-r2/optee-os-stm32mp-3.19.0-stm32mp-r2/lib/libutee/tee_uuid_from_str.c:14
    2f88:	f814 0b01 	ldrb.w	r0, [r4], #1
    2f8c:	f001 f9c4 	bl	4318 <tolower>
/home/lubuntu/Dokument/GitHub/STM32-Computer/Firmware/STM32-Computer-Firmware/CA7/optee-os-3.19.0-r2/optee-os-stm32mp-3.19.0-stm32mp-r2/lib/libutee/tee_uuid_from_str.c:16
    2f90:	f1a0 0330 	sub.w	r3, r0, #48	@ 0x30
/home/lubuntu/Dokument/GitHub/STM32-Computer/Firmware/STM32-Computer-Firmware/CA7/optee-os-3.19.0-r2/optee-os-stm32mp-3.19.0-stm32mp-r2/lib/libutee/tee_uuid_from_str.c:14
    2f94:	4605      	mov	r5, r0
/home/lubuntu/Dokument/GitHub/STM32-Computer/Firmware/STM32-Computer-Firmware/CA7/optee-os-3.19.0-r2/optee-os-stm32mp-3.19.0-stm32mp-r2/lib/libutee/tee_uuid_from_str.c:16
    2f96:	2b09      	cmp	r3, #9
    2f98:	d904      	bls.n	2fa4 <parse_hex+0x38>
/home/lubuntu/Dokument/GitHub/STM32-Computer/Firmware/STM32-Computer-Firmware/CA7/optee-os-3.19.0-r2/optee-os-stm32mp-3.19.0-stm32mp-r2/lib/libutee/tee_uuid_from_str.c:18
    2f9a:	f001 f9a0 	bl	42de <isxdigit>
    2f9e:	b120      	cbz	r0, 2faa <parse_hex+0x3e>
/home/lubuntu/Dokument/GitHub/STM32-Computer/Firmware/STM32-Computer-Firmware/CA7/optee-os-3.19.0-r2/optee-os-stm32mp-3.19.0-stm32mp-r2/lib/libutee/tee_uuid_from_str.c:19
    2fa0:	f1a5 0357 	sub.w	r3, r5, #87	@ 0x57
parse_hex():
/home/lubuntu/Dokument/GitHub/STM32-Computer/Firmware/STM32-Computer-Firmware/CA7/optee-os-3.19.0-r2/optee-os-stm32mp-3.19.0-stm32mp-r2/lib/libutee/tee_uuid_from_str.c:35 (discriminator 2)
    2fa4:	eb03 1606 	add.w	r6, r3, r6, lsl #4
/home/lubuntu/Dokument/GitHub/STM32-Computer/Firmware/STM32-Computer-Firmware/CA7/optee-os-3.19.0-r2/optee-os-stm32mp-3.19.0-stm32mp-r2/lib/libutee/tee_uuid_from_str.c:29 (discriminator 2)
    2fa8:	e7e7      	b.n	2f7a <parse_hex+0xe>
hex():
/home/lubuntu/Dokument/GitHub/STM32-Computer/Firmware/STM32-Computer-Firmware/CA7/optee-os-3.19.0-r2/optee-os-stm32mp-3.19.0-stm32mp-r2/lib/libutee/tee_uuid_from_str.c:29 (discriminator 2)
    2faa:	4b01      	ldr	r3, [pc, #4]	@ (2fb0 <parse_hex+0x44>)
    2fac:	e7e8      	b.n	2f80 <parse_hex+0x14>
    2fae:	bf00      	nop
    2fb0:	ffff0005 	.word	0xffff0005

00002fb4 <tee_uuid_from_str>:
tee_uuid_from_str():
/home/lubuntu/Dokument/GitHub/STM32-Computer/Firmware/STM32-Computer-Firmware/CA7/optee-os-3.19.0-r2/optee-os-stm32mp-3.19.0-stm32mp-r2/lib/libutee/tee_uuid_from_str.c:43
    2fb4:	e92d 4ff0 	stmdb	sp!, {r4, r5, r6, r7, r8, r9, sl, fp, lr}
    2fb8:	b089      	sub	sp, #36	@ 0x24
    2fba:	460c      	mov	r4, r1
/home/lubuntu/Dokument/GitHub/STM32-Computer/Firmware/STM32-Computer-Firmware/CA7/optee-os-3.19.0-r2/optee-os-stm32mp-3.19.0-stm32mp-r2/lib/libutee/tee_uuid_from_str.c:45
    2fbc:	af04      	add	r7, sp, #16
/home/lubuntu/Dokument/GitHub/STM32-Computer/Firmware/STM32-Computer-Firmware/CA7/optee-os-3.19.0-r2/optee-os-stm32mp-3.19.0-stm32mp-r2/lib/libutee/tee_uuid_from_str.c:43
    2fbe:	4605      	mov	r5, r0
/home/lubuntu/Dokument/GitHub/STM32-Computer/Firmware/STM32-Computer-Firmware/CA7/optee-os-3.19.0-r2/optee-os-stm32mp-3.19.0-stm32mp-r2/lib/libutee/tee_uuid_from_str.c:44
    2fc0:	2100      	movs	r1, #0
    2fc2:	9103      	str	r1, [sp, #12]
/home/lubuntu/Dokument/GitHub/STM32-Computer/Firmware/STM32-Computer-Firmware/CA7/optee-os-3.19.0-r2/optee-os-stm32mp-3.19.0-stm32mp-r2/lib/libutee/tee_uuid_from_str.c:45
    2fc4:	2210      	movs	r2, #16
    2fc6:	4638      	mov	r0, r7
    2fc8:	f001 f9bc 	bl	4344 <memset>
/home/lubuntu/Dokument/GitHub/STM32-Computer/Firmware/STM32-Computer-Firmware/CA7/optee-os-3.19.0-r2/optee-os-stm32mp-3.19.0-stm32mp-r2/lib/libutee/tee_uuid_from_str.c:49
    2fcc:	2c00      	cmp	r4, #0
    2fce:	d050      	beq.n	3072 <tee_uuid_from_str+0xbe>
/home/lubuntu/Dokument/GitHub/STM32-Computer/Firmware/STM32-Computer-Firmware/CA7/optee-os-3.19.0-r2/optee-os-stm32mp-3.19.0-stm32mp-r2/lib/libutee/tee_uuid_from_str.c:49 (discriminator 1)
    2fd0:	2125      	movs	r1, #37	@ 0x25
    2fd2:	4620      	mov	r0, r4
    2fd4:	f001 f9d1 	bl	437a <strnlen>
    2fd8:	2824      	cmp	r0, #36	@ 0x24
    2fda:	d14a      	bne.n	3072 <tee_uuid_from_str+0xbe>
/home/lubuntu/Dokument/GitHub/STM32-Computer/Firmware/STM32-Computer-Firmware/CA7/optee-os-3.19.0-r2/optee-os-stm32mp-3.19.0-stm32mp-r2/lib/libutee/tee_uuid_from_str.c:51
    2fdc:	7a23      	ldrb	r3, [r4, #8]
    2fde:	2b2d      	cmp	r3, #45	@ 0x2d
    2fe0:	d147      	bne.n	3072 <tee_uuid_from_str+0xbe>
/home/lubuntu/Dokument/GitHub/STM32-Computer/Firmware/STM32-Computer-Firmware/CA7/optee-os-3.19.0-r2/optee-os-stm32mp-3.19.0-stm32mp-r2/lib/libutee/tee_uuid_from_str.c:51 (discriminator 1)
    2fe2:	7b63      	ldrb	r3, [r4, #13]
    2fe4:	2b2d      	cmp	r3, #45	@ 0x2d
    2fe6:	d144      	bne.n	3072 <tee_uuid_from_str+0xbe>
/home/lubuntu/Dokument/GitHub/STM32-Computer/Firmware/STM32-Computer-Firmware/CA7/optee-os-3.19.0-r2/optee-os-stm32mp-3.19.0-stm32mp-r2/lib/libutee/tee_uuid_from_str.c:51 (discriminator 2)
    2fe8:	7ca3      	ldrb	r3, [r4, #18]
    2fea:	2b2d      	cmp	r3, #45	@ 0x2d
    2fec:	d141      	bne.n	3072 <tee_uuid_from_str+0xbe>
/home/lubuntu/Dokument/GitHub/STM32-Computer/Firmware/STM32-Computer-Firmware/CA7/optee-os-3.19.0-r2/optee-os-stm32mp-3.19.0-stm32mp-r2/lib/libutee/tee_uuid_from_str.c:51 (discriminator 3)
    2fee:	7de3      	ldrb	r3, [r4, #23]
    2ff0:	2b2d      	cmp	r3, #45	@ 0x2d
    2ff2:	d13e      	bne.n	3072 <tee_uuid_from_str+0xbe>
/home/lubuntu/Dokument/GitHub/STM32-Computer/Firmware/STM32-Computer-Firmware/CA7/optee-os-3.19.0-r2/optee-os-stm32mp-3.19.0-stm32mp-r2/lib/libutee/tee_uuid_from_str.c:54
    2ff4:	f10d 080c 	add.w	r8, sp, #12
    2ff8:	2108      	movs	r1, #8
    2ffa:	4642      	mov	r2, r8
    2ffc:	4620      	mov	r0, r4
    2ffe:	f7ff ffb5 	bl	2f6c <parse_hex>
/home/lubuntu/Dokument/GitHub/STM32-Computer/Firmware/STM32-Computer-Firmware/CA7/optee-os-3.19.0-r2/optee-os-stm32mp-3.19.0-stm32mp-r2/lib/libutee/tee_uuid_from_str.c:55
    3002:	9b03      	ldr	r3, [sp, #12]
/home/lubuntu/Dokument/GitHub/STM32-Computer/Firmware/STM32-Computer-Firmware/CA7/optee-os-3.19.0-r2/optee-os-stm32mp-3.19.0-stm32mp-r2/lib/libutee/tee_uuid_from_str.c:54
    3004:	9001      	str	r0, [sp, #4]
/home/lubuntu/Dokument/GitHub/STM32-Computer/Firmware/STM32-Computer-Firmware/CA7/optee-os-3.19.0-r2/optee-os-stm32mp-3.19.0-stm32mp-r2/lib/libutee/tee_uuid_from_str.c:55
    3006:	bb83      	cbnz	r3, 306a <tee_uuid_from_str+0xb6>
/home/lubuntu/Dokument/GitHub/STM32-Computer/Firmware/STM32-Computer-Firmware/CA7/optee-os-3.19.0-r2/optee-os-stm32mp-3.19.0-stm32mp-r2/lib/libutee/tee_uuid_from_str.c:58
    3008:	4642      	mov	r2, r8
    300a:	2104      	movs	r1, #4
    300c:	f104 0009 	add.w	r0, r4, #9
    3010:	f7ff ffac 	bl	2f6c <parse_hex>
/home/lubuntu/Dokument/GitHub/STM32-Computer/Firmware/STM32-Computer-Firmware/CA7/optee-os-3.19.0-r2/optee-os-stm32mp-3.19.0-stm32mp-r2/lib/libutee/tee_uuid_from_str.c:59
    3014:	9b03      	ldr	r3, [sp, #12]
/home/lubuntu/Dokument/GitHub/STM32-Computer/Firmware/STM32-Computer-Firmware/CA7/optee-os-3.19.0-r2/optee-os-stm32mp-3.19.0-stm32mp-r2/lib/libutee/tee_uuid_from_str.c:58
    3016:	4681      	mov	r9, r0
/home/lubuntu/Dokument/GitHub/STM32-Computer/Firmware/STM32-Computer-Firmware/CA7/optee-os-3.19.0-r2/optee-os-stm32mp-3.19.0-stm32mp-r2/lib/libutee/tee_uuid_from_str.c:59
    3018:	bb3b      	cbnz	r3, 306a <tee_uuid_from_str+0xb6>
/home/lubuntu/Dokument/GitHub/STM32-Computer/Firmware/STM32-Computer-Firmware/CA7/optee-os-3.19.0-r2/optee-os-stm32mp-3.19.0-stm32mp-r2/lib/libutee/tee_uuid_from_str.c:62
    301a:	4642      	mov	r2, r8
    301c:	2104      	movs	r1, #4
    301e:	f104 000e 	add.w	r0, r4, #14
    3022:	f7ff ffa3 	bl	2f6c <parse_hex>
/home/lubuntu/Dokument/GitHub/STM32-Computer/Firmware/STM32-Computer-Firmware/CA7/optee-os-3.19.0-r2/optee-os-stm32mp-3.19.0-stm32mp-r2/lib/libutee/tee_uuid_from_str.c:63
    3026:	9e03      	ldr	r6, [sp, #12]
/home/lubuntu/Dokument/GitHub/STM32-Computer/Firmware/STM32-Computer-Firmware/CA7/optee-os-3.19.0-r2/optee-os-stm32mp-3.19.0-stm32mp-r2/lib/libutee/tee_uuid_from_str.c:62
    3028:	4683      	mov	fp, r0
/home/lubuntu/Dokument/GitHub/STM32-Computer/Firmware/STM32-Computer-Firmware/CA7/optee-os-3.19.0-r2/optee-os-stm32mp-3.19.0-stm32mp-r2/lib/libutee/tee_uuid_from_str.c:63
    302a:	b9f6      	cbnz	r6, 306a <tee_uuid_from_str+0xb6>
/home/lubuntu/Dokument/GitHub/STM32-Computer/Firmware/STM32-Computer-Firmware/CA7/optee-os-3.19.0-r2/optee-os-stm32mp-3.19.0-stm32mp-r2/lib/libutee/tee_uuid_from_str.c:65
    302c:	3413      	adds	r4, #19
/home/lubuntu/Dokument/GitHub/STM32-Computer/Firmware/STM32-Computer-Firmware/CA7/optee-os-3.19.0-r2/optee-os-stm32mp-3.19.0-stm32mp-r2/lib/libutee/tee_uuid_from_str.c:66
    302e:	f10d 0a17 	add.w	sl, sp, #23
/home/lubuntu/Dokument/GitHub/STM32-Computer/Firmware/STM32-Computer-Firmware/CA7/optee-os-3.19.0-r2/optee-os-stm32mp-3.19.0-stm32mp-r2/lib/libutee/tee_uuid_from_str.c:67
    3032:	4642      	mov	r2, r8
    3034:	2102      	movs	r1, #2
    3036:	4620      	mov	r0, r4
    3038:	f7ff ff98 	bl	2f6c <parse_hex>
/home/lubuntu/Dokument/GitHub/STM32-Computer/Firmware/STM32-Computer-Firmware/CA7/optee-os-3.19.0-r2/optee-os-stm32mp-3.19.0-stm32mp-r2/lib/libutee/tee_uuid_from_str.c:68
    303c:	9a03      	ldr	r2, [sp, #12]
/home/lubuntu/Dokument/GitHub/STM32-Computer/Firmware/STM32-Computer-Firmware/CA7/optee-os-3.19.0-r2/optee-os-stm32mp-3.19.0-stm32mp-r2/lib/libutee/tee_uuid_from_str.c:67
    303e:	f80a 0f01 	strb.w	r0, [sl, #1]!
/home/lubuntu/Dokument/GitHub/STM32-Computer/Firmware/STM32-Computer-Firmware/CA7/optee-os-3.19.0-r2/optee-os-stm32mp-3.19.0-stm32mp-r2/lib/libutee/tee_uuid_from_str.c:68
    3042:	b992      	cbnz	r2, 306a <tee_uuid_from_str+0xb6>
/home/lubuntu/Dokument/GitHub/STM32-Computer/Firmware/STM32-Computer-Firmware/CA7/optee-os-3.19.0-r2/optee-os-stm32mp-3.19.0-stm32mp-r2/lib/libutee/tee_uuid_from_str.c:70
    3044:	2e01      	cmp	r6, #1
    3046:	d102      	bne.n	304e <tee_uuid_from_str+0x9a>
/home/lubuntu/Dokument/GitHub/STM32-Computer/Firmware/STM32-Computer-Firmware/CA7/optee-os-3.19.0-r2/optee-os-stm32mp-3.19.0-stm32mp-r2/lib/libutee/tee_uuid_from_str.c:71
    3048:	3403      	adds	r4, #3
/home/lubuntu/Dokument/GitHub/STM32-Computer/Firmware/STM32-Computer-Firmware/CA7/optee-os-3.19.0-r2/optee-os-stm32mp-3.19.0-stm32mp-r2/lib/libutee/tee_uuid_from_str.c:66
    304a:	2602      	movs	r6, #2
    304c:	e7f1      	b.n	3032 <tee_uuid_from_str+0x7e>
    304e:	3601      	adds	r6, #1
/home/lubuntu/Dokument/GitHub/STM32-Computer/Firmware/STM32-Computer-Firmware/CA7/optee-os-3.19.0-r2/optee-os-stm32mp-3.19.0-stm32mp-r2/lib/libutee/tee_uuid_from_str.c:73
    3050:	3402      	adds	r4, #2
/home/lubuntu/Dokument/GitHub/STM32-Computer/Firmware/STM32-Computer-Firmware/CA7/optee-os-3.19.0-r2/optee-os-stm32mp-3.19.0-stm32mp-r2/lib/libutee/tee_uuid_from_str.c:66
    3052:	2e08      	cmp	r6, #8
    3054:	d1ed      	bne.n	3032 <tee_uuid_from_str+0x7e>
/home/lubuntu/Dokument/GitHub/STM32-Computer/Firmware/STM32-Computer-Firmware/CA7/optee-os-3.19.0-r2/optee-os-stm32mp-3.19.0-stm32mp-r2/lib/libutee/tee_uuid_from_str.c:75
    3056:	9b01      	ldr	r3, [sp, #4]
/home/lubuntu/Dokument/GitHub/STM32-Computer/Firmware/STM32-Computer-Firmware/CA7/optee-os-3.19.0-r2/optee-os-stm32mp-3.19.0-stm32mp-r2/lib/libutee/tee_uuid_from_str.c:58
    3058:	f8ad 9014 	strh.w	r9, [sp, #20]
/home/lubuntu/Dokument/GitHub/STM32-Computer/Firmware/STM32-Computer-Firmware/CA7/optee-os-3.19.0-r2/optee-os-stm32mp-3.19.0-stm32mp-r2/lib/libutee/tee_uuid_from_str.c:75
    305c:	9304      	str	r3, [sp, #16]
/home/lubuntu/Dokument/GitHub/STM32-Computer/Firmware/STM32-Computer-Firmware/CA7/optee-os-3.19.0-r2/optee-os-stm32mp-3.19.0-stm32mp-r2/lib/libutee/tee_uuid_from_str.c:62
    305e:	f8ad b016 	strh.w	fp, [sp, #22]
/home/lubuntu/Dokument/GitHub/STM32-Computer/Firmware/STM32-Computer-Firmware/CA7/optee-os-3.19.0-r2/optee-os-stm32mp-3.19.0-stm32mp-r2/lib/libutee/tee_uuid_from_str.c:75
    3062:	e897 000f 	ldmia.w	r7, {r0, r1, r2, r3}
    3066:	e885 000f 	stmia.w	r5, {r0, r1, r2, r3}
/home/lubuntu/Dokument/GitHub/STM32-Computer/Firmware/STM32-Computer-Firmware/CA7/optee-os-3.19.0-r2/optee-os-stm32mp-3.19.0-stm32mp-r2/lib/libutee/tee_uuid_from_str.c:77
    306a:	9803      	ldr	r0, [sp, #12]
/home/lubuntu/Dokument/GitHub/STM32-Computer/Firmware/STM32-Computer-Firmware/CA7/optee-os-3.19.0-r2/optee-os-stm32mp-3.19.0-stm32mp-r2/lib/libutee/tee_uuid_from_str.c:78
    306c:	b009      	add	sp, #36	@ 0x24
    306e:	e8bd 8ff0 	ldmia.w	sp!, {r4, r5, r6, r7, r8, r9, sl, fp, pc}
/home/lubuntu/Dokument/GitHub/STM32-Computer/Firmware/STM32-Computer-Firmware/CA7/optee-os-3.19.0-r2/optee-os-stm32mp-3.19.0-stm32mp-r2/lib/libutee/tee_uuid_from_str.c:50
    3072:	4801      	ldr	r0, [pc, #4]	@ (3078 <tee_uuid_from_str+0xc4>)
    3074:	e7fa      	b.n	306c <tee_uuid_from_str+0xb8>
    3076:	bf00      	nop
    3078:	ffff0005 	.word	0xffff0005

0000307c <_utee_panic>:
_utee_panic():
/home/lubuntu/Dokument/GitHub/STM32-Computer/Firmware/STM32-Computer-Firmware/CA7/optee-os-3.19.0-r2/optee-os-stm32mp-3.19.0-stm32mp-r2/lib/libutee/arch/arm/utee_syscalls_a32.S:50
    307c:	e92d4fff 	push	{r0, r1, r2, r3, r4, r5, r6, r7, r8, r9, sl, fp, lr}
/home/lubuntu/Dokument/GitHub/STM32-Computer/Firmware/STM32-Computer-Firmware/CA7/optee-os-3.19.0-r2/optee-os-stm32mp-3.19.0-stm32mp-r2/lib/libutee/arch/arm/utee_syscalls_a32.S:52
    3080:	e1a0e00f 	mov	lr, pc
/home/lubuntu/Dokument/GitHub/STM32-Computer/Firmware/STM32-Computer-Firmware/CA7/optee-os-3.19.0-r2/optee-os-stm32mp-3.19.0-stm32mp-r2/lib/libutee/arch/arm/utee_syscalls_a32.S:53
    3084:	e52de004 	push	{lr}		@ (str lr, [sp, #-4]!)
/home/lubuntu/Dokument/GitHub/STM32-Computer/Firmware/STM32-Computer-Firmware/CA7/optee-os-3.19.0-r2/optee-os-stm32mp-3.19.0-stm32mp-r2/lib/libutee/arch/arm/utee_syscalls_a32.S:55
    3088:	e1a0100d 	mov	r1, sp
/home/lubuntu/Dokument/GitHub/STM32-Computer/Firmware/STM32-Computer-Firmware/CA7/optee-os-3.19.0-r2/optee-os-stm32mp-3.19.0-stm32mp-r2/lib/libutee/arch/arm/utee_syscalls_a32.S:56
    308c:	ebffffff 	bl	3090 <__utee_panic>

00003090 <__utee_panic>:
__utee_panic():
/home/lubuntu/Dokument/GitHub/STM32-Computer/Firmware/STM32-Computer-Firmware/CA7/optee-os-3.19.0-r2/optee-os-stm32mp-3.19.0-stm32mp-r2/lib/libutee/arch/arm/utee_syscalls_asm.S:12
    3090:	e92d40e0 	push	{r5, r6, r7, lr}
    3094:	e3a07002 	mov	r7, #2
    3098:	e3a06000 	mov	r6, #0
    309c:	ef000000 	svc	0x00000000
    30a0:	e8bd80e0 	pop	{r5, r6, r7, pc}

000030a4 <bget_buf_size.part.0>:
bget_buf_size():
/home/lubuntu/Dokument/GitHub/STM32-Computer/Firmware/STM32-Computer-Firmware/CA7/optee-os-3.19.0-r2/optee-os-stm32mp-3.19.0-stm32mp-r2/lib/libutils/isoc/bget_malloc.c:208
    30a4:	4904      	ldr	r1, [pc, #16]	@ (30b8 <bget_buf_size.part.0+0x14>)
    30a6:	22d0      	movs	r2, #208	@ 0xd0
    30a8:	4804      	ldr	r0, [pc, #16]	@ (30bc <bget_buf_size.part.0+0x18>)
/home/lubuntu/Dokument/GitHub/STM32-Computer/Firmware/STM32-Computer-Firmware/CA7/optee-os-3.19.0-r2/optee-os-stm32mp-3.19.0-stm32mp-r2/lib/libutils/isoc/bget_malloc.c:191
    30aa:	b508      	push	{r3, lr}
/home/lubuntu/Dokument/GitHub/STM32-Computer/Firmware/STM32-Computer-Firmware/CA7/optee-os-3.19.0-r2/optee-os-stm32mp-3.19.0-stm32mp-r2/lib/libutils/isoc/bget_malloc.c:208
    30ac:	4b04      	ldr	r3, [pc, #16]	@ (30c0 <bget_buf_size.part.0+0x1c>)
    30ae:	4479      	add	r1, pc
    30b0:	447b      	add	r3, pc
    30b2:	4478      	add	r0, pc
    30b4:	f001 f88c 	bl	41d0 <_assert_trap>
    30b8:	00002326 	.word	0x00002326
    30bc:	00002342 	.word	0x00002342
    30c0:	00002617 	.word	0x00002617

000030c4 <bget>:
bget():
/home/lubuntu/Dokument/GitHub/STM32-Computer/Firmware/STM32-Computer-Firmware/CA7/optee-os-3.19.0-r2/optee-os-stm32mp-3.19.0-stm32mp-r2/lib/libutils/isoc/bget.c:625
    30c4:	2a00      	cmp	r2, #0
/home/lubuntu/Dokument/GitHub/STM32-Computer/Firmware/STM32-Computer-Firmware/CA7/optee-os-3.19.0-r2/optee-os-stm32mp-3.19.0-stm32mp-r2/lib/libutils/isoc/bget.c:612
    30c6:	b5f8      	push	{r3, r4, r5, r6, r7, lr}
/home/lubuntu/Dokument/GitHub/STM32-Computer/Firmware/STM32-Computer-Firmware/CA7/optee-os-3.19.0-r2/optee-os-stm32mp-3.19.0-stm32mp-r2/lib/libutils/isoc/bget.c:625
    30c8:	dc09      	bgt.n	30de <bget+0x1a>
/home/lubuntu/Dokument/GitHub/STM32-Computer/Firmware/STM32-Computer-Firmware/CA7/optee-os-3.19.0-r2/optee-os-stm32mp-3.19.0-stm32mp-r2/lib/libutils/isoc/bget.c:625 (discriminator 1)
    30ca:	4b69      	ldr	r3, [pc, #420]	@ (3270 <bget+0x1ac>)
    30cc:	f240 2271 	movw	r2, #625	@ 0x271
    30d0:	4968      	ldr	r1, [pc, #416]	@ (3274 <bget+0x1b0>)
    30d2:	4869      	ldr	r0, [pc, #420]	@ (3278 <bget+0x1b4>)
    30d4:	447b      	add	r3, pc
    30d6:	4479      	add	r1, pc
    30d8:	4478      	add	r0, pc
/home/lubuntu/Dokument/GitHub/STM32-Computer/Firmware/STM32-Computer-Firmware/CA7/optee-os-3.19.0-r2/optee-os-stm32mp-3.19.0-stm32mp-r2/lib/libutils/isoc/bget.c:690 (discriminator 1)
    30da:	f001 f879 	bl	41d0 <_assert_trap>
/home/lubuntu/Dokument/GitHub/STM32-Computer/Firmware/STM32-Computer-Firmware/CA7/optee-os-3.19.0-r2/optee-os-stm32mp-3.19.0-stm32mp-r2/lib/libutils/isoc/bget.c:628 (discriminator 2)
    30de:	2800      	cmp	r0, #0
    30e0:	db10      	blt.n	3104 <bget+0x40>
/home/lubuntu/Dokument/GitHub/STM32-Computer/Firmware/STM32-Computer-Firmware/CA7/optee-os-3.19.0-r2/optee-os-stm32mp-3.19.0-stm32mp-r2/lib/libutils/isoc/bget.c:628 (discriminator 1)
    30e2:	d111      	bne.n	3108 <bget+0x44>
/home/lubuntu/Dokument/GitHub/STM32-Computer/Firmware/STM32-Computer-Firmware/CA7/optee-os-3.19.0-r2/optee-os-stm32mp-3.19.0-stm32mp-r2/lib/libutils/isoc/bget.c:630
    30e4:	074d      	lsls	r5, r1, #29
    30e6:	f040 80be 	bne.w	3266 <bget+0x1a2>
/home/lubuntu/Dokument/GitHub/STM32-Computer/Firmware/STM32-Computer-Firmware/CA7/optee-os-3.19.0-r2/optee-os-stm32mp-3.19.0-stm32mp-r2/lib/libutils/isoc/bget.c:633
    30ea:	2a08      	cmp	r2, #8
/home/lubuntu/Dokument/GitHub/STM32-Computer/Firmware/STM32-Computer-Firmware/CA7/optee-os-3.19.0-r2/optee-os-stm32mp-3.19.0-stm32mp-r2/lib/libutils/isoc/bget.c:637
    30ec:	f04f 0008 	mov.w	r0, #8
/home/lubuntu/Dokument/GitHub/STM32-Computer/Firmware/STM32-Computer-Firmware/CA7/optee-os-3.19.0-r2/optee-os-stm32mp-3.19.0-stm32mp-r2/lib/libutils/isoc/bget.c:633
    30f0:	bfb8      	it	lt
    30f2:	2208      	movlt	r2, #8
/home/lubuntu/Dokument/GitHub/STM32-Computer/Firmware/STM32-Computer-Firmware/CA7/optee-os-3.19.0-r2/optee-os-stm32mp-3.19.0-stm32mp-r2/lib/libutils/isoc/bget.c:640
    30f4:	1dd4      	adds	r4, r2, #7
    30f6:	d405      	bmi.n	3104 <bget+0x40>
    30f8:	4294      	cmp	r4, r2
    30fa:	d303      	bcc.n	3104 <bget+0x40>
/home/lubuntu/Dokument/GitHub/STM32-Computer/Firmware/STM32-Computer-Firmware/CA7/optee-os-3.19.0-r2/optee-os-stm32mp-3.19.0-stm32mp-r2/lib/libutils/isoc/bget.c:643
    30fc:	f024 0407 	bic.w	r4, r4, #7
/home/lubuntu/Dokument/GitHub/STM32-Computer/Firmware/STM32-Computer-Firmware/CA7/optee-os-3.19.0-r2/optee-os-stm32mp-3.19.0-stm32mp-r2/lib/libutils/isoc/bget.c:648
    3100:	3408      	adds	r4, #8
    3102:	d70e      	bvc.n	3122 <bget+0x5e>
/home/lubuntu/Dokument/GitHub/STM32-Computer/Firmware/STM32-Computer-Firmware/CA7/optee-os-3.19.0-r2/optee-os-stm32mp-3.19.0-stm32mp-r2/lib/libutils/isoc/bget.c:629
    3104:	2000      	movs	r0, #0
    3106:	e0ae      	b.n	3266 <bget+0x1a2>
/home/lubuntu/Dokument/GitHub/STM32-Computer/Firmware/STM32-Computer-Firmware/CA7/optee-os-3.19.0-r2/optee-os-stm32mp-3.19.0-stm32mp-r2/lib/libutils/isoc/bget.c:628 (discriminator 3)
    3108:	4244      	negs	r4, r0
    310a:	ea30 0404 	bics.w	r4, r0, r4
    310e:	d1f9      	bne.n	3104 <bget+0x40>
/home/lubuntu/Dokument/GitHub/STM32-Computer/Firmware/STM32-Computer-Firmware/CA7/optee-os-3.19.0-r2/optee-os-stm32mp-3.19.0-stm32mp-r2/lib/libutils/isoc/bget.c:630
    3110:	074c      	lsls	r4, r1, #29
    3112:	d1f7      	bne.n	3104 <bget+0x40>
/home/lubuntu/Dokument/GitHub/STM32-Computer/Firmware/STM32-Computer-Firmware/CA7/optee-os-3.19.0-r2/optee-os-stm32mp-3.19.0-stm32mp-r2/lib/libutils/isoc/bget.c:633
    3114:	2a08      	cmp	r2, #8
    3116:	bfb8      	it	lt
    3118:	2208      	movlt	r2, #8
/home/lubuntu/Dokument/GitHub/STM32-Computer/Firmware/STM32-Computer-Firmware/CA7/optee-os-3.19.0-r2/optee-os-stm32mp-3.19.0-stm32mp-r2/lib/libutils/isoc/bget.c:636
    311a:	2808      	cmp	r0, #8
    311c:	bfb8      	it	lt
    311e:	2008      	movlt	r0, #8
    3120:	e7e8      	b.n	30f4 <bget+0x30>
/home/lubuntu/Dokument/GitHub/STM32-Computer/Firmware/STM32-Computer-Firmware/CA7/optee-os-3.19.0-r2/optee-os-stm32mp-3.19.0-stm32mp-r2/lib/libutils/isoc/bget.c:650
    3122:	1864      	adds	r4, r4, r1
    3124:	d6ee      	bvs.n	3104 <bget+0x40>
/home/lubuntu/Dokument/GitHub/STM32-Computer/Firmware/STM32-Computer-Firmware/CA7/optee-os-3.19.0-r2/optee-os-stm32mp-3.19.0-stm32mp-r2/lib/libutils/isoc/bget.c:660
    3126:	689a      	ldr	r2, [r3, #8]
buf_get_pos():
/home/lubuntu/Dokument/GitHub/STM32-Computer/Firmware/STM32-Computer-Firmware/CA7/optee-os-3.19.0-r2/optee-os-stm32mp-3.19.0-stm32mp-r2/lib/libutils/isoc/bget.c:592
    3128:	f101 0c08 	add.w	ip, r1, #8
    312c:	ebac 0c04 	sub.w	ip, ip, r4
/home/lubuntu/Dokument/GitHub/STM32-Computer/Firmware/STM32-Computer-Firmware/CA7/optee-os-3.19.0-r2/optee-os-stm32mp-3.19.0-stm32mp-r2/lib/libutils/isoc/bget.c:594
    3130:	4240      	negs	r0, r0
/home/lubuntu/Dokument/GitHub/STM32-Computer/Firmware/STM32-Computer-Firmware/CA7/optee-os-3.19.0-r2/optee-os-stm32mp-3.19.0-stm32mp-r2/lib/libutils/isoc/bget.c:599
    3132:	f8df e138 	ldr.w	lr, [pc, #312]	@ 326c <bget+0x1a8>
bget():
/home/lubuntu/Dokument/GitHub/STM32-Computer/Firmware/STM32-Computer-Firmware/CA7/optee-os-3.19.0-r2/optee-os-stm32mp-3.19.0-stm32mp-r2/lib/libutils/isoc/bget.c:684
    3136:	4293      	cmp	r3, r2
    3138:	d0e4      	beq.n	3104 <bget+0x40>
buf_get_pos():
/home/lubuntu/Dokument/GitHub/STM32-Computer/Firmware/STM32-Computer-Firmware/CA7/optee-os-3.19.0-r2/optee-os-stm32mp-3.19.0-stm32mp-r2/lib/libutils/isoc/bget.c:585
    313a:	6856      	ldr	r6, [r2, #4]
    313c:	42b4      	cmp	r4, r6
    313e:	f300 8093 	bgt.w	3268 <bget+0x1a4>
/home/lubuntu/Dokument/GitHub/STM32-Computer/Firmware/STM32-Computer-Firmware/CA7/optee-os-3.19.0-r2/optee-os-stm32mp-3.19.0-stm32mp-r2/lib/libutils/isoc/bget.c:592
    3142:	eb0c 0502 	add.w	r5, ip, r2
    3146:	4435      	add	r5, r6
/home/lubuntu/Dokument/GitHub/STM32-Computer/Firmware/STM32-Computer-Firmware/CA7/optee-os-3.19.0-r2/optee-os-stm32mp-3.19.0-stm32mp-r2/lib/libutils/isoc/bget.c:595
    3148:	1857      	adds	r7, r2, r1
/home/lubuntu/Dokument/GitHub/STM32-Computer/Firmware/STM32-Computer-Firmware/CA7/optee-os-3.19.0-r2/optee-os-stm32mp-3.19.0-stm32mp-r2/lib/libutils/isoc/bget.c:594
    314a:	4005      	ands	r5, r0
/home/lubuntu/Dokument/GitHub/STM32-Computer/Firmware/STM32-Computer-Firmware/CA7/optee-os-3.19.0-r2/optee-os-stm32mp-3.19.0-stm32mp-r2/lib/libutils/isoc/bget.c:595
    314c:	1bed      	subs	r5, r5, r7
/home/lubuntu/Dokument/GitHub/STM32-Computer/Firmware/STM32-Computer-Firmware/CA7/optee-os-3.19.0-r2/optee-os-stm32mp-3.19.0-stm32mp-r2/lib/libutils/isoc/bget.c:597
    314e:	f1b5 0708 	subs.w	r7, r5, #8
    3152:	d003      	beq.n	315c <bget+0x98>
/home/lubuntu/Dokument/GitHub/STM32-Computer/Firmware/STM32-Computer-Firmware/CA7/optee-os-3.19.0-r2/optee-os-stm32mp-3.19.0-stm32mp-r2/lib/libutils/isoc/bget.c:599
    3154:	3d18      	subs	r5, #24
    3156:	4575      	cmp	r5, lr
    3158:	f200 8086 	bhi.w	3268 <bget+0x1a4>
bget():
/home/lubuntu/Dokument/GitHub/STM32-Computer/Firmware/STM32-Computer-Firmware/CA7/optee-os-3.19.0-r2/optee-os-stm32mp-3.19.0-stm32mp-r2/lib/libutils/isoc/bget.c:690
    315c:	5991      	ldr	r1, [r2, r6]
/home/lubuntu/Dokument/GitHub/STM32-Computer/Firmware/STM32-Computer-Firmware/CA7/optee-os-3.19.0-r2/optee-os-stm32mp-3.19.0-stm32mp-r2/lib/libutils/isoc/bget.c:687
    315e:	19d0      	adds	r0, r2, r7
/home/lubuntu/Dokument/GitHub/STM32-Computer/Firmware/STM32-Computer-Firmware/CA7/optee-os-3.19.0-r2/optee-os-stm32mp-3.19.0-stm32mp-r2/lib/libutils/isoc/bget.c:690
    3160:	42b1      	cmp	r1, r6
/home/lubuntu/Dokument/GitHub/STM32-Computer/Firmware/STM32-Computer-Firmware/CA7/optee-os-3.19.0-r2/optee-os-stm32mp-3.19.0-stm32mp-r2/lib/libutils/isoc/bget.c:688
    3162:	eb02 0506 	add.w	r5, r2, r6
/home/lubuntu/Dokument/GitHub/STM32-Computer/Firmware/STM32-Computer-Firmware/CA7/optee-os-3.19.0-r2/optee-os-stm32mp-3.19.0-stm32mp-r2/lib/libutils/isoc/bget.c:690
    3166:	d008      	beq.n	317a <bget+0xb6>
/home/lubuntu/Dokument/GitHub/STM32-Computer/Firmware/STM32-Computer-Firmware/CA7/optee-os-3.19.0-r2/optee-os-stm32mp-3.19.0-stm32mp-r2/lib/libutils/isoc/bget.c:690 (discriminator 1)
    3168:	4b44      	ldr	r3, [pc, #272]	@ (327c <bget+0x1b8>)
    316a:	f240 22b2 	movw	r2, #690	@ 0x2b2
    316e:	4944      	ldr	r1, [pc, #272]	@ (3280 <bget+0x1bc>)
    3170:	4844      	ldr	r0, [pc, #272]	@ (3284 <bget+0x1c0>)
    3172:	447b      	add	r3, pc
    3174:	4479      	add	r1, pc
    3176:	4478      	add	r0, pc
    3178:	e7af      	b.n	30da <bget+0x16>
/home/lubuntu/Dokument/GitHub/STM32-Computer/Firmware/STM32-Computer-Firmware/CA7/optee-os-3.19.0-r2/optee-os-stm32mp-3.19.0-stm32mp-r2/lib/libutils/isoc/bget.c:696
    317a:	2100      	movs	r1, #0
    317c:	5191      	str	r1, [r2, r6]
/home/lubuntu/Dokument/GitHub/STM32-Computer/Firmware/STM32-Computer-Firmware/CA7/optee-os-3.19.0-r2/optee-os-stm32mp-3.19.0-stm32mp-r2/lib/libutils/isoc/bget.c:698
    317e:	68d1      	ldr	r1, [r2, #12]
    3180:	f8d1 c008 	ldr.w	ip, [r1, #8]
    3184:	4594      	cmp	ip, r2
    3186:	d008      	beq.n	319a <bget+0xd6>
/home/lubuntu/Dokument/GitHub/STM32-Computer/Firmware/STM32-Computer-Firmware/CA7/optee-os-3.19.0-r2/optee-os-stm32mp-3.19.0-stm32mp-r2/lib/libutils/isoc/bget.c:698 (discriminator 1)
    3188:	4b3f      	ldr	r3, [pc, #252]	@ (3288 <bget+0x1c4>)
    318a:	f240 22ba 	movw	r2, #698	@ 0x2ba
    318e:	493f      	ldr	r1, [pc, #252]	@ (328c <bget+0x1c8>)
    3190:	483f      	ldr	r0, [pc, #252]	@ (3290 <bget+0x1cc>)
    3192:	447b      	add	r3, pc
    3194:	4479      	add	r1, pc
    3196:	4478      	add	r0, pc
    3198:	e79f      	b.n	30da <bget+0x16>
/home/lubuntu/Dokument/GitHub/STM32-Computer/Firmware/STM32-Computer-Firmware/CA7/optee-os-3.19.0-r2/optee-os-stm32mp-3.19.0-stm32mp-r2/lib/libutils/isoc/bget.c:699
    319a:	f8d2 e008 	ldr.w	lr, [r2, #8]
    319e:	f8de c00c 	ldr.w	ip, [lr, #12]
    31a2:	4594      	cmp	ip, r2
    31a4:	d008      	beq.n	31b8 <bget+0xf4>
/home/lubuntu/Dokument/GitHub/STM32-Computer/Firmware/STM32-Computer-Firmware/CA7/optee-os-3.19.0-r2/optee-os-stm32mp-3.19.0-stm32mp-r2/lib/libutils/isoc/bget.c:699 (discriminator 1)
    31a6:	4b3b      	ldr	r3, [pc, #236]	@ (3294 <bget+0x1d0>)
    31a8:	f240 22bb 	movw	r2, #699	@ 0x2bb
    31ac:	493a      	ldr	r1, [pc, #232]	@ (3298 <bget+0x1d4>)
    31ae:	483b      	ldr	r0, [pc, #236]	@ (329c <bget+0x1d8>)
    31b0:	447b      	add	r3, pc
    31b2:	4479      	add	r1, pc
    31b4:	4478      	add	r0, pc
    31b6:	e790      	b.n	30da <bget+0x16>
/home/lubuntu/Dokument/GitHub/STM32-Computer/Firmware/STM32-Computer-Firmware/CA7/optee-os-3.19.0-r2/optee-os-stm32mp-3.19.0-stm32mp-r2/lib/libutils/isoc/bget.c:701
    31b8:	b98f      	cbnz	r7, 31de <bget+0x11a>
/home/lubuntu/Dokument/GitHub/STM32-Computer/Firmware/STM32-Computer-Firmware/CA7/optee-os-3.19.0-r2/optee-os-stm32mp-3.19.0-stm32mp-r2/lib/libutils/isoc/bget.c:706
    31ba:	f8c1 e008 	str.w	lr, [r1, #8]
/home/lubuntu/Dokument/GitHub/STM32-Computer/Firmware/STM32-Computer-Firmware/CA7/optee-os-3.19.0-r2/optee-os-stm32mp-3.19.0-stm32mp-r2/lib/libutils/isoc/bget.c:707
    31be:	6897      	ldr	r7, [r2, #8]
    31c0:	60f9      	str	r1, [r7, #12]
/home/lubuntu/Dokument/GitHub/STM32-Computer/Firmware/STM32-Computer-Firmware/CA7/optee-os-3.19.0-r2/optee-os-stm32mp-3.19.0-stm32mp-r2/lib/libutils/isoc/bget.c:710
    31c2:	4277      	negs	r7, r6
    31c4:	6057      	str	r7, [r2, #4]
/home/lubuntu/Dokument/GitHub/STM32-Computer/Firmware/STM32-Computer-Firmware/CA7/optee-os-3.19.0-r2/optee-os-stm32mp-3.19.0-stm32mp-r2/lib/libutils/isoc/bget.c:721
    31c6:	6841      	ldr	r1, [r0, #4]
    31c8:	2900      	cmp	r1, #0
    31ca:	db0c      	blt.n	31e6 <bget+0x122>
/home/lubuntu/Dokument/GitHub/STM32-Computer/Firmware/STM32-Computer-Firmware/CA7/optee-os-3.19.0-r2/optee-os-stm32mp-3.19.0-stm32mp-r2/lib/libutils/isoc/bget.c:721 (discriminator 1)
    31cc:	4b34      	ldr	r3, [pc, #208]	@ (32a0 <bget+0x1dc>)
    31ce:	f240 22d1 	movw	r2, #721	@ 0x2d1
    31d2:	4934      	ldr	r1, [pc, #208]	@ (32a4 <bget+0x1e0>)
    31d4:	4834      	ldr	r0, [pc, #208]	@ (32a8 <bget+0x1e4>)
    31d6:	447b      	add	r3, pc
    31d8:	4479      	add	r1, pc
    31da:	4478      	add	r0, pc
    31dc:	e77d      	b.n	30da <bget+0x16>
/home/lubuntu/Dokument/GitHub/STM32-Computer/Firmware/STM32-Computer-Firmware/CA7/optee-os-3.19.0-r2/optee-os-stm32mp-3.19.0-stm32mp-r2/lib/libutils/isoc/bget.c:716
    31de:	1bbe      	subs	r6, r7, r6
    31e0:	6046      	str	r6, [r0, #4]
/home/lubuntu/Dokument/GitHub/STM32-Computer/Firmware/STM32-Computer-Firmware/CA7/optee-os-3.19.0-r2/optee-os-stm32mp-3.19.0-stm32mp-r2/lib/libutils/isoc/bget.c:717
    31e2:	6007      	str	r7, [r0, #0]
/home/lubuntu/Dokument/GitHub/STM32-Computer/Firmware/STM32-Computer-Firmware/CA7/optee-os-3.19.0-r2/optee-os-stm32mp-3.19.0-stm32mp-r2/lib/libutils/isoc/bget.c:718
    31e4:	e7ee      	b.n	31c4 <bget+0x100>
/home/lubuntu/Dokument/GitHub/STM32-Computer/Firmware/STM32-Computer-Firmware/CA7/optee-os-3.19.0-r2/optee-os-stm32mp-3.19.0-stm32mp-r2/lib/libutils/isoc/bget.c:727
    31e6:	4249      	negs	r1, r1
    31e8:	1b09      	subs	r1, r1, r4
    31ea:	2910      	cmp	r1, #16
    31ec:	d933      	bls.n	3256 <bget+0x192>
/home/lubuntu/Dokument/GitHub/STM32-Computer/Firmware/STM32-Computer-Firmware/CA7/optee-os-3.19.0-r2/optee-os-stm32mp-3.19.0-stm32mp-r2/lib/libutils/isoc/bget.c:733
    31ee:	1902      	adds	r2, r0, r4
/home/lubuntu/Dokument/GitHub/STM32-Computer/Firmware/STM32-Computer-Firmware/CA7/optee-os-3.19.0-r2/optee-os-stm32mp-3.19.0-stm32mp-r2/lib/libutils/isoc/bget.c:735
    31f0:	2600      	movs	r6, #0
/home/lubuntu/Dokument/GitHub/STM32-Computer/Firmware/STM32-Computer-Firmware/CA7/optee-os-3.19.0-r2/optee-os-stm32mp-3.19.0-stm32mp-r2/lib/libutils/isoc/bget.c:734
    31f2:	6051      	str	r1, [r2, #4]
/home/lubuntu/Dokument/GitHub/STM32-Computer/Firmware/STM32-Computer-Firmware/CA7/optee-os-3.19.0-r2/optee-os-stm32mp-3.19.0-stm32mp-r2/lib/libutils/isoc/bget.c:735
    31f4:	5106      	str	r6, [r0, r4]
/home/lubuntu/Dokument/GitHub/STM32-Computer/Firmware/STM32-Computer-Firmware/CA7/optee-os-3.19.0-r2/optee-os-stm32mp-3.19.0-stm32mp-r2/lib/libutils/isoc/bget.c:736
    31f6:	6844      	ldr	r4, [r0, #4]
    31f8:	440c      	add	r4, r1
/home/lubuntu/Dokument/GitHub/STM32-Computer/Firmware/STM32-Computer-Firmware/CA7/optee-os-3.19.0-r2/optee-os-stm32mp-3.19.0-stm32mp-r2/lib/libutils/isoc/bget.c:738
    31fa:	68d9      	ldr	r1, [r3, #12]
/home/lubuntu/Dokument/GitHub/STM32-Computer/Firmware/STM32-Computer-Firmware/CA7/optee-os-3.19.0-r2/optee-os-stm32mp-3.19.0-stm32mp-r2/lib/libutils/isoc/bget.c:736
    31fc:	6044      	str	r4, [r0, #4]
/home/lubuntu/Dokument/GitHub/STM32-Computer/Firmware/STM32-Computer-Firmware/CA7/optee-os-3.19.0-r2/optee-os-stm32mp-3.19.0-stm32mp-r2/lib/libutils/isoc/bget.c:738
    31fe:	688c      	ldr	r4, [r1, #8]
    3200:	429c      	cmp	r4, r3
    3202:	d008      	beq.n	3216 <bget+0x152>
/home/lubuntu/Dokument/GitHub/STM32-Computer/Firmware/STM32-Computer-Firmware/CA7/optee-os-3.19.0-r2/optee-os-stm32mp-3.19.0-stm32mp-r2/lib/libutils/isoc/bget.c:738 (discriminator 1)
    3204:	4b29      	ldr	r3, [pc, #164]	@ (32ac <bget+0x1e8>)
    3206:	f240 22e2 	movw	r2, #738	@ 0x2e2
    320a:	4929      	ldr	r1, [pc, #164]	@ (32b0 <bget+0x1ec>)
    320c:	4829      	ldr	r0, [pc, #164]	@ (32b4 <bget+0x1f0>)
    320e:	447b      	add	r3, pc
    3210:	4479      	add	r1, pc
    3212:	4478      	add	r0, pc
    3214:	e761      	b.n	30da <bget+0x16>
/home/lubuntu/Dokument/GitHub/STM32-Computer/Firmware/STM32-Computer-Firmware/CA7/optee-os-3.19.0-r2/optee-os-stm32mp-3.19.0-stm32mp-r2/lib/libutils/isoc/bget.c:740
    3216:	689c      	ldr	r4, [r3, #8]
    3218:	68e4      	ldr	r4, [r4, #12]
    321a:	429c      	cmp	r4, r3
    321c:	d008      	beq.n	3230 <bget+0x16c>
/home/lubuntu/Dokument/GitHub/STM32-Computer/Firmware/STM32-Computer-Firmware/CA7/optee-os-3.19.0-r2/optee-os-stm32mp-3.19.0-stm32mp-r2/lib/libutils/isoc/bget.c:740 (discriminator 1)
    321e:	4b26      	ldr	r3, [pc, #152]	@ (32b8 <bget+0x1f4>)
    3220:	f44f 7239 	mov.w	r2, #740	@ 0x2e4
    3224:	4925      	ldr	r1, [pc, #148]	@ (32bc <bget+0x1f8>)
    3226:	4826      	ldr	r0, [pc, #152]	@ (32c0 <bget+0x1fc>)
    3228:	447b      	add	r3, pc
    322a:	4479      	add	r1, pc
    322c:	4478      	add	r0, pc
    322e:	e754      	b.n	30da <bget+0x16>
/home/lubuntu/Dokument/GitHub/STM32-Computer/Firmware/STM32-Computer-Firmware/CA7/optee-os-3.19.0-r2/optee-os-stm32mp-3.19.0-stm32mp-r2/lib/libutils/isoc/bget.c:743
    3230:	60d1      	str	r1, [r2, #12]
/home/lubuntu/Dokument/GitHub/STM32-Computer/Firmware/STM32-Computer-Firmware/CA7/optee-os-3.19.0-r2/optee-os-stm32mp-3.19.0-stm32mp-r2/lib/libutils/isoc/bget.c:742
    3232:	6093      	str	r3, [r2, #8]
/home/lubuntu/Dokument/GitHub/STM32-Computer/Firmware/STM32-Computer-Firmware/CA7/optee-os-3.19.0-r2/optee-os-stm32mp-3.19.0-stm32mp-r2/lib/libutils/isoc/bget.c:744
    3234:	60da      	str	r2, [r3, #12]
/home/lubuntu/Dokument/GitHub/STM32-Computer/Firmware/STM32-Computer-Firmware/CA7/optee-os-3.19.0-r2/optee-os-stm32mp-3.19.0-stm32mp-r2/lib/libutils/isoc/bget.c:745
    3236:	68d1      	ldr	r1, [r2, #12]
    3238:	608a      	str	r2, [r1, #8]
/home/lubuntu/Dokument/GitHub/STM32-Computer/Firmware/STM32-Computer-Firmware/CA7/optee-os-3.19.0-r2/optee-os-stm32mp-3.19.0-stm32mp-r2/lib/libutils/isoc/bget.c:747
    323a:	6851      	ldr	r1, [r2, #4]
    323c:	440a      	add	r2, r1
    323e:	4295      	cmp	r5, r2
    3240:	d008      	beq.n	3254 <bget+0x190>
/home/lubuntu/Dokument/GitHub/STM32-Computer/Firmware/STM32-Computer-Firmware/CA7/optee-os-3.19.0-r2/optee-os-stm32mp-3.19.0-stm32mp-r2/lib/libutils/isoc/bget.c:747 (discriminator 1)
    3242:	4b20      	ldr	r3, [pc, #128]	@ (32c4 <bget+0x200>)
    3244:	f240 22eb 	movw	r2, #747	@ 0x2eb
    3248:	491f      	ldr	r1, [pc, #124]	@ (32c8 <bget+0x204>)
    324a:	4820      	ldr	r0, [pc, #128]	@ (32cc <bget+0x208>)
    324c:	447b      	add	r3, pc
    324e:	4479      	add	r1, pc
    3250:	4478      	add	r0, pc
    3252:	e742      	b.n	30da <bget+0x16>
/home/lubuntu/Dokument/GitHub/STM32-Computer/Firmware/STM32-Computer-Firmware/CA7/optee-os-3.19.0-r2/optee-os-stm32mp-3.19.0-stm32mp-r2/lib/libutils/isoc/bget.c:748
    3254:	6029      	str	r1, [r5, #0]
/home/lubuntu/Dokument/GitHub/STM32-Computer/Firmware/STM32-Computer-Firmware/CA7/optee-os-3.19.0-r2/optee-os-stm32mp-3.19.0-stm32mp-r2/lib/libutils/isoc/bget.c:752
    3256:	6841      	ldr	r1, [r0, #4]
/home/lubuntu/Dokument/GitHub/STM32-Computer/Firmware/STM32-Computer-Firmware/CA7/optee-os-3.19.0-r2/optee-os-stm32mp-3.19.0-stm32mp-r2/lib/libutils/isoc/bget.c:755
    3258:	3008      	adds	r0, #8
/home/lubuntu/Dokument/GitHub/STM32-Computer/Firmware/STM32-Computer-Firmware/CA7/optee-os-3.19.0-r2/optee-os-stm32mp-3.19.0-stm32mp-r2/lib/libutils/isoc/bget.c:752
    325a:	691a      	ldr	r2, [r3, #16]
    325c:	1a52      	subs	r2, r2, r1
    325e:	611a      	str	r2, [r3, #16]
/home/lubuntu/Dokument/GitHub/STM32-Computer/Firmware/STM32-Computer-Firmware/CA7/optee-os-3.19.0-r2/optee-os-stm32mp-3.19.0-stm32mp-r2/lib/libutils/isoc/bget.c:753
    3260:	695a      	ldr	r2, [r3, #20]
    3262:	3201      	adds	r2, #1
    3264:	615a      	str	r2, [r3, #20]
/home/lubuntu/Dokument/GitHub/STM32-Computer/Firmware/STM32-Computer-Firmware/CA7/optee-os-3.19.0-r2/optee-os-stm32mp-3.19.0-stm32mp-r2/lib/libutils/isoc/bget.c:837
    3266:	bdf8      	pop	{r3, r4, r5, r6, r7, pc}
/home/lubuntu/Dokument/GitHub/STM32-Computer/Firmware/STM32-Computer-Firmware/CA7/optee-os-3.19.0-r2/optee-os-stm32mp-3.19.0-stm32mp-r2/lib/libutils/isoc/bget.c:758
    3268:	6892      	ldr	r2, [r2, #8]
    326a:	e764      	b.n	3136 <bget+0x72>
    326c:	7fffffef 	.word	0x7fffffef
    3270:	00002612 	.word	0x00002612
    3274:	00002328 	.word	0x00002328
    3278:	0000231d 	.word	0x0000231d
    327c:	00002574 	.word	0x00002574
    3280:	0000228a 	.word	0x0000228a
    3284:	000022a1 	.word	0x000022a1
    3288:	00002554 	.word	0x00002554
    328c:	0000226a 	.word	0x0000226a
    3290:	000022a1 	.word	0x000022a1
    3294:	00002536 	.word	0x00002536
    3298:	0000224c 	.word	0x0000224c
    329c:	0000229e 	.word	0x0000229e
    32a0:	00002510 	.word	0x00002510
    32a4:	00002226 	.word	0x00002226
    32a8:	00002293 	.word	0x00002293
    32ac:	000024d8 	.word	0x000024d8
    32b0:	000021ee 	.word	0x000021ee
    32b4:	0000226e 	.word	0x0000226e
    32b8:	000024be 	.word	0x000024be
    32bc:	000021d4 	.word	0x000021d4
    32c0:	0000228f 	.word	0x0000228f
    32c4:	0000249a 	.word	0x0000249a
    32c8:	000021b0 	.word	0x000021b0
    32cc:	000022a6 	.word	0x000022a6

000032d0 <bgetz>:
bgetz():
/home/lubuntu/Dokument/GitHub/STM32-Computer/Firmware/STM32-Computer-Firmware/CA7/optee-os-3.19.0-r2/optee-os-stm32mp-3.19.0-stm32mp-r2/lib/libutils/isoc/bget.c:848
    32d0:	b538      	push	{r3, r4, r5, lr}
    32d2:	4615      	mov	r5, r2
/home/lubuntu/Dokument/GitHub/STM32-Computer/Firmware/STM32-Computer-Firmware/CA7/optee-os-3.19.0-r2/optee-os-stm32mp-3.19.0-stm32mp-r2/lib/libutils/isoc/bget.c:849
    32d4:	f7ff fef6 	bl	30c4 <bget>
/home/lubuntu/Dokument/GitHub/STM32-Computer/Firmware/STM32-Computer-Firmware/CA7/optee-os-3.19.0-r2/optee-os-stm32mp-3.19.0-stm32mp-r2/lib/libutils/isoc/bget.c:851
    32d8:	4604      	mov	r4, r0
    32da:	b1f0      	cbz	r0, 331a <bgetz+0x4a>
/home/lubuntu/Dokument/GitHub/STM32-Computer/Firmware/STM32-Computer-Firmware/CA7/optee-os-3.19.0-r2/optee-os-stm32mp-3.19.0-stm32mp-r2/lib/libutils/isoc/bget.c:856
    32dc:	f850 2c04 	ldr.w	r2, [r0, #-4]
/home/lubuntu/Dokument/GitHub/STM32-Computer/Firmware/STM32-Computer-Firmware/CA7/optee-os-3.19.0-r2/optee-os-stm32mp-3.19.0-stm32mp-r2/lib/libutils/isoc/bget.c:857
    32e0:	b98a      	cbnz	r2, 3306 <bgetz+0x36>
/home/lubuntu/Dokument/GitHub/STM32-Computer/Firmware/STM32-Computer-Firmware/CA7/optee-os-3.19.0-r2/optee-os-stm32mp-3.19.0-stm32mp-r2/lib/libutils/isoc/bget.c:861
    32e2:	f850 3c10 	ldr.w	r3, [r0, #-16]
    32e6:	f850 2c0c 	ldr.w	r2, [r0, #-12]
    32ea:	3b10      	subs	r3, #16
    32ec:	1a9a      	subs	r2, r3, r2
/home/lubuntu/Dokument/GitHub/STM32-Computer/Firmware/STM32-Computer-Firmware/CA7/optee-os-3.19.0-r2/optee-os-stm32mp-3.19.0-stm32mp-r2/lib/libutils/isoc/bget.c:865
    32ee:	42aa      	cmp	r2, r5
    32f0:	da0f      	bge.n	3312 <bgetz+0x42>
/home/lubuntu/Dokument/GitHub/STM32-Computer/Firmware/STM32-Computer-Firmware/CA7/optee-os-3.19.0-r2/optee-os-stm32mp-3.19.0-stm32mp-r2/lib/libutils/isoc/bget.c:865 (discriminator 1)
    32f2:	4b0b      	ldr	r3, [pc, #44]	@ (3320 <bgetz+0x50>)
    32f4:	f240 3261 	movw	r2, #865	@ 0x361
    32f8:	490a      	ldr	r1, [pc, #40]	@ (3324 <bgetz+0x54>)
    32fa:	480b      	ldr	r0, [pc, #44]	@ (3328 <bgetz+0x58>)
    32fc:	447b      	add	r3, pc
    32fe:	4479      	add	r1, pc
    3300:	4478      	add	r0, pc
    3302:	f000 ff65 	bl	41d0 <_assert_trap>
/home/lubuntu/Dokument/GitHub/STM32-Computer/Firmware/STM32-Computer-Firmware/CA7/optee-os-3.19.0-r2/optee-os-stm32mp-3.19.0-stm32mp-r2/lib/libutils/isoc/bget.c:863
    3306:	f1c2 22ff 	rsb	r2, r2, #4278255360	@ 0xff00ff00
    330a:	f502 027f 	add.w	r2, r2, #16711680	@ 0xff0000
    330e:	32f8      	adds	r2, #248	@ 0xf8
    3310:	e7ed      	b.n	32ee <bgetz+0x1e>
memset_unchecked():
/home/lubuntu/Dokument/GitHub/STM32-Computer/Firmware/STM32-Computer-Firmware/CA7/optee-os-3.19.0-r2/optee-os-stm32mp-3.19.0-stm32mp-r2/lib/libutils/isoc/bget_malloc.c:115
    3312:	2100      	movs	r1, #0
    3314:	4620      	mov	r0, r4
    3316:	f001 f815 	bl	4344 <memset>
bgetz():
/home/lubuntu/Dokument/GitHub/STM32-Computer/Firmware/STM32-Computer-Firmware/CA7/optee-os-3.19.0-r2/optee-os-stm32mp-3.19.0-stm32mp-r2/lib/libutils/isoc/bget.c:869
    331a:	4620      	mov	r0, r4
    331c:	bd38      	pop	{r3, r4, r5, pc}
    331e:	bf00      	nop
    3320:	000023e4 	.word	0x000023e4
    3324:	00002100 	.word	0x00002100
    3328:	0000221c 	.word	0x0000221c

0000332c <brel>:
brel():
/home/lubuntu/Dokument/GitHub/STM32-Computer/Firmware/STM32-Computer-Firmware/CA7/optee-os-3.19.0-r2/optee-os-stm32mp-3.19.0-stm32mp-r2/lib/libutils/isoc/bget.c:923
    332c:	b5f8      	push	{r3, r4, r5, r6, r7, lr}
/home/lubuntu/Dokument/GitHub/STM32-Computer/Firmware/STM32-Computer-Firmware/CA7/optee-os-3.19.0-r2/optee-os-stm32mp-3.19.0-stm32mp-r2/lib/libutils/isoc/bget.c:926
    332e:	f1a0 0408 	sub.w	r4, r0, #8
/home/lubuntu/Dokument/GitHub/STM32-Computer/Firmware/STM32-Computer-Firmware/CA7/optee-os-3.19.0-r2/optee-os-stm32mp-3.19.0-stm32mp-r2/lib/libutils/isoc/bget.c:928
    3332:	698b      	ldr	r3, [r1, #24]
    3334:	3301      	adds	r3, #1
    3336:	618b      	str	r3, [r1, #24]
/home/lubuntu/Dokument/GitHub/STM32-Computer/Firmware/STM32-Computer-Firmware/CA7/optee-os-3.19.0-r2/optee-os-stm32mp-3.19.0-stm32mp-r2/lib/libutils/isoc/bget.c:930
    3338:	b948      	cbnz	r0, 334e <brel+0x22>
/home/lubuntu/Dokument/GitHub/STM32-Computer/Firmware/STM32-Computer-Firmware/CA7/optee-os-3.19.0-r2/optee-os-stm32mp-3.19.0-stm32mp-r2/lib/libutils/isoc/bget.c:930 (discriminator 1)
    333a:	4b56      	ldr	r3, [pc, #344]	@ (3494 <brel+0x168>)
    333c:	f240 32a2 	movw	r2, #930	@ 0x3a2
    3340:	4955      	ldr	r1, [pc, #340]	@ (3498 <brel+0x16c>)
    3342:	4856      	ldr	r0, [pc, #344]	@ (349c <brel+0x170>)
    3344:	447b      	add	r3, pc
    3346:	4479      	add	r1, pc
    3348:	4478      	add	r0, pc
/home/lubuntu/Dokument/GitHub/STM32-Computer/Firmware/STM32-Computer-Firmware/CA7/optee-os-3.19.0-r2/optee-os-stm32mp-3.19.0-stm32mp-r2/lib/libutils/isoc/bget.c:963 (discriminator 1)
    334a:	f000 ff41 	bl	41d0 <_assert_trap>
/home/lubuntu/Dokument/GitHub/STM32-Computer/Firmware/STM32-Computer-Firmware/CA7/optee-os-3.19.0-r2/optee-os-stm32mp-3.19.0-stm32mp-r2/lib/libutils/isoc/bget.c:960
    334e:	f850 3c04 	ldr.w	r3, [r0, #-4]
/home/lubuntu/Dokument/GitHub/STM32-Computer/Firmware/STM32-Computer-Firmware/CA7/optee-os-3.19.0-r2/optee-os-stm32mp-3.19.0-stm32mp-r2/lib/libutils/isoc/bget.c:963
    3352:	2b00      	cmp	r3, #0
    3354:	db08      	blt.n	3368 <brel+0x3c>
/home/lubuntu/Dokument/GitHub/STM32-Computer/Firmware/STM32-Computer-Firmware/CA7/optee-os-3.19.0-r2/optee-os-stm32mp-3.19.0-stm32mp-r2/lib/libutils/isoc/bget.c:963 (discriminator 1)
    3356:	4b52      	ldr	r3, [pc, #328]	@ (34a0 <brel+0x174>)
    3358:	f240 32c3 	movw	r2, #963	@ 0x3c3
    335c:	4951      	ldr	r1, [pc, #324]	@ (34a4 <brel+0x178>)
    335e:	4852      	ldr	r0, [pc, #328]	@ (34a8 <brel+0x17c>)
    3360:	447b      	add	r3, pc
    3362:	4479      	add	r1, pc
    3364:	4478      	add	r0, pc
    3366:	e7f0      	b.n	334a <brel+0x1e>
/home/lubuntu/Dokument/GitHub/STM32-Computer/Firmware/STM32-Computer-Firmware/CA7/optee-os-3.19.0-r2/optee-os-stm32mp-3.19.0-stm32mp-r2/lib/libutils/isoc/bget.c:968
    3368:	1ae5      	subs	r5, r4, r3
    336a:	682d      	ldr	r5, [r5, #0]
    336c:	b145      	cbz	r5, 3380 <brel+0x54>
/home/lubuntu/Dokument/GitHub/STM32-Computer/Firmware/STM32-Computer-Firmware/CA7/optee-os-3.19.0-r2/optee-os-stm32mp-3.19.0-stm32mp-r2/lib/libutils/isoc/bget.c:968 (discriminator 1)
    336e:	4b4f      	ldr	r3, [pc, #316]	@ (34ac <brel+0x180>)
    3370:	f44f 7272 	mov.w	r2, #968	@ 0x3c8
    3374:	494e      	ldr	r1, [pc, #312]	@ (34b0 <brel+0x184>)
    3376:	484f      	ldr	r0, [pc, #316]	@ (34b4 <brel+0x188>)
    3378:	447b      	add	r3, pc
    337a:	4479      	add	r1, pc
    337c:	4478      	add	r0, pc
    337e:	e7e4      	b.n	334a <brel+0x1e>
/home/lubuntu/Dokument/GitHub/STM32-Computer/Firmware/STM32-Computer-Firmware/CA7/optee-os-3.19.0-r2/optee-os-stm32mp-3.19.0-stm32mp-r2/lib/libutils/isoc/bget.c:971
    3380:	690d      	ldr	r5, [r1, #16]
    3382:	441d      	add	r5, r3
    3384:	610d      	str	r5, [r1, #16]
/home/lubuntu/Dokument/GitHub/STM32-Computer/Firmware/STM32-Computer-Firmware/CA7/optee-os-3.19.0-r2/optee-os-stm32mp-3.19.0-stm32mp-r2/lib/libutils/isoc/bget.c:972
    3386:	2d00      	cmp	r5, #0
    3388:	da08      	bge.n	339c <brel+0x70>
/home/lubuntu/Dokument/GitHub/STM32-Computer/Firmware/STM32-Computer-Firmware/CA7/optee-os-3.19.0-r2/optee-os-stm32mp-3.19.0-stm32mp-r2/lib/libutils/isoc/bget.c:972 (discriminator 1)
    338a:	4b4b      	ldr	r3, [pc, #300]	@ (34b8 <brel+0x18c>)
    338c:	f44f 7273 	mov.w	r2, #972	@ 0x3cc
    3390:	494a      	ldr	r1, [pc, #296]	@ (34bc <brel+0x190>)
    3392:	484b      	ldr	r0, [pc, #300]	@ (34c0 <brel+0x194>)
    3394:	447b      	add	r3, pc
    3396:	4479      	add	r1, pc
    3398:	4478      	add	r0, pc
    339a:	e7d6      	b.n	334a <brel+0x1e>
/home/lubuntu/Dokument/GitHub/STM32-Computer/Firmware/STM32-Computer-Firmware/CA7/optee-os-3.19.0-r2/optee-os-stm32mp-3.19.0-stm32mp-r2/lib/libutils/isoc/bget.c:977
    339c:	f850 5c08 	ldr.w	r5, [r0, #-8]
    33a0:	b1fd      	cbz	r5, 33e2 <brel+0xb6>
/home/lubuntu/Dokument/GitHub/STM32-Computer/Firmware/STM32-Computer-Firmware/CA7/optee-os-3.19.0-r2/optee-os-stm32mp-3.19.0-stm32mp-r2/lib/libutils/isoc/bget.c:988
    33a2:	1b64      	subs	r4, r4, r5
    33a4:	6861      	ldr	r1, [r4, #4]
    33a6:	428d      	cmp	r5, r1
    33a8:	d008      	beq.n	33bc <brel+0x90>
/home/lubuntu/Dokument/GitHub/STM32-Computer/Firmware/STM32-Computer-Firmware/CA7/optee-os-3.19.0-r2/optee-os-stm32mp-3.19.0-stm32mp-r2/lib/libutils/isoc/bget.c:988 (discriminator 1)
    33aa:	4b46      	ldr	r3, [pc, #280]	@ (34c4 <brel+0x198>)
    33ac:	f44f 7277 	mov.w	r2, #988	@ 0x3dc
    33b0:	4945      	ldr	r1, [pc, #276]	@ (34c8 <brel+0x19c>)
    33b2:	4846      	ldr	r0, [pc, #280]	@ (34cc <brel+0x1a0>)
    33b4:	447b      	add	r3, pc
    33b6:	4479      	add	r1, pc
    33b8:	4478      	add	r0, pc
    33ba:	e7c6      	b.n	334a <brel+0x1e>
/home/lubuntu/Dokument/GitHub/STM32-Computer/Firmware/STM32-Computer-Firmware/CA7/optee-os-3.19.0-r2/optee-os-stm32mp-3.19.0-stm32mp-r2/lib/libutils/isoc/bget.c:990
    33bc:	1aed      	subs	r5, r5, r3
    33be:	6065      	str	r5, [r4, #4]
/home/lubuntu/Dokument/GitHub/STM32-Computer/Firmware/STM32-Computer-Firmware/CA7/optee-os-3.19.0-r2/optee-os-stm32mp-3.19.0-stm32mp-r2/lib/libutils/isoc/bget.c:1010
    33c0:	6863      	ldr	r3, [r4, #4]
    33c2:	18e5      	adds	r5, r4, r3
/home/lubuntu/Dokument/GitHub/STM32-Computer/Firmware/STM32-Computer-Firmware/CA7/optee-os-3.19.0-r2/optee-os-stm32mp-3.19.0-stm32mp-r2/lib/libutils/isoc/bget.c:1011
    33c4:	6869      	ldr	r1, [r5, #4]
    33c6:	2900      	cmp	r1, #0
    33c8:	dd4d      	ble.n	3466 <brel+0x13a>
/home/lubuntu/Dokument/GitHub/STM32-Computer/Firmware/STM32-Computer-Firmware/CA7/optee-os-3.19.0-r2/optee-os-stm32mp-3.19.0-stm32mp-r2/lib/libutils/isoc/bget.c:1016
    33ca:	5868      	ldr	r0, [r5, r1]
    33cc:	4281      	cmp	r1, r0
    33ce:	d02b      	beq.n	3428 <brel+0xfc>
/home/lubuntu/Dokument/GitHub/STM32-Computer/Firmware/STM32-Computer-Firmware/CA7/optee-os-3.19.0-r2/optee-os-stm32mp-3.19.0-stm32mp-r2/lib/libutils/isoc/bget.c:1016 (discriminator 1)
    33d0:	4b3f      	ldr	r3, [pc, #252]	@ (34d0 <brel+0x1a4>)
    33d2:	f44f 727e 	mov.w	r2, #1016	@ 0x3f8
    33d6:	493f      	ldr	r1, [pc, #252]	@ (34d4 <brel+0x1a8>)
    33d8:	483f      	ldr	r0, [pc, #252]	@ (34d8 <brel+0x1ac>)
    33da:	447b      	add	r3, pc
    33dc:	4479      	add	r1, pc
    33de:	4478      	add	r0, pc
    33e0:	e7b3      	b.n	334a <brel+0x1e>
/home/lubuntu/Dokument/GitHub/STM32-Computer/Firmware/STM32-Computer-Firmware/CA7/optee-os-3.19.0-r2/optee-os-stm32mp-3.19.0-stm32mp-r2/lib/libutils/isoc/bget.c:996
    33e2:	68ce      	ldr	r6, [r1, #12]
    33e4:	68b5      	ldr	r5, [r6, #8]
    33e6:	428d      	cmp	r5, r1
    33e8:	d008      	beq.n	33fc <brel+0xd0>
/home/lubuntu/Dokument/GitHub/STM32-Computer/Firmware/STM32-Computer-Firmware/CA7/optee-os-3.19.0-r2/optee-os-stm32mp-3.19.0-stm32mp-r2/lib/libutils/isoc/bget.c:996 (discriminator 1)
    33ea:	4b3c      	ldr	r3, [pc, #240]	@ (34dc <brel+0x1b0>)
    33ec:	f44f 7279 	mov.w	r2, #996	@ 0x3e4
    33f0:	493b      	ldr	r1, [pc, #236]	@ (34e0 <brel+0x1b4>)
    33f2:	483c      	ldr	r0, [pc, #240]	@ (34e4 <brel+0x1b8>)
    33f4:	447b      	add	r3, pc
    33f6:	4479      	add	r1, pc
    33f8:	4478      	add	r0, pc
    33fa:	e7a6      	b.n	334a <brel+0x1e>
/home/lubuntu/Dokument/GitHub/STM32-Computer/Firmware/STM32-Computer-Firmware/CA7/optee-os-3.19.0-r2/optee-os-stm32mp-3.19.0-stm32mp-r2/lib/libutils/isoc/bget.c:997
    33fc:	68a9      	ldr	r1, [r5, #8]
    33fe:	68c9      	ldr	r1, [r1, #12]
    3400:	428d      	cmp	r5, r1
    3402:	d008      	beq.n	3416 <brel+0xea>
/home/lubuntu/Dokument/GitHub/STM32-Computer/Firmware/STM32-Computer-Firmware/CA7/optee-os-3.19.0-r2/optee-os-stm32mp-3.19.0-stm32mp-r2/lib/libutils/isoc/bget.c:997 (discriminator 1)
    3404:	4b38      	ldr	r3, [pc, #224]	@ (34e8 <brel+0x1bc>)
    3406:	f240 32e5 	movw	r2, #997	@ 0x3e5
    340a:	4938      	ldr	r1, [pc, #224]	@ (34ec <brel+0x1c0>)
    340c:	4838      	ldr	r0, [pc, #224]	@ (34f0 <brel+0x1c4>)
    340e:	447b      	add	r3, pc
    3410:	4479      	add	r1, pc
    3412:	4478      	add	r0, pc
    3414:	e799      	b.n	334a <brel+0x1e>
/home/lubuntu/Dokument/GitHub/STM32-Computer/Firmware/STM32-Computer-Firmware/CA7/optee-os-3.19.0-r2/optee-os-stm32mp-3.19.0-stm32mp-r2/lib/libutils/isoc/bget.c:999
    3416:	e9c0 5600 	strd	r5, r6, [r0]
/home/lubuntu/Dokument/GitHub/STM32-Computer/Firmware/STM32-Computer-Firmware/CA7/optee-os-3.19.0-r2/optee-os-stm32mp-3.19.0-stm32mp-r2/lib/libutils/isoc/bget.c:1000
    341a:	60ec      	str	r4, [r5, #12]
/home/lubuntu/Dokument/GitHub/STM32-Computer/Firmware/STM32-Computer-Firmware/CA7/optee-os-3.19.0-r2/optee-os-stm32mp-3.19.0-stm32mp-r2/lib/libutils/isoc/bget.c:1002
    341c:	425b      	negs	r3, r3
/home/lubuntu/Dokument/GitHub/STM32-Computer/Firmware/STM32-Computer-Firmware/CA7/optee-os-3.19.0-r2/optee-os-stm32mp-3.19.0-stm32mp-r2/lib/libutils/isoc/bget.c:1001
    341e:	6841      	ldr	r1, [r0, #4]
    3420:	608c      	str	r4, [r1, #8]
/home/lubuntu/Dokument/GitHub/STM32-Computer/Firmware/STM32-Computer-Firmware/CA7/optee-os-3.19.0-r2/optee-os-stm32mp-3.19.0-stm32mp-r2/lib/libutils/isoc/bget.c:1002
    3422:	f840 3c04 	str.w	r3, [r0, #-4]
    3426:	e7cb      	b.n	33c0 <brel+0x94>
/home/lubuntu/Dokument/GitHub/STM32-Computer/Firmware/STM32-Computer-Firmware/CA7/optee-os-3.19.0-r2/optee-os-stm32mp-3.19.0-stm32mp-r2/lib/libutils/isoc/bget.c:1017
    3428:	68ee      	ldr	r6, [r5, #12]
    342a:	68b7      	ldr	r7, [r6, #8]
    342c:	42af      	cmp	r7, r5
    342e:	d008      	beq.n	3442 <brel+0x116>
/home/lubuntu/Dokument/GitHub/STM32-Computer/Firmware/STM32-Computer-Firmware/CA7/optee-os-3.19.0-r2/optee-os-stm32mp-3.19.0-stm32mp-r2/lib/libutils/isoc/bget.c:1017 (discriminator 1)
    3430:	4b30      	ldr	r3, [pc, #192]	@ (34f4 <brel+0x1c8>)
    3432:	f240 32f9 	movw	r2, #1017	@ 0x3f9
    3436:	4930      	ldr	r1, [pc, #192]	@ (34f8 <brel+0x1cc>)
    3438:	4830      	ldr	r0, [pc, #192]	@ (34fc <brel+0x1d0>)
    343a:	447b      	add	r3, pc
    343c:	4479      	add	r1, pc
    343e:	4478      	add	r0, pc
    3440:	e783      	b.n	334a <brel+0x1e>
/home/lubuntu/Dokument/GitHub/STM32-Computer/Firmware/STM32-Computer-Firmware/CA7/optee-os-3.19.0-r2/optee-os-stm32mp-3.19.0-stm32mp-r2/lib/libutils/isoc/bget.c:1018
    3442:	68b8      	ldr	r0, [r7, #8]
    3444:	68c5      	ldr	r5, [r0, #12]
    3446:	42bd      	cmp	r5, r7
    3448:	d008      	beq.n	345c <brel+0x130>
/home/lubuntu/Dokument/GitHub/STM32-Computer/Firmware/STM32-Computer-Firmware/CA7/optee-os-3.19.0-r2/optee-os-stm32mp-3.19.0-stm32mp-r2/lib/libutils/isoc/bget.c:1018 (discriminator 1)
    344a:	4b2d      	ldr	r3, [pc, #180]	@ (3500 <brel+0x1d4>)
    344c:	f240 32fa 	movw	r2, #1018	@ 0x3fa
    3450:	492c      	ldr	r1, [pc, #176]	@ (3504 <brel+0x1d8>)
    3452:	482d      	ldr	r0, [pc, #180]	@ (3508 <brel+0x1dc>)
    3454:	447b      	add	r3, pc
    3456:	4479      	add	r1, pc
    3458:	4478      	add	r0, pc
    345a:	e776      	b.n	334a <brel+0x1e>
/home/lubuntu/Dokument/GitHub/STM32-Computer/Firmware/STM32-Computer-Firmware/CA7/optee-os-3.19.0-r2/optee-os-stm32mp-3.19.0-stm32mp-r2/lib/libutils/isoc/bget.c:1021
    345c:	440b      	add	r3, r1
/home/lubuntu/Dokument/GitHub/STM32-Computer/Firmware/STM32-Computer-Firmware/CA7/optee-os-3.19.0-r2/optee-os-stm32mp-3.19.0-stm32mp-r2/lib/libutils/isoc/bget.c:1030
    345e:	18e5      	adds	r5, r4, r3
/home/lubuntu/Dokument/GitHub/STM32-Computer/Firmware/STM32-Computer-Firmware/CA7/optee-os-3.19.0-r2/optee-os-stm32mp-3.19.0-stm32mp-r2/lib/libutils/isoc/bget.c:1019
    3460:	60b0      	str	r0, [r6, #8]
/home/lubuntu/Dokument/GitHub/STM32-Computer/Firmware/STM32-Computer-Firmware/CA7/optee-os-3.19.0-r2/optee-os-stm32mp-3.19.0-stm32mp-r2/lib/libutils/isoc/bget.c:1020
    3462:	60c6      	str	r6, [r0, #12]
/home/lubuntu/Dokument/GitHub/STM32-Computer/Firmware/STM32-Computer-Firmware/CA7/optee-os-3.19.0-r2/optee-os-stm32mp-3.19.0-stm32mp-r2/lib/libutils/isoc/bget.c:1021
    3464:	6063      	str	r3, [r4, #4]
/home/lubuntu/Dokument/GitHub/STM32-Computer/Firmware/STM32-Computer-Firmware/CA7/optee-os-3.19.0-r2/optee-os-stm32mp-3.19.0-stm32mp-r2/lib/libutils/isoc/bget.c:1032
    3466:	b132      	cbz	r2, 3476 <brel+0x14a>
/home/lubuntu/Dokument/GitHub/STM32-Computer/Firmware/STM32-Computer-Firmware/CA7/optee-os-3.19.0-r2/optee-os-stm32mp-3.19.0-stm32mp-r2/lib/libutils/isoc/bget.c:1034
    3468:	6862      	ldr	r2, [r4, #4]
memset_unchecked():
/home/lubuntu/Dokument/GitHub/STM32-Computer/Firmware/STM32-Computer-Firmware/CA7/optee-os-3.19.0-r2/optee-os-stm32mp-3.19.0-stm32mp-r2/lib/libutils/isoc/bget_malloc.c:115
    346a:	2155      	movs	r1, #85	@ 0x55
    346c:	f104 0010 	add.w	r0, r4, #16
    3470:	3a10      	subs	r2, #16
    3472:	f000 ff67 	bl	4344 <memset>
brel():
/home/lubuntu/Dokument/GitHub/STM32-Computer/Firmware/STM32-Computer-Firmware/CA7/optee-os-3.19.0-r2/optee-os-stm32mp-3.19.0-stm32mp-r2/lib/libutils/isoc/bget.c:1036
    3476:	686b      	ldr	r3, [r5, #4]
    3478:	2b00      	cmp	r3, #0
    347a:	db08      	blt.n	348e <brel+0x162>
/home/lubuntu/Dokument/GitHub/STM32-Computer/Firmware/STM32-Computer-Firmware/CA7/optee-os-3.19.0-r2/optee-os-stm32mp-3.19.0-stm32mp-r2/lib/libutils/isoc/bget.c:1036 (discriminator 1)
    347c:	4b23      	ldr	r3, [pc, #140]	@ (350c <brel+0x1e0>)
    347e:	f240 420c 	movw	r2, #1036	@ 0x40c
    3482:	4923      	ldr	r1, [pc, #140]	@ (3510 <brel+0x1e4>)
    3484:	4823      	ldr	r0, [pc, #140]	@ (3514 <brel+0x1e8>)
    3486:	447b      	add	r3, pc
    3488:	4479      	add	r1, pc
    348a:	4478      	add	r0, pc
    348c:	e75d      	b.n	334a <brel+0x1e>
/home/lubuntu/Dokument/GitHub/STM32-Computer/Firmware/STM32-Computer-Firmware/CA7/optee-os-3.19.0-r2/optee-os-stm32mp-3.19.0-stm32mp-r2/lib/libutils/isoc/bget.c:1041
    348e:	6863      	ldr	r3, [r4, #4]
    3490:	602b      	str	r3, [r5, #0]
/home/lubuntu/Dokument/GitHub/STM32-Computer/Firmware/STM32-Computer-Firmware/CA7/optee-os-3.19.0-r2/optee-os-stm32mp-3.19.0-stm32mp-r2/lib/libutils/isoc/bget.c:1068
    3492:	bdf8      	pop	{r3, r4, r5, r6, r7, pc}
    3494:	00002397 	.word	0x00002397
    3498:	000020b8 	.word	0x000020b8
    349c:	000021e2 	.word	0x000021e2
    34a0:	0000237b 	.word	0x0000237b
    34a4:	0000209c 	.word	0x0000209c
    34a8:	000021d2 	.word	0x000021d2
    34ac:	00002363 	.word	0x00002363
    34b0:	00002084 	.word	0x00002084
    34b4:	000021ca 	.word	0x000021ca
    34b8:	00002347 	.word	0x00002347
    34bc:	00002068 	.word	0x00002068
    34c0:	000021da 	.word	0x000021da
    34c4:	00002327 	.word	0x00002327
    34c8:	00002048 	.word	0x00002048
    34cc:	000021d1 	.word	0x000021d1
    34d0:	00002301 	.word	0x00002301
    34d4:	00002022 	.word	0x00002022
    34d8:	000021e4 	.word	0x000021e4
    34dc:	000022e7 	.word	0x000022e7
    34e0:	00002008 	.word	0x00002008
    34e4:	00002088 	.word	0x00002088
    34e8:	000022cd 	.word	0x000022cd
    34ec:	00001fee 	.word	0x00001fee
    34f0:	000020a9 	.word	0x000020a9
    34f4:	000022a1 	.word	0x000022a1
    34f8:	00001fc2 	.word	0x00001fc2
    34fc:	000021bd 	.word	0x000021bd
    3500:	00002287 	.word	0x00002287
    3504:	00001fa8 	.word	0x00001fa8
    3508:	000021c0 	.word	0x000021c0
    350c:	00002255 	.word	0x00002255
    3510:	00001f76 	.word	0x00001f76
    3514:	000021ab 	.word	0x000021ab

00003518 <bpool>:
bpool():
/home/lubuntu/Dokument/GitHub/STM32-Computer/Firmware/STM32-Computer-Firmware/CA7/optee-os-3.19.0-r2/optee-os-stm32mp-3.19.0-stm32mp-r2/lib/libutils/isoc/bget.c:1099
    3518:	f021 0107 	bic.w	r1, r1, #7
/home/lubuntu/Dokument/GitHub/STM32-Computer/Firmware/STM32-Computer-Firmware/CA7/optee-os-3.19.0-r2/optee-os-stm32mp-3.19.0-stm32mp-r2/lib/libutils/isoc/bget.c:1118
    351c:	3908      	subs	r1, #8
/home/lubuntu/Dokument/GitHub/STM32-Computer/Firmware/STM32-Computer-Firmware/CA7/optee-os-3.19.0-r2/optee-os-stm32mp-3.19.0-stm32mp-r2/lib/libutils/isoc/bget.c:1094
    351e:	b510      	push	{r4, lr}
/home/lubuntu/Dokument/GitHub/STM32-Computer/Firmware/STM32-Computer-Firmware/CA7/optee-os-3.19.0-r2/optee-os-stm32mp-3.19.0-stm32mp-r2/lib/libutils/isoc/bget.c:1118
    3520:	d509      	bpl.n	3536 <bpool+0x1e>
/home/lubuntu/Dokument/GitHub/STM32-Computer/Firmware/STM32-Computer-Firmware/CA7/optee-os-3.19.0-r2/optee-os-stm32mp-3.19.0-stm32mp-r2/lib/libutils/isoc/bget.c:1118 (discriminator 1)
    3522:	4b19      	ldr	r3, [pc, #100]	@ (3588 <bpool+0x70>)
    3524:	f240 425e 	movw	r2, #1118	@ 0x45e
    3528:	4918      	ldr	r1, [pc, #96]	@ (358c <bpool+0x74>)
    352a:	4819      	ldr	r0, [pc, #100]	@ (3590 <bpool+0x78>)
    352c:	447b      	add	r3, pc
    352e:	4479      	add	r1, pc
    3530:	4478      	add	r0, pc
/home/lubuntu/Dokument/GitHub/STM32-Computer/Firmware/STM32-Computer-Firmware/CA7/optee-os-3.19.0-r2/optee-os-stm32mp-3.19.0-stm32mp-r2/lib/libutils/isoc/bget.c:1128 (discriminator 1)
    3532:	f000 fe4d 	bl	41d0 <_assert_trap>
/home/lubuntu/Dokument/GitHub/STM32-Computer/Firmware/STM32-Computer-Firmware/CA7/optee-os-3.19.0-r2/optee-os-stm32mp-3.19.0-stm32mp-r2/lib/libutils/isoc/bget.c:1128
    3536:	68d4      	ldr	r4, [r2, #12]
/home/lubuntu/Dokument/GitHub/STM32-Computer/Firmware/STM32-Computer-Firmware/CA7/optee-os-3.19.0-r2/optee-os-stm32mp-3.19.0-stm32mp-r2/lib/libutils/isoc/bget.c:1124
    3538:	2300      	movs	r3, #0
    353a:	6003      	str	r3, [r0, #0]
/home/lubuntu/Dokument/GitHub/STM32-Computer/Firmware/STM32-Computer-Firmware/CA7/optee-os-3.19.0-r2/optee-os-stm32mp-3.19.0-stm32mp-r2/lib/libutils/isoc/bget.c:1128
    353c:	68a3      	ldr	r3, [r4, #8]
    353e:	4293      	cmp	r3, r2
    3540:	d008      	beq.n	3554 <bpool+0x3c>
/home/lubuntu/Dokument/GitHub/STM32-Computer/Firmware/STM32-Computer-Firmware/CA7/optee-os-3.19.0-r2/optee-os-stm32mp-3.19.0-stm32mp-r2/lib/libutils/isoc/bget.c:1128 (discriminator 1)
    3542:	4b14      	ldr	r3, [pc, #80]	@ (3594 <bpool+0x7c>)
    3544:	f44f 628d 	mov.w	r2, #1128	@ 0x468
    3548:	4913      	ldr	r1, [pc, #76]	@ (3598 <bpool+0x80>)
    354a:	4814      	ldr	r0, [pc, #80]	@ (359c <bpool+0x84>)
    354c:	447b      	add	r3, pc
    354e:	4479      	add	r1, pc
    3550:	4478      	add	r0, pc
    3552:	e7ee      	b.n	3532 <bpool+0x1a>
/home/lubuntu/Dokument/GitHub/STM32-Computer/Firmware/STM32-Computer-Firmware/CA7/optee-os-3.19.0-r2/optee-os-stm32mp-3.19.0-stm32mp-r2/lib/libutils/isoc/bget.c:1129
    3554:	689a      	ldr	r2, [r3, #8]
    3556:	68d2      	ldr	r2, [r2, #12]
    3558:	4293      	cmp	r3, r2
    355a:	d008      	beq.n	356e <bpool+0x56>
/home/lubuntu/Dokument/GitHub/STM32-Computer/Firmware/STM32-Computer-Firmware/CA7/optee-os-3.19.0-r2/optee-os-stm32mp-3.19.0-stm32mp-r2/lib/libutils/isoc/bget.c:1129 (discriminator 1)
    355c:	4b10      	ldr	r3, [pc, #64]	@ (35a0 <bpool+0x88>)
    355e:	f240 4269 	movw	r2, #1129	@ 0x469
    3562:	4910      	ldr	r1, [pc, #64]	@ (35a4 <bpool+0x8c>)
    3564:	4810      	ldr	r0, [pc, #64]	@ (35a8 <bpool+0x90>)
    3566:	447b      	add	r3, pc
    3568:	4479      	add	r1, pc
    356a:	4478      	add	r0, pc
    356c:	e7e1      	b.n	3532 <bpool+0x1a>
/home/lubuntu/Dokument/GitHub/STM32-Computer/Firmware/STM32-Computer-Firmware/CA7/optee-os-3.19.0-r2/optee-os-stm32mp-3.19.0-stm32mp-r2/lib/libutils/isoc/bget.c:1130
    356e:	6083      	str	r3, [r0, #8]
/home/lubuntu/Dokument/GitHub/STM32-Computer/Firmware/STM32-Computer-Firmware/CA7/optee-os-3.19.0-r2/optee-os-stm32mp-3.19.0-stm32mp-r2/lib/libutils/isoc/bget.c:1153
    3570:	f04f 4200 	mov.w	r2, #2147483648	@ 0x80000000
/home/lubuntu/Dokument/GitHub/STM32-Computer/Firmware/STM32-Computer-Firmware/CA7/optee-os-3.19.0-r2/optee-os-stm32mp-3.19.0-stm32mp-r2/lib/libutils/isoc/bget.c:1131
    3574:	60c4      	str	r4, [r0, #12]
/home/lubuntu/Dokument/GitHub/STM32-Computer/Firmware/STM32-Computer-Firmware/CA7/optee-os-3.19.0-r2/optee-os-stm32mp-3.19.0-stm32mp-r2/lib/libutils/isoc/bget.c:1132
    3576:	60d8      	str	r0, [r3, #12]
/home/lubuntu/Dokument/GitHub/STM32-Computer/Firmware/STM32-Computer-Firmware/CA7/optee-os-3.19.0-r2/optee-os-stm32mp-3.19.0-stm32mp-r2/lib/libutils/isoc/bget.c:1133
    3578:	68c3      	ldr	r3, [r0, #12]
    357a:	6098      	str	r0, [r3, #8]
/home/lubuntu/Dokument/GitHub/STM32-Computer/Firmware/STM32-Computer-Firmware/CA7/optee-os-3.19.0-r2/optee-os-stm32mp-3.19.0-stm32mp-r2/lib/libutils/isoc/bget.c:1149
    357c:	1843      	adds	r3, r0, r1
/home/lubuntu/Dokument/GitHub/STM32-Computer/Firmware/STM32-Computer-Firmware/CA7/optee-os-3.19.0-r2/optee-os-stm32mp-3.19.0-stm32mp-r2/lib/libutils/isoc/bget.c:1144
    357e:	6041      	str	r1, [r0, #4]
/home/lubuntu/Dokument/GitHub/STM32-Computer/Firmware/STM32-Computer-Firmware/CA7/optee-os-3.19.0-r2/optee-os-stm32mp-3.19.0-stm32mp-r2/lib/libutils/isoc/bget.c:1150
    3580:	5041      	str	r1, [r0, r1]
/home/lubuntu/Dokument/GitHub/STM32-Computer/Firmware/STM32-Computer-Firmware/CA7/optee-os-3.19.0-r2/optee-os-stm32mp-3.19.0-stm32mp-r2/lib/libutils/isoc/bget.c:1153
    3582:	605a      	str	r2, [r3, #4]
/home/lubuntu/Dokument/GitHub/STM32-Computer/Firmware/STM32-Computer-Firmware/CA7/optee-os-3.19.0-r2/optee-os-stm32mp-3.19.0-stm32mp-r2/lib/libutils/isoc/bget.c:1154
    3584:	bd10      	pop	{r4, pc}
    3586:	bf00      	nop
    3588:	000021a9 	.word	0x000021a9
    358c:	00001ed0 	.word	0x00001ed0
    3590:	00002116 	.word	0x00002116
    3594:	00002189 	.word	0x00002189
    3598:	00001eb0 	.word	0x00001eb0
    359c:	00001f30 	.word	0x00001f30
    35a0:	0000216f 	.word	0x0000216f
    35a4:	00001e96 	.word	0x00001e96
    35a8:	00001f51 	.word	0x00001f51

000035ac <gen_malloc_add_pool>:
gen_malloc_add_pool():
/home/lubuntu/Dokument/GitHub/STM32-Computer/Firmware/STM32-Computer-Firmware/CA7/optee-os-3.19.0-r2/optee-os-stm32mp-3.19.0-stm32mp-r2/lib/libutils/isoc/bget_malloc.c:867
    35ac:	b5f7      	push	{r0, r1, r2, r4, r5, r6, r7, lr}
    35ae:	4605      	mov	r5, r0
/home/lubuntu/Dokument/GitHub/STM32-Computer/Firmware/STM32-Computer-Firmware/CA7/optee-os-3.19.0-r2/optee-os-stm32mp-3.19.0-stm32mp-r2/lib/libutils/isoc/bget_malloc.c:872
    35b0:	188c      	adds	r4, r1, r2
/home/lubuntu/Dokument/GitHub/STM32-Computer/Firmware/STM32-Computer-Firmware/CA7/optee-os-3.19.0-r2/optee-os-stm32mp-3.19.0-stm32mp-r2/lib/libutils/isoc/bget_malloc.c:875
    35b2:	3107      	adds	r1, #7
    35b4:	f021 0607 	bic.w	r6, r1, #7
/home/lubuntu/Dokument/GitHub/STM32-Computer/Firmware/STM32-Computer-Firmware/CA7/optee-os-3.19.0-r2/optee-os-stm32mp-3.19.0-stm32mp-r2/lib/libutils/isoc/bget_malloc.c:876
    35b8:	f024 0407 	bic.w	r4, r4, #7
/home/lubuntu/Dokument/GitHub/STM32-Computer/Firmware/STM32-Computer-Firmware/CA7/optee-os-3.19.0-r2/optee-os-stm32mp-3.19.0-stm32mp-r2/lib/libutils/isoc/bget_malloc.c:878
    35bc:	42a6      	cmp	r6, r4
    35be:	d802      	bhi.n	35c6 <gen_malloc_add_pool+0x1a>
/home/lubuntu/Dokument/GitHub/STM32-Computer/Firmware/STM32-Computer-Firmware/CA7/optee-os-3.19.0-r2/optee-os-stm32mp-3.19.0-stm32mp-r2/lib/libutils/isoc/bget_malloc.c:878 (discriminator 1)
    35c0:	1ba4      	subs	r4, r4, r6
    35c2:	2c17      	cmp	r4, #23
    35c4:	d80c      	bhi.n	35e0 <gen_malloc_add_pool+0x34>
/home/lubuntu/Dokument/GitHub/STM32-Computer/Firmware/STM32-Computer-Firmware/CA7/optee-os-3.19.0-r2/optee-os-stm32mp-3.19.0-stm32mp-r2/lib/libutils/isoc/bget_malloc.c:879
    35c6:	4b20      	ldr	r3, [pc, #128]	@ (3648 <gen_malloc_add_pool+0x9c>)
    35c8:	2203      	movs	r2, #3
    35ca:	4820      	ldr	r0, [pc, #128]	@ (364c <gen_malloc_add_pool+0xa0>)
    35cc:	f240 316f 	movw	r1, #879	@ 0x36f
    35d0:	447b      	add	r3, pc
    35d2:	9300      	str	r3, [sp, #0]
    35d4:	2301      	movs	r3, #1
    35d6:	4478      	add	r0, pc
/home/lubuntu/Dokument/GitHub/STM32-Computer/Firmware/STM32-Computer-Firmware/CA7/optee-os-3.19.0-r2/optee-os-stm32mp-3.19.0-stm32mp-r2/lib/libutils/isoc/bget_malloc.c:885
    35d8:	f000 ff6e 	bl	44b8 <trace_printf>
/home/lubuntu/Dokument/GitHub/STM32-Computer/Firmware/STM32-Computer-Firmware/CA7/optee-os-3.19.0-r2/optee-os-stm32mp-3.19.0-stm32mp-r2/lib/libutils/isoc/bget_malloc.c:904
    35dc:	b003      	add	sp, #12
    35de:	bdf0      	pop	{r4, r5, r6, r7, pc}
/home/lubuntu/Dokument/GitHub/STM32-Computer/Firmware/STM32-Computer-Firmware/CA7/optee-os-3.19.0-r2/optee-os-stm32mp-3.19.0-stm32mp-r2/lib/libutils/isoc/bget_malloc.c:884
    35e0:	6a07      	ldr	r7, [r0, #32]
    35e2:	b967      	cbnz	r7, 35fe <gen_malloc_add_pool+0x52>
/home/lubuntu/Dokument/GitHub/STM32-Computer/Firmware/STM32-Computer-Firmware/CA7/optee-os-3.19.0-r2/optee-os-stm32mp-3.19.0-stm32mp-r2/lib/libutils/isoc/bget_malloc.c:884 (discriminator 1)
    35e4:	f5b4 6f80 	cmp.w	r4, #1024	@ 0x400
    35e8:	d209      	bcs.n	35fe <gen_malloc_add_pool+0x52>
/home/lubuntu/Dokument/GitHub/STM32-Computer/Firmware/STM32-Computer-Firmware/CA7/optee-os-3.19.0-r2/optee-os-stm32mp-3.19.0-stm32mp-r2/lib/libutils/isoc/bget_malloc.c:885
    35ea:	4b19      	ldr	r3, [pc, #100]	@ (3650 <gen_malloc_add_pool+0xa4>)
    35ec:	2203      	movs	r2, #3
    35ee:	4819      	ldr	r0, [pc, #100]	@ (3654 <gen_malloc_add_pool+0xa8>)
    35f0:	f240 3175 	movw	r1, #885	@ 0x375
    35f4:	447b      	add	r3, pc
    35f6:	9300      	str	r3, [sp, #0]
    35f8:	2301      	movs	r3, #1
    35fa:	4478      	add	r0, pc
    35fc:	e7ec      	b.n	35d8 <gen_malloc_add_pool+0x2c>
/home/lubuntu/Dokument/GitHub/STM32-Computer/Firmware/STM32-Computer-Firmware/CA7/optee-os-3.19.0-r2/optee-os-stm32mp-3.19.0-stm32mp-r2/lib/libutils/isoc/bget_malloc.c:892
    35fe:	462a      	mov	r2, r5
    3600:	4621      	mov	r1, r4
    3602:	4630      	mov	r0, r6
/home/lubuntu/Dokument/GitHub/STM32-Computer/Firmware/STM32-Computer-Firmware/CA7/optee-os-3.19.0-r2/optee-os-stm32mp-3.19.0-stm32mp-r2/lib/libutils/isoc/bget_malloc.c:893
    3604:	3701      	adds	r7, #1
/home/lubuntu/Dokument/GitHub/STM32-Computer/Firmware/STM32-Computer-Firmware/CA7/optee-os-3.19.0-r2/optee-os-stm32mp-3.19.0-stm32mp-r2/lib/libutils/isoc/bget_malloc.c:892
    3606:	f7ff ff87 	bl	3518 <bpool>
realloc_unlocked():
/home/lubuntu/Dokument/GitHub/STM32-Computer/Firmware/STM32-Computer-Firmware/CA7/optee-os-3.19.0-r2/optee-os-stm32mp-3.19.0-stm32mp-r2/lib/libutils/isoc/bget_malloc.c:815
    360a:	9500      	str	r5, [sp, #0]
    360c:	2200      	movs	r2, #0
    360e:	00fb      	lsls	r3, r7, #3
    3610:	4611      	mov	r1, r2
    3612:	69e8      	ldr	r0, [r5, #28]
    3614:	f000 fe1a 	bl	424c <raw_realloc>
gen_malloc_add_pool():
/home/lubuntu/Dokument/GitHub/STM32-Computer/Firmware/STM32-Computer-Firmware/CA7/optee-os-3.19.0-r2/optee-os-stm32mp-3.19.0-stm32mp-r2/lib/libutils/isoc/bget_malloc.c:895
    3618:	b948      	cbnz	r0, 362e <gen_malloc_add_pool+0x82>
/home/lubuntu/Dokument/GitHub/STM32-Computer/Firmware/STM32-Computer-Firmware/CA7/optee-os-3.19.0-r2/optee-os-stm32mp-3.19.0-stm32mp-r2/lib/libutils/isoc/bget_malloc.c:895 (discriminator 1)
    361a:	4b0f      	ldr	r3, [pc, #60]	@ (3658 <gen_malloc_add_pool+0xac>)
    361c:	f240 327f 	movw	r2, #895	@ 0x37f
    3620:	490e      	ldr	r1, [pc, #56]	@ (365c <gen_malloc_add_pool+0xb0>)
    3622:	480f      	ldr	r0, [pc, #60]	@ (3660 <gen_malloc_add_pool+0xb4>)
    3624:	447b      	add	r3, pc
    3626:	4479      	add	r1, pc
    3628:	4478      	add	r0, pc
    362a:	f000 fdd1 	bl	41d0 <_assert_trap>
/home/lubuntu/Dokument/GitHub/STM32-Computer/Firmware/STM32-Computer-Firmware/CA7/optee-os-3.19.0-r2/optee-os-stm32mp-3.19.0-stm32mp-r2/lib/libutils/isoc/bget_malloc.c:897
    362e:	6a2b      	ldr	r3, [r5, #32]
/home/lubuntu/Dokument/GitHub/STM32-Computer/Firmware/STM32-Computer-Firmware/CA7/optee-os-3.19.0-r2/optee-os-stm32mp-3.19.0-stm32mp-r2/lib/libutils/isoc/bget_malloc.c:896
    3630:	61e8      	str	r0, [r5, #28]
/home/lubuntu/Dokument/GitHub/STM32-Computer/Firmware/STM32-Computer-Firmware/CA7/optee-os-3.19.0-r2/optee-os-stm32mp-3.19.0-stm32mp-r2/lib/libutils/isoc/bget_malloc.c:897
    3632:	eb00 02c3 	add.w	r2, r0, r3, lsl #3
    3636:	f840 6033 	str.w	r6, [r0, r3, lsl #3]
/home/lubuntu/Dokument/GitHub/STM32-Computer/Firmware/STM32-Computer-Firmware/CA7/optee-os-3.19.0-r2/optee-os-stm32mp-3.19.0-stm32mp-r2/lib/libutils/isoc/bget_malloc.c:900
    363a:	6ceb      	ldr	r3, [r5, #76]	@ 0x4c
/home/lubuntu/Dokument/GitHub/STM32-Computer/Firmware/STM32-Computer-Firmware/CA7/optee-os-3.19.0-r2/optee-os-stm32mp-3.19.0-stm32mp-r2/lib/libutils/isoc/bget_malloc.c:898
    363c:	6054      	str	r4, [r2, #4]
/home/lubuntu/Dokument/GitHub/STM32-Computer/Firmware/STM32-Computer-Firmware/CA7/optee-os-3.19.0-r2/optee-os-stm32mp-3.19.0-stm32mp-r2/lib/libutils/isoc/bget_malloc.c:900
    363e:	4423      	add	r3, r4
    3640:	64eb      	str	r3, [r5, #76]	@ 0x4c
/home/lubuntu/Dokument/GitHub/STM32-Computer/Firmware/STM32-Computer-Firmware/CA7/optee-os-3.19.0-r2/optee-os-stm32mp-3.19.0-stm32mp-r2/lib/libutils/isoc/bget_malloc.c:902
    3642:	622f      	str	r7, [r5, #32]
malloc_unlock():
/home/lubuntu/Dokument/GitHub/STM32-Computer/Firmware/STM32-Computer-Firmware/CA7/optee-os-3.19.0-r2/optee-os-stm32mp-3.19.0-stm32mp-r2/lib/libutils/isoc/bget_malloc.c:167
    3644:	e7ca      	b.n	35dc <gen_malloc_add_pool+0x30>
    3646:	bf00      	nop
    3648:	000020ab 	.word	0x000020ab
    364c:	000020dd 	.word	0x000020dd
    3650:	0000209f 	.word	0x0000209f
    3654:	000020b9 	.word	0x000020b9
    3658:	0000208f 	.word	0x0000208f
    365c:	00001dae 	.word	0x00001dae
    3660:	000010ac 	.word	0x000010ac

00003664 <malloc>:
malloc():
/home/lubuntu/Dokument/GitHub/STM32-Computer/Firmware/STM32-Computer-Firmware/CA7/optee-os-3.19.0-r2/optee-os-stm32mp-3.19.0-stm32mp-r2/lib/libutils/isoc/bget_malloc.c:789
    3664:	4b03      	ldr	r3, [pc, #12]	@ (3674 <malloc+0x10>)
    3666:	2100      	movs	r1, #0
/home/lubuntu/Dokument/GitHub/STM32-Computer/Firmware/STM32-Computer-Firmware/CA7/optee-os-3.19.0-r2/optee-os-stm32mp-3.19.0-stm32mp-r2/lib/libutils/isoc/bget_malloc.c:785
    3668:	4602      	mov	r2, r0
/home/lubuntu/Dokument/GitHub/STM32-Computer/Firmware/STM32-Computer-Firmware/CA7/optee-os-3.19.0-r2/optee-os-stm32mp-3.19.0-stm32mp-r2/lib/libutils/isoc/bget_malloc.c:789
    366a:	4608      	mov	r0, r1
    366c:	447b      	add	r3, pc
    366e:	f000 bdb4 	b.w	41da <raw_malloc>
    3672:	bf00      	nop
    3674:	00002a40 	.word	0x00002a40

00003678 <calloc>:
calloc():
/home/lubuntu/Dokument/GitHub/STM32-Computer/Firmware/STM32-Computer-Firmware/CA7/optee-os-3.19.0-r2/optee-os-stm32mp-3.19.0-stm32mp-r2/lib/libutils/isoc/bget_malloc.c:803
    3678:	b507      	push	{r0, r1, r2, lr}
    367a:	460b      	mov	r3, r1
/home/lubuntu/Dokument/GitHub/STM32-Computer/Firmware/STM32-Computer-Firmware/CA7/optee-os-3.19.0-r2/optee-os-stm32mp-3.19.0-stm32mp-r2/lib/libutils/isoc/bget_malloc.c:807
    367c:	4905      	ldr	r1, [pc, #20]	@ (3694 <calloc+0x1c>)
/home/lubuntu/Dokument/GitHub/STM32-Computer/Firmware/STM32-Computer-Firmware/CA7/optee-os-3.19.0-r2/optee-os-stm32mp-3.19.0-stm32mp-r2/lib/libutils/isoc/bget_malloc.c:803
    367e:	4602      	mov	r2, r0
/home/lubuntu/Dokument/GitHub/STM32-Computer/Firmware/STM32-Computer-Firmware/CA7/optee-os-3.19.0-r2/optee-os-stm32mp-3.19.0-stm32mp-r2/lib/libutils/isoc/bget_malloc.c:807
    3680:	4479      	add	r1, pc
    3682:	9100      	str	r1, [sp, #0]
    3684:	2100      	movs	r1, #0
    3686:	4608      	mov	r0, r1
    3688:	f000 fdc1 	bl	420e <raw_calloc>
/home/lubuntu/Dokument/GitHub/STM32-Computer/Firmware/STM32-Computer-Firmware/CA7/optee-os-3.19.0-r2/optee-os-stm32mp-3.19.0-stm32mp-r2/lib/libutils/isoc/bget_malloc.c:810
    368c:	b003      	add	sp, #12
    368e:	f85d fb04 	ldr.w	pc, [sp], #4
    3692:	bf00      	nop
    3694:	00002a2c 	.word	0x00002a2c

00003698 <realloc>:
realloc():
/home/lubuntu/Dokument/GitHub/STM32-Computer/Firmware/STM32-Computer-Firmware/CA7/optee-os-3.19.0-r2/optee-os-stm32mp-3.19.0-stm32mp-r2/lib/libutils/isoc/bget_malloc.c:819
    3698:	b507      	push	{r0, r1, r2, lr}
    369a:	460b      	mov	r3, r1
realloc_unlocked():
/home/lubuntu/Dokument/GitHub/STM32-Computer/Firmware/STM32-Computer-Firmware/CA7/optee-os-3.19.0-r2/optee-os-stm32mp-3.19.0-stm32mp-r2/lib/libutils/isoc/bget_malloc.c:815
    369c:	4a04      	ldr	r2, [pc, #16]	@ (36b0 <realloc+0x18>)
    369e:	447a      	add	r2, pc
    36a0:	9200      	str	r2, [sp, #0]
    36a2:	2200      	movs	r2, #0
    36a4:	4611      	mov	r1, r2
    36a6:	f000 fdd1 	bl	424c <raw_realloc>
realloc():
/home/lubuntu/Dokument/GitHub/STM32-Computer/Firmware/STM32-Computer-Firmware/CA7/optee-os-3.19.0-r2/optee-os-stm32mp-3.19.0-stm32mp-r2/lib/libutils/isoc/bget_malloc.c:826
    36aa:	b003      	add	sp, #12
    36ac:	f85d fb04 	ldr.w	pc, [sp], #4
    36b0:	00002a0e 	.word	0x00002a0e

000036b4 <free>:
free_helper():
/home/lubuntu/Dokument/GitHub/STM32-Computer/Firmware/STM32-Computer-Firmware/CA7/optee-os-3.19.0-r2/optee-os-stm32mp-3.19.0-stm32mp-r2/lib/libutils/isoc/bget_malloc.c:798
    36b4:	4902      	ldr	r1, [pc, #8]	@ (36c0 <free+0xc>)
    36b6:	2200      	movs	r2, #0
    36b8:	4479      	add	r1, pc
    36ba:	f000 bda4 	b.w	4206 <raw_free>
    36be:	bf00      	nop
    36c0:	000029f4 	.word	0x000029f4

000036c4 <malloc_add_pool>:
malloc_add_pool():
/home/lubuntu/Dokument/GitHub/STM32-Computer/Firmware/STM32-Computer-Firmware/CA7/optee-os-3.19.0-r2/optee-os-stm32mp-3.19.0-stm32mp-r2/lib/libutils/isoc/bget_malloc.c:998
    36c4:	460a      	mov	r2, r1
/home/lubuntu/Dokument/GitHub/STM32-Computer/Firmware/STM32-Computer-Firmware/CA7/optee-os-3.19.0-r2/optee-os-stm32mp-3.19.0-stm32mp-r2/lib/libutils/isoc/bget_malloc.c:999
    36c6:	4601      	mov	r1, r0
    36c8:	4801      	ldr	r0, [pc, #4]	@ (36d0 <malloc_add_pool+0xc>)
    36ca:	4478      	add	r0, pc
    36cc:	f7ff bf6e 	b.w	35ac <gen_malloc_add_pool>
    36d0:	000029e2 	.word	0x000029e2

000036d4 <memcpy>:
memcpy():
/home/lubuntu/Dokument/GitHub/STM32-Computer/Firmware/STM32-Computer-Firmware/CA7/optee-os-3.19.0-r2/optee-os-stm32mp-3.19.0-stm32mp-r2/lib/libutils/isoc/newlib/memcpy.c:106
    36d4:	2a0f      	cmp	r2, #15
    36d6:	d912      	bls.n	36fe <memcpy+0x2a>
    36d8:	ea40 0301 	orr.w	r3, r0, r1
    36dc:	079b      	lsls	r3, r3, #30
/home/lubuntu/Dokument/GitHub/STM32-Computer/Firmware/STM32-Computer-Firmware/CA7/optee-os-3.19.0-r2/optee-os-stm32mp-3.19.0-stm32mp-r2/lib/libutils/isoc/newlib/memcpy.c:130
    36de:	bf1c      	itt	ne
    36e0:	f102 3cff 	addne.w	ip, r2, #4294967295	@ 0xffffffff
/home/lubuntu/Dokument/GitHub/STM32-Computer/Firmware/STM32-Computer-Firmware/CA7/optee-os-3.19.0-r2/optee-os-stm32mp-3.19.0-stm32mp-r2/lib/libutils/isoc/newlib/memcpy.c:99
    36e4:	4603      	movne	r3, r0
/home/lubuntu/Dokument/GitHub/STM32-Computer/Firmware/STM32-Computer-Firmware/CA7/optee-os-3.19.0-r2/optee-os-stm32mp-3.19.0-stm32mp-r2/lib/libutils/isoc/newlib/memcpy.c:106
    36e6:	d010      	beq.n	370a <memcpy+0x36>
    36e8:	f10c 0c01 	add.w	ip, ip, #1
    36ec:	3b01      	subs	r3, #1
    36ee:	448c      	add	ip, r1
/home/lubuntu/Dokument/GitHub/STM32-Computer/Firmware/STM32-Computer-Firmware/CA7/optee-os-3.19.0-r2/optee-os-stm32mp-3.19.0-stm32mp-r2/lib/libutils/isoc/newlib/memcpy.c:131
    36f0:	f811 2b01 	ldrb.w	r2, [r1], #1
/home/lubuntu/Dokument/GitHub/STM32-Computer/Firmware/STM32-Computer-Firmware/CA7/optee-os-3.19.0-r2/optee-os-stm32mp-3.19.0-stm32mp-r2/lib/libutils/isoc/newlib/memcpy.c:130
    36f4:	4561      	cmp	r1, ip
/home/lubuntu/Dokument/GitHub/STM32-Computer/Firmware/STM32-Computer-Firmware/CA7/optee-os-3.19.0-r2/optee-os-stm32mp-3.19.0-stm32mp-r2/lib/libutils/isoc/newlib/memcpy.c:131
    36f6:	f803 2f01 	strb.w	r2, [r3, #1]!
/home/lubuntu/Dokument/GitHub/STM32-Computer/Firmware/STM32-Computer-Firmware/CA7/optee-os-3.19.0-r2/optee-os-stm32mp-3.19.0-stm32mp-r2/lib/libutils/isoc/newlib/memcpy.c:130
    36fa:	d1f9      	bne.n	36f0 <memcpy+0x1c>
    36fc:	4770      	bx	lr
/home/lubuntu/Dokument/GitHub/STM32-Computer/Firmware/STM32-Computer-Firmware/CA7/optee-os-3.19.0-r2/optee-os-stm32mp-3.19.0-stm32mp-r2/lib/libutils/isoc/newlib/memcpy.c:99
    36fe:	4603      	mov	r3, r0
/home/lubuntu/Dokument/GitHub/STM32-Computer/Firmware/STM32-Computer-Firmware/CA7/optee-os-3.19.0-r2/optee-os-stm32mp-3.19.0-stm32mp-r2/lib/libutils/isoc/newlib/memcpy.c:130
    3700:	f102 3cff 	add.w	ip, r2, #4294967295	@ 0xffffffff
    3704:	2a00      	cmp	r2, #0
    3706:	d1ef      	bne.n	36e8 <memcpy+0x14>
/home/lubuntu/Dokument/GitHub/STM32-Computer/Firmware/STM32-Computer-Firmware/CA7/optee-os-3.19.0-r2/optee-os-stm32mp-3.19.0-stm32mp-r2/lib/libutils/isoc/newlib/memcpy.c:135
    3708:	4770      	bx	lr
    370a:	f1a2 0310 	sub.w	r3, r2, #16
    370e:	f101 0c20 	add.w	ip, r1, #32
/home/lubuntu/Dokument/GitHub/STM32-Computer/Firmware/STM32-Computer-Firmware/CA7/optee-os-3.19.0-r2/optee-os-stm32mp-3.19.0-stm32mp-r2/lib/libutils/isoc/newlib/memcpy.c:87
    3712:	b570      	push	{r4, r5, r6, lr}
    3714:	f101 0410 	add.w	r4, r1, #16
    3718:	f023 060f 	bic.w	r6, r3, #15
    371c:	f100 0510 	add.w	r5, r0, #16
    3720:	44b4      	add	ip, r6
    3722:	ea4f 1e13 	mov.w	lr, r3, lsr #4
/home/lubuntu/Dokument/GitHub/STM32-Computer/Firmware/STM32-Computer-Firmware/CA7/optee-os-3.19.0-r2/optee-os-stm32mp-3.19.0-stm32mp-r2/lib/libutils/isoc/newlib/memcpy.c:112
    3726:	f854 3c10 	ldr.w	r3, [r4, #-16]
/home/lubuntu/Dokument/GitHub/STM32-Computer/Firmware/STM32-Computer-Firmware/CA7/optee-os-3.19.0-r2/optee-os-stm32mp-3.19.0-stm32mp-r2/lib/libutils/isoc/newlib/memcpy.c:111
    372a:	3410      	adds	r4, #16
    372c:	4564      	cmp	r4, ip
    372e:	f105 0510 	add.w	r5, r5, #16
/home/lubuntu/Dokument/GitHub/STM32-Computer/Firmware/STM32-Computer-Firmware/CA7/optee-os-3.19.0-r2/optee-os-stm32mp-3.19.0-stm32mp-r2/lib/libutils/isoc/newlib/memcpy.c:112
    3732:	f845 3c20 	str.w	r3, [r5, #-32]
/home/lubuntu/Dokument/GitHub/STM32-Computer/Firmware/STM32-Computer-Firmware/CA7/optee-os-3.19.0-r2/optee-os-stm32mp-3.19.0-stm32mp-r2/lib/libutils/isoc/newlib/memcpy.c:113
    3736:	f854 3c1c 	ldr.w	r3, [r4, #-28]
    373a:	f845 3c1c 	str.w	r3, [r5, #-28]
/home/lubuntu/Dokument/GitHub/STM32-Computer/Firmware/STM32-Computer-Firmware/CA7/optee-os-3.19.0-r2/optee-os-stm32mp-3.19.0-stm32mp-r2/lib/libutils/isoc/newlib/memcpy.c:114
    373e:	f854 3c18 	ldr.w	r3, [r4, #-24]
    3742:	f845 3c18 	str.w	r3, [r5, #-24]
/home/lubuntu/Dokument/GitHub/STM32-Computer/Firmware/STM32-Computer-Firmware/CA7/optee-os-3.19.0-r2/optee-os-stm32mp-3.19.0-stm32mp-r2/lib/libutils/isoc/newlib/memcpy.c:115
    3746:	f854 3c14 	ldr.w	r3, [r4, #-20]
    374a:	f845 3c14 	str.w	r3, [r5, #-20]
/home/lubuntu/Dokument/GitHub/STM32-Computer/Firmware/STM32-Computer-Firmware/CA7/optee-os-3.19.0-r2/optee-os-stm32mp-3.19.0-stm32mp-r2/lib/libutils/isoc/newlib/memcpy.c:111
    374e:	d1ea      	bne.n	3726 <memcpy+0x52>
    3750:	f10e 0301 	add.w	r3, lr, #1
/home/lubuntu/Dokument/GitHub/STM32-Computer/Firmware/STM32-Computer-Firmware/CA7/optee-os-3.19.0-r2/optee-os-stm32mp-3.19.0-stm32mp-r2/lib/libutils/isoc/newlib/memcpy.c:120
    3754:	f012 0f0c 	tst.w	r2, #12
/home/lubuntu/Dokument/GitHub/STM32-Computer/Firmware/STM32-Computer-Firmware/CA7/optee-os-3.19.0-r2/optee-os-stm32mp-3.19.0-stm32mp-r2/lib/libutils/isoc/newlib/memcpy.c:116
    3758:	f002 040f 	and.w	r4, r2, #15
    375c:	ea4f 1303 	mov.w	r3, r3, lsl #4
    3760:	bf08      	it	eq
    3762:	4622      	moveq	r2, r4
/home/lubuntu/Dokument/GitHub/STM32-Computer/Firmware/STM32-Computer-Firmware/CA7/optee-os-3.19.0-r2/optee-os-stm32mp-3.19.0-stm32mp-r2/lib/libutils/isoc/newlib/memcpy.c:115
    3764:	4419      	add	r1, r3
    3766:	4403      	add	r3, r0
/home/lubuntu/Dokument/GitHub/STM32-Computer/Firmware/STM32-Computer-Firmware/CA7/optee-os-3.19.0-r2/optee-os-stm32mp-3.19.0-stm32mp-r2/lib/libutils/isoc/newlib/memcpy.c:120
    3768:	d014      	beq.n	3794 <memcpy+0xc0>
    376a:	f1a3 0e04 	sub.w	lr, r3, #4
/home/lubuntu/Dokument/GitHub/STM32-Computer/Firmware/STM32-Computer-Firmware/CA7/optee-os-3.19.0-r2/optee-os-stm32mp-3.19.0-stm32mp-r2/lib/libutils/isoc/newlib/memcpy.c:115
    376e:	460d      	mov	r5, r1
/home/lubuntu/Dokument/GitHub/STM32-Computer/Firmware/STM32-Computer-Firmware/CA7/optee-os-3.19.0-r2/optee-os-stm32mp-3.19.0-stm32mp-r2/lib/libutils/isoc/newlib/memcpy.c:121
    3770:	f855 6b04 	ldr.w	r6, [r5], #4
    3774:	eba4 0c05 	sub.w	ip, r4, r5
/home/lubuntu/Dokument/GitHub/STM32-Computer/Firmware/STM32-Computer-Firmware/CA7/optee-os-3.19.0-r2/optee-os-stm32mp-3.19.0-stm32mp-r2/lib/libutils/isoc/newlib/memcpy.c:120
    3778:	448c      	add	ip, r1
/home/lubuntu/Dokument/GitHub/STM32-Computer/Firmware/STM32-Computer-Firmware/CA7/optee-os-3.19.0-r2/optee-os-stm32mp-3.19.0-stm32mp-r2/lib/libutils/isoc/newlib/memcpy.c:121
    377a:	f84e 6f04 	str.w	r6, [lr, #4]!
/home/lubuntu/Dokument/GitHub/STM32-Computer/Firmware/STM32-Computer-Firmware/CA7/optee-os-3.19.0-r2/optee-os-stm32mp-3.19.0-stm32mp-r2/lib/libutils/isoc/newlib/memcpy.c:120
    377e:	f1bc 0f03 	cmp.w	ip, #3
    3782:	d8f5      	bhi.n	3770 <memcpy+0x9c>
    3784:	3c04      	subs	r4, #4
/home/lubuntu/Dokument/GitHub/STM32-Computer/Firmware/STM32-Computer-Firmware/CA7/optee-os-3.19.0-r2/optee-os-stm32mp-3.19.0-stm32mp-r2/lib/libutils/isoc/newlib/memcpy.c:122
    3786:	f002 0203 	and.w	r2, r2, #3
    378a:	f024 0403 	bic.w	r4, r4, #3
    378e:	3404      	adds	r4, #4
/home/lubuntu/Dokument/GitHub/STM32-Computer/Firmware/STM32-Computer-Firmware/CA7/optee-os-3.19.0-r2/optee-os-stm32mp-3.19.0-stm32mp-r2/lib/libutils/isoc/newlib/memcpy.c:121
    3790:	4423      	add	r3, r4
    3792:	4421      	add	r1, r4
/home/lubuntu/Dokument/GitHub/STM32-Computer/Firmware/STM32-Computer-Firmware/CA7/optee-os-3.19.0-r2/optee-os-stm32mp-3.19.0-stm32mp-r2/lib/libutils/isoc/newlib/memcpy.c:130
    3794:	f102 3cff 	add.w	ip, r2, #4294967295	@ 0xffffffff
    3798:	3b01      	subs	r3, #1
    379a:	f10c 0c01 	add.w	ip, ip, #1
    379e:	448c      	add	ip, r1
    37a0:	b12a      	cbz	r2, 37ae <memcpy+0xda>
/home/lubuntu/Dokument/GitHub/STM32-Computer/Firmware/STM32-Computer-Firmware/CA7/optee-os-3.19.0-r2/optee-os-stm32mp-3.19.0-stm32mp-r2/lib/libutils/isoc/newlib/memcpy.c:131
    37a2:	f811 2b01 	ldrb.w	r2, [r1], #1
/home/lubuntu/Dokument/GitHub/STM32-Computer/Firmware/STM32-Computer-Firmware/CA7/optee-os-3.19.0-r2/optee-os-stm32mp-3.19.0-stm32mp-r2/lib/libutils/isoc/newlib/memcpy.c:130
    37a6:	4561      	cmp	r1, ip
/home/lubuntu/Dokument/GitHub/STM32-Computer/Firmware/STM32-Computer-Firmware/CA7/optee-os-3.19.0-r2/optee-os-stm32mp-3.19.0-stm32mp-r2/lib/libutils/isoc/newlib/memcpy.c:131
    37a8:	f803 2f01 	strb.w	r2, [r3, #1]!
/home/lubuntu/Dokument/GitHub/STM32-Computer/Firmware/STM32-Computer-Firmware/CA7/optee-os-3.19.0-r2/optee-os-stm32mp-3.19.0-stm32mp-r2/lib/libutils/isoc/newlib/memcpy.c:130
    37ac:	d1f9      	bne.n	37a2 <memcpy+0xce>
/home/lubuntu/Dokument/GitHub/STM32-Computer/Firmware/STM32-Computer-Firmware/CA7/optee-os-3.19.0-r2/optee-os-stm32mp-3.19.0-stm32mp-r2/lib/libutils/isoc/newlib/memcpy.c:135
    37ae:	bd70      	pop	{r4, r5, r6, pc}

000037b0 <__aeabi_uldivmod>:
__aeabi_uldivmod():
/home/lubuntu/Dokument/GitHub/STM32-Computer/Firmware/STM32-Computer-Firmware/CA7/optee-os-3.19.0-r2/optee-os-stm32mp-3.19.0-stm32mp-r2/lib/libutils/isoc/arch/arm/arm32_aeabi_ldivmod_a32.S:29
    37b0:	e92d5000 	push	{ip, lr}
/home/lubuntu/Dokument/GitHub/STM32-Computer/Firmware/STM32-Computer-Firmware/CA7/optee-os-3.19.0-r2/optee-os-stm32mp-3.19.0-stm32mp-r2/lib/libutils/isoc/arch/arm/arm32_aeabi_ldivmod_a32.S:31
    37b4:	e92d000f 	push	{r0, r1, r2, r3}
/home/lubuntu/Dokument/GitHub/STM32-Computer/Firmware/STM32-Computer-Firmware/CA7/optee-os-3.19.0-r2/optee-os-stm32mp-3.19.0-stm32mp-r2/lib/libutils/isoc/arch/arm/arm32_aeabi_ldivmod_a32.S:33
    37b8:	e1a0000d 	mov	r0, sp
/home/lubuntu/Dokument/GitHub/STM32-Computer/Firmware/STM32-Computer-Firmware/CA7/optee-os-3.19.0-r2/optee-os-stm32mp-3.19.0-stm32mp-r2/lib/libutils/isoc/arch/arm/arm32_aeabi_ldivmod_a32.S:34
    37bc:	fa000317 	blx	4420 <__ul_divmod>
/home/lubuntu/Dokument/GitHub/STM32-Computer/Firmware/STM32-Computer-Firmware/CA7/optee-os-3.19.0-r2/optee-os-stm32mp-3.19.0-stm32mp-r2/lib/libutils/isoc/arch/arm/arm32_aeabi_ldivmod_a32.S:35
    37c0:	e8bd000f 	pop	{r0, r1, r2, r3}
/home/lubuntu/Dokument/GitHub/STM32-Computer/Firmware/STM32-Computer-Firmware/CA7/optee-os-3.19.0-r2/optee-os-stm32mp-3.19.0-stm32mp-r2/lib/libutils/isoc/arch/arm/arm32_aeabi_ldivmod_a32.S:36
    37c4:	e8bd9000 	pop	{ip, pc}

000037c8 <kprintf.constprop.0>:
kprintf():
/home/lubuntu/Dokument/GitHub/STM32-Computer/Firmware/STM32-Computer-Firmware/CA7/optee-os-3.19.0-r2/optee-os-stm32mp-3.19.0-stm32mp-r2/lib/libutils/ext/snprintk.c:242
    37c8:	e92d 4ff0 	stmdb	sp!, {r4, r5, r6, r7, r8, r9, sl, fp, lr}
    37cc:	b09d      	sub	sp, #116	@ 0x74
    37ce:	4614      	mov	r4, r2
    37d0:	4680      	mov	r8, r0
    37d2:	f89d 2098 	ldrb.w	r2, [sp, #152]	@ 0x98
    37d6:	461e      	mov	r6, r3
/home/lubuntu/Dokument/GitHub/STM32-Computer/Firmware/STM32-Computer-Firmware/CA7/optee-os-3.19.0-r2/optee-os-stm32mp-3.19.0-stm32mp-r2/lib/libutils/ext/snprintk.c:264
    37d8:	910d      	str	r1, [sp, #52]	@ 0x34
/home/lubuntu/Dokument/GitHub/STM32-Computer/Firmware/STM32-Computer-Firmware/CA7/optee-os-3.19.0-r2/optee-os-stm32mp-3.19.0-stm32mp-r2/lib/libutils/ext/snprintk.c:242
    37da:	9211      	str	r2, [sp, #68]	@ 0x44
/home/lubuntu/Dokument/GitHub/STM32-Computer/Firmware/STM32-Computer-Firmware/CA7/optee-os-3.19.0-r2/optee-os-stm32mp-3.19.0-stm32mp-r2/lib/libutils/ext/snprintk.c:264
    37dc:	b181      	cbz	r1, 3800 <kprintf.constprop.0+0x38>
/home/lubuntu/Dokument/GitHub/STM32-Computer/Firmware/STM32-Computer-Firmware/CA7/optee-os-3.19.0-r2/optee-os-stm32mp-3.19.0-stm32mp-r2/lib/libutils/ext/snprintk.c:265
    37de:	680b      	ldr	r3, [r1, #0]
/home/lubuntu/Dokument/GitHub/STM32-Computer/Firmware/STM32-Computer-Firmware/CA7/optee-os-3.19.0-r2/optee-os-stm32mp-3.19.0-stm32mp-r2/lib/libutils/ext/snprintk.c:267
    37e0:	930e      	str	r3, [sp, #56]	@ 0x38
/home/lubuntu/Dokument/GitHub/STM32-Computer/Firmware/STM32-Computer-Firmware/CA7/optee-os-3.19.0-r2/optee-os-stm32mp-3.19.0-stm32mp-r2/lib/libutils/ext/snprintk.c:275
    37e2:	2300      	movs	r3, #0
    37e4:	9310      	str	r3, [sp, #64]	@ 0x40
/home/lubuntu/Dokument/GitHub/STM32-Computer/Firmware/STM32-Computer-Firmware/CA7/optee-os-3.19.0-r2/optee-os-stm32mp-3.19.0-stm32mp-r2/lib/libutils/ext/snprintk.c:273
    37e6:	469b      	mov	fp, r3
/home/lubuntu/Dokument/GitHub/STM32-Computer/Firmware/STM32-Computer-Firmware/CA7/optee-os-3.19.0-r2/optee-os-stm32mp-3.19.0-stm32mp-r2/lib/libutils/ext/snprintk.c:281
    37e8:	f898 3000 	ldrb.w	r3, [r8]
    37ec:	2b25      	cmp	r3, #37	@ 0x25
    37ee:	d016      	beq.n	381e <kprintf.constprop.0+0x56>
    37f0:	b943      	cbnz	r3, 3804 <kprintf.constprop.0+0x3c>
/home/lubuntu/Dokument/GitHub/STM32-Computer/Firmware/STM32-Computer-Firmware/CA7/optee-os-3.19.0-r2/optee-os-stm32mp-3.19.0-stm32mp-r2/lib/libutils/ext/snprintk.c:619
    37f2:	9b0d      	ldr	r3, [sp, #52]	@ 0x34
    37f4:	b103      	cbz	r3, 37f8 <kprintf.constprop.0+0x30>
/home/lubuntu/Dokument/GitHub/STM32-Computer/Firmware/STM32-Computer-Firmware/CA7/optee-os-3.19.0-r2/optee-os-stm32mp-3.19.0-stm32mp-r2/lib/libutils/ext/snprintk.c:620
    37f6:	601c      	str	r4, [r3, #0]
/home/lubuntu/Dokument/GitHub/STM32-Computer/Firmware/STM32-Computer-Firmware/CA7/optee-os-3.19.0-r2/optee-os-stm32mp-3.19.0-stm32mp-r2/lib/libutils/ext/snprintk.c:622
    37f8:	4658      	mov	r0, fp
    37fa:	b01d      	add	sp, #116	@ 0x74
    37fc:	e8bd 8ff0 	ldmia.w	sp!, {r4, r5, r6, r7, r8, r9, sl, fp, pc}
/home/lubuntu/Dokument/GitHub/STM32-Computer/Firmware/STM32-Computer-Firmware/CA7/optee-os-3.19.0-r2/optee-os-stm32mp-3.19.0-stm32mp-r2/lib/libutils/ext/snprintk.c:267
    3800:	9b0d      	ldr	r3, [sp, #52]	@ 0x34
    3802:	e7ed      	b.n	37e0 <kprintf.constprop.0+0x18>
/home/lubuntu/Dokument/GitHub/STM32-Computer/Firmware/STM32-Computer-Firmware/CA7/optee-os-3.19.0-r2/optee-os-stm32mp-3.19.0-stm32mp-r2/lib/libutils/ext/snprintk.c:282
    3804:	f10b 0b01 	add.w	fp, fp, #1
/home/lubuntu/Dokument/GitHub/STM32-Computer/Firmware/STM32-Computer-Firmware/CA7/optee-os-3.19.0-r2/optee-os-stm32mp-3.19.0-stm32mp-r2/lib/libutils/ext/snprintk.c:283
    3808:	b134      	cbz	r4, 3818 <kprintf.constprop.0+0x50>
    380a:	9a0d      	ldr	r2, [sp, #52]	@ 0x34
    380c:	b112      	cbz	r2, 3814 <kprintf.constprop.0+0x4c>
    380e:	9a0e      	ldr	r2, [sp, #56]	@ 0x38
    3810:	4294      	cmp	r4, r2
    3812:	d201      	bcs.n	3818 <kprintf.constprop.0+0x50>
    3814:	f804 3b01 	strb.w	r3, [r4], #1
/home/lubuntu/Dokument/GitHub/STM32-Computer/Firmware/STM32-Computer-Firmware/CA7/optee-os-3.19.0-r2/optee-os-stm32mp-3.19.0-stm32mp-r2/lib/libutils/ext/snprintk.c:281
    3818:	f108 0801 	add.w	r8, r8, #1
    381c:	e7e4      	b.n	37e8 <kprintf.constprop.0+0x20>
/home/lubuntu/Dokument/GitHub/STM32-Computer/Firmware/STM32-Computer-Firmware/CA7/optee-os-3.19.0-r2/optee-os-stm32mp-3.19.0-stm32mp-r2/lib/libutils/ext/snprintk.c:294
    381e:	2700      	movs	r7, #0
/home/lubuntu/Dokument/GitHub/STM32-Computer/Firmware/STM32-Computer-Firmware/CA7/optee-os-3.19.0-r2/optee-os-stm32mp-3.19.0-stm32mp-r2/lib/libutils/ext/snprintk.c:288
    3820:	f108 0801 	add.w	r8, r8, #1
/home/lubuntu/Dokument/GitHub/STM32-Computer/Firmware/STM32-Computer-Firmware/CA7/optee-os-3.19.0-r2/optee-os-stm32mp-3.19.0-stm32mp-r2/lib/libutils/ext/snprintk.c:292
    3824:	970c      	str	r7, [sp, #48]	@ 0x30
/home/lubuntu/Dokument/GitHub/STM32-Computer/Firmware/STM32-Computer-Firmware/CA7/optee-os-3.19.0-r2/optee-os-stm32mp-3.19.0-stm32mp-r2/lib/libutils/ext/snprintk.c:288
    3826:	4633      	mov	r3, r6
/home/lubuntu/Dokument/GitHub/STM32-Computer/Firmware/STM32-Computer-Firmware/CA7/optee-os-3.19.0-r2/optee-os-stm32mp-3.19.0-stm32mp-r2/lib/libutils/ext/snprintk.c:293
    3828:	f04f 3aff 	mov.w	sl, #4294967295	@ 0xffffffff
/home/lubuntu/Dokument/GitHub/STM32-Computer/Firmware/STM32-Computer-Firmware/CA7/optee-os-3.19.0-r2/optee-os-stm32mp-3.19.0-stm32mp-r2/lib/libutils/ext/snprintk.c:290
    382c:	463d      	mov	r5, r7
/home/lubuntu/Dokument/GitHub/STM32-Computer/Firmware/STM32-Computer-Firmware/CA7/optee-os-3.19.0-r2/optee-os-stm32mp-3.19.0-stm32mp-r2/lib/libutils/ext/snprintk.c:296
    382e:	f818 2b01 	ldrb.w	r2, [r8], #1
    3832:	920b      	str	r2, [sp, #44]	@ 0x2c
/home/lubuntu/Dokument/GitHub/STM32-Computer/Firmware/STM32-Computer-Firmware/CA7/optee-os-3.19.0-r2/optee-os-stm32mp-3.19.0-stm32mp-r2/lib/libutils/ext/snprintk.c:297
    3834:	9a0b      	ldr	r2, [sp, #44]	@ 0x2c
    3836:	2a39      	cmp	r2, #57	@ 0x39
    3838:	dc71      	bgt.n	391e <kprintf.constprop.0+0x156>
    383a:	2a1f      	cmp	r2, #31
    383c:	f340 828c 	ble.w	3d58 <kprintf.constprop.0+0x590>
    3840:	9a0b      	ldr	r2, [sp, #44]	@ 0x2c
    3842:	3a20      	subs	r2, #32
    3844:	2a19      	cmp	r2, #25
    3846:	f200 8287 	bhi.w	3d58 <kprintf.constprop.0+0x590>
    384a:	e8df f012 	tbh	[pc, r2, lsl #1]
    384e:	0071      	.short	0x0071
    3850:	02850285 	.word	0x02850285
    3854:	02850075 	.word	0x02850075
    3858:	02850285 	.word	0x02850285
    385c:	02850285 	.word	0x02850285
    3860:	00780285 	.word	0x00780285
    3864:	0285001a 	.word	0x0285001a
    3868:	00830080 	.word	0x00830080
    386c:	009b0285 	.word	0x009b0285
    3870:	009e009e 	.word	0x009e009e
    3874:	009e009e 	.word	0x009e009e
    3878:	009e009e 	.word	0x009e009e
    387c:	009e009e 	.word	0x009e009e
    3880:	009e      	.short	0x009e
    3882:	272b      	movs	r7, #43	@ 0x2b
    3884:	e7d3      	b.n	382e <kprintf.constprop.0+0x66>
    3886:	2a36      	cmp	r2, #54	@ 0x36
    3888:	f200 8266 	bhi.w	3d58 <kprintf.constprop.0+0x590>
    388c:	e8df f012 	tbh	[pc, r2, lsl #1]
    3890:	026400b1 	.word	0x026400b1
    3894:	02640264 	.word	0x02640264
    3898:	02640264 	.word	0x02640264
    389c:	02640264 	.word	0x02640264
    38a0:	02640264 	.word	0x02640264
    38a4:	013d0264 	.word	0x013d0264
    38a8:	02640264 	.word	0x02640264
    38ac:	02640264 	.word	0x02640264
    38b0:	01d80264 	.word	0x01d80264
    38b4:	02640264 	.word	0x02640264
    38b8:	0264021d 	.word	0x0264021d
    38bc:	02640264 	.word	0x02640264
    38c0:	02640264 	.word	0x02640264
    38c4:	02640264 	.word	0x02640264
    38c8:	02640264 	.word	0x02640264
    38cc:	00a50264 	.word	0x00a50264
    38d0:	026400b3 	.word	0x026400b3
    38d4:	02640264 	.word	0x02640264
    38d8:	00b3008d 	.word	0x00b3008d
    38dc:	02640090 	.word	0x02640090
    38e0:	02640093 	.word	0x02640093
    38e4:	013f0122 	.word	0x013f0122
    38e8:	0099016e 	.word	0x0099016e
    38ec:	01ba0264 	.word	0x01ba0264
    38f0:	01da009f 	.word	0x01da009f
    38f4:	02640264 	.word	0x02640264
    38f8:	02640037 	.word	0x02640037
    38fc:	00a2      	.short	0x00a2
/home/lubuntu/Dokument/GitHub/STM32-Computer/Firmware/STM32-Computer-Firmware/CA7/optee-os-3.19.0-r2/optee-os-stm32mp-3.19.0-stm32mp-r2/lib/libutils/ext/snprintk.c:480
    38fe:	f8df 2590 	ldr.w	r2, [pc, #1424]	@ 3e90 <kprintf.constprop.0+0x6c8>
    3902:	447a      	add	r2, pc
/home/lubuntu/Dokument/GitHub/STM32-Computer/Firmware/STM32-Computer-Firmware/CA7/optee-os-3.19.0-r2/optee-os-stm32mp-3.19.0-stm32mp-r2/lib/libutils/ext/snprintk.c:297
    3904:	9210      	str	r2, [sp, #64]	@ 0x40
/home/lubuntu/Dokument/GitHub/STM32-Computer/Firmware/STM32-Computer-Firmware/CA7/optee-os-3.19.0-r2/optee-os-stm32mp-3.19.0-stm32mp-r2/lib/libutils/ext/snprintk.c:481
    3906:	f015 0280 	ands.w	r2, r5, #128	@ 0x80
    390a:	f000 81e1 	beq.w	3cd0 <kprintf.constprop.0+0x508>
    390e:	3307      	adds	r3, #7
    3910:	f023 0307 	bic.w	r3, r3, #7
    3914:	461e      	mov	r6, r3
    3916:	6859      	ldr	r1, [r3, #4]
    3918:	f856 0b08 	ldr.w	r0, [r6], #8
    391c:	e1df      	b.n	3cde <kprintf.constprop.0+0x516>
/home/lubuntu/Dokument/GitHub/STM32-Computer/Firmware/STM32-Computer-Firmware/CA7/optee-os-3.19.0-r2/optee-os-stm32mp-3.19.0-stm32mp-r2/lib/libutils/ext/snprintk.c:297
    391e:	9a0b      	ldr	r2, [sp, #44]	@ 0x2c
    3920:	3a44      	subs	r2, #68	@ 0x44
    3922:	2a36      	cmp	r2, #54	@ 0x36
    3924:	d9af      	bls.n	3886 <kprintf.constprop.0+0xbe>
/home/lubuntu/Dokument/GitHub/STM32-Computer/Firmware/STM32-Computer-Firmware/CA7/optee-os-3.19.0-r2/optee-os-stm32mp-3.19.0-stm32mp-r2/lib/libutils/ext/snprintk.c:551
    3926:	9a0b      	ldr	r2, [sp, #44]	@ 0x2c
/home/lubuntu/Dokument/GitHub/STM32-Computer/Firmware/STM32-Computer-Firmware/CA7/optee-os-3.19.0-r2/optee-os-stm32mp-3.19.0-stm32mp-r2/lib/libutils/ext/snprintk.c:554
    3928:	461e      	mov	r6, r3
/home/lubuntu/Dokument/GitHub/STM32-Computer/Firmware/STM32-Computer-Firmware/CA7/optee-os-3.19.0-r2/optee-os-stm32mp-3.19.0-stm32mp-r2/lib/libutils/ext/snprintk.c:551
    392a:	f88d 2048 	strb.w	r2, [sp, #72]	@ 0x48
/home/lubuntu/Dokument/GitHub/STM32-Computer/Firmware/STM32-Computer-Firmware/CA7/optee-os-3.19.0-r2/optee-os-stm32mp-3.19.0-stm32mp-r2/lib/libutils/ext/snprintk.c:554
    392e:	e059      	b.n	39e4 <kprintf.constprop.0+0x21c>
/home/lubuntu/Dokument/GitHub/STM32-Computer/Firmware/STM32-Computer-Firmware/CA7/optee-os-3.19.0-r2/optee-os-stm32mp-3.19.0-stm32mp-r2/lib/libutils/ext/snprintk.c:305
    3930:	2f00      	cmp	r7, #0
    3932:	bf08      	it	eq
    3934:	2720      	moveq	r7, #32
    3936:	e77a      	b.n	382e <kprintf.constprop.0+0x66>
/home/lubuntu/Dokument/GitHub/STM32-Computer/Firmware/STM32-Computer-Firmware/CA7/optee-os-3.19.0-r2/optee-os-stm32mp-3.19.0-stm32mp-r2/lib/libutils/ext/snprintk.c:308
    3938:	f045 0501 	orr.w	r5, r5, #1
/home/lubuntu/Dokument/GitHub/STM32-Computer/Firmware/STM32-Computer-Firmware/CA7/optee-os-3.19.0-r2/optee-os-stm32mp-3.19.0-stm32mp-r2/lib/libutils/ext/snprintk.c:309
    393c:	e777      	b.n	382e <kprintf.constprop.0+0x66>
/home/lubuntu/Dokument/GitHub/STM32-Computer/Firmware/STM32-Computer-Firmware/CA7/optee-os-3.19.0-r2/optee-os-stm32mp-3.19.0-stm32mp-r2/lib/libutils/ext/snprintk.c:317
    393e:	f853 2b04 	ldr.w	r2, [r3], #4
    3942:	920c      	str	r2, [sp, #48]	@ 0x30
    3944:	2a00      	cmp	r2, #0
    3946:	f6bf af72 	bge.w	382e <kprintf.constprop.0+0x66>
/home/lubuntu/Dokument/GitHub/STM32-Computer/Firmware/STM32-Computer-Firmware/CA7/optee-os-3.19.0-r2/optee-os-stm32mp-3.19.0-stm32mp-r2/lib/libutils/ext/snprintk.c:319
    394a:	4252      	negs	r2, r2
    394c:	920c      	str	r2, [sp, #48]	@ 0x30
/home/lubuntu/Dokument/GitHub/STM32-Computer/Firmware/STM32-Computer-Firmware/CA7/optee-os-3.19.0-r2/optee-os-stm32mp-3.19.0-stm32mp-r2/lib/libutils/ext/snprintk.c:322
    394e:	f045 0504 	orr.w	r5, r5, #4
/home/lubuntu/Dokument/GitHub/STM32-Computer/Firmware/STM32-Computer-Firmware/CA7/optee-os-3.19.0-r2/optee-os-stm32mp-3.19.0-stm32mp-r2/lib/libutils/ext/snprintk.c:323
    3952:	e76c      	b.n	382e <kprintf.constprop.0+0x66>
/home/lubuntu/Dokument/GitHub/STM32-Computer/Firmware/STM32-Computer-Firmware/CA7/optee-os-3.19.0-r2/optee-os-stm32mp-3.19.0-stm32mp-r2/lib/libutils/ext/snprintk.c:328
    3954:	f818 2b01 	ldrb.w	r2, [r8], #1
    3958:	920b      	str	r2, [sp, #44]	@ 0x2c
    395a:	2a2a      	cmp	r2, #42	@ 0x2a
    395c:	d10e      	bne.n	397c <kprintf.constprop.0+0x1b4>
/home/lubuntu/Dokument/GitHub/STM32-Computer/Firmware/STM32-Computer-Firmware/CA7/optee-os-3.19.0-r2/optee-os-stm32mp-3.19.0-stm32mp-r2/lib/libutils/ext/snprintk.c:330
    395e:	f853 2b04 	ldr.w	r2, [r3], #4
    3962:	ea42 7ae2 	orr.w	sl, r2, r2, asr #31
/home/lubuntu/Dokument/GitHub/STM32-Computer/Firmware/STM32-Computer-Firmware/CA7/optee-os-3.19.0-r2/optee-os-stm32mp-3.19.0-stm32mp-r2/lib/libutils/ext/snprintk.c:331
    3966:	e762      	b.n	382e <kprintf.constprop.0+0x66>
/home/lubuntu/Dokument/GitHub/STM32-Computer/Firmware/STM32-Computer-Firmware/CA7/optee-os-3.19.0-r2/optee-os-stm32mp-3.19.0-stm32mp-r2/lib/libutils/ext/snprintk.c:335
    3968:	fb01 2a0a 	mla	sl, r1, sl, r2
/home/lubuntu/Dokument/GitHub/STM32-Computer/Firmware/STM32-Computer-Firmware/CA7/optee-os-3.19.0-r2/optee-os-stm32mp-3.19.0-stm32mp-r2/lib/libutils/ext/snprintk.c:336
    396c:	f818 2b01 	ldrb.w	r2, [r8], #1
    3970:	920b      	str	r2, [sp, #44]	@ 0x2c
/home/lubuntu/Dokument/GitHub/STM32-Computer/Firmware/STM32-Computer-Firmware/CA7/optee-os-3.19.0-r2/optee-os-stm32mp-3.19.0-stm32mp-r2/lib/libutils/ext/snprintk.c:334
    3972:	9a0b      	ldr	r2, [sp, #44]	@ 0x2c
    3974:	3a30      	subs	r2, #48	@ 0x30
    3976:	2a09      	cmp	r2, #9
    3978:	d9f6      	bls.n	3968 <kprintf.constprop.0+0x1a0>
    397a:	e75b      	b.n	3834 <kprintf.constprop.0+0x6c>
/home/lubuntu/Dokument/GitHub/STM32-Computer/Firmware/STM32-Computer-Firmware/CA7/optee-os-3.19.0-r2/optee-os-stm32mp-3.19.0-stm32mp-r2/lib/libutils/ext/snprintk.c:333
    397c:	f04f 0a00 	mov.w	sl, #0
/home/lubuntu/Dokument/GitHub/STM32-Computer/Firmware/STM32-Computer-Firmware/CA7/optee-os-3.19.0-r2/optee-os-stm32mp-3.19.0-stm32mp-r2/lib/libutils/ext/snprintk.c:335
    3980:	210a      	movs	r1, #10
    3982:	e7f6      	b.n	3972 <kprintf.constprop.0+0x1aa>
/home/lubuntu/Dokument/GitHub/STM32-Computer/Firmware/STM32-Computer-Firmware/CA7/optee-os-3.19.0-r2/optee-os-stm32mp-3.19.0-stm32mp-r2/lib/libutils/ext/snprintk.c:346
    3984:	f445 6580 	orr.w	r5, r5, #1024	@ 0x400
/home/lubuntu/Dokument/GitHub/STM32-Computer/Firmware/STM32-Computer-Firmware/CA7/optee-os-3.19.0-r2/optee-os-stm32mp-3.19.0-stm32mp-r2/lib/libutils/ext/snprintk.c:347
    3988:	e751      	b.n	382e <kprintf.constprop.0+0x66>
/home/lubuntu/Dokument/GitHub/STM32-Computer/Firmware/STM32-Computer-Firmware/CA7/optee-os-3.19.0-r2/optee-os-stm32mp-3.19.0-stm32mp-r2/lib/libutils/ext/snprintk.c:352
    398a:	210a      	movs	r1, #10
/home/lubuntu/Dokument/GitHub/STM32-Computer/Firmware/STM32-Computer-Firmware/CA7/optee-os-3.19.0-r2/optee-os-stm32mp-3.19.0-stm32mp-r2/lib/libutils/ext/snprintk.c:297
    398c:	2200      	movs	r2, #0
    398e:	920c      	str	r2, [sp, #48]	@ 0x30
/home/lubuntu/Dokument/GitHub/STM32-Computer/Firmware/STM32-Computer-Firmware/CA7/optee-os-3.19.0-r2/optee-os-stm32mp-3.19.0-stm32mp-r2/lib/libutils/ext/snprintk.c:352
    3990:	9a0b      	ldr	r2, [sp, #44]	@ 0x2c
    3992:	980c      	ldr	r0, [sp, #48]	@ 0x30
    3994:	3a30      	subs	r2, #48	@ 0x30
    3996:	fb01 2200 	mla	r2, r1, r0, r2
    399a:	920c      	str	r2, [sp, #48]	@ 0x30
/home/lubuntu/Dokument/GitHub/STM32-Computer/Firmware/STM32-Computer-Firmware/CA7/optee-os-3.19.0-r2/optee-os-stm32mp-3.19.0-stm32mp-r2/lib/libutils/ext/snprintk.c:353
    399c:	f818 2b01 	ldrb.w	r2, [r8], #1
    39a0:	920b      	str	r2, [sp, #44]	@ 0x2c
/home/lubuntu/Dokument/GitHub/STM32-Computer/Firmware/STM32-Computer-Firmware/CA7/optee-os-3.19.0-r2/optee-os-stm32mp-3.19.0-stm32mp-r2/lib/libutils/ext/snprintk.c:354
    39a2:	3a30      	subs	r2, #48	@ 0x30
    39a4:	2a09      	cmp	r2, #9
    39a6:	d9f3      	bls.n	3990 <kprintf.constprop.0+0x1c8>
    39a8:	e744      	b.n	3834 <kprintf.constprop.0+0x6c>
/home/lubuntu/Dokument/GitHub/STM32-Computer/Firmware/STM32-Computer-Firmware/CA7/optee-os-3.19.0-r2/optee-os-stm32mp-3.19.0-stm32mp-r2/lib/libutils/ext/snprintk.c:358
    39aa:	f045 0540 	orr.w	r5, r5, #64	@ 0x40
/home/lubuntu/Dokument/GitHub/STM32-Computer/Firmware/STM32-Computer-Firmware/CA7/optee-os-3.19.0-r2/optee-os-stm32mp-3.19.0-stm32mp-r2/lib/libutils/ext/snprintk.c:359
    39ae:	e73e      	b.n	382e <kprintf.constprop.0+0x66>
/home/lubuntu/Dokument/GitHub/STM32-Computer/Firmware/STM32-Computer-Firmware/CA7/optee-os-3.19.0-r2/optee-os-stm32mp-3.19.0-stm32mp-r2/lib/libutils/ext/snprintk.c:361
    39b0:	f045 0580 	orr.w	r5, r5, #128	@ 0x80
/home/lubuntu/Dokument/GitHub/STM32-Computer/Firmware/STM32-Computer-Firmware/CA7/optee-os-3.19.0-r2/optee-os-stm32mp-3.19.0-stm32mp-r2/lib/libutils/ext/snprintk.c:362
    39b4:	e73b      	b.n	382e <kprintf.constprop.0+0x66>
/home/lubuntu/Dokument/GitHub/STM32-Computer/Firmware/STM32-Computer-Firmware/CA7/optee-os-3.19.0-r2/optee-os-stm32mp-3.19.0-stm32mp-r2/lib/libutils/ext/snprintk.c:364
    39b6:	f898 2000 	ldrb.w	r2, [r8]
    39ba:	2a6c      	cmp	r2, #108	@ 0x6c
    39bc:	d104      	bne.n	39c8 <kprintf.constprop.0+0x200>
/home/lubuntu/Dokument/GitHub/STM32-Computer/Firmware/STM32-Computer-Firmware/CA7/optee-os-3.19.0-r2/optee-os-stm32mp-3.19.0-stm32mp-r2/lib/libutils/ext/snprintk.c:328
    39be:	f108 0801 	add.w	r8, r8, #1
/home/lubuntu/Dokument/GitHub/STM32-Computer/Firmware/STM32-Computer-Firmware/CA7/optee-os-3.19.0-r2/optee-os-stm32mp-3.19.0-stm32mp-r2/lib/libutils/ext/snprintk.c:372
    39c2:	f045 0520 	orr.w	r5, r5, #32
/home/lubuntu/Dokument/GitHub/STM32-Computer/Firmware/STM32-Computer-Firmware/CA7/optee-os-3.19.0-r2/optee-os-stm32mp-3.19.0-stm32mp-r2/lib/libutils/ext/snprintk.c:373
    39c6:	e732      	b.n	382e <kprintf.constprop.0+0x66>
/home/lubuntu/Dokument/GitHub/STM32-Computer/Firmware/STM32-Computer-Firmware/CA7/optee-os-3.19.0-r2/optee-os-stm32mp-3.19.0-stm32mp-r2/lib/libutils/ext/snprintk.c:368
    39c8:	f045 0510 	orr.w	r5, r5, #16
    39cc:	e72f      	b.n	382e <kprintf.constprop.0+0x66>
/home/lubuntu/Dokument/GitHub/STM32-Computer/Firmware/STM32-Computer-Firmware/CA7/optee-os-3.19.0-r2/optee-os-stm32mp-3.19.0-stm32mp-r2/lib/libutils/ext/snprintk.c:375
    39ce:	f445 7580 	orr.w	r5, r5, #256	@ 0x100
/home/lubuntu/Dokument/GitHub/STM32-Computer/Firmware/STM32-Computer-Firmware/CA7/optee-os-3.19.0-r2/optee-os-stm32mp-3.19.0-stm32mp-r2/lib/libutils/ext/snprintk.c:376
    39d2:	e72c      	b.n	382e <kprintf.constprop.0+0x66>
/home/lubuntu/Dokument/GitHub/STM32-Computer/Firmware/STM32-Computer-Firmware/CA7/optee-os-3.19.0-r2/optee-os-stm32mp-3.19.0-stm32mp-r2/lib/libutils/ext/snprintk.c:378
    39d4:	f445 7500 	orr.w	r5, r5, #512	@ 0x200
/home/lubuntu/Dokument/GitHub/STM32-Computer/Firmware/STM32-Computer-Firmware/CA7/optee-os-3.19.0-r2/optee-os-stm32mp-3.19.0-stm32mp-r2/lib/libutils/ext/snprintk.c:379
    39d8:	e729      	b.n	382e <kprintf.constprop.0+0x66>
/home/lubuntu/Dokument/GitHub/STM32-Computer/Firmware/STM32-Computer-Firmware/CA7/optee-os-3.19.0-r2/optee-os-stm32mp-3.19.0-stm32mp-r2/lib/libutils/ext/snprintk.c:381
    39da:	461e      	mov	r6, r3
    39dc:	f856 3b04 	ldr.w	r3, [r6], #4
    39e0:	f88d 3048 	strb.w	r3, [sp, #72]	@ 0x48
/home/lubuntu/Dokument/GitHub/STM32-Computer/Firmware/STM32-Computer-Firmware/CA7/optee-os-3.19.0-r2/optee-os-stm32mp-3.19.0-stm32mp-r2/lib/libutils/ext/snprintk.c:291
    39e4:	2000      	movs	r0, #0
/home/lubuntu/Dokument/GitHub/STM32-Computer/Firmware/STM32-Computer-Firmware/CA7/optee-os-3.19.0-r2/optee-os-stm32mp-3.19.0-stm32mp-r2/lib/libutils/ext/snprintk.c:552
    39e6:	f04f 0a01 	mov.w	sl, #1
/home/lubuntu/Dokument/GitHub/STM32-Computer/Firmware/STM32-Computer-Firmware/CA7/optee-os-3.19.0-r2/optee-os-stm32mp-3.19.0-stm32mp-r2/lib/libutils/ext/snprintk.c:553
    39ea:	4607      	mov	r7, r0
/home/lubuntu/Dokument/GitHub/STM32-Computer/Firmware/STM32-Computer-Firmware/CA7/optee-os-3.19.0-r2/optee-os-stm32mp-3.19.0-stm32mp-r2/lib/libutils/ext/snprintk.c:550
    39ec:	f10d 0948 	add.w	r9, sp, #72	@ 0x48
/home/lubuntu/Dokument/GitHub/STM32-Computer/Firmware/STM32-Computer-Firmware/CA7/optee-os-3.19.0-r2/optee-os-stm32mp-3.19.0-stm32mp-r2/lib/libutils/ext/snprintk.c:554
    39f0:	e03a      	b.n	3a68 <kprintf.constprop.0+0x2a0>
/home/lubuntu/Dokument/GitHub/STM32-Computer/Firmware/STM32-Computer-Firmware/CA7/optee-os-3.19.0-r2/optee-os-stm32mp-3.19.0-stm32mp-r2/lib/libutils/ext/snprintk.c:386
    39f2:	f045 0510 	orr.w	r5, r5, #16
/home/lubuntu/Dokument/GitHub/STM32-Computer/Firmware/STM32-Computer-Firmware/CA7/optee-os-3.19.0-r2/optee-os-stm32mp-3.19.0-stm32mp-r2/lib/libutils/ext/snprintk.c:390
    39f6:	062a      	lsls	r2, r5, #24
    39f8:	d554      	bpl.n	3aa4 <kprintf.constprop.0+0x2dc>
    39fa:	3307      	adds	r3, #7
    39fc:	f023 0307 	bic.w	r3, r3, #7
    3a00:	461e      	mov	r6, r3
    3a02:	6859      	ldr	r1, [r3, #4]
    3a04:	f856 0b08 	ldr.w	r0, [r6], #8
/home/lubuntu/Dokument/GitHub/STM32-Computer/Firmware/STM32-Computer-Firmware/CA7/optee-os-3.19.0-r2/optee-os-stm32mp-3.19.0-stm32mp-r2/lib/libutils/ext/snprintk.c:391
    3a08:	2900      	cmp	r1, #0
    3a0a:	f280 8126 	bge.w	3c5a <kprintf.constprop.0+0x492>
/home/lubuntu/Dokument/GitHub/STM32-Computer/Firmware/STM32-Computer-Firmware/CA7/optee-os-3.19.0-r2/optee-os-stm32mp-3.19.0-stm32mp-r2/lib/libutils/ext/snprintk.c:392
    3a0e:	4240      	negs	r0, r0
/home/lubuntu/Dokument/GitHub/STM32-Computer/Firmware/STM32-Computer-Firmware/CA7/optee-os-3.19.0-r2/optee-os-stm32mp-3.19.0-stm32mp-r2/lib/libutils/ext/snprintk.c:395
    3a10:	f04f 0301 	mov.w	r3, #1
/home/lubuntu/Dokument/GitHub/STM32-Computer/Firmware/STM32-Computer-Firmware/CA7/optee-os-3.19.0-r2/optee-os-stm32mp-3.19.0-stm32mp-r2/lib/libutils/ext/snprintk.c:392
    3a14:	eb61 0141 	sbc.w	r1, r1, r1, lsl #1
/home/lubuntu/Dokument/GitHub/STM32-Computer/Firmware/STM32-Computer-Firmware/CA7/optee-os-3.19.0-r2/optee-os-stm32mp-3.19.0-stm32mp-r2/lib/libutils/ext/snprintk.c:393
    3a18:	272d      	movs	r7, #45	@ 0x2d
/home/lubuntu/Dokument/GitHub/STM32-Computer/Firmware/STM32-Computer-Firmware/CA7/optee-os-3.19.0-r2/optee-os-stm32mp-3.19.0-stm32mp-r2/lib/libutils/ext/snprintk.c:494
    3a1a:	f1ba 3fff 	cmp.w	sl, #4294967295	@ 0xffffffff
    3a1e:	f040 8181 	bne.w	3d24 <kprintf.constprop.0+0x55c>
/home/lubuntu/Dokument/GitHub/STM32-Computer/Firmware/STM32-Computer-Firmware/CA7/optee-os-3.19.0-r2/optee-os-stm32mp-3.19.0-stm32mp-r2/lib/libutils/ext/snprintk.c:509
    3a22:	2b01      	cmp	r3, #1
    3a24:	f000 811c 	beq.w	3c60 <kprintf.constprop.0+0x498>
    3a28:	2b02      	cmp	r3, #2
    3a2a:	f000 80db 	beq.w	3be4 <kprintf.constprop.0+0x41c>
/home/lubuntu/Dokument/GitHub/STM32-Computer/Firmware/STM32-Computer-Firmware/CA7/optee-os-3.19.0-r2/optee-os-stm32mp-3.19.0-stm32mp-r2/lib/libutils/ext/snprintk.c:502
    3a2e:	f10d 096d 	add.w	r9, sp, #109	@ 0x6d
/home/lubuntu/Dokument/GitHub/STM32-Computer/Firmware/STM32-Computer-Firmware/CA7/optee-os-3.19.0-r2/optee-os-stm32mp-3.19.0-stm32mp-r2/lib/libutils/ext/snprintk.c:512
    3a32:	f000 0307 	and.w	r3, r0, #7
    3a36:	464a      	mov	r2, r9
/home/lubuntu/Dokument/GitHub/STM32-Computer/Firmware/STM32-Computer-Firmware/CA7/optee-os-3.19.0-r2/optee-os-stm32mp-3.19.0-stm32mp-r2/lib/libutils/ext/snprintk.c:513
    3a38:	08c0      	lsrs	r0, r0, #3
/home/lubuntu/Dokument/GitHub/STM32-Computer/Firmware/STM32-Computer-Firmware/CA7/optee-os-3.19.0-r2/optee-os-stm32mp-3.19.0-stm32mp-r2/lib/libutils/ext/snprintk.c:512
    3a3a:	3330      	adds	r3, #48	@ 0x30
/home/lubuntu/Dokument/GitHub/STM32-Computer/Firmware/STM32-Computer-Firmware/CA7/optee-os-3.19.0-r2/optee-os-stm32mp-3.19.0-stm32mp-r2/lib/libutils/ext/snprintk.c:513
    3a3c:	ea40 7041 	orr.w	r0, r0, r1, lsl #29
    3a40:	08c9      	lsrs	r1, r1, #3
/home/lubuntu/Dokument/GitHub/STM32-Computer/Firmware/STM32-Computer-Firmware/CA7/optee-os-3.19.0-r2/optee-os-stm32mp-3.19.0-stm32mp-r2/lib/libutils/ext/snprintk.c:514
    3a42:	ea50 0c01 	orrs.w	ip, r0, r1
/home/lubuntu/Dokument/GitHub/STM32-Computer/Firmware/STM32-Computer-Firmware/CA7/optee-os-3.19.0-r2/optee-os-stm32mp-3.19.0-stm32mp-r2/lib/libutils/ext/snprintk.c:512
    3a46:	f809 3d01 	strb.w	r3, [r9, #-1]!
/home/lubuntu/Dokument/GitHub/STM32-Computer/Firmware/STM32-Computer-Firmware/CA7/optee-os-3.19.0-r2/optee-os-stm32mp-3.19.0-stm32mp-r2/lib/libutils/ext/snprintk.c:514
    3a4a:	d1f2      	bne.n	3a32 <kprintf.constprop.0+0x26a>
/home/lubuntu/Dokument/GitHub/STM32-Computer/Firmware/STM32-Computer-Firmware/CA7/optee-os-3.19.0-r2/optee-os-stm32mp-3.19.0-stm32mp-r2/lib/libutils/ext/snprintk.c:516
    3a4c:	07e8      	lsls	r0, r5, #31
    3a4e:	d506      	bpl.n	3a5e <kprintf.constprop.0+0x296>
    3a50:	2b30      	cmp	r3, #48	@ 0x30
    3a52:	d004      	beq.n	3a5e <kprintf.constprop.0+0x296>
/home/lubuntu/Dokument/GitHub/STM32-Computer/Firmware/STM32-Computer-Firmware/CA7/optee-os-3.19.0-r2/optee-os-stm32mp-3.19.0-stm32mp-r2/lib/libutils/ext/snprintk.c:517
    3a54:	2330      	movs	r3, #48	@ 0x30
    3a56:	f809 3c01 	strb.w	r3, [r9, #-1]
    3a5a:	f1a2 0902 	sub.w	r9, r2, #2
/home/lubuntu/Dokument/GitHub/STM32-Computer/Firmware/STM32-Computer-Firmware/CA7/optee-os-3.19.0-r2/optee-os-stm32mp-3.19.0-stm32mp-r2/lib/libutils/ext/snprintk.c:543
    3a5e:	4650      	mov	r0, sl
    3a60:	f10d 0a6d 	add.w	sl, sp, #109	@ 0x6d
    3a64:	ebaa 0a09 	sub.w	sl, sl, r9
/home/lubuntu/Dokument/GitHub/STM32-Computer/Firmware/STM32-Computer-Firmware/CA7/optee-os-3.19.0-r2/optee-os-stm32mp-3.19.0-stm32mp-r2/lib/libutils/ext/snprintk.c:571
    3a68:	4550      	cmp	r0, sl
/home/lubuntu/Dokument/GitHub/STM32-Computer/Firmware/STM32-Computer-Firmware/CA7/optee-os-3.19.0-r2/optee-os-stm32mp-3.19.0-stm32mp-r2/lib/libutils/ext/snprintk.c:581
    3a6a:	f240 4304 	movw	r3, #1028	@ 0x404
    3a6e:	ea05 0303 	and.w	r3, r5, r3
/home/lubuntu/Dokument/GitHub/STM32-Computer/Firmware/STM32-Computer-Firmware/CA7/optee-os-3.19.0-r2/optee-os-stm32mp-3.19.0-stm32mp-r2/lib/libutils/ext/snprintk.c:571
    3a72:	4602      	mov	r2, r0
    3a74:	bfb8      	it	lt
    3a76:	4652      	movlt	r2, sl
/home/lubuntu/Dokument/GitHub/STM32-Computer/Firmware/STM32-Computer-Firmware/CA7/optee-os-3.19.0-r2/optee-os-stm32mp-3.19.0-stm32mp-r2/lib/libutils/ext/snprintk.c:572
    3a78:	2f00      	cmp	r7, #0
    3a7a:	f000 8172 	beq.w	3d62 <kprintf.constprop.0+0x59a>
/home/lubuntu/Dokument/GitHub/STM32-Computer/Firmware/STM32-Computer-Firmware/CA7/optee-os-3.19.0-r2/optee-os-stm32mp-3.19.0-stm32mp-r2/lib/libutils/ext/snprintk.c:578
    3a7e:	990c      	ldr	r1, [sp, #48]	@ 0x30
/home/lubuntu/Dokument/GitHub/STM32-Computer/Firmware/STM32-Computer-Firmware/CA7/optee-os-3.19.0-r2/optee-os-stm32mp-3.19.0-stm32mp-r2/lib/libutils/ext/snprintk.c:573
    3a80:	3201      	adds	r2, #1
/home/lubuntu/Dokument/GitHub/STM32-Computer/Firmware/STM32-Computer-Firmware/CA7/optee-os-3.19.0-r2/optee-os-stm32mp-3.19.0-stm32mp-r2/lib/libutils/ext/snprintk.c:578
    3a82:	428a      	cmp	r2, r1
    3a84:	bfac      	ite	ge
    3a86:	4493      	addge	fp, r2
    3a88:	448b      	addlt	fp, r1
/home/lubuntu/Dokument/GitHub/STM32-Computer/Firmware/STM32-Computer-Firmware/CA7/optee-os-3.19.0-r2/optee-os-stm32mp-3.19.0-stm32mp-r2/lib/libutils/ext/snprintk.c:581
    3a8a:	2b00      	cmp	r3, #0
    3a8c:	f040 81d2 	bne.w	3e34 <kprintf.constprop.0+0x66c>
/home/lubuntu/Dokument/GitHub/STM32-Computer/Firmware/STM32-Computer-Firmware/CA7/optee-os-3.19.0-r2/optee-os-stm32mp-3.19.0-stm32mp-r2/lib/libutils/ext/snprintk.c:582
    3a90:	9b0c      	ldr	r3, [sp, #48]	@ 0x30
    3a92:	1a9b      	subs	r3, r3, r2
/home/lubuntu/Dokument/GitHub/STM32-Computer/Firmware/STM32-Computer-Firmware/CA7/optee-os-3.19.0-r2/optee-os-stm32mp-3.19.0-stm32mp-r2/lib/libutils/ext/snprintk.c:583
    3a94:	2b00      	cmp	r3, #0
    3a96:	f300 8183 	bgt.w	3da0 <kprintf.constprop.0+0x5d8>
/home/lubuntu/Dokument/GitHub/STM32-Computer/Firmware/STM32-Computer-Firmware/CA7/optee-os-3.19.0-r2/optee-os-stm32mp-3.19.0-stm32mp-r2/lib/libutils/ext/snprintk.c:588
    3a9a:	2f00      	cmp	r7, #0
    3a9c:	f040 81ed 	bne.w	3e7a <kprintf.constprop.0+0x6b2>
    3aa0:	463b      	mov	r3, r7
    3aa2:	e169      	b.n	3d78 <kprintf.constprop.0+0x5b0>
/home/lubuntu/Dokument/GitHub/STM32-Computer/Firmware/STM32-Computer-Firmware/CA7/optee-os-3.19.0-r2/optee-os-stm32mp-3.19.0-stm32mp-r2/lib/libutils/ext/snprintk.c:390
    3aa4:	05ee      	lsls	r6, r5, #23
    3aa6:	d504      	bpl.n	3ab2 <kprintf.constprop.0+0x2ea>
    3aa8:	461e      	mov	r6, r3
    3aaa:	f856 0b04 	ldr.w	r0, [r6], #4
    3aae:	17c1      	asrs	r1, r0, #31
    3ab0:	e7aa      	b.n	3a08 <kprintf.constprop.0+0x240>
    3ab2:	05a8      	lsls	r0, r5, #22
    3ab4:	d4f8      	bmi.n	3aa8 <kprintf.constprop.0+0x2e0>
    3ab6:	06a9      	lsls	r1, r5, #26
    3ab8:	d49f      	bmi.n	39fa <kprintf.constprop.0+0x232>
    3aba:	06ea      	lsls	r2, r5, #27
/home/lubuntu/Dokument/GitHub/STM32-Computer/Firmware/STM32-Computer-Firmware/CA7/optee-os-3.19.0-r2/optee-os-stm32mp-3.19.0-stm32mp-r2/lib/libutils/ext/snprintk.c:317
    3abc:	461e      	mov	r6, r3
    3abe:	f856 1b04 	ldr.w	r1, [r6], #4
/home/lubuntu/Dokument/GitHub/STM32-Computer/Firmware/STM32-Computer-Firmware/CA7/optee-os-3.19.0-r2/optee-os-stm32mp-3.19.0-stm32mp-r2/lib/libutils/ext/snprintk.c:390
    3ac2:	d501      	bpl.n	3ac8 <kprintf.constprop.0+0x300>
    3ac4:	4608      	mov	r0, r1
    3ac6:	e7f2      	b.n	3aae <kprintf.constprop.0+0x2e6>
    3ac8:	066b      	lsls	r3, r5, #25
    3aca:	d5fb      	bpl.n	3ac4 <kprintf.constprop.0+0x2fc>
    3acc:	b208      	sxth	r0, r1
    3ace:	f341 31c0 	sbfx	r1, r1, #15, #1
    3ad2:	e799      	b.n	3a08 <kprintf.constprop.0+0x240>
/home/lubuntu/Dokument/GitHub/STM32-Computer/Firmware/STM32-Computer-Firmware/CA7/optee-os-3.19.0-r2/optee-os-stm32mp-3.19.0-stm32mp-r2/lib/libutils/ext/snprintk.c:398
    3ad4:	0628      	lsls	r0, r5, #24
    3ad6:	d505      	bpl.n	3ae4 <kprintf.constprop.0+0x31c>
/home/lubuntu/Dokument/GitHub/STM32-Computer/Firmware/STM32-Computer-Firmware/CA7/optee-os-3.19.0-r2/optee-os-stm32mp-3.19.0-stm32mp-r2/lib/libutils/ext/snprintk.c:405
    3ad8:	681a      	ldr	r2, [r3, #0]
    3ada:	ea4f 71eb 	mov.w	r1, fp, asr #31
    3ade:	e9c2 b100 	strd	fp, r1, [r2]
    3ae2:	e004      	b.n	3aee <kprintf.constprop.0+0x326>
/home/lubuntu/Dokument/GitHub/STM32-Computer/Firmware/STM32-Computer-Firmware/CA7/optee-os-3.19.0-r2/optee-os-stm32mp-3.19.0-stm32mp-r2/lib/libutils/ext/snprintk.c:400
    3ae4:	05e9      	lsls	r1, r5, #23
    3ae6:	d504      	bpl.n	3af2 <kprintf.constprop.0+0x32a>
/home/lubuntu/Dokument/GitHub/STM32-Computer/Firmware/STM32-Computer-Firmware/CA7/optee-os-3.19.0-r2/optee-os-stm32mp-3.19.0-stm32mp-r2/lib/libutils/ext/snprintk.c:401
    3ae8:	681a      	ldr	r2, [r3, #0]
    3aea:	f8c2 b000 	str.w	fp, [r2]
/home/lubuntu/Dokument/GitHub/STM32-Computer/Firmware/STM32-Computer-Firmware/CA7/optee-os-3.19.0-r2/optee-os-stm32mp-3.19.0-stm32mp-r2/lib/libutils/ext/snprintk.c:317
    3aee:	1d1e      	adds	r6, r3, #4
    3af0:	e67a      	b.n	37e8 <kprintf.constprop.0+0x20>
/home/lubuntu/Dokument/GitHub/STM32-Computer/Firmware/STM32-Computer-Firmware/CA7/optee-os-3.19.0-r2/optee-os-stm32mp-3.19.0-stm32mp-r2/lib/libutils/ext/snprintk.c:402
    3af2:	05aa      	lsls	r2, r5, #22
    3af4:	d4f8      	bmi.n	3ae8 <kprintf.constprop.0+0x320>
/home/lubuntu/Dokument/GitHub/STM32-Computer/Firmware/STM32-Computer-Firmware/CA7/optee-os-3.19.0-r2/optee-os-stm32mp-3.19.0-stm32mp-r2/lib/libutils/ext/snprintk.c:404
    3af6:	06af      	lsls	r7, r5, #26
    3af8:	d4ee      	bmi.n	3ad8 <kprintf.constprop.0+0x310>
/home/lubuntu/Dokument/GitHub/STM32-Computer/Firmware/STM32-Computer-Firmware/CA7/optee-os-3.19.0-r2/optee-os-stm32mp-3.19.0-stm32mp-r2/lib/libutils/ext/snprintk.c:406
    3afa:	06ee      	lsls	r6, r5, #27
    3afc:	d4f4      	bmi.n	3ae8 <kprintf.constprop.0+0x320>
/home/lubuntu/Dokument/GitHub/STM32-Computer/Firmware/STM32-Computer-Firmware/CA7/optee-os-3.19.0-r2/optee-os-stm32mp-3.19.0-stm32mp-r2/lib/libutils/ext/snprintk.c:408
    3afe:	066d      	lsls	r5, r5, #25
    3b00:	d5f2      	bpl.n	3ae8 <kprintf.constprop.0+0x320>
/home/lubuntu/Dokument/GitHub/STM32-Computer/Firmware/STM32-Computer-Firmware/CA7/optee-os-3.19.0-r2/optee-os-stm32mp-3.19.0-stm32mp-r2/lib/libutils/ext/snprintk.c:409
    3b02:	681a      	ldr	r2, [r3, #0]
    3b04:	f8a2 b000 	strh.w	fp, [r2]
    3b08:	e7f1      	b.n	3aee <kprintf.constprop.0+0x326>
/home/lubuntu/Dokument/GitHub/STM32-Computer/Firmware/STM32-Computer-Firmware/CA7/optee-os-3.19.0-r2/optee-os-stm32mp-3.19.0-stm32mp-r2/lib/libutils/ext/snprintk.c:414
    3b0a:	f045 0510 	orr.w	r5, r5, #16
/home/lubuntu/Dokument/GitHub/STM32-Computer/Firmware/STM32-Computer-Firmware/CA7/optee-os-3.19.0-r2/optee-os-stm32mp-3.19.0-stm32mp-r2/lib/libutils/ext/snprintk.c:417
    3b0e:	f015 0280 	ands.w	r2, r5, #128	@ 0x80
    3b12:	d007      	beq.n	3b24 <kprintf.constprop.0+0x35c>
    3b14:	3307      	adds	r3, #7
    3b16:	f023 0307 	bic.w	r3, r3, #7
    3b1a:	461e      	mov	r6, r3
    3b1c:	6859      	ldr	r1, [r3, #4]
    3b1e:	f856 0b08 	ldr.w	r0, [r6], #8
    3b22:	e006      	b.n	3b32 <kprintf.constprop.0+0x36a>
    3b24:	f415 7180 	ands.w	r1, r5, #256	@ 0x100
    3b28:	d00b      	beq.n	3b42 <kprintf.constprop.0+0x37a>
    3b2a:	461e      	mov	r6, r3
    3b2c:	4611      	mov	r1, r2
    3b2e:	f856 0b04 	ldr.w	r0, [r6], #4
/home/lubuntu/Dokument/GitHub/STM32-Computer/Firmware/STM32-Computer-Firmware/CA7/optee-os-3.19.0-r2/optee-os-stm32mp-3.19.0-stm32mp-r2/lib/libutils/ext/snprintk.c:494
    3b32:	f1ba 3fff 	cmp.w	sl, #4294967295	@ 0xffffffff
    3b36:	f04f 0700 	mov.w	r7, #0
    3b3a:	f43f af78 	beq.w	3a2e <kprintf.constprop.0+0x266>
    3b3e:	463b      	mov	r3, r7
    3b40:	e0f0      	b.n	3d24 <kprintf.constprop.0+0x55c>
/home/lubuntu/Dokument/GitHub/STM32-Computer/Firmware/STM32-Computer-Firmware/CA7/optee-os-3.19.0-r2/optee-os-stm32mp-3.19.0-stm32mp-r2/lib/libutils/ext/snprintk.c:417
    3b42:	05a8      	lsls	r0, r5, #22
    3b44:	d503      	bpl.n	3b4e <kprintf.constprop.0+0x386>
    3b46:	461e      	mov	r6, r3
    3b48:	f856 0b04 	ldr.w	r0, [r6], #4
    3b4c:	e7f1      	b.n	3b32 <kprintf.constprop.0+0x36a>
    3b4e:	f015 0120 	ands.w	r1, r5, #32
    3b52:	d1df      	bne.n	3b14 <kprintf.constprop.0+0x34c>
/home/lubuntu/Dokument/GitHub/STM32-Computer/Firmware/STM32-Computer-Firmware/CA7/optee-os-3.19.0-r2/optee-os-stm32mp-3.19.0-stm32mp-r2/lib/libutils/ext/snprintk.c:317
    3b54:	461e      	mov	r6, r3
/home/lubuntu/Dokument/GitHub/STM32-Computer/Firmware/STM32-Computer-Firmware/CA7/optee-os-3.19.0-r2/optee-os-stm32mp-3.19.0-stm32mp-r2/lib/libutils/ext/snprintk.c:417
    3b56:	f015 0310 	ands.w	r3, r5, #16
/home/lubuntu/Dokument/GitHub/STM32-Computer/Firmware/STM32-Computer-Firmware/CA7/optee-os-3.19.0-r2/optee-os-stm32mp-3.19.0-stm32mp-r2/lib/libutils/ext/snprintk.c:317
    3b5a:	f856 0b04 	ldr.w	r0, [r6], #4
/home/lubuntu/Dokument/GitHub/STM32-Computer/Firmware/STM32-Computer-Firmware/CA7/optee-os-3.19.0-r2/optee-os-stm32mp-3.19.0-stm32mp-r2/lib/libutils/ext/snprintk.c:417
    3b5e:	d1e8      	bne.n	3b32 <kprintf.constprop.0+0x36a>
    3b60:	f015 0140 	ands.w	r1, r5, #64	@ 0x40
    3b64:	d0e5      	beq.n	3b32 <kprintf.constprop.0+0x36a>
    3b66:	b280      	uxth	r0, r0
    3b68:	4619      	mov	r1, r3
    3b6a:	e7e2      	b.n	3b32 <kprintf.constprop.0+0x36a>
/home/lubuntu/Dokument/GitHub/STM32-Computer/Firmware/STM32-Computer-Firmware/CA7/optee-os-3.19.0-r2/optee-os-stm32mp-3.19.0-stm32mp-r2/lib/libutils/ext/snprintk.c:317
    3b6c:	461e      	mov	r6, r3
/home/lubuntu/Dokument/GitHub/STM32-Computer/Firmware/STM32-Computer-Firmware/CA7/optee-os-3.19.0-r2/optee-os-stm32mp-3.19.0-stm32mp-r2/lib/libutils/ext/snprintk.c:421
    3b6e:	9b11      	ldr	r3, [sp, #68]	@ 0x44
    3b70:	f856 0b04 	ldr.w	r0, [r6], #4
    3b74:	b343      	cbz	r3, 3bc8 <kprintf.constprop.0+0x400>
    3b76:	f898 3000 	ldrb.w	r3, [r8]
    3b7a:	2b55      	cmp	r3, #85	@ 0x55
    3b7c:	d124      	bne.n	3bc8 <kprintf.constprop.0+0x400>
    3b7e:	f898 3001 	ldrb.w	r3, [r8, #1]
    3b82:	2b6c      	cmp	r3, #108	@ 0x6c
    3b84:	d120      	bne.n	3bc8 <kprintf.constprop.0+0x400>
uuid2str():
/home/lubuntu/Dokument/GitHub/STM32-Computer/Firmware/STM32-Computer-Firmware/CA7/optee-os-3.19.0-r2/optee-os-stm32mp-3.19.0-stm32mp-r2/lib/libutils/ext/snprintk.c:229
    3b86:	7bc3      	ldrb	r3, [r0, #15]
    3b88:	f10d 0948 	add.w	r9, sp, #72	@ 0x48
    3b8c:	4ac1      	ldr	r2, [pc, #772]	@ (3e94 <kprintf.constprop.0+0x6cc>)
    3b8e:	2125      	movs	r1, #37	@ 0x25
    3b90:	9309      	str	r3, [sp, #36]	@ 0x24
kprintf():
/home/lubuntu/Dokument/GitHub/STM32-Computer/Firmware/STM32-Computer-Firmware/CA7/optee-os-3.19.0-r2/optee-os-stm32mp-3.19.0-stm32mp-r2/lib/libutils/ext/snprintk.c:426
    3b92:	f108 0802 	add.w	r8, r8, #2
uuid2str():
/home/lubuntu/Dokument/GitHub/STM32-Computer/Firmware/STM32-Computer-Firmware/CA7/optee-os-3.19.0-r2/optee-os-stm32mp-3.19.0-stm32mp-r2/lib/libutils/ext/snprintk.c:229
    3b96:	7b83      	ldrb	r3, [r0, #14]
    3b98:	447a      	add	r2, pc
    3b9a:	9308      	str	r3, [sp, #32]
    3b9c:	7b43      	ldrb	r3, [r0, #13]
    3b9e:	9307      	str	r3, [sp, #28]
    3ba0:	7b03      	ldrb	r3, [r0, #12]
    3ba2:	9306      	str	r3, [sp, #24]
    3ba4:	7ac3      	ldrb	r3, [r0, #11]
    3ba6:	9305      	str	r3, [sp, #20]
    3ba8:	7a83      	ldrb	r3, [r0, #10]
    3baa:	9304      	str	r3, [sp, #16]
    3bac:	7a43      	ldrb	r3, [r0, #9]
    3bae:	9303      	str	r3, [sp, #12]
    3bb0:	7a03      	ldrb	r3, [r0, #8]
    3bb2:	9302      	str	r3, [sp, #8]
    3bb4:	88c3      	ldrh	r3, [r0, #6]
    3bb6:	9301      	str	r3, [sp, #4]
    3bb8:	8883      	ldrh	r3, [r0, #4]
    3bba:	9300      	str	r3, [sp, #0]
    3bbc:	6803      	ldr	r3, [r0, #0]
    3bbe:	4648      	mov	r0, r9
    3bc0:	f000 fc6d 	bl	449e <snprintk>
kprintf():
/home/lubuntu/Dokument/GitHub/STM32-Computer/Firmware/STM32-Computer-Firmware/CA7/optee-os-3.19.0-r2/optee-os-stm32mp-3.19.0-stm32mp-r2/lib/libutils/ext/snprintk.c:466
    3bc4:	4682      	mov	sl, r0
    3bc6:	e034      	b.n	3c32 <kprintf.constprop.0+0x46a>
/home/lubuntu/Dokument/GitHub/STM32-Computer/Firmware/STM32-Computer-Firmware/CA7/optee-os-3.19.0-r2/optee-os-stm32mp-3.19.0-stm32mp-r2/lib/libutils/ext/snprintk.c:443
    3bc8:	4bb3      	ldr	r3, [pc, #716]	@ (3e98 <kprintf.constprop.0+0x6d0>)
/home/lubuntu/Dokument/GitHub/STM32-Computer/Firmware/STM32-Computer-Firmware/CA7/optee-os-3.19.0-r2/optee-os-stm32mp-3.19.0-stm32mp-r2/lib/libutils/ext/snprintk.c:441
    3bca:	2100      	movs	r1, #0
/home/lubuntu/Dokument/GitHub/STM32-Computer/Firmware/STM32-Computer-Firmware/CA7/optee-os-3.19.0-r2/optee-os-stm32mp-3.19.0-stm32mp-r2/lib/libutils/ext/snprintk.c:444
    3bcc:	f045 0502 	orr.w	r5, r5, #2
/home/lubuntu/Dokument/GitHub/STM32-Computer/Firmware/STM32-Computer-Firmware/CA7/optee-os-3.19.0-r2/optee-os-stm32mp-3.19.0-stm32mp-r2/lib/libutils/ext/snprintk.c:443
    3bd0:	447b      	add	r3, pc
    3bd2:	9310      	str	r3, [sp, #64]	@ 0x40
/home/lubuntu/Dokument/GitHub/STM32-Computer/Firmware/STM32-Computer-Firmware/CA7/optee-os-3.19.0-r2/optee-os-stm32mp-3.19.0-stm32mp-r2/lib/libutils/ext/snprintk.c:445
    3bd4:	2378      	movs	r3, #120	@ 0x78
    3bd6:	930b      	str	r3, [sp, #44]	@ 0x2c
/home/lubuntu/Dokument/GitHub/STM32-Computer/Firmware/STM32-Computer-Firmware/CA7/optee-os-3.19.0-r2/optee-os-stm32mp-3.19.0-stm32mp-r2/lib/libutils/ext/snprintk.c:494
    3bd8:	f1ba 3fff 	cmp.w	sl, #4294967295	@ 0xffffffff
    3bdc:	f04f 0700 	mov.w	r7, #0
    3be0:	f040 809f 	bne.w	3d22 <kprintf.constprop.0+0x55a>
/home/lubuntu/Dokument/GitHub/STM32-Computer/Firmware/STM32-Computer-Firmware/CA7/optee-os-3.19.0-r2/optee-os-stm32mp-3.19.0-stm32mp-r2/lib/libutils/ext/snprintk.c:502
    3be4:	f10d 096d 	add.w	r9, sp, #109	@ 0x6d
/home/lubuntu/Dokument/GitHub/STM32-Computer/Firmware/STM32-Computer-Firmware/CA7/optee-os-3.19.0-r2/optee-os-stm32mp-3.19.0-stm32mp-r2/lib/libutils/ext/snprintk.c:531
    3be8:	9a10      	ldr	r2, [sp, #64]	@ 0x40
    3bea:	f000 030f 	and.w	r3, r0, #15
/home/lubuntu/Dokument/GitHub/STM32-Computer/Firmware/STM32-Computer-Firmware/CA7/optee-os-3.19.0-r2/optee-os-stm32mp-3.19.0-stm32mp-r2/lib/libutils/ext/snprintk.c:532
    3bee:	0900      	lsrs	r0, r0, #4
/home/lubuntu/Dokument/GitHub/STM32-Computer/Firmware/STM32-Computer-Firmware/CA7/optee-os-3.19.0-r2/optee-os-stm32mp-3.19.0-stm32mp-r2/lib/libutils/ext/snprintk.c:531
    3bf0:	5cd3      	ldrb	r3, [r2, r3]
/home/lubuntu/Dokument/GitHub/STM32-Computer/Firmware/STM32-Computer-Firmware/CA7/optee-os-3.19.0-r2/optee-os-stm32mp-3.19.0-stm32mp-r2/lib/libutils/ext/snprintk.c:532
    3bf2:	ea40 7001 	orr.w	r0, r0, r1, lsl #28
    3bf6:	0909      	lsrs	r1, r1, #4
/home/lubuntu/Dokument/GitHub/STM32-Computer/Firmware/STM32-Computer-Firmware/CA7/optee-os-3.19.0-r2/optee-os-stm32mp-3.19.0-stm32mp-r2/lib/libutils/ext/snprintk.c:531
    3bf8:	f809 3d01 	strb.w	r3, [r9, #-1]!
/home/lubuntu/Dokument/GitHub/STM32-Computer/Firmware/STM32-Computer-Firmware/CA7/optee-os-3.19.0-r2/optee-os-stm32mp-3.19.0-stm32mp-r2/lib/libutils/ext/snprintk.c:533
    3bfc:	ea50 0301 	orrs.w	r3, r0, r1
    3c00:	d1f2      	bne.n	3be8 <kprintf.constprop.0+0x420>
    3c02:	e72c      	b.n	3a5e <kprintf.constprop.0+0x296>
/home/lubuntu/Dokument/GitHub/STM32-Computer/Firmware/STM32-Computer-Firmware/CA7/optee-os-3.19.0-r2/optee-os-stm32mp-3.19.0-stm32mp-r2/lib/libutils/ext/snprintk.c:448
    3c04:	461e      	mov	r6, r3
    3c06:	f856 9b04 	ldr.w	r9, [r6], #4
    3c0a:	f1b9 0f00 	cmp.w	r9, #0
    3c0e:	d102      	bne.n	3c16 <kprintf.constprop.0+0x44e>
/home/lubuntu/Dokument/GitHub/STM32-Computer/Firmware/STM32-Computer-Firmware/CA7/optee-os-3.19.0-r2/optee-os-stm32mp-3.19.0-stm32mp-r2/lib/libutils/ext/snprintk.c:450
    3c10:	f8df 9288 	ldr.w	r9, [pc, #648]	@ 3e9c <kprintf.constprop.0+0x6d4>
    3c14:	44f9      	add	r9, pc
/home/lubuntu/Dokument/GitHub/STM32-Computer/Firmware/STM32-Computer-Firmware/CA7/optee-os-3.19.0-r2/optee-os-stm32mp-3.19.0-stm32mp-r2/lib/libutils/ext/snprintk.c:451
    3c16:	f1ba 3fff 	cmp.w	sl, #4294967295	@ 0xffffffff
    3c1a:	d00d      	beq.n	3c38 <kprintf.constprop.0+0x470>
/home/lubuntu/Dokument/GitHub/STM32-Computer/Firmware/STM32-Computer-Firmware/CA7/optee-os-3.19.0-r2/optee-os-stm32mp-3.19.0-stm32mp-r2/lib/libutils/ext/snprintk.c:457
    3c1c:	4652      	mov	r2, sl
    3c1e:	2100      	movs	r1, #0
    3c20:	4648      	mov	r0, r9
    3c22:	f000 fc57 	bl	44d4 <memchr>
/home/lubuntu/Dokument/GitHub/STM32-Computer/Firmware/STM32-Computer-Firmware/CA7/optee-os-3.19.0-r2/optee-os-stm32mp-3.19.0-stm32mp-r2/lib/libutils/ext/snprintk.c:459
    3c26:	b128      	cbz	r0, 3c34 <kprintf.constprop.0+0x46c>
/home/lubuntu/Dokument/GitHub/STM32-Computer/Firmware/STM32-Computer-Firmware/CA7/optee-os-3.19.0-r2/optee-os-stm32mp-3.19.0-stm32mp-r2/lib/libutils/ext/snprintk.c:460
    3c28:	eba0 0009 	sub.w	r0, r0, r9
    3c2c:	4582      	cmp	sl, r0
    3c2e:	bfa8      	it	ge
    3c30:	4682      	movge	sl, r0
/home/lubuntu/Dokument/GitHub/STM32-Computer/Firmware/STM32-Computer-Firmware/CA7/optee-os-3.19.0-r2/optee-os-stm32mp-3.19.0-stm32mp-r2/lib/libutils/ext/snprintk.c:291
    3c32:	2000      	movs	r0, #0
/home/lubuntu/Dokument/GitHub/STM32-Computer/Firmware/STM32-Computer-Firmware/CA7/optee-os-3.19.0-r2/optee-os-stm32mp-3.19.0-stm32mp-r2/lib/libutils/ext/snprintk.c:467
    3c34:	4607      	mov	r7, r0
    3c36:	e717      	b.n	3a68 <kprintf.constprop.0+0x2a0>
/home/lubuntu/Dokument/GitHub/STM32-Computer/Firmware/STM32-Computer-Firmware/CA7/optee-os-3.19.0-r2/optee-os-stm32mp-3.19.0-stm32mp-r2/lib/libutils/ext/snprintk.c:466
    3c38:	4648      	mov	r0, r9
    3c3a:	f000 fc59 	bl	44f0 <strlen>
    3c3e:	e7c1      	b.n	3bc4 <kprintf.constprop.0+0x3fc>
/home/lubuntu/Dokument/GitHub/STM32-Computer/Firmware/STM32-Computer-Firmware/CA7/optee-os-3.19.0-r2/optee-os-stm32mp-3.19.0-stm32mp-r2/lib/libutils/ext/snprintk.c:470
    3c40:	f045 0510 	orr.w	r5, r5, #16
/home/lubuntu/Dokument/GitHub/STM32-Computer/Firmware/STM32-Computer-Firmware/CA7/optee-os-3.19.0-r2/optee-os-stm32mp-3.19.0-stm32mp-r2/lib/libutils/ext/snprintk.c:473
    3c44:	f015 0280 	ands.w	r2, r5, #128	@ 0x80
    3c48:	d019      	beq.n	3c7e <kprintf.constprop.0+0x4b6>
    3c4a:	3307      	adds	r3, #7
    3c4c:	f023 0307 	bic.w	r3, r3, #7
    3c50:	461e      	mov	r6, r3
    3c52:	6859      	ldr	r1, [r3, #4]
    3c54:	f856 0b08 	ldr.w	r0, [r6], #8
/home/lubuntu/Dokument/GitHub/STM32-Computer/Firmware/STM32-Computer-Firmware/CA7/optee-os-3.19.0-r2/optee-os-stm32mp-3.19.0-stm32mp-r2/lib/libutils/ext/snprintk.c:488
    3c58:	2700      	movs	r7, #0
/home/lubuntu/Dokument/GitHub/STM32-Computer/Firmware/STM32-Computer-Firmware/CA7/optee-os-3.19.0-r2/optee-os-stm32mp-3.19.0-stm32mp-r2/lib/libutils/ext/snprintk.c:494
    3c5a:	f1ba 3fff 	cmp.w	sl, #4294967295	@ 0xffffffff
    3c5e:	d16e      	bne.n	3d3e <kprintf.constprop.0+0x576>
/home/lubuntu/Dokument/GitHub/STM32-Computer/Firmware/STM32-Computer-Firmware/CA7/optee-os-3.19.0-r2/optee-os-stm32mp-3.19.0-stm32mp-r2/lib/libutils/ext/snprintk.c:502
    3c60:	f10d 036d 	add.w	r3, sp, #109	@ 0x6d
    3c64:	930f      	str	r3, [sp, #60]	@ 0x3c
/home/lubuntu/Dokument/GitHub/STM32-Computer/Firmware/STM32-Computer-Firmware/CA7/optee-os-3.19.0-r2/optee-os-stm32mp-3.19.0-stm32mp-r2/lib/libutils/ext/snprintk.c:523
    3c66:	9b0f      	ldr	r3, [sp, #60]	@ 0x3c
/home/lubuntu/Dokument/GitHub/STM32-Computer/Firmware/STM32-Computer-Firmware/CA7/optee-os-3.19.0-r2/optee-os-stm32mp-3.19.0-stm32mp-r2/lib/libutils/ext/snprintk.c:522
    3c68:	280a      	cmp	r0, #10
/home/lubuntu/Dokument/GitHub/STM32-Computer/Firmware/STM32-Computer-Firmware/CA7/optee-os-3.19.0-r2/optee-os-stm32mp-3.19.0-stm32mp-r2/lib/libutils/ext/snprintk.c:523
    3c6a:	f103 39ff 	add.w	r9, r3, #4294967295	@ 0xffffffff
/home/lubuntu/Dokument/GitHub/STM32-Computer/Firmware/STM32-Computer-Firmware/CA7/optee-os-3.19.0-r2/optee-os-stm32mp-3.19.0-stm32mp-r2/lib/libutils/ext/snprintk.c:522
    3c6e:	f171 0300 	sbcs.w	r3, r1, #0
    3c72:	d266      	bcs.n	3d42 <kprintf.constprop.0+0x57a>
/home/lubuntu/Dokument/GitHub/STM32-Computer/Firmware/STM32-Computer-Firmware/CA7/optee-os-3.19.0-r2/optee-os-stm32mp-3.19.0-stm32mp-r2/lib/libutils/ext/snprintk.c:526
    3c74:	9b0f      	ldr	r3, [sp, #60]	@ 0x3c
    3c76:	3030      	adds	r0, #48	@ 0x30
    3c78:	f803 0c01 	strb.w	r0, [r3, #-1]
/home/lubuntu/Dokument/GitHub/STM32-Computer/Firmware/STM32-Computer-Firmware/CA7/optee-os-3.19.0-r2/optee-os-stm32mp-3.19.0-stm32mp-r2/lib/libutils/ext/snprintk.c:527
    3c7c:	e6ef      	b.n	3a5e <kprintf.constprop.0+0x296>
/home/lubuntu/Dokument/GitHub/STM32-Computer/Firmware/STM32-Computer-Firmware/CA7/optee-os-3.19.0-r2/optee-os-stm32mp-3.19.0-stm32mp-r2/lib/libutils/ext/snprintk.c:473
    3c7e:	f415 7180 	ands.w	r1, r5, #256	@ 0x100
    3c82:	d004      	beq.n	3c8e <kprintf.constprop.0+0x4c6>
    3c84:	461e      	mov	r6, r3
    3c86:	4611      	mov	r1, r2
    3c88:	f856 0b04 	ldr.w	r0, [r6], #4
    3c8c:	e7e4      	b.n	3c58 <kprintf.constprop.0+0x490>
    3c8e:	f415 7700 	ands.w	r7, r5, #512	@ 0x200
    3c92:	d003      	beq.n	3c9c <kprintf.constprop.0+0x4d4>
    3c94:	461e      	mov	r6, r3
    3c96:	f856 0b04 	ldr.w	r0, [r6], #4
    3c9a:	e7dd      	b.n	3c58 <kprintf.constprop.0+0x490>
    3c9c:	f015 0120 	ands.w	r1, r5, #32
    3ca0:	d007      	beq.n	3cb2 <kprintf.constprop.0+0x4ea>
    3ca2:	3307      	adds	r3, #7
    3ca4:	f023 0307 	bic.w	r3, r3, #7
    3ca8:	461e      	mov	r6, r3
    3caa:	6859      	ldr	r1, [r3, #4]
    3cac:	f856 0b08 	ldr.w	r0, [r6], #8
    3cb0:	e7d3      	b.n	3c5a <kprintf.constprop.0+0x492>
/home/lubuntu/Dokument/GitHub/STM32-Computer/Firmware/STM32-Computer-Firmware/CA7/optee-os-3.19.0-r2/optee-os-stm32mp-3.19.0-stm32mp-r2/lib/libutils/ext/snprintk.c:317
    3cb2:	461e      	mov	r6, r3
/home/lubuntu/Dokument/GitHub/STM32-Computer/Firmware/STM32-Computer-Firmware/CA7/optee-os-3.19.0-r2/optee-os-stm32mp-3.19.0-stm32mp-r2/lib/libutils/ext/snprintk.c:473
    3cb4:	f015 0310 	ands.w	r3, r5, #16
/home/lubuntu/Dokument/GitHub/STM32-Computer/Firmware/STM32-Computer-Firmware/CA7/optee-os-3.19.0-r2/optee-os-stm32mp-3.19.0-stm32mp-r2/lib/libutils/ext/snprintk.c:317
    3cb8:	f856 0b04 	ldr.w	r0, [r6], #4
/home/lubuntu/Dokument/GitHub/STM32-Computer/Firmware/STM32-Computer-Firmware/CA7/optee-os-3.19.0-r2/optee-os-stm32mp-3.19.0-stm32mp-r2/lib/libutils/ext/snprintk.c:473
    3cbc:	d1cc      	bne.n	3c58 <kprintf.constprop.0+0x490>
    3cbe:	f015 0140 	ands.w	r1, r5, #64	@ 0x40
    3cc2:	d0c9      	beq.n	3c58 <kprintf.constprop.0+0x490>
    3cc4:	b280      	uxth	r0, r0
    3cc6:	4619      	mov	r1, r3
    3cc8:	e7c6      	b.n	3c58 <kprintf.constprop.0+0x490>
/home/lubuntu/Dokument/GitHub/STM32-Computer/Firmware/STM32-Computer-Firmware/CA7/optee-os-3.19.0-r2/optee-os-stm32mp-3.19.0-stm32mp-r2/lib/libutils/ext/snprintk.c:297
    3cca:	4a75      	ldr	r2, [pc, #468]	@ (3ea0 <kprintf.constprop.0+0x6d8>)
    3ccc:	447a      	add	r2, pc
    3cce:	e619      	b.n	3904 <kprintf.constprop.0+0x13c>
/home/lubuntu/Dokument/GitHub/STM32-Computer/Firmware/STM32-Computer-Firmware/CA7/optee-os-3.19.0-r2/optee-os-stm32mp-3.19.0-stm32mp-r2/lib/libutils/ext/snprintk.c:481
    3cd0:	f415 7180 	ands.w	r1, r5, #256	@ 0x100
    3cd4:	d00f      	beq.n	3cf6 <kprintf.constprop.0+0x52e>
    3cd6:	461e      	mov	r6, r3
    3cd8:	4611      	mov	r1, r2
    3cda:	f856 0b04 	ldr.w	r0, [r6], #4
/home/lubuntu/Dokument/GitHub/STM32-Computer/Firmware/STM32-Computer-Firmware/CA7/optee-os-3.19.0-r2/optee-os-stm32mp-3.19.0-stm32mp-r2/lib/libutils/ext/snprintk.c:484
    3cde:	07ef      	lsls	r7, r5, #31
    3ce0:	f57f af7a 	bpl.w	3bd8 <kprintf.constprop.0+0x410>
    3ce4:	ea50 0301 	orrs.w	r3, r0, r1
/home/lubuntu/Dokument/GitHub/STM32-Computer/Firmware/STM32-Computer-Firmware/CA7/optee-os-3.19.0-r2/optee-os-stm32mp-3.19.0-stm32mp-r2/lib/libutils/ext/snprintk.c:488
    3ce8:	f04f 0700 	mov.w	r7, #0
/home/lubuntu/Dokument/GitHub/STM32-Computer/Firmware/STM32-Computer-Firmware/CA7/optee-os-3.19.0-r2/optee-os-stm32mp-3.19.0-stm32mp-r2/lib/libutils/ext/snprintk.c:485
    3cec:	bf18      	it	ne
    3cee:	f045 0502 	orrne.w	r5, r5, #2
/home/lubuntu/Dokument/GitHub/STM32-Computer/Firmware/STM32-Computer-Firmware/CA7/optee-os-3.19.0-r2/optee-os-stm32mp-3.19.0-stm32mp-r2/lib/libutils/ext/snprintk.c:482
    3cf2:	2302      	movs	r3, #2
    3cf4:	e691      	b.n	3a1a <kprintf.constprop.0+0x252>
/home/lubuntu/Dokument/GitHub/STM32-Computer/Firmware/STM32-Computer-Firmware/CA7/optee-os-3.19.0-r2/optee-os-stm32mp-3.19.0-stm32mp-r2/lib/libutils/ext/snprintk.c:481
    3cf6:	05aa      	lsls	r2, r5, #22
    3cf8:	d503      	bpl.n	3d02 <kprintf.constprop.0+0x53a>
    3cfa:	461e      	mov	r6, r3
    3cfc:	f856 0b04 	ldr.w	r0, [r6], #4
    3d00:	e7ed      	b.n	3cde <kprintf.constprop.0+0x516>
    3d02:	f015 0120 	ands.w	r1, r5, #32
    3d06:	f47f ae02 	bne.w	390e <kprintf.constprop.0+0x146>
/home/lubuntu/Dokument/GitHub/STM32-Computer/Firmware/STM32-Computer-Firmware/CA7/optee-os-3.19.0-r2/optee-os-stm32mp-3.19.0-stm32mp-r2/lib/libutils/ext/snprintk.c:317
    3d0a:	461e      	mov	r6, r3
/home/lubuntu/Dokument/GitHub/STM32-Computer/Firmware/STM32-Computer-Firmware/CA7/optee-os-3.19.0-r2/optee-os-stm32mp-3.19.0-stm32mp-r2/lib/libutils/ext/snprintk.c:481
    3d0c:	f015 0310 	ands.w	r3, r5, #16
/home/lubuntu/Dokument/GitHub/STM32-Computer/Firmware/STM32-Computer-Firmware/CA7/optee-os-3.19.0-r2/optee-os-stm32mp-3.19.0-stm32mp-r2/lib/libutils/ext/snprintk.c:317
    3d10:	f856 0b04 	ldr.w	r0, [r6], #4
/home/lubuntu/Dokument/GitHub/STM32-Computer/Firmware/STM32-Computer-Firmware/CA7/optee-os-3.19.0-r2/optee-os-stm32mp-3.19.0-stm32mp-r2/lib/libutils/ext/snprintk.c:481
    3d14:	d1e3      	bne.n	3cde <kprintf.constprop.0+0x516>
    3d16:	f015 0140 	ands.w	r1, r5, #64	@ 0x40
    3d1a:	bf1c      	itt	ne
    3d1c:	b280      	uxthne	r0, r0
    3d1e:	4619      	movne	r1, r3
    3d20:	e7dd      	b.n	3cde <kprintf.constprop.0+0x516>
/home/lubuntu/Dokument/GitHub/STM32-Computer/Firmware/STM32-Computer-Firmware/CA7/optee-os-3.19.0-r2/optee-os-stm32mp-3.19.0-stm32mp-r2/lib/libutils/ext/snprintk.c:494
    3d22:	2302      	movs	r3, #2
/home/lubuntu/Dokument/GitHub/STM32-Computer/Firmware/STM32-Computer-Firmware/CA7/optee-os-3.19.0-r2/optee-os-stm32mp-3.19.0-stm32mp-r2/lib/libutils/ext/snprintk.c:503
    3d24:	ea50 0201 	orrs.w	r2, r0, r1
/home/lubuntu/Dokument/GitHub/STM32-Computer/Firmware/STM32-Computer-Firmware/CA7/optee-os-3.19.0-r2/optee-os-stm32mp-3.19.0-stm32mp-r2/lib/libutils/ext/snprintk.c:495
    3d28:	f425 6580 	bic.w	r5, r5, #1024	@ 0x400
/home/lubuntu/Dokument/GitHub/STM32-Computer/Firmware/STM32-Computer-Firmware/CA7/optee-os-3.19.0-r2/optee-os-stm32mp-3.19.0-stm32mp-r2/lib/libutils/ext/snprintk.c:503
    3d2c:	f47f ae79 	bne.w	3a22 <kprintf.constprop.0+0x25a>
    3d30:	f1ba 0f00 	cmp.w	sl, #0
    3d34:	f47f ae75 	bne.w	3a22 <kprintf.constprop.0+0x25a>
/home/lubuntu/Dokument/GitHub/STM32-Computer/Firmware/STM32-Computer-Firmware/CA7/optee-os-3.19.0-r2/optee-os-stm32mp-3.19.0-stm32mp-r2/lib/libutils/ext/snprintk.c:502
    3d38:	f10d 096d 	add.w	r9, sp, #109	@ 0x6d
    3d3c:	e68f      	b.n	3a5e <kprintf.constprop.0+0x296>
/home/lubuntu/Dokument/GitHub/STM32-Computer/Firmware/STM32-Computer-Firmware/CA7/optee-os-3.19.0-r2/optee-os-stm32mp-3.19.0-stm32mp-r2/lib/libutils/ext/snprintk.c:494
    3d3e:	2301      	movs	r3, #1
    3d40:	e7f0      	b.n	3d24 <kprintf.constprop.0+0x55c>
/home/lubuntu/Dokument/GitHub/STM32-Computer/Firmware/STM32-Computer-Firmware/CA7/optee-os-3.19.0-r2/optee-os-stm32mp-3.19.0-stm32mp-r2/lib/libutils/ext/snprintk.c:523
    3d42:	220a      	movs	r2, #10
    3d44:	2300      	movs	r3, #0
    3d46:	f7ff ed34 	blx	37b0 <__aeabi_uldivmod>
    3d4a:	9b0f      	ldr	r3, [sp, #60]	@ 0x3c
    3d4c:	3230      	adds	r2, #48	@ 0x30
    3d4e:	f8cd 903c 	str.w	r9, [sp, #60]	@ 0x3c
    3d52:	f803 2c01 	strb.w	r2, [r3, #-1]
/home/lubuntu/Dokument/GitHub/STM32-Computer/Firmware/STM32-Computer-Firmware/CA7/optee-os-3.19.0-r2/optee-os-stm32mp-3.19.0-stm32mp-r2/lib/libutils/ext/snprintk.c:524
    3d56:	e786      	b.n	3c66 <kprintf.constprop.0+0x49e>
/home/lubuntu/Dokument/GitHub/STM32-Computer/Firmware/STM32-Computer-Firmware/CA7/optee-os-3.19.0-r2/optee-os-stm32mp-3.19.0-stm32mp-r2/lib/libutils/ext/snprintk.c:547
    3d58:	9a0b      	ldr	r2, [sp, #44]	@ 0x2c
    3d5a:	2a00      	cmp	r2, #0
    3d5c:	f47f ade3 	bne.w	3926 <kprintf.constprop.0+0x15e>
    3d60:	e547      	b.n	37f2 <kprintf.constprop.0+0x2a>
/home/lubuntu/Dokument/GitHub/STM32-Computer/Firmware/STM32-Computer-Firmware/CA7/optee-os-3.19.0-r2/optee-os-stm32mp-3.19.0-stm32mp-r2/lib/libutils/ext/snprintk.c:574
    3d62:	07a9      	lsls	r1, r5, #30
/home/lubuntu/Dokument/GitHub/STM32-Computer/Firmware/STM32-Computer-Firmware/CA7/optee-os-3.19.0-r2/optee-os-stm32mp-3.19.0-stm32mp-r2/lib/libutils/ext/snprintk.c:578
    3d64:	990c      	ldr	r1, [sp, #48]	@ 0x30
/home/lubuntu/Dokument/GitHub/STM32-Computer/Firmware/STM32-Computer-Firmware/CA7/optee-os-3.19.0-r2/optee-os-stm32mp-3.19.0-stm32mp-r2/lib/libutils/ext/snprintk.c:575
    3d66:	bf48      	it	mi
    3d68:	3202      	addmi	r2, #2
/home/lubuntu/Dokument/GitHub/STM32-Computer/Firmware/STM32-Computer-Firmware/CA7/optee-os-3.19.0-r2/optee-os-stm32mp-3.19.0-stm32mp-r2/lib/libutils/ext/snprintk.c:578
    3d6a:	428a      	cmp	r2, r1
    3d6c:	bfac      	ite	ge
    3d6e:	4493      	addge	fp, r2
    3d70:	448b      	addlt	fp, r1
/home/lubuntu/Dokument/GitHub/STM32-Computer/Firmware/STM32-Computer-Firmware/CA7/optee-os-3.19.0-r2/optee-os-stm32mp-3.19.0-stm32mp-r2/lib/libutils/ext/snprintk.c:581
    3d72:	2b00      	cmp	r3, #0
    3d74:	f43f ae8c 	beq.w	3a90 <kprintf.constprop.0+0x2c8>
/home/lubuntu/Dokument/GitHub/STM32-Computer/Firmware/STM32-Computer-Firmware/CA7/optee-os-3.19.0-r2/optee-os-stm32mp-3.19.0-stm32mp-r2/lib/libutils/ext/snprintk.c:590
    3d78:	07a9      	lsls	r1, r5, #30
    3d7a:	d55c      	bpl.n	3e36 <kprintf.constprop.0+0x66e>
/home/lubuntu/Dokument/GitHub/STM32-Computer/Firmware/STM32-Computer-Firmware/CA7/optee-os-3.19.0-r2/optee-os-stm32mp-3.19.0-stm32mp-r2/lib/libutils/ext/snprintk.c:591
    3d7c:	2c00      	cmp	r4, #0
    3d7e:	d05a      	beq.n	3e36 <kprintf.constprop.0+0x66e>
    3d80:	990d      	ldr	r1, [sp, #52]	@ 0x34
    3d82:	2900      	cmp	r1, #0
    3d84:	d06c      	beq.n	3e60 <kprintf.constprop.0+0x698>
    3d86:	990e      	ldr	r1, [sp, #56]	@ 0x38
    3d88:	42a1      	cmp	r1, r4
    3d8a:	d954      	bls.n	3e36 <kprintf.constprop.0+0x66e>
    3d8c:	2130      	movs	r1, #48	@ 0x30
    3d8e:	f804 1b01 	strb.w	r1, [r4], #1
/home/lubuntu/Dokument/GitHub/STM32-Computer/Firmware/STM32-Computer-Firmware/CA7/optee-os-3.19.0-r2/optee-os-stm32mp-3.19.0-stm32mp-r2/lib/libutils/ext/snprintk.c:592
    3d92:	990e      	ldr	r1, [sp, #56]	@ 0x38
    3d94:	42a1      	cmp	r1, r4
    3d96:	d94e      	bls.n	3e36 <kprintf.constprop.0+0x66e>
    3d98:	990b      	ldr	r1, [sp, #44]	@ 0x2c
    3d9a:	f804 1b01 	strb.w	r1, [r4], #1
    3d9e:	e04a      	b.n	3e36 <kprintf.constprop.0+0x66e>
/home/lubuntu/Dokument/GitHub/STM32-Computer/Firmware/STM32-Computer-Firmware/CA7/optee-os-3.19.0-r2/optee-os-stm32mp-3.19.0-stm32mp-r2/lib/libutils/ext/snprintk.c:584
    3da0:	2c00      	cmp	r4, #0
    3da2:	d045      	beq.n	3e30 <kprintf.constprop.0+0x668>
    3da4:	990d      	ldr	r1, [sp, #52]	@ 0x34
    3da6:	b111      	cbz	r1, 3dae <kprintf.constprop.0+0x5e6>
    3da8:	990e      	ldr	r1, [sp, #56]	@ 0x38
    3daa:	42a1      	cmp	r1, r4
    3dac:	d940      	bls.n	3e30 <kprintf.constprop.0+0x668>
/home/lubuntu/Dokument/GitHub/STM32-Computer/Firmware/STM32-Computer-Firmware/CA7/optee-os-3.19.0-r2/optee-os-stm32mp-3.19.0-stm32mp-r2/lib/libutils/ext/snprintk.c:583
    3dae:	3b01      	subs	r3, #1
/home/lubuntu/Dokument/GitHub/STM32-Computer/Firmware/STM32-Computer-Firmware/CA7/optee-os-3.19.0-r2/optee-os-stm32mp-3.19.0-stm32mp-r2/lib/libutils/ext/snprintk.c:584
    3db0:	f04f 0120 	mov.w	r1, #32
    3db4:	f804 1b01 	strb.w	r1, [r4], #1
/home/lubuntu/Dokument/GitHub/STM32-Computer/Firmware/STM32-Computer-Firmware/CA7/optee-os-3.19.0-r2/optee-os-stm32mp-3.19.0-stm32mp-r2/lib/libutils/ext/snprintk.c:583
    3db8:	d1f4      	bne.n	3da4 <kprintf.constprop.0+0x5dc>
/home/lubuntu/Dokument/GitHub/STM32-Computer/Firmware/STM32-Computer-Firmware/CA7/optee-os-3.19.0-r2/optee-os-stm32mp-3.19.0-stm32mp-r2/lib/libutils/ext/snprintk.c:588
    3dba:	2f00      	cmp	r7, #0
    3dbc:	d160      	bne.n	3e80 <kprintf.constprop.0+0x6b8>
/home/lubuntu/Dokument/GitHub/STM32-Computer/Firmware/STM32-Computer-Firmware/CA7/optee-os-3.19.0-r2/optee-os-stm32mp-3.19.0-stm32mp-r2/lib/libutils/ext/snprintk.c:590
    3dbe:	07ab      	lsls	r3, r5, #30
    3dc0:	d44c      	bmi.n	3e5c <kprintf.constprop.0+0x694>
/home/lubuntu/Dokument/GitHub/STM32-Computer/Firmware/STM32-Computer-Firmware/CA7/optee-os-3.19.0-r2/optee-os-stm32mp-3.19.0-stm32mp-r2/lib/libutils/ext/snprintk.c:603
    3dc2:	eba0 000a 	sub.w	r0, r0, sl
/home/lubuntu/Dokument/GitHub/STM32-Computer/Firmware/STM32-Computer-Firmware/CA7/optee-os-3.19.0-r2/optee-os-stm32mp-3.19.0-stm32mp-r2/lib/libutils/ext/snprintk.c:604
    3dc6:	2800      	cmp	r0, #0
    3dc8:	dd0b      	ble.n	3de2 <kprintf.constprop.0+0x61a>
/home/lubuntu/Dokument/GitHub/STM32-Computer/Firmware/STM32-Computer-Firmware/CA7/optee-os-3.19.0-r2/optee-os-stm32mp-3.19.0-stm32mp-r2/lib/libutils/ext/snprintk.c:605
    3dca:	2c00      	cmp	r4, #0
    3dcc:	d04e      	beq.n	3e6c <kprintf.constprop.0+0x6a4>
    3dce:	2330      	movs	r3, #48	@ 0x30
    3dd0:	990d      	ldr	r1, [sp, #52]	@ 0x34
    3dd2:	b111      	cbz	r1, 3dda <kprintf.constprop.0+0x612>
    3dd4:	990e      	ldr	r1, [sp, #56]	@ 0x38
    3dd6:	42a1      	cmp	r1, r4
    3dd8:	d948      	bls.n	3e6c <kprintf.constprop.0+0x6a4>
    3dda:	f804 3b01 	strb.w	r3, [r4], #1
/home/lubuntu/Dokument/GitHub/STM32-Computer/Firmware/STM32-Computer-Firmware/CA7/optee-os-3.19.0-r2/optee-os-stm32mp-3.19.0-stm32mp-r2/lib/libutils/ext/snprintk.c:604
    3dde:	3801      	subs	r0, #1
    3de0:	d1f6      	bne.n	3dd0 <kprintf.constprop.0+0x608>
    3de2:	44ca      	add	sl, r9
/home/lubuntu/Dokument/GitHub/STM32-Computer/Firmware/STM32-Computer-Firmware/CA7/optee-os-3.19.0-r2/optee-os-stm32mp-3.19.0-stm32mp-r2/lib/libutils/ext/snprintk.c:608
    3de4:	45d1      	cmp	r9, sl
    3de6:	d00c      	beq.n	3e02 <kprintf.constprop.0+0x63a>
/home/lubuntu/Dokument/GitHub/STM32-Computer/Firmware/STM32-Computer-Firmware/CA7/optee-os-3.19.0-r2/optee-os-stm32mp-3.19.0-stm32mp-r2/lib/libutils/ext/snprintk.c:609
    3de8:	2c00      	cmp	r4, #0
    3dea:	d041      	beq.n	3e70 <kprintf.constprop.0+0x6a8>
    3dec:	9b0d      	ldr	r3, [sp, #52]	@ 0x34
    3dee:	b113      	cbz	r3, 3df6 <kprintf.constprop.0+0x62e>
    3df0:	9b0e      	ldr	r3, [sp, #56]	@ 0x38
    3df2:	42a3      	cmp	r3, r4
    3df4:	d93c      	bls.n	3e70 <kprintf.constprop.0+0x6a8>
    3df6:	f819 3b01 	ldrb.w	r3, [r9], #1
/home/lubuntu/Dokument/GitHub/STM32-Computer/Firmware/STM32-Computer-Firmware/CA7/optee-os-3.19.0-r2/optee-os-stm32mp-3.19.0-stm32mp-r2/lib/libutils/ext/snprintk.c:608
    3dfa:	45d1      	cmp	r9, sl
/home/lubuntu/Dokument/GitHub/STM32-Computer/Firmware/STM32-Computer-Firmware/CA7/optee-os-3.19.0-r2/optee-os-stm32mp-3.19.0-stm32mp-r2/lib/libutils/ext/snprintk.c:609
    3dfc:	f804 3b01 	strb.w	r3, [r4], #1
/home/lubuntu/Dokument/GitHub/STM32-Computer/Firmware/STM32-Computer-Firmware/CA7/optee-os-3.19.0-r2/optee-os-stm32mp-3.19.0-stm32mp-r2/lib/libutils/ext/snprintk.c:608
    3e00:	d1f4      	bne.n	3dec <kprintf.constprop.0+0x624>
/home/lubuntu/Dokument/GitHub/STM32-Computer/Firmware/STM32-Computer-Firmware/CA7/optee-os-3.19.0-r2/optee-os-stm32mp-3.19.0-stm32mp-r2/lib/libutils/ext/snprintk.c:611
    3e02:	076b      	lsls	r3, r5, #29
    3e04:	f57f acf0 	bpl.w	37e8 <kprintf.constprop.0+0x20>
/home/lubuntu/Dokument/GitHub/STM32-Computer/Firmware/STM32-Computer-Firmware/CA7/optee-os-3.19.0-r2/optee-os-stm32mp-3.19.0-stm32mp-r2/lib/libutils/ext/snprintk.c:612
    3e08:	9b0c      	ldr	r3, [sp, #48]	@ 0x30
    3e0a:	1a9b      	subs	r3, r3, r2
/home/lubuntu/Dokument/GitHub/STM32-Computer/Firmware/STM32-Computer-Firmware/CA7/optee-os-3.19.0-r2/optee-os-stm32mp-3.19.0-stm32mp-r2/lib/libutils/ext/snprintk.c:613
    3e0c:	2b00      	cmp	r3, #0
    3e0e:	f77f aceb 	ble.w	37e8 <kprintf.constprop.0+0x20>
/home/lubuntu/Dokument/GitHub/STM32-Computer/Firmware/STM32-Computer-Firmware/CA7/optee-os-3.19.0-r2/optee-os-stm32mp-3.19.0-stm32mp-r2/lib/libutils/ext/snprintk.c:614
    3e12:	b384      	cbz	r4, 3e76 <kprintf.constprop.0+0x6ae>
    3e14:	990d      	ldr	r1, [sp, #52]	@ 0x34
    3e16:	4622      	mov	r2, r4
    3e18:	b111      	cbz	r1, 3e20 <kprintf.constprop.0+0x658>
    3e1a:	990e      	ldr	r1, [sp, #56]	@ 0x38
    3e1c:	42a1      	cmp	r1, r4
    3e1e:	d92a      	bls.n	3e76 <kprintf.constprop.0+0x6ae>
/home/lubuntu/Dokument/GitHub/STM32-Computer/Firmware/STM32-Computer-Firmware/CA7/optee-os-3.19.0-r2/optee-os-stm32mp-3.19.0-stm32mp-r2/lib/libutils/ext/snprintk.c:613
    3e20:	3b01      	subs	r3, #1
/home/lubuntu/Dokument/GitHub/STM32-Computer/Firmware/STM32-Computer-Firmware/CA7/optee-os-3.19.0-r2/optee-os-stm32mp-3.19.0-stm32mp-r2/lib/libutils/ext/snprintk.c:614
    3e22:	f04f 0120 	mov.w	r1, #32
    3e26:	7011      	strb	r1, [r2, #0]
    3e28:	f104 0401 	add.w	r4, r4, #1
/home/lubuntu/Dokument/GitHub/STM32-Computer/Firmware/STM32-Computer-Firmware/CA7/optee-os-3.19.0-r2/optee-os-stm32mp-3.19.0-stm32mp-r2/lib/libutils/ext/snprintk.c:613
    3e2c:	d1f2      	bne.n	3e14 <kprintf.constprop.0+0x64c>
    3e2e:	e4db      	b.n	37e8 <kprintf.constprop.0+0x20>
    3e30:	3b01      	subs	r3, #1
    3e32:	e62f      	b.n	3a94 <kprintf.constprop.0+0x2cc>
/home/lubuntu/Dokument/GitHub/STM32-Computer/Firmware/STM32-Computer-Firmware/CA7/optee-os-3.19.0-r2/optee-os-stm32mp-3.19.0-stm32mp-r2/lib/libutils/ext/snprintk.c:589
    3e34:	bb24      	cbnz	r4, 3e80 <kprintf.constprop.0+0x6b8>
/home/lubuntu/Dokument/GitHub/STM32-Computer/Firmware/STM32-Computer-Firmware/CA7/optee-os-3.19.0-r2/optee-os-stm32mp-3.19.0-stm32mp-r2/lib/libutils/ext/snprintk.c:596
    3e36:	f5b3 6f80 	cmp.w	r3, #1024	@ 0x400
    3e3a:	d1c2      	bne.n	3dc2 <kprintf.constprop.0+0x5fa>
/home/lubuntu/Dokument/GitHub/STM32-Computer/Firmware/STM32-Computer-Firmware/CA7/optee-os-3.19.0-r2/optee-os-stm32mp-3.19.0-stm32mp-r2/lib/libutils/ext/snprintk.c:597
    3e3c:	9b0c      	ldr	r3, [sp, #48]	@ 0x30
    3e3e:	1a9b      	subs	r3, r3, r2
/home/lubuntu/Dokument/GitHub/STM32-Computer/Firmware/STM32-Computer-Firmware/CA7/optee-os-3.19.0-r2/optee-os-stm32mp-3.19.0-stm32mp-r2/lib/libutils/ext/snprintk.c:598
    3e40:	2b00      	cmp	r3, #0
    3e42:	ddbe      	ble.n	3dc2 <kprintf.constprop.0+0x5fa>
/home/lubuntu/Dokument/GitHub/STM32-Computer/Firmware/STM32-Computer-Firmware/CA7/optee-os-3.19.0-r2/optee-os-stm32mp-3.19.0-stm32mp-r2/lib/libutils/ext/snprintk.c:599
    3e44:	b184      	cbz	r4, 3e68 <kprintf.constprop.0+0x6a0>
    3e46:	2130      	movs	r1, #48	@ 0x30
    3e48:	9f0d      	ldr	r7, [sp, #52]	@ 0x34
    3e4a:	b117      	cbz	r7, 3e52 <kprintf.constprop.0+0x68a>
    3e4c:	9f0e      	ldr	r7, [sp, #56]	@ 0x38
    3e4e:	42a7      	cmp	r7, r4
    3e50:	d90a      	bls.n	3e68 <kprintf.constprop.0+0x6a0>
    3e52:	f804 1b01 	strb.w	r1, [r4], #1
/home/lubuntu/Dokument/GitHub/STM32-Computer/Firmware/STM32-Computer-Firmware/CA7/optee-os-3.19.0-r2/optee-os-stm32mp-3.19.0-stm32mp-r2/lib/libutils/ext/snprintk.c:598
    3e56:	3b01      	subs	r3, #1
    3e58:	d1f6      	bne.n	3e48 <kprintf.constprop.0+0x680>
    3e5a:	e7b2      	b.n	3dc2 <kprintf.constprop.0+0x5fa>
/home/lubuntu/Dokument/GitHub/STM32-Computer/Firmware/STM32-Computer-Firmware/CA7/optee-os-3.19.0-r2/optee-os-stm32mp-3.19.0-stm32mp-r2/lib/libutils/ext/snprintk.c:590
    3e5c:	463b      	mov	r3, r7
    3e5e:	e78f      	b.n	3d80 <kprintf.constprop.0+0x5b8>
/home/lubuntu/Dokument/GitHub/STM32-Computer/Firmware/STM32-Computer-Firmware/CA7/optee-os-3.19.0-r2/optee-os-stm32mp-3.19.0-stm32mp-r2/lib/libutils/ext/snprintk.c:591
    3e60:	2130      	movs	r1, #48	@ 0x30
    3e62:	f804 1b01 	strb.w	r1, [r4], #1
/home/lubuntu/Dokument/GitHub/STM32-Computer/Firmware/STM32-Computer-Firmware/CA7/optee-os-3.19.0-r2/optee-os-stm32mp-3.19.0-stm32mp-r2/lib/libutils/ext/snprintk.c:592
    3e66:	e797      	b.n	3d98 <kprintf.constprop.0+0x5d0>
    3e68:	3b01      	subs	r3, #1
    3e6a:	e7e9      	b.n	3e40 <kprintf.constprop.0+0x678>
    3e6c:	3801      	subs	r0, #1
    3e6e:	e7aa      	b.n	3dc6 <kprintf.constprop.0+0x5fe>
/home/lubuntu/Dokument/GitHub/STM32-Computer/Firmware/STM32-Computer-Firmware/CA7/optee-os-3.19.0-r2/optee-os-stm32mp-3.19.0-stm32mp-r2/lib/libutils/ext/snprintk.c:608
    3e70:	f109 0901 	add.w	r9, r9, #1
    3e74:	e7b6      	b.n	3de4 <kprintf.constprop.0+0x61c>
    3e76:	3b01      	subs	r3, #1
    3e78:	e7c8      	b.n	3e0c <kprintf.constprop.0+0x644>
/home/lubuntu/Dokument/GitHub/STM32-Computer/Firmware/STM32-Computer-Firmware/CA7/optee-os-3.19.0-r2/optee-os-stm32mp-3.19.0-stm32mp-r2/lib/libutils/ext/snprintk.c:589
    3e7a:	2c00      	cmp	r4, #0
    3e7c:	d0a1      	beq.n	3dc2 <kprintf.constprop.0+0x5fa>
    3e7e:	2300      	movs	r3, #0
    3e80:	990d      	ldr	r1, [sp, #52]	@ 0x34
    3e82:	b111      	cbz	r1, 3e8a <kprintf.constprop.0+0x6c2>
    3e84:	990e      	ldr	r1, [sp, #56]	@ 0x38
    3e86:	42a1      	cmp	r1, r4
    3e88:	d9d5      	bls.n	3e36 <kprintf.constprop.0+0x66e>
    3e8a:	f804 7b01 	strb.w	r7, [r4], #1
    3e8e:	e7d2      	b.n	3e36 <kprintf.constprop.0+0x66e>
    3e90:	00001e32 	.word	0x00001e32
    3e94:	00001b5a 	.word	0x00001b5a
    3e98:	00001b64 	.word	0x00001b64
    3e9c:	00001ad7 	.word	0x00001ad7
    3ea0:	00001a57 	.word	0x00001a57

00003ea4 <trace_vprintf>:
trace_vprintf():
/home/lubuntu/Dokument/GitHub/STM32-Computer/Firmware/STM32-Computer-Firmware/CA7/optee-os-3.19.0-r2/optee-os-stm32mp-3.19.0-stm32mp-r2/lib/libutils/ext/trace.c:113
    3ea4:	e92d 47f0 	stmdb	sp!, {r4, r5, r6, r7, r8, r9, sl, lr}
    3ea8:	4607      	mov	r7, r0
    3eaa:	4e42      	ldr	r6, [pc, #264]	@ (3fb4 <trace_vprintf+0x110>)
    3eac:	b0c4      	sub	sp, #272	@ 0x110
    3eae:	4688      	mov	r8, r1
    3eb0:	4614      	mov	r4, r2
    3eb2:	447e      	add	r6, pc
/home/lubuntu/Dokument/GitHub/STM32-Computer/Firmware/STM32-Computer-Firmware/CA7/optee-os-3.19.0-r2/optee-os-stm32mp-3.19.0-stm32mp-r2/lib/libutils/ext/trace.c:118
    3eb4:	469a      	mov	sl, r3
    3eb6:	2b00      	cmp	r3, #0
    3eb8:	d069      	beq.n	3f8e <trace_vprintf+0xea>
/home/lubuntu/Dokument/GitHub/STM32-Computer/Firmware/STM32-Computer-Firmware/CA7/optee-os-3.19.0-r2/optee-os-stm32mp-3.19.0-stm32mp-r2/lib/libutils/ext/trace.c:118 (discriminator 1)
    3eba:	4b3f      	ldr	r3, [pc, #252]	@ (3fb8 <trace_vprintf+0x114>)
    3ebc:	58f3      	ldr	r3, [r6, r3]
    3ebe:	681b      	ldr	r3, [r3, #0]
    3ec0:	4293      	cmp	r3, r2
    3ec2:	db61      	blt.n	3f88 <trace_vprintf+0xe4>
trace_level_to_string():
/home/lubuntu/Dokument/GitHub/STM32-Computer/Firmware/STM32-Computer-Firmware/CA7/optee-os-3.19.0-r2/optee-os-stm32mp-3.19.0-stm32mp-r2/lib/libutils/ext/trace.c:51
    3ec4:	2a04      	cmp	r2, #4
    3ec6:	bf94      	ite	ls
    3ec8:	4613      	movls	r3, r2
    3eca:	2300      	movhi	r3, #0
/home/lubuntu/Dokument/GitHub/STM32-Computer/Firmware/STM32-Computer-Firmware/CA7/optee-os-3.19.0-r2/optee-os-stm32mp-3.19.0-stm32mp-r2/lib/libutils/ext/trace.c:54
    3ecc:	4a3b      	ldr	r2, [pc, #236]	@ (3fbc <trace_vprintf+0x118>)
    3ece:	447a      	add	r2, pc
    3ed0:	5cd3      	ldrb	r3, [r2, r3]
trace_vprintf():
/home/lubuntu/Dokument/GitHub/STM32-Computer/Firmware/STM32-Computer-Firmware/CA7/optee-os-3.19.0-r2/optee-os-stm32mp-3.19.0-stm32mp-r2/lib/libutils/ext/trace.c:122
    3ed2:	4a3b      	ldr	r2, [pc, #236]	@ (3fc0 <trace_vprintf+0x11c>)
    3ed4:	ad04      	add	r5, sp, #16
    3ed6:	f44f 7180 	mov.w	r1, #256	@ 0x100
    3eda:	4628      	mov	r0, r5
    3edc:	447a      	add	r2, pc
    3ede:	f000 fade 	bl	449e <snprintk>
/home/lubuntu/Dokument/GitHub/STM32-Computer/Firmware/STM32-Computer-Firmware/CA7/optee-os-3.19.0-r2/optee-os-stm32mp-3.19.0-stm32mp-r2/lib/libutils/ext/trace.c:124
    3ee2:	f1b0 0900 	subs.w	r9, r0, #0
    3ee6:	db4f      	blt.n	3f88 <trace_vprintf+0xe4>
/home/lubuntu/Dokument/GitHub/STM32-Computer/Firmware/STM32-Computer-Firmware/CA7/optee-os-3.19.0-r2/optee-os-stm32mp-3.19.0-stm32mp-r2/lib/libutils/ext/trace.c:129
    3ee8:	4b36      	ldr	r3, [pc, #216]	@ (3fc4 <trace_vprintf+0x120>)
    3eea:	f5c9 7180 	rsb	r1, r9, #256	@ 0x100
    3eee:	4a36      	ldr	r2, [pc, #216]	@ (3fc8 <trace_vprintf+0x124>)
    3ef0:	58f3      	ldr	r3, [r6, r3]
    3ef2:	447a      	add	r2, pc
    3ef4:	eb05 0009 	add.w	r0, r5, r9
    3ef8:	9303      	str	r3, [sp, #12]
    3efa:	f000 fad0 	bl	449e <snprintk>
/home/lubuntu/Dokument/GitHub/STM32-Computer/Firmware/STM32-Computer-Firmware/CA7/optee-os-3.19.0-r2/optee-os-stm32mp-3.19.0-stm32mp-r2/lib/libutils/ext/trace.c:131
    3efe:	2800      	cmp	r0, #0
    3f00:	db42      	blt.n	3f88 <trace_vprintf+0xe4>
/home/lubuntu/Dokument/GitHub/STM32-Computer/Firmware/STM32-Computer-Firmware/CA7/optee-os-3.19.0-r2/optee-os-stm32mp-3.19.0-stm32mp-r2/lib/libutils/ext/trace.c:133
    3f02:	eb00 0609 	add.w	r6, r0, r9
/home/lubuntu/Dokument/GitHub/STM32-Computer/Firmware/STM32-Computer-Firmware/CA7/optee-os-3.19.0-r2/optee-os-stm32mp-3.19.0-stm32mp-r2/lib/libutils/ext/trace.c:135
    3f06:	f1ba 0f00 	cmp.w	sl, #0
    3f0a:	d049      	beq.n	3fa0 <trace_vprintf+0xfc>
/home/lubuntu/Dokument/GitHub/STM32-Computer/Firmware/STM32-Computer-Firmware/CA7/optee-os-3.19.0-r2/optee-os-stm32mp-3.19.0-stm32mp-r2/lib/libutils/ext/trace.c:135 (discriminator 1)
    3f0c:	231a      	movs	r3, #26
    3f0e:	40e3      	lsrs	r3, r4
    3f10:	07db      	lsls	r3, r3, #31
    3f12:	d545      	bpl.n	3fa0 <trace_vprintf+0xfc>
/home/lubuntu/Dokument/GitHub/STM32-Computer/Firmware/STM32-Computer-Firmware/CA7/optee-os-3.19.0-r2/optee-os-stm32mp-3.19.0-stm32mp-r2/lib/libutils/ext/trace.c:137
    3f14:	19ac      	adds	r4, r5, r6
print_thread_id():
/home/lubuntu/Dokument/GitHub/STM32-Computer/Firmware/STM32-Computer-Firmware/CA7/optee-os-3.19.0-r2/optee-os-stm32mp-3.19.0-stm32mp-r2/lib/libutils/ext/trace.c:66
    3f16:	f000 fafd 	bl	4514 <trace_ext_get_thread_id>
/home/lubuntu/Dokument/GitHub/STM32-Computer/Firmware/STM32-Computer-Firmware/CA7/optee-os-3.19.0-r2/optee-os-stm32mp-3.19.0-stm32mp-r2/lib/libutils/ext/trace.c:68
    3f1a:	2800      	cmp	r0, #0
trace_vprintf():
/home/lubuntu/Dokument/GitHub/STM32-Computer/Firmware/STM32-Computer-Firmware/CA7/optee-os-3.19.0-r2/optee-os-stm32mp-3.19.0-stm32mp-r2/lib/libutils/ext/trace.c:137
    3f1c:	f5c6 7980 	rsb	r9, r6, #256	@ 0x100
print_thread_id():
/home/lubuntu/Dokument/GitHub/STM32-Computer/Firmware/STM32-Computer-Firmware/CA7/optee-os-3.19.0-r2/optee-os-stm32mp-3.19.0-stm32mp-r2/lib/libutils/ext/trace.c:68
    3f20:	db37      	blt.n	3f92 <trace_vprintf+0xee>
/home/lubuntu/Dokument/GitHub/STM32-Computer/Firmware/STM32-Computer-Firmware/CA7/optee-os-3.19.0-r2/optee-os-stm32mp-3.19.0-stm32mp-r2/lib/libutils/ext/trace.c:69
    3f22:	4a2a      	ldr	r2, [pc, #168]	@ (3fcc <trace_vprintf+0x128>)
    3f24:	2301      	movs	r3, #1
    3f26:	9000      	str	r0, [sp, #0]
    3f28:	447a      	add	r2, pc
/home/lubuntu/Dokument/GitHub/STM32-Computer/Firmware/STM32-Computer-Firmware/CA7/optee-os-3.19.0-r2/optee-os-stm32mp-3.19.0-stm32mp-r2/lib/libutils/ext/trace.c:71
    3f2a:	4649      	mov	r1, r9
    3f2c:	4620      	mov	r0, r4
    3f2e:	f000 fab6 	bl	449e <snprintk>
trace_vprintf():
/home/lubuntu/Dokument/GitHub/STM32-Computer/Firmware/STM32-Computer-Firmware/CA7/optee-os-3.19.0-r2/optee-os-stm32mp-3.19.0-stm32mp-r2/lib/libutils/ext/trace.c:144
    3f32:	2800      	cmp	r0, #0
    3f34:	db28      	blt.n	3f88 <trace_vprintf+0xe4>
/home/lubuntu/Dokument/GitHub/STM32-Computer/Firmware/STM32-Computer-Firmware/CA7/optee-os-3.19.0-r2/optee-os-stm32mp-3.19.0-stm32mp-r2/lib/libutils/ext/trace.c:146
    3f36:	1984      	adds	r4, r0, r6
/home/lubuntu/Dokument/GitHub/STM32-Computer/Firmware/STM32-Computer-Firmware/CA7/optee-os-3.19.0-r2/optee-os-stm32mp-3.19.0-stm32mp-r2/lib/libutils/ext/trace.c:148
    3f38:	b167      	cbz	r7, 3f54 <trace_vprintf+0xb0>
/home/lubuntu/Dokument/GitHub/STM32-Computer/Firmware/STM32-Computer-Firmware/CA7/optee-os-3.19.0-r2/optee-os-stm32mp-3.19.0-stm32mp-r2/lib/libutils/ext/trace.c:149
    3f3a:	4a25      	ldr	r2, [pc, #148]	@ (3fd0 <trace_vprintf+0x12c>)
    3f3c:	463b      	mov	r3, r7
    3f3e:	1928      	adds	r0, r5, r4
    3f40:	f5c4 7180 	rsb	r1, r4, #256	@ 0x100
    3f44:	447a      	add	r2, pc
    3f46:	f8cd 8000 	str.w	r8, [sp]
    3f4a:	f000 faa8 	bl	449e <snprintk>
/home/lubuntu/Dokument/GitHub/STM32-Computer/Firmware/STM32-Computer-Firmware/CA7/optee-os-3.19.0-r2/optee-os-stm32mp-3.19.0-stm32mp-r2/lib/libutils/ext/trace.c:151
    3f4e:	2800      	cmp	r0, #0
    3f50:	db1a      	blt.n	3f88 <trace_vprintf+0xe4>
/home/lubuntu/Dokument/GitHub/STM32-Computer/Firmware/STM32-Computer-Firmware/CA7/optee-os-3.19.0-r2/optee-os-stm32mp-3.19.0-stm32mp-r2/lib/libutils/ext/trace.c:153
    3f52:	4404      	add	r4, r0
/home/lubuntu/Dokument/GitHub/STM32-Computer/Firmware/STM32-Computer-Firmware/CA7/optee-os-3.19.0-r2/optee-os-stm32mp-3.19.0-stm32mp-r2/lib/libutils/ext/trace.c:163
    3f54:	1928      	adds	r0, r5, r4
    3f56:	f5c4 7180 	rsb	r1, r4, #256	@ 0x100
    3f5a:	e9dd 234c 	ldrd	r2, r3, [sp, #304]	@ 0x130
    3f5e:	f000 fa97 	bl	4490 <vsnprintk>
/home/lubuntu/Dokument/GitHub/STM32-Computer/Firmware/STM32-Computer-Firmware/CA7/optee-os-3.19.0-r2/optee-os-stm32mp-3.19.0-stm32mp-r2/lib/libutils/ext/trace.c:164
    3f62:	2800      	cmp	r0, #0
/home/lubuntu/Dokument/GitHub/STM32-Computer/Firmware/STM32-Computer-Firmware/CA7/optee-os-3.19.0-r2/optee-os-stm32mp-3.19.0-stm32mp-r2/lib/libutils/ext/trace.c:170
    3f64:	f04f 030a 	mov.w	r3, #10
/home/lubuntu/Dokument/GitHub/STM32-Computer/Firmware/STM32-Computer-Firmware/CA7/optee-os-3.19.0-r2/optee-os-stm32mp-3.19.0-stm32mp-r2/lib/libutils/ext/trace.c:165
    3f68:	bfc8      	it	gt
    3f6a:	1824      	addgt	r4, r4, r0
/home/lubuntu/Dokument/GitHub/STM32-Computer/Firmware/STM32-Computer-Firmware/CA7/optee-os-3.19.0-r2/optee-os-stm32mp-3.19.0-stm32mp-r2/lib/libutils/ext/trace.c:167
    3f6c:	2cfe      	cmp	r4, #254	@ 0xfe
    3f6e:	bf28      	it	cs
    3f70:	24fe      	movcs	r4, #254	@ 0xfe
/home/lubuntu/Dokument/GitHub/STM32-Computer/Firmware/STM32-Computer-Firmware/CA7/optee-os-3.19.0-r2/optee-os-stm32mp-3.19.0-stm32mp-r2/lib/libutils/ext/trace.c:170
    3f72:	552b      	strb	r3, [r5, r4]
/home/lubuntu/Dokument/GitHub/STM32-Computer/Firmware/STM32-Computer-Firmware/CA7/optee-os-3.19.0-r2/optee-os-stm32mp-3.19.0-stm32mp-r2/lib/libutils/ext/trace.c:171
    3f74:	b114      	cbz	r4, 3f7c <trace_vprintf+0xd8>
/home/lubuntu/Dokument/GitHub/STM32-Computer/Firmware/STM32-Computer-Firmware/CA7/optee-os-3.19.0-r2/optee-os-stm32mp-3.19.0-stm32mp-r2/lib/libutils/ext/trace.c:171 (discriminator 1)
    3f76:	5d2b      	ldrb	r3, [r5, r4]
    3f78:	2b0a      	cmp	r3, #10
    3f7a:	d019      	beq.n	3fb0 <trace_vprintf+0x10c>
/home/lubuntu/Dokument/GitHub/STM32-Computer/Firmware/STM32-Computer-Firmware/CA7/optee-os-3.19.0-r2/optee-os-stm32mp-3.19.0-stm32mp-r2/lib/libutils/ext/trace.c:174
    3f7c:	442c      	add	r4, r5
    3f7e:	2300      	movs	r3, #0
/home/lubuntu/Dokument/GitHub/STM32-Computer/Firmware/STM32-Computer-Firmware/CA7/optee-os-3.19.0-r2/optee-os-stm32mp-3.19.0-stm32mp-r2/lib/libutils/ext/trace.c:176
    3f80:	4628      	mov	r0, r5
/home/lubuntu/Dokument/GitHub/STM32-Computer/Firmware/STM32-Computer-Firmware/CA7/optee-os-3.19.0-r2/optee-os-stm32mp-3.19.0-stm32mp-r2/lib/libutils/ext/trace.c:174
    3f82:	70a3      	strb	r3, [r4, #2]
/home/lubuntu/Dokument/GitHub/STM32-Computer/Firmware/STM32-Computer-Firmware/CA7/optee-os-3.19.0-r2/optee-os-stm32mp-3.19.0-stm32mp-r2/lib/libutils/ext/trace.c:176
    3f84:	f000 fabc 	bl	4500 <trace_ext_puts>
/home/lubuntu/Dokument/GitHub/STM32-Computer/Firmware/STM32-Computer-Firmware/CA7/optee-os-3.19.0-r2/optee-os-stm32mp-3.19.0-stm32mp-r2/lib/libutils/ext/trace.c:177
    3f88:	b044      	add	sp, #272	@ 0x110
    3f8a:	e8bd 87f0 	ldmia.w	sp!, {r4, r5, r6, r7, r8, r9, sl, pc}
trace_level_to_string():
/home/lubuntu/Dokument/GitHub/STM32-Computer/Firmware/STM32-Computer-Firmware/CA7/optee-os-3.19.0-r2/optee-os-stm32mp-3.19.0-stm32mp-r2/lib/libutils/ext/trace.c:49
    3f8e:	234d      	movs	r3, #77	@ 0x4d
    3f90:	e79f      	b.n	3ed2 <trace_vprintf+0x2e>
print_thread_id():
/home/lubuntu/Dokument/GitHub/STM32-Computer/Firmware/STM32-Computer-Firmware/CA7/optee-os-3.19.0-r2/optee-os-stm32mp-3.19.0-stm32mp-r2/lib/libutils/ext/trace.c:71
    3f92:	4b10      	ldr	r3, [pc, #64]	@ (3fd4 <trace_vprintf+0x130>)
    3f94:	4a10      	ldr	r2, [pc, #64]	@ (3fd8 <trace_vprintf+0x134>)
    3f96:	447b      	add	r3, pc
    3f98:	9300      	str	r3, [sp, #0]
    3f9a:	2301      	movs	r3, #1
    3f9c:	447a      	add	r2, pc
    3f9e:	e7c4      	b.n	3f2a <trace_vprintf+0x86>
trace_vprintf():
/home/lubuntu/Dokument/GitHub/STM32-Computer/Firmware/STM32-Computer-Firmware/CA7/optee-os-3.19.0-r2/optee-os-stm32mp-3.19.0-stm32mp-r2/lib/libutils/ext/trace.c:157
    3fa0:	2efe      	cmp	r6, #254	@ 0xfe
    3fa2:	d8f1      	bhi.n	3f88 <trace_vprintf+0xe4>
/home/lubuntu/Dokument/GitHub/STM32-Computer/Firmware/STM32-Computer-Firmware/CA7/optee-os-3.19.0-r2/optee-os-stm32mp-3.19.0-stm32mp-r2/lib/libutils/ext/trace.c:159
    3fa4:	2320      	movs	r3, #32
    3fa6:	1c74      	adds	r4, r6, #1
    3fa8:	55ab      	strb	r3, [r5, r6]
/home/lubuntu/Dokument/GitHub/STM32-Computer/Firmware/STM32-Computer-Firmware/CA7/optee-os-3.19.0-r2/optee-os-stm32mp-3.19.0-stm32mp-r2/lib/libutils/ext/trace.c:160
    3faa:	2300      	movs	r3, #0
    3fac:	552b      	strb	r3, [r5, r4]
    3fae:	e7d1      	b.n	3f54 <trace_vprintf+0xb0>
/home/lubuntu/Dokument/GitHub/STM32-Computer/Firmware/STM32-Computer-Firmware/CA7/optee-os-3.19.0-r2/optee-os-stm32mp-3.19.0-stm32mp-r2/lib/libutils/ext/trace.c:172
    3fb0:	3c01      	subs	r4, #1
    3fb2:	e7df      	b.n	3f74 <trace_vprintf+0xd0>
    3fb4:	000021d2 	.word	0x000021d2
    3fb8:	00000010 	.word	0x00000010
    3fbc:	00001891 	.word	0x00001891
    3fc0:	00001869 	.word	0x00001869
    3fc4:	00000014 	.word	0x00000014
    3fc8:	00001857 	.word	0x00001857
    3fcc:	00001825 	.word	0x00001825
    3fd0:	00001814 	.word	0x00001814
    3fd4:	000008d9 	.word	0x000008d9
    3fd8:	000017b7 	.word	0x000017b7

00003fdc <print_to_console>:
print_to_console():
/home/lubuntu/Dokument/GitHub/STM32-Computer/Firmware/STM32-Computer-Firmware/CA7/optee-os-3.19.0-r2/optee-os-stm32mp-3.19.0-stm32mp-r2/ldelf/main.c:27
    3fdc:	b507      	push	{r0, r1, r2, lr}
/home/lubuntu/Dokument/GitHub/STM32-Computer/Firmware/STM32-Computer-Firmware/CA7/optee-os-3.19.0-r2/optee-os-stm32mp-3.19.0-stm32mp-r2/ldelf/main.c:28
    3fde:	2301      	movs	r3, #1
    3fe0:	e9cd 1200 	strd	r1, r2, [sp]
    3fe4:	2100      	movs	r1, #0
    3fe6:	461a      	mov	r2, r3
    3fe8:	4608      	mov	r0, r1
    3fea:	f7ff ff5b 	bl	3ea4 <trace_vprintf>
/home/lubuntu/Dokument/GitHub/STM32-Computer/Firmware/STM32-Computer-Firmware/CA7/optee-os-3.19.0-r2/optee-os-stm32mp-3.19.0-stm32mp-r2/ldelf/main.c:29
    3fee:	b003      	add	sp, #12
    3ff0:	f85d fb04 	ldr.w	pc, [sp], #4

00003ff4 <sys_return_cleanup>:
sys_return_cleanup():
/home/lubuntu/Dokument/GitHub/STM32-Computer/Firmware/STM32-Computer-Firmware/CA7/optee-os-3.19.0-r2/optee-os-stm32mp-3.19.0-stm32mp-r2/ldelf/sys.c:33
    3ff4:	2000      	movs	r0, #0
/home/lubuntu/Dokument/GitHub/STM32-Computer/Firmware/STM32-Computer-Firmware/CA7/optee-os-3.19.0-r2/optee-os-stm32mp-3.19.0-stm32mp-r2/ldelf/sys.c:32
    3ff6:	b508      	push	{r3, lr}
/home/lubuntu/Dokument/GitHub/STM32-Computer/Firmware/STM32-Computer-Firmware/CA7/optee-os-3.19.0-r2/optee-os-stm32mp-3.19.0-stm32mp-r2/ldelf/sys.c:33
    3ff8:	f7fc e83e 	blx	78 <_ldelf_return>

00003ffc <sys_map_zi>:
sys_map_zi():
/home/lubuntu/Dokument/GitHub/STM32-Computer/Firmware/STM32-Computer-Firmware/CA7/optee-os-3.19.0-r2/optee-os-stm32mp-3.19.0-stm32mp-r2/ldelf/sys.c:41
    3ffc:	b410      	push	{r4}
    3ffe:	4604      	mov	r4, r0
    4000:	4610      	mov	r0, r2
    4002:	461a      	mov	r2, r3
    4004:	9b01      	ldr	r3, [sp, #4]
/home/lubuntu/Dokument/GitHub/STM32-Computer/Firmware/STM32-Computer-Firmware/CA7/optee-os-3.19.0-r2/optee-os-stm32mp-3.19.0-stm32mp-r2/ldelf/sys.c:42
    4006:	9101      	str	r1, [sp, #4]
    4008:	4621      	mov	r1, r4
/home/lubuntu/Dokument/GitHub/STM32-Computer/Firmware/STM32-Computer-Firmware/CA7/optee-os-3.19.0-r2/optee-os-stm32mp-3.19.0-stm32mp-r2/ldelf/sys.c:43
    400a:	bc10      	pop	{r4}
/home/lubuntu/Dokument/GitHub/STM32-Computer/Firmware/STM32-Computer-Firmware/CA7/optee-os-3.19.0-r2/optee-os-stm32mp-3.19.0-stm32mp-r2/ldelf/sys.c:42
    400c:	f000 ba88 	b.w	4520 <___ldelf_map_zi_from_thumb>

00004010 <sys_unmap>:
sys_unmap():
/home/lubuntu/Dokument/GitHub/STM32-Computer/Firmware/STM32-Computer-Firmware/CA7/optee-os-3.19.0-r2/optee-os-stm32mp-3.19.0-stm32mp-r2/ldelf/sys.c:47
    4010:	f000 baae 	b.w	4570 <___ldelf_unmap_from_thumb>

00004014 <sys_open_ta_bin>:
sys_open_ta_bin():
/home/lubuntu/Dokument/GitHub/STM32-Computer/Firmware/STM32-Computer-Firmware/CA7/optee-os-3.19.0-r2/optee-os-stm32mp-3.19.0-stm32mp-r2/ldelf/sys.c:51
    4014:	460a      	mov	r2, r1
/home/lubuntu/Dokument/GitHub/STM32-Computer/Firmware/STM32-Computer-Firmware/CA7/optee-os-3.19.0-r2/optee-os-stm32mp-3.19.0-stm32mp-r2/ldelf/sys.c:52
    4016:	2110      	movs	r1, #16
    4018:	f000 ba92 	b.w	4540 <___ldelf_open_bin_from_thumb>

0000401c <sys_close_ta_bin>:
sys_close_ta_bin():
/home/lubuntu/Dokument/GitHub/STM32-Computer/Firmware/STM32-Computer-Firmware/CA7/optee-os-3.19.0-r2/optee-os-stm32mp-3.19.0-stm32mp-r2/ldelf/sys.c:57
    401c:	f000 ba98 	b.w	4550 <___ldelf_close_bin_from_thumb>

00004020 <sys_map_ta_bin>:
sys_map_ta_bin():
/home/lubuntu/Dokument/GitHub/STM32-Computer/Firmware/STM32-Computer-Firmware/CA7/optee-os-3.19.0-r2/optee-os-stm32mp-3.19.0-stm32mp-r2/ldelf/sys.c:63
    4020:	b470      	push	{r4, r5, r6}
    4022:	4616      	mov	r6, r2
    4024:	461a      	mov	r2, r3
    4026:	ab03      	add	r3, sp, #12
    4028:	cb38      	ldmia	r3, {r3, r4, r5}
/home/lubuntu/Dokument/GitHub/STM32-Computer/Firmware/STM32-Computer-Firmware/CA7/optee-os-3.19.0-r2/optee-os-stm32mp-3.19.0-stm32mp-r2/ldelf/sys.c:64
    402a:	9605      	str	r6, [sp, #20]
    402c:	9504      	str	r5, [sp, #16]
    402e:	9403      	str	r4, [sp, #12]
/home/lubuntu/Dokument/GitHub/STM32-Computer/Firmware/STM32-Computer-Firmware/CA7/optee-os-3.19.0-r2/optee-os-stm32mp-3.19.0-stm32mp-r2/ldelf/sys.c:66
    4030:	bc70      	pop	{r4, r5, r6}
/home/lubuntu/Dokument/GitHub/STM32-Computer/Firmware/STM32-Computer-Firmware/CA7/optee-os-3.19.0-r2/optee-os-stm32mp-3.19.0-stm32mp-r2/ldelf/sys.c:64
    4032:	f000 ba7d 	b.w	4530 <___ldelf_map_bin_from_thumb>

00004036 <sys_copy_from_ta_bin>:
sys_copy_from_ta_bin():
/home/lubuntu/Dokument/GitHub/STM32-Computer/Firmware/STM32-Computer-Firmware/CA7/optee-os-3.19.0-r2/optee-os-stm32mp-3.19.0-stm32mp-r2/ldelf/sys.c:71
    4036:	b410      	push	{r4}
    4038:	460c      	mov	r4, r1
    403a:	4619      	mov	r1, r3
/home/lubuntu/Dokument/GitHub/STM32-Computer/Firmware/STM32-Computer-Firmware/CA7/optee-os-3.19.0-r2/optee-os-stm32mp-3.19.0-stm32mp-r2/ldelf/sys.c:72
    403c:	4613      	mov	r3, r2
    403e:	4622      	mov	r2, r4
/home/lubuntu/Dokument/GitHub/STM32-Computer/Firmware/STM32-Computer-Firmware/CA7/optee-os-3.19.0-r2/optee-os-stm32mp-3.19.0-stm32mp-r2/ldelf/sys.c:73
    4040:	bc10      	pop	{r4}
/home/lubuntu/Dokument/GitHub/STM32-Computer/Firmware/STM32-Computer-Firmware/CA7/optee-os-3.19.0-r2/optee-os-stm32mp-3.19.0-stm32mp-r2/ldelf/sys.c:72
    4042:	f000 ba8d 	b.w	4560 <___ldelf_cp_from_bin_from_thumb>

00004046 <sys_set_prot>:
sys_set_prot():
/home/lubuntu/Dokument/GitHub/STM32-Computer/Firmware/STM32-Computer-Firmware/CA7/optee-os-3.19.0-r2/optee-os-stm32mp-3.19.0-stm32mp-r2/ldelf/sys.c:77
    4046:	f000 baa3 	b.w	4590 <___ldelf_set_prot_from_thumb>

0000404a <sys_remap>:
sys_remap():
/home/lubuntu/Dokument/GitHub/STM32-Computer/Firmware/STM32-Computer-Firmware/CA7/optee-os-3.19.0-r2/optee-os-stm32mp-3.19.0-stm32mp-r2/ldelf/sys.c:83
    404a:	f000 baa9 	b.w	45a0 <___ldelf_remap_from_thumb>

0000404e <sys_gen_random_num>:
sys_gen_random_num():
/home/lubuntu/Dokument/GitHub/STM32-Computer/Firmware/STM32-Computer-Firmware/CA7/optee-os-3.19.0-r2/optee-os-stm32mp-3.19.0-stm32mp-r2/ldelf/sys.c:88
    404e:	f000 ba97 	b.w	4580 <___ldelf_gen_rnd_num_from_thumb>

00004052 <print_wrapper>:
print_wrapper():
/home/lubuntu/Dokument/GitHub/STM32-Computer/Firmware/STM32-Computer-Firmware/CA7/optee-os-3.19.0-r2/optee-os-stm32mp-3.19.0-stm32mp-r2/ldelf/ta_elf.c:1313
    4052:	b40c      	push	{r2, r3}
    4054:	460b      	mov	r3, r1
    4056:	b507      	push	{r0, r1, r2, lr}
    4058:	aa04      	add	r2, sp, #16
    405a:	f852 1b04 	ldr.w	r1, [r2], #4
/home/lubuntu/Dokument/GitHub/STM32-Computer/Firmware/STM32-Computer-Firmware/CA7/optee-os-3.19.0-r2/optee-os-stm32mp-3.19.0-stm32mp-r2/ldelf/ta_elf.c:1316
    405e:	9201      	str	r2, [sp, #4]
/home/lubuntu/Dokument/GitHub/STM32-Computer/Firmware/STM32-Computer-Firmware/CA7/optee-os-3.19.0-r2/optee-os-stm32mp-3.19.0-stm32mp-r2/ldelf/ta_elf.c:1317
    4060:	4798      	blx	r3
/home/lubuntu/Dokument/GitHub/STM32-Computer/Firmware/STM32-Computer-Firmware/CA7/optee-os-3.19.0-r2/optee-os-stm32mp-3.19.0-stm32mp-r2/ldelf/ta_elf.c:1319
    4062:	b003      	add	sp, #12
    4064:	f85d eb04 	ldr.w	lr, [sp], #4
    4068:	b002      	add	sp, #8
    406a:	4770      	bx	lr

0000406c <read_dyn>:
read_dyn():
/home/lubuntu/Dokument/GitHub/STM32-Computer/Firmware/STM32-Computer-Firmware/CA7/optee-os-3.19.0-r2/optee-os-stm32mp-3.19.0-stm32mp-r2/ldelf/ta_elf.c:180
    406c:	b510      	push	{r4, lr}
/home/lubuntu/Dokument/GitHub/STM32-Computer/Firmware/STM32-Computer-Firmware/CA7/optee-os-3.19.0-r2/optee-os-stm32mp-3.19.0-stm32mp-r2/ldelf/ta_elf.c:182
    406e:	6844      	ldr	r4, [r0, #4]
/home/lubuntu/Dokument/GitHub/STM32-Computer/Firmware/STM32-Computer-Firmware/CA7/optee-os-3.19.0-r2/optee-os-stm32mp-3.19.0-stm32mp-r2/ldelf/ta_elf.c:181
    4070:	7840      	ldrb	r0, [r0, #1]
/home/lubuntu/Dokument/GitHub/STM32-Computer/Firmware/STM32-Computer-Firmware/CA7/optee-os-3.19.0-r2/optee-os-stm32mp-3.19.0-stm32mp-r2/ldelf/ta_elf.c:182
    4072:	4421      	add	r1, r4
/home/lubuntu/Dokument/GitHub/STM32-Computer/Firmware/STM32-Computer-Firmware/CA7/optee-os-3.19.0-r2/optee-os-stm32mp-3.19.0-stm32mp-r2/ldelf/ta_elf.c:181
    4074:	b140      	cbz	r0, 4088 <read_dyn+0x1c>
/home/lubuntu/Dokument/GitHub/STM32-Computer/Firmware/STM32-Computer-Firmware/CA7/optee-os-3.19.0-r2/optee-os-stm32mp-3.19.0-stm32mp-r2/ldelf/ta_elf.c:184
    4076:	eb01 00c2 	add.w	r0, r1, r2, lsl #3
    407a:	f851 2032 	ldr.w	r2, [r1, r2, lsl #3]
    407e:	601a      	str	r2, [r3, #0]
/home/lubuntu/Dokument/GitHub/STM32-Computer/Firmware/STM32-Computer-Firmware/CA7/optee-os-3.19.0-r2/optee-os-stm32mp-3.19.0-stm32mp-r2/ldelf/ta_elf.c:185
    4080:	6843      	ldr	r3, [r0, #4]
    4082:	9a02      	ldr	r2, [sp, #8]
    4084:	6013      	str	r3, [r2, #0]
/home/lubuntu/Dokument/GitHub/STM32-Computer/Firmware/STM32-Computer-Firmware/CA7/optee-os-3.19.0-r2/optee-os-stm32mp-3.19.0-stm32mp-r2/ldelf/ta_elf.c:192
    4086:	bd10      	pop	{r4, pc}
/home/lubuntu/Dokument/GitHub/STM32-Computer/Firmware/STM32-Computer-Firmware/CA7/optee-os-3.19.0-r2/optee-os-stm32mp-3.19.0-stm32mp-r2/ldelf/ta_elf.c:189
    4088:	0110      	lsls	r0, r2, #4
    408a:	eb01 1202 	add.w	r2, r1, r2, lsl #4
    408e:	5809      	ldr	r1, [r1, r0]
    4090:	6019      	str	r1, [r3, #0]
/home/lubuntu/Dokument/GitHub/STM32-Computer/Firmware/STM32-Computer-Firmware/CA7/optee-os-3.19.0-r2/optee-os-stm32mp-3.19.0-stm32mp-r2/ldelf/ta_elf.c:190
    4092:	6893      	ldr	r3, [r2, #8]
    4094:	e7f5      	b.n	4082 <read_dyn+0x16>

00004096 <elf_get_init_fini_array.constprop.0>:
elf_get_init_fini_array():
/home/lubuntu/Dokument/GitHub/STM32-Computer/Firmware/STM32-Computer-Firmware/CA7/optee-os-3.19.0-r2/optee-os-stm32mp-3.19.0-stm32mp-r2/ldelf/ta_elf.c:1623
    4096:	b5f0      	push	{r4, r5, r6, r7, lr}
    4098:	b085      	sub	sp, #20
/home/lubuntu/Dokument/GitHub/STM32-Computer/Firmware/STM32-Computer-Firmware/CA7/optee-os-3.19.0-r2/optee-os-stm32mp-3.19.0-stm32mp-r2/ldelf/ta_elf.c:1629
    409a:	7845      	ldrb	r5, [r0, #1]
/home/lubuntu/Dokument/GitHub/STM32-Computer/Firmware/STM32-Computer-Firmware/CA7/optee-os-3.19.0-r2/optee-os-stm32mp-3.19.0-stm32mp-r2/ldelf/ta_elf.c:1623
    409c:	f8dd c028 	ldr.w	ip, [sp, #40]	@ 0x28
/home/lubuntu/Dokument/GitHub/STM32-Computer/Firmware/STM32-Computer-Firmware/CA7/optee-os-3.19.0-r2/optee-os-stm32mp-3.19.0-stm32mp-r2/ldelf/ta_elf.c:1630
    40a0:	6b04      	ldr	r4, [r0, #48]	@ 0x30
/home/lubuntu/Dokument/GitHub/STM32-Computer/Firmware/STM32-Computer-Firmware/CA7/optee-os-3.19.0-r2/optee-os-stm32mp-3.19.0-stm32mp-r2/ldelf/ta_elf.c:1632
    40a2:	6a07      	ldr	r7, [r0, #32]
/home/lubuntu/Dokument/GitHub/STM32-Computer/Firmware/STM32-Computer-Firmware/CA7/optee-os-3.19.0-r2/optee-os-stm32mp-3.19.0-stm32mp-r2/ldelf/ta_elf.c:1629
    40a4:	b1bd      	cbz	r5, 40d6 <elf_get_init_fini_array.constprop.0+0x40>
/home/lubuntu/Dokument/GitHub/STM32-Computer/Firmware/STM32-Computer-Firmware/CA7/optee-os-3.19.0-r2/optee-os-stm32mp-3.19.0-stm32mp-r2/ldelf/ta_elf.c:1632
    40a6:	2500      	movs	r5, #0
    40a8:	42bd      	cmp	r5, r7
    40aa:	d101      	bne.n	40b0 <elf_get_init_fini_array.constprop.0+0x1a>
/home/lubuntu/Dokument/GitHub/STM32-Computer/Firmware/STM32-Computer-Firmware/CA7/optee-os-3.19.0-r2/optee-os-stm32mp-3.19.0-stm32mp-r2/ldelf/ta_elf.c:1656
    40ac:	b005      	add	sp, #20
    40ae:	bdf0      	pop	{r4, r5, r6, r7, pc}
/home/lubuntu/Dokument/GitHub/STM32-Computer/Firmware/STM32-Computer-Firmware/CA7/optee-os-3.19.0-r2/optee-os-stm32mp-3.19.0-stm32mp-r2/ldelf/ta_elf.c:1633
    40b0:	4626      	mov	r6, r4
    40b2:	f856 eb20 	ldr.w	lr, [r6], #32
    40b6:	f1be 0f02 	cmp.w	lr, #2
    40ba:	d107      	bne.n	40cc <elf_get_init_fini_array.constprop.0+0x36>
/home/lubuntu/Dokument/GitHub/STM32-Computer/Firmware/STM32-Computer-Firmware/CA7/optee-os-3.19.0-r2/optee-os-stm32mp-3.19.0-stm32mp-r2/ldelf/ta_elf.c:1634
    40bc:	e88d 100c 	stmia.w	sp, {r2, r3, ip}
    40c0:	6962      	ldr	r2, [r4, #20]
    40c2:	460b      	mov	r3, r1
    40c4:	68a1      	ldr	r1, [r4, #8]
/home/lubuntu/Dokument/GitHub/STM32-Computer/Firmware/STM32-Computer-Firmware/CA7/optee-os-3.19.0-r2/optee-os-stm32mp-3.19.0-stm32mp-r2/ldelf/ta_elf.c:1647
    40c6:	f7fd fa67 	bl	1598 <get_init_fini_array.constprop.0>
/home/lubuntu/Dokument/GitHub/STM32-Computer/Firmware/STM32-Computer-Firmware/CA7/optee-os-3.19.0-r2/optee-os-stm32mp-3.19.0-stm32mp-r2/ldelf/ta_elf.c:1652
    40ca:	e7ef      	b.n	40ac <elf_get_init_fini_array.constprop.0+0x16>
/home/lubuntu/Dokument/GitHub/STM32-Computer/Firmware/STM32-Computer-Firmware/CA7/optee-os-3.19.0-r2/optee-os-stm32mp-3.19.0-stm32mp-r2/ldelf/ta_elf.c:1632
    40cc:	3501      	adds	r5, #1
    40ce:	4634      	mov	r4, r6
    40d0:	e7ea      	b.n	40a8 <elf_get_init_fini_array.constprop.0+0x12>
/home/lubuntu/Dokument/GitHub/STM32-Computer/Firmware/STM32-Computer-Firmware/CA7/optee-os-3.19.0-r2/optee-os-stm32mp-3.19.0-stm32mp-r2/ldelf/ta_elf.c:1645
    40d2:	3501      	adds	r5, #1
    40d4:	4634      	mov	r4, r6
    40d6:	42bd      	cmp	r5, r7
    40d8:	d0e8      	beq.n	40ac <elf_get_init_fini_array.constprop.0+0x16>
/home/lubuntu/Dokument/GitHub/STM32-Computer/Firmware/STM32-Computer-Firmware/CA7/optee-os-3.19.0-r2/optee-os-stm32mp-3.19.0-stm32mp-r2/ldelf/ta_elf.c:1646
    40da:	4626      	mov	r6, r4
    40dc:	f856 eb38 	ldr.w	lr, [r6], #56
    40e0:	f1be 0f02 	cmp.w	lr, #2
    40e4:	d1f5      	bne.n	40d2 <elf_get_init_fini_array.constprop.0+0x3c>
/home/lubuntu/Dokument/GitHub/STM32-Computer/Firmware/STM32-Computer-Firmware/CA7/optee-os-3.19.0-r2/optee-os-stm32mp-3.19.0-stm32mp-r2/ldelf/ta_elf.c:1647
    40e6:	e88d 100c 	stmia.w	sp, {r2, r3, ip}
    40ea:	6aa2      	ldr	r2, [r4, #40]	@ 0x28
    40ec:	460b      	mov	r3, r1
    40ee:	6921      	ldr	r1, [r4, #16]
    40f0:	e7e9      	b.n	40c6 <elf_get_init_fini_array.constprop.0+0x30>

000040f2 <add_dependencies>:
add_dependencies():
/home/lubuntu/Dokument/GitHub/STM32-Computer/Firmware/STM32-Computer-Firmware/CA7/optee-os-3.19.0-r2/optee-os-stm32mp-3.19.0-stm32mp-r2/ldelf/ta_elf.c:1043
    40f2:	b570      	push	{r4, r5, r6, lr}
    40f4:	4605      	mov	r5, r0
/home/lubuntu/Dokument/GitHub/STM32-Computer/Firmware/STM32-Computer-Firmware/CA7/optee-os-3.19.0-r2/optee-os-stm32mp-3.19.0-stm32mp-r2/ldelf/ta_elf.c:1046
    40f6:	7846      	ldrb	r6, [r0, #1]
/home/lubuntu/Dokument/GitHub/STM32-Computer/Firmware/STM32-Computer-Firmware/CA7/optee-os-3.19.0-r2/optee-os-stm32mp-3.19.0-stm32mp-r2/ldelf/ta_elf.c:1047
    40f8:	6b04      	ldr	r4, [r0, #48]	@ 0x30
/home/lubuntu/Dokument/GitHub/STM32-Computer/Firmware/STM32-Computer-Firmware/CA7/optee-os-3.19.0-r2/optee-os-stm32mp-3.19.0-stm32mp-r2/ldelf/ta_elf.c:1046
    40fa:	b1d6      	cbz	r6, 4132 <add_dependencies+0x40>
/home/lubuntu/Dokument/GitHub/STM32-Computer/Firmware/STM32-Computer-Firmware/CA7/optee-os-3.19.0-r2/optee-os-stm32mp-3.19.0-stm32mp-r2/ldelf/ta_elf.c:1049
    40fc:	2600      	movs	r6, #0
/home/lubuntu/Dokument/GitHub/STM32-Computer/Firmware/STM32-Computer-Firmware/CA7/optee-os-3.19.0-r2/optee-os-stm32mp-3.19.0-stm32mp-r2/ldelf/ta_elf.c:1049 (discriminator 1)
    40fe:	6a2b      	ldr	r3, [r5, #32]
    4100:	3420      	adds	r4, #32
    4102:	42b3      	cmp	r3, r6
    4104:	d800      	bhi.n	4108 <add_dependencies+0x16>
/home/lubuntu/Dokument/GitHub/STM32-Computer/Firmware/STM32-Computer-Firmware/CA7/optee-os-3.19.0-r2/optee-os-stm32mp-3.19.0-stm32mp-r2/ldelf/ta_elf.c:1059
    4106:	bd70      	pop	{r4, r5, r6, pc}
/home/lubuntu/Dokument/GitHub/STM32-Computer/Firmware/STM32-Computer-Firmware/CA7/optee-os-3.19.0-r2/optee-os-stm32mp-3.19.0-stm32mp-r2/ldelf/ta_elf.c:1050 (discriminator 3)
    4108:	f854 3c0c 	ldr.w	r3, [r4, #-12]
    410c:	4628      	mov	r0, r5
    410e:	f854 2c18 	ldr.w	r2, [r4, #-24]
/home/lubuntu/Dokument/GitHub/STM32-Computer/Firmware/STM32-Computer-Firmware/CA7/optee-os-3.19.0-r2/optee-os-stm32mp-3.19.0-stm32mp-r2/ldelf/ta_elf.c:1049 (discriminator 3)
    4112:	3601      	adds	r6, #1
/home/lubuntu/Dokument/GitHub/STM32-Computer/Firmware/STM32-Computer-Firmware/CA7/optee-os-3.19.0-r2/optee-os-stm32mp-3.19.0-stm32mp-r2/ldelf/ta_elf.c:1050 (discriminator 3)
    4114:	f854 1c20 	ldr.w	r1, [r4, #-32]
    4118:	f7fd fac8 	bl	16ac <add_deps_from_segment>
/home/lubuntu/Dokument/GitHub/STM32-Computer/Firmware/STM32-Computer-Firmware/CA7/optee-os-3.19.0-r2/optee-os-stm32mp-3.19.0-stm32mp-r2/ldelf/ta_elf.c:1049 (discriminator 3)
    411c:	e7ef      	b.n	40fe <add_dependencies+0xc>
/home/lubuntu/Dokument/GitHub/STM32-Computer/Firmware/STM32-Computer-Firmware/CA7/optee-os-3.19.0-r2/optee-os-stm32mp-3.19.0-stm32mp-r2/ldelf/ta_elf.c:1056
    411e:	f854 3c10 	ldr.w	r3, [r4, #-16]
    4122:	4628      	mov	r0, r5
    4124:	f854 2c28 	ldr.w	r2, [r4, #-40]
/home/lubuntu/Dokument/GitHub/STM32-Computer/Firmware/STM32-Computer-Firmware/CA7/optee-os-3.19.0-r2/optee-os-stm32mp-3.19.0-stm32mp-r2/ldelf/ta_elf.c:1055
    4128:	3601      	adds	r6, #1
/home/lubuntu/Dokument/GitHub/STM32-Computer/Firmware/STM32-Computer-Firmware/CA7/optee-os-3.19.0-r2/optee-os-stm32mp-3.19.0-stm32mp-r2/ldelf/ta_elf.c:1056
    412a:	f854 1c38 	ldr.w	r1, [r4, #-56]
    412e:	f7fd fabd 	bl	16ac <add_deps_from_segment>
/home/lubuntu/Dokument/GitHub/STM32-Computer/Firmware/STM32-Computer-Firmware/CA7/optee-os-3.19.0-r2/optee-os-stm32mp-3.19.0-stm32mp-r2/ldelf/ta_elf.c:1055
    4132:	6a2b      	ldr	r3, [r5, #32]
    4134:	3438      	adds	r4, #56	@ 0x38
    4136:	429e      	cmp	r6, r3
    4138:	d3f1      	bcc.n	411e <add_dependencies+0x2c>
    413a:	e7e4      	b.n	4106 <add_dependencies+0x14>

0000413c <ta_elf_stack_trace_a64>:
ta_elf_stack_trace_a64():
/home/lubuntu/Dokument/GitHub/STM32-Computer/Firmware/STM32-Computer-Firmware/CA7/optee-os-3.19.0-r2/optee-os-stm32mp-3.19.0-stm32mp-r2/ldelf/ta_elf.c:1545
    413c:	4770      	bx	lr

0000413e <confine_array_index>:
confine_array_index():
/home/lubuntu/Dokument/GitHub/STM32-Computer/Firmware/STM32-Computer-Firmware/CA7/optee-os-3.19.0-r2/optee-os-stm32mp-3.19.0-stm32mp-r2/lib/libutils/ext/include/confine_array_index.h:98
    413e:	4288      	cmp	r0, r1
    4140:	bf28      	it	cs
    4142:	2000      	movcs	r0, #0
    4144:	f3af 8014 	csdb
/home/lubuntu/Dokument/GitHub/STM32-Computer/Firmware/STM32-Computer-Firmware/CA7/optee-os-3.19.0-r2/optee-os-stm32mp-3.19.0-stm32mp-r2/lib/libutils/ext/include/confine_array_index.h:124
    4148:	4770      	bx	lr

0000414a <pop_vsp>:
pop_vsp():
/home/lubuntu/Dokument/GitHub/STM32-Computer/Firmware/STM32-Computer-Firmware/CA7/optee-os-3.19.0-r2/optee-os-stm32mp-3.19.0-stm32mp-r2/lib/libunw/unwind_arm32.c:178
    414a:	b538      	push	{r3, r4, r5, lr}
    414c:	460c      	mov	r4, r1
/home/lubuntu/Dokument/GitHub/STM32-Computer/Firmware/STM32-Computer-Firmware/CA7/optee-os-3.19.0-r2/optee-os-stm32mp-3.19.0-stm32mp-r2/lib/libunw/unwind_arm32.c:179
    414e:	6809      	ldr	r1, [r1, #0]
/home/lubuntu/Dokument/GitHub/STM32-Computer/Firmware/STM32-Computer-Firmware/CA7/optee-os-3.19.0-r2/optee-os-stm32mp-3.19.0-stm32mp-r2/lib/libunw/unwind_arm32.c:178
    4150:	461d      	mov	r5, r3
/home/lubuntu/Dokument/GitHub/STM32-Computer/Firmware/STM32-Computer-Firmware/CA7/optee-os-3.19.0-r2/optee-os-stm32mp-3.19.0-stm32mp-r2/lib/libunw/unwind_arm32.c:179
    4152:	4291      	cmp	r1, r2
    4154:	d30b      	bcc.n	416e <pop_vsp+0x24>
/home/lubuntu/Dokument/GitHub/STM32-Computer/Firmware/STM32-Computer-Firmware/CA7/optee-os-3.19.0-r2/optee-os-stm32mp-3.19.0-stm32mp-r2/lib/libunw/unwind_arm32.c:181
    4156:	442a      	add	r2, r5
    4158:	1d0b      	adds	r3, r1, #4
    415a:	4293      	cmp	r3, r2
    415c:	d807      	bhi.n	416e <pop_vsp+0x24>
copy_in():
/home/lubuntu/Dokument/GitHub/STM32-Computer/Firmware/STM32-Computer-Firmware/CA7/optee-os-3.19.0-r2/optee-os-stm32mp-3.19.0-stm32mp-r2/lib/libunw/unwind_arm32.c:101
    415e:	2204      	movs	r2, #4
    4160:	f7ff fab8 	bl	36d4 <memcpy>
pop_vsp():
/home/lubuntu/Dokument/GitHub/STM32-Computer/Firmware/STM32-Computer-Firmware/CA7/optee-os-3.19.0-r2/optee-os-stm32mp-3.19.0-stm32mp-r2/lib/libunw/unwind_arm32.c:186
    4164:	6823      	ldr	r3, [r4, #0]
/home/lubuntu/Dokument/GitHub/STM32-Computer/Firmware/STM32-Computer-Firmware/CA7/optee-os-3.19.0-r2/optee-os-stm32mp-3.19.0-stm32mp-r2/lib/libunw/unwind_arm32.c:187
    4166:	2001      	movs	r0, #1
/home/lubuntu/Dokument/GitHub/STM32-Computer/Firmware/STM32-Computer-Firmware/CA7/optee-os-3.19.0-r2/optee-os-stm32mp-3.19.0-stm32mp-r2/lib/libunw/unwind_arm32.c:186
    4168:	3304      	adds	r3, #4
    416a:	6023      	str	r3, [r4, #0]
/home/lubuntu/Dokument/GitHub/STM32-Computer/Firmware/STM32-Computer-Firmware/CA7/optee-os-3.19.0-r2/optee-os-stm32mp-3.19.0-stm32mp-r2/lib/libunw/unwind_arm32.c:188
    416c:	bd38      	pop	{r3, r4, r5, pc}
/home/lubuntu/Dokument/GitHub/STM32-Computer/Firmware/STM32-Computer-Firmware/CA7/optee-os-3.19.0-r2/optee-os-stm32mp-3.19.0-stm32mp-r2/lib/libunw/unwind_arm32.c:180
    416e:	2000      	movs	r0, #0
    4170:	e7fc      	b.n	416c <pop_vsp+0x22>

00004172 <unwind_exec_read_byte>:
unwind_exec_read_byte():
/home/lubuntu/Dokument/GitHub/STM32-Computer/Firmware/STM32-Computer-Firmware/CA7/optee-os-3.19.0-r2/optee-os-stm32mp-3.19.0-stm32mp-r2/lib/libunw/unwind_arm32.c:155
    4172:	b573      	push	{r0, r1, r4, r5, r6, lr}
copy_in():
/home/lubuntu/Dokument/GitHub/STM32-Computer/Firmware/STM32-Computer-Firmware/CA7/optee-os-3.19.0-r2/optee-os-stm32mp-3.19.0-stm32mp-r2/lib/libunw/unwind_arm32.c:101
    4174:	2204      	movs	r2, #4
unwind_exec_read_byte():
/home/lubuntu/Dokument/GitHub/STM32-Computer/Firmware/STM32-Computer-Firmware/CA7/optee-os-3.19.0-r2/optee-os-stm32mp-3.19.0-stm32mp-r2/lib/libunw/unwind_arm32.c:158
    4176:	6c45      	ldr	r5, [r0, #68]	@ 0x44
/home/lubuntu/Dokument/GitHub/STM32-Computer/Firmware/STM32-Computer-Firmware/CA7/optee-os-3.19.0-r2/optee-os-stm32mp-3.19.0-stm32mp-r2/lib/libunw/unwind_arm32.c:155
    4178:	4604      	mov	r4, r0
copy_in():
/home/lubuntu/Dokument/GitHub/STM32-Computer/Firmware/STM32-Computer-Firmware/CA7/optee-os-3.19.0-r2/optee-os-stm32mp-3.19.0-stm32mp-r2/lib/libunw/unwind_arm32.c:101
    417a:	eb0d 0002 	add.w	r0, sp, r2
unwind_exec_read_byte():
/home/lubuntu/Dokument/GitHub/STM32-Computer/Firmware/STM32-Computer-Firmware/CA7/optee-os-3.19.0-r2/optee-os-stm32mp-3.19.0-stm32mp-r2/lib/libunw/unwind_arm32.c:155
    417e:	460e      	mov	r6, r1
copy_in():
/home/lubuntu/Dokument/GitHub/STM32-Computer/Firmware/STM32-Computer-Firmware/CA7/optee-os-3.19.0-r2/optee-os-stm32mp-3.19.0-stm32mp-r2/lib/libunw/unwind_arm32.c:101
    4180:	4629      	mov	r1, r5
    4182:	f7ff faa7 	bl	36d4 <memcpy>
unwind_exec_read_byte():
/home/lubuntu/Dokument/GitHub/STM32-Computer/Firmware/STM32-Computer-Firmware/CA7/optee-os-3.19.0-r2/optee-os-stm32mp-3.19.0-stm32mp-r2/lib/libunw/unwind_arm32.c:162
    4186:	6ce3      	ldr	r3, [r4, #76]	@ 0x4c
    4188:	00da      	lsls	r2, r3, #3
    418a:	9b01      	ldr	r3, [sp, #4]
    418c:	40d3      	lsrs	r3, r2
    418e:	b2db      	uxtb	r3, r3
    4190:	6033      	str	r3, [r6, #0]
/home/lubuntu/Dokument/GitHub/STM32-Computer/Firmware/STM32-Computer-Firmware/CA7/optee-os-3.19.0-r2/optee-os-stm32mp-3.19.0-stm32mp-r2/lib/libunw/unwind_arm32.c:165
    4192:	6ce3      	ldr	r3, [r4, #76]	@ 0x4c
    4194:	b94b      	cbnz	r3, 41aa <unwind_exec_read_byte+0x38>
/home/lubuntu/Dokument/GitHub/STM32-Computer/Firmware/STM32-Computer-Firmware/CA7/optee-os-3.19.0-r2/optee-os-stm32mp-3.19.0-stm32mp-r2/lib/libunw/unwind_arm32.c:166
    4196:	2303      	movs	r3, #3
/home/lubuntu/Dokument/GitHub/STM32-Computer/Firmware/STM32-Computer-Firmware/CA7/optee-os-3.19.0-r2/optee-os-stm32mp-3.19.0-stm32mp-r2/lib/libunw/unwind_arm32.c:167
    4198:	3504      	adds	r5, #4
/home/lubuntu/Dokument/GitHub/STM32-Computer/Firmware/STM32-Computer-Firmware/CA7/optee-os-3.19.0-r2/optee-os-stm32mp-3.19.0-stm32mp-r2/lib/libunw/unwind_arm32.c:166
    419a:	64e3      	str	r3, [r4, #76]	@ 0x4c
/home/lubuntu/Dokument/GitHub/STM32-Computer/Firmware/STM32-Computer-Firmware/CA7/optee-os-3.19.0-r2/optee-os-stm32mp-3.19.0-stm32mp-r2/lib/libunw/unwind_arm32.c:168
    419c:	6ca3      	ldr	r3, [r4, #72]	@ 0x48
/home/lubuntu/Dokument/GitHub/STM32-Computer/Firmware/STM32-Computer-Firmware/CA7/optee-os-3.19.0-r2/optee-os-stm32mp-3.19.0-stm32mp-r2/lib/libunw/unwind_arm32.c:167
    419e:	6465      	str	r5, [r4, #68]	@ 0x44
/home/lubuntu/Dokument/GitHub/STM32-Computer/Firmware/STM32-Computer-Firmware/CA7/optee-os-3.19.0-r2/optee-os-stm32mp-3.19.0-stm32mp-r2/lib/libunw/unwind_arm32.c:168
    41a0:	3b01      	subs	r3, #1
    41a2:	64a3      	str	r3, [r4, #72]	@ 0x48
/home/lubuntu/Dokument/GitHub/STM32-Computer/Firmware/STM32-Computer-Firmware/CA7/optee-os-3.19.0-r2/optee-os-stm32mp-3.19.0-stm32mp-r2/lib/libunw/unwind_arm32.c:174
    41a4:	2001      	movs	r0, #1
    41a6:	b002      	add	sp, #8
    41a8:	bd70      	pop	{r4, r5, r6, pc}
/home/lubuntu/Dokument/GitHub/STM32-Computer/Firmware/STM32-Computer-Firmware/CA7/optee-os-3.19.0-r2/optee-os-stm32mp-3.19.0-stm32mp-r2/lib/libunw/unwind_arm32.c:170
    41aa:	3b01      	subs	r3, #1
    41ac:	64e3      	str	r3, [r4, #76]	@ 0x4c
    41ae:	e7f9      	b.n	41a4 <unwind_exec_read_byte+0x32>

000041b0 <raw_malloc_return_hook>:
raw_malloc_return_hook():
/home/lubuntu/Dokument/GitHub/STM32-Computer/Firmware/STM32-Computer-Firmware/CA7/optee-os-3.19.0-r2/optee-os-stm32mp-3.19.0-stm32mp-r2/lib/libutils/isoc/bget_malloc.c:277
    41b0:	6913      	ldr	r3, [r2, #16]
/home/lubuntu/Dokument/GitHub/STM32-Computer/Firmware/STM32-Computer-Firmware/CA7/optee-os-3.19.0-r2/optee-os-stm32mp-3.19.0-stm32mp-r2/lib/libutils/isoc/bget_malloc.c:276
    41b2:	b510      	push	{r4, lr}
/home/lubuntu/Dokument/GitHub/STM32-Computer/Firmware/STM32-Computer-Firmware/CA7/optee-os-3.19.0-r2/optee-os-stm32mp-3.19.0-stm32mp-r2/lib/libutils/isoc/bget_malloc.c:277
    41b4:	6c94      	ldr	r4, [r2, #72]	@ 0x48
    41b6:	42a3      	cmp	r3, r4
/home/lubuntu/Dokument/GitHub/STM32-Computer/Firmware/STM32-Computer-Firmware/CA7/optee-os-3.19.0-r2/optee-os-stm32mp-3.19.0-stm32mp-r2/lib/libutils/isoc/bget_malloc.c:278
    41b8:	bf88      	it	hi
    41ba:	6493      	strhi	r3, [r2, #72]	@ 0x48
/home/lubuntu/Dokument/GitHub/STM32-Computer/Firmware/STM32-Computer-Firmware/CA7/optee-os-3.19.0-r2/optee-os-stm32mp-3.19.0-stm32mp-r2/lib/libutils/isoc/bget_malloc.c:280
    41bc:	b938      	cbnz	r0, 41ce <raw_malloc_return_hook+0x1e>
/home/lubuntu/Dokument/GitHub/STM32-Computer/Firmware/STM32-Computer-Firmware/CA7/optee-os-3.19.0-r2/optee-os-stm32mp-3.19.0-stm32mp-r2/lib/libutils/isoc/bget_malloc.c:281
    41be:	6d14      	ldr	r4, [r2, #80]	@ 0x50
    41c0:	3401      	adds	r4, #1
    41c2:	6514      	str	r4, [r2, #80]	@ 0x50
/home/lubuntu/Dokument/GitHub/STM32-Computer/Firmware/STM32-Computer-Firmware/CA7/optee-os-3.19.0-r2/optee-os-stm32mp-3.19.0-stm32mp-r2/lib/libutils/isoc/bget_malloc.c:283
    41c4:	6d54      	ldr	r4, [r2, #84]	@ 0x54
    41c6:	428c      	cmp	r4, r1
/home/lubuntu/Dokument/GitHub/STM32-Computer/Firmware/STM32-Computer-Firmware/CA7/optee-os-3.19.0-r2/optee-os-stm32mp-3.19.0-stm32mp-r2/lib/libutils/isoc/bget_malloc.c:284
    41c8:	bf3c      	itt	cc
    41ca:	6551      	strcc	r1, [r2, #84]	@ 0x54
/home/lubuntu/Dokument/GitHub/STM32-Computer/Firmware/STM32-Computer-Firmware/CA7/optee-os-3.19.0-r2/optee-os-stm32mp-3.19.0-stm32mp-r2/lib/libutils/isoc/bget_malloc.c:285
    41cc:	6593      	strcc	r3, [r2, #88]	@ 0x58
/home/lubuntu/Dokument/GitHub/STM32-Computer/Firmware/STM32-Computer-Firmware/CA7/optee-os-3.19.0-r2/optee-os-stm32mp-3.19.0-stm32mp-r2/lib/libutils/isoc/bget_malloc.c:291
    41ce:	bd10      	pop	{r4, pc}

000041d0 <_assert_trap>:
_assert_trap():
/home/lubuntu/Dokument/GitHub/STM32-Computer/Firmware/STM32-Computer-Firmware/CA7/optee-os-3.19.0-r2/optee-os-stm32mp-3.19.0-stm32mp-r2/lib/libutils/isoc/include/assert.h:18
    41d0:	b508      	push	{r3, lr}
/home/lubuntu/Dokument/GitHub/STM32-Computer/Firmware/STM32-Computer-Firmware/CA7/optee-os-3.19.0-r2/optee-os-stm32mp-3.19.0-stm32mp-r2/lib/libutils/isoc/include/assert.h:19
    41d2:	f7fe feaf 	bl	2f34 <_assert_log>
/home/lubuntu/Dokument/GitHub/STM32-Computer/Firmware/STM32-Computer-Firmware/CA7/optee-os-3.19.0-r2/optee-os-stm32mp-3.19.0-stm32mp-r2/lib/libutils/isoc/include/assert.h:20
    41d6:	f7fe fec1 	bl	2f5c <_assert_break>

000041da <raw_malloc>:
raw_malloc():
/home/lubuntu/Dokument/GitHub/STM32-Computer/Firmware/STM32-Computer-Firmware/CA7/optee-os-3.19.0-r2/optee-os-stm32mp-3.19.0-stm32mp-r2/lib/libutils/isoc/bget_malloc.c:445
    41da:	b538      	push	{r3, r4, r5, lr}
    41dc:	4614      	mov	r4, r2
raw_memalign():
/home/lubuntu/Dokument/GitHub/STM32-Computer/Firmware/STM32-Computer-Firmware/CA7/optee-os-3.19.0-r2/optee-os-stm32mp-3.19.0-stm32mp-r2/lib/libutils/isoc/bget_malloc.c:431
    41de:	188a      	adds	r2, r1, r2
raw_malloc():
/home/lubuntu/Dokument/GitHub/STM32-Computer/Firmware/STM32-Computer-Firmware/CA7/optee-os-3.19.0-r2/optee-os-stm32mp-3.19.0-stm32mp-r2/lib/libutils/isoc/bget_malloc.c:445
    41e0:	461d      	mov	r5, r3
raw_memalign():
/home/lubuntu/Dokument/GitHub/STM32-Computer/Firmware/STM32-Computer-Firmware/CA7/optee-os-3.19.0-r2/optee-os-stm32mp-3.19.0-stm32mp-r2/lib/libutils/isoc/bget_malloc.c:431
    41e2:	d40e      	bmi.n	4202 <raw_malloc+0x28>
    41e4:	42a2      	cmp	r2, r4
    41e6:	d30c      	bcc.n	4202 <raw_malloc+0x28>
/home/lubuntu/Dokument/GitHub/STM32-Computer/Firmware/STM32-Computer-Firmware/CA7/optee-os-3.19.0-r2/optee-os-stm32mp-3.19.0-stm32mp-r2/lib/libutils/isoc/bget_malloc.c:436
    41e8:	2a00      	cmp	r2, #0
/home/lubuntu/Dokument/GitHub/STM32-Computer/Firmware/STM32-Computer-Firmware/CA7/optee-os-3.19.0-r2/optee-os-stm32mp-3.19.0-stm32mp-r2/lib/libutils/isoc/bget_malloc.c:438
    41ea:	4601      	mov	r1, r0
    41ec:	bf08      	it	eq
    41ee:	2201      	moveq	r2, #1
    41f0:	2008      	movs	r0, #8
    41f2:	f7fe ff67 	bl	30c4 <bget>
/home/lubuntu/Dokument/GitHub/STM32-Computer/Firmware/STM32-Computer-Firmware/CA7/optee-os-3.19.0-r2/optee-os-stm32mp-3.19.0-stm32mp-r2/lib/libutils/isoc/bget_malloc.c:440
    41f6:	462a      	mov	r2, r5
    41f8:	4621      	mov	r1, r4
raw_malloc():
/home/lubuntu/Dokument/GitHub/STM32-Computer/Firmware/STM32-Computer-Firmware/CA7/optee-os-3.19.0-r2/optee-os-stm32mp-3.19.0-stm32mp-r2/lib/libutils/isoc/bget_malloc.c:451
    41fa:	e8bd 4038 	ldmia.w	sp!, {r3, r4, r5, lr}
raw_memalign():
/home/lubuntu/Dokument/GitHub/STM32-Computer/Firmware/STM32-Computer-Firmware/CA7/optee-os-3.19.0-r2/optee-os-stm32mp-3.19.0-stm32mp-r2/lib/libutils/isoc/bget_malloc.c:440
    41fe:	f7ff bfd7 	b.w	41b0 <raw_malloc_return_hook>
/home/lubuntu/Dokument/GitHub/STM32-Computer/Firmware/STM32-Computer-Firmware/CA7/optee-os-3.19.0-r2/optee-os-stm32mp-3.19.0-stm32mp-r2/lib/libutils/isoc/bget_malloc.c:422
    4202:	2000      	movs	r0, #0
    4204:	e7f7      	b.n	41f6 <raw_malloc+0x1c>

00004206 <raw_free>:
raw_free():
/home/lubuntu/Dokument/GitHub/STM32-Computer/Firmware/STM32-Computer-Firmware/CA7/optee-os-3.19.0-r2/optee-os-stm32mp-3.19.0-stm32mp-r2/lib/libutils/isoc/bget_malloc.c:457
    4206:	b108      	cbz	r0, 420c <raw_free+0x6>
/home/lubuntu/Dokument/GitHub/STM32-Computer/Firmware/STM32-Computer-Firmware/CA7/optee-os-3.19.0-r2/optee-os-stm32mp-3.19.0-stm32mp-r2/lib/libutils/isoc/bget_malloc.c:458
    4208:	f7ff b890 	b.w	332c <brel>
/home/lubuntu/Dokument/GitHub/STM32-Computer/Firmware/STM32-Computer-Firmware/CA7/optee-os-3.19.0-r2/optee-os-stm32mp-3.19.0-stm32mp-r2/lib/libutils/isoc/bget_malloc.c:459
    420c:	4770      	bx	lr

0000420e <raw_calloc>:
raw_calloc():
/home/lubuntu/Dokument/GitHub/STM32-Computer/Firmware/STM32-Computer-Firmware/CA7/optee-os-3.19.0-r2/optee-os-stm32mp-3.19.0-stm32mp-r2/lib/libutils/isoc/bget_malloc.c:463
    420e:	b570      	push	{r4, r5, r6, lr}
    4210:	4606      	mov	r6, r0
/home/lubuntu/Dokument/GitHub/STM32-Computer/Firmware/STM32-Computer-Firmware/CA7/optee-os-3.19.0-r2/optee-os-stm32mp-3.19.0-stm32mp-r2/lib/libutils/isoc/bget_malloc.c:470
    4212:	fba2 4203 	umull	r4, r2, r2, r3
/home/lubuntu/Dokument/GitHub/STM32-Computer/Firmware/STM32-Computer-Firmware/CA7/optee-os-3.19.0-r2/optee-os-stm32mp-3.19.0-stm32mp-r2/lib/libutils/isoc/bget_malloc.c:463
    4216:	9d04      	ldr	r5, [sp, #16]
/home/lubuntu/Dokument/GitHub/STM32-Computer/Firmware/STM32-Computer-Firmware/CA7/optee-os-3.19.0-r2/optee-os-stm32mp-3.19.0-stm32mp-r2/lib/libutils/isoc/bget_malloc.c:470
    4218:	1e10      	subs	r0, r2, #0
    421a:	bf18      	it	ne
    421c:	2001      	movne	r0, #1
    421e:	2c00      	cmp	r4, #0
    4220:	db12      	blt.n	4248 <raw_calloc+0x3a>
    4222:	b988      	cbnz	r0, 4248 <raw_calloc+0x3a>
/home/lubuntu/Dokument/GitHub/STM32-Computer/Firmware/STM32-Computer-Firmware/CA7/optee-os-3.19.0-r2/optee-os-stm32mp-3.19.0-stm32mp-r2/lib/libutils/isoc/bget_malloc.c:472
    4224:	1862      	adds	r2, r4, r1
    4226:	f102 4300 	add.w	r3, r2, #2147483648	@ 0x80000000
    422a:	428b      	cmp	r3, r1
    422c:	d306      	bcc.n	423c <raw_calloc+0x2e>
/home/lubuntu/Dokument/GitHub/STM32-Computer/Firmware/STM32-Computer-Firmware/CA7/optee-os-3.19.0-r2/optee-os-stm32mp-3.19.0-stm32mp-r2/lib/libutils/isoc/bget_malloc.c:477
    422e:	2a00      	cmp	r2, #0
/home/lubuntu/Dokument/GitHub/STM32-Computer/Firmware/STM32-Computer-Firmware/CA7/optee-os-3.19.0-r2/optee-os-stm32mp-3.19.0-stm32mp-r2/lib/libutils/isoc/bget_malloc.c:479
    4230:	462b      	mov	r3, r5
    4232:	bf08      	it	eq
    4234:	2201      	moveq	r2, #1
    4236:	4631      	mov	r1, r6
    4238:	f7ff f84a 	bl	32d0 <bgetz>
/home/lubuntu/Dokument/GitHub/STM32-Computer/Firmware/STM32-Computer-Firmware/CA7/optee-os-3.19.0-r2/optee-os-stm32mp-3.19.0-stm32mp-r2/lib/libutils/isoc/bget_malloc.c:481
    423c:	462a      	mov	r2, r5
    423e:	4621      	mov	r1, r4
/home/lubuntu/Dokument/GitHub/STM32-Computer/Firmware/STM32-Computer-Firmware/CA7/optee-os-3.19.0-r2/optee-os-stm32mp-3.19.0-stm32mp-r2/lib/libutils/isoc/bget_malloc.c:482
    4240:	e8bd 4070 	ldmia.w	sp!, {r4, r5, r6, lr}
/home/lubuntu/Dokument/GitHub/STM32-Computer/Firmware/STM32-Computer-Firmware/CA7/optee-os-3.19.0-r2/optee-os-stm32mp-3.19.0-stm32mp-r2/lib/libutils/isoc/bget_malloc.c:481
    4244:	f7ff bfb4 	b.w	41b0 <raw_malloc_return_hook>
/home/lubuntu/Dokument/GitHub/STM32-Computer/Firmware/STM32-Computer-Firmware/CA7/optee-os-3.19.0-r2/optee-os-stm32mp-3.19.0-stm32mp-r2/lib/libutils/isoc/bget_malloc.c:464
    4248:	2000      	movs	r0, #0
    424a:	e7f7      	b.n	423c <raw_calloc+0x2e>

0000424c <raw_realloc>:
raw_realloc():
/home/lubuntu/Dokument/GitHub/STM32-Computer/Firmware/STM32-Computer-Firmware/CA7/optee-os-3.19.0-r2/optee-os-stm32mp-3.19.0-stm32mp-r2/lib/libutils/isoc/bget_malloc.c:486
    424c:	e92d 43f8 	stmdb	sp!, {r3, r4, r5, r6, r7, r8, r9, lr}
    4250:	4605      	mov	r5, r0
/home/lubuntu/Dokument/GitHub/STM32-Computer/Firmware/STM32-Computer-Firmware/CA7/optee-os-3.19.0-r2/optee-os-stm32mp-3.19.0-stm32mp-r2/lib/libutils/isoc/bget_malloc.c:491
    4252:	185c      	adds	r4, r3, r1
/home/lubuntu/Dokument/GitHub/STM32-Computer/Firmware/STM32-Computer-Firmware/CA7/optee-os-3.19.0-r2/optee-os-stm32mp-3.19.0-stm32mp-r2/lib/libutils/isoc/bget_malloc.c:486
    4254:	461f      	mov	r7, r3
    4256:	f8dd 8020 	ldr.w	r8, [sp, #32]
/home/lubuntu/Dokument/GitHub/STM32-Computer/Firmware/STM32-Computer-Firmware/CA7/optee-os-3.19.0-r2/optee-os-stm32mp-3.19.0-stm32mp-r2/lib/libutils/isoc/bget_malloc.c:491
    425a:	d406      	bmi.n	426a <raw_realloc+0x1e>
    425c:	428c      	cmp	r4, r1
    425e:	d304      	bcc.n	426a <raw_realloc+0x1e>
/home/lubuntu/Dokument/GitHub/STM32-Computer/Firmware/STM32-Computer-Firmware/CA7/optee-os-3.19.0-r2/optee-os-stm32mp-3.19.0-stm32mp-r2/lib/libutils/isoc/bget_malloc.c:493
    4260:	4414      	add	r4, r2
    4262:	f104 4300 	add.w	r3, r4, #2147483648	@ 0x80000000
    4266:	4293      	cmp	r3, r2
    4268:	d208      	bcs.n	427c <raw_realloc+0x30>
/home/lubuntu/Dokument/GitHub/STM32-Computer/Firmware/STM32-Computer-Firmware/CA7/optee-os-3.19.0-r2/optee-os-stm32mp-3.19.0-stm32mp-r2/lib/libutils/isoc/bget_malloc.c:487
    426a:	f04f 0900 	mov.w	r9, #0
/home/lubuntu/Dokument/GitHub/STM32-Computer/Firmware/STM32-Computer-Firmware/CA7/optee-os-3.19.0-r2/optee-os-stm32mp-3.19.0-stm32mp-r2/lib/libutils/isoc/bget_malloc.c:521
    426e:	4642      	mov	r2, r8
    4270:	4639      	mov	r1, r7
    4272:	4648      	mov	r0, r9
/home/lubuntu/Dokument/GitHub/STM32-Computer/Firmware/STM32-Computer-Firmware/CA7/optee-os-3.19.0-r2/optee-os-stm32mp-3.19.0-stm32mp-r2/lib/libutils/isoc/bget_malloc.c:522
    4274:	e8bd 43f8 	ldmia.w	sp!, {r3, r4, r5, r6, r7, r8, r9, lr}
/home/lubuntu/Dokument/GitHub/STM32-Computer/Firmware/STM32-Computer-Firmware/CA7/optee-os-3.19.0-r2/optee-os-stm32mp-3.19.0-stm32mp-r2/lib/libutils/isoc/bget_malloc.c:521
    4278:	f7ff bf9a 	b.w	41b0 <raw_malloc_return_hook>
/home/lubuntu/Dokument/GitHub/STM32-Computer/Firmware/STM32-Computer-Firmware/CA7/optee-os-3.19.0-r2/optee-os-stm32mp-3.19.0-stm32mp-r2/lib/libutils/isoc/bget_malloc.c:500
    427c:	2c00      	cmp	r4, #0
/home/lubuntu/Dokument/GitHub/STM32-Computer/Firmware/STM32-Computer-Firmware/CA7/optee-os-3.19.0-r2/optee-os-stm32mp-3.19.0-stm32mp-r2/lib/libutils/isoc/bget_malloc.c:502
    427e:	f04f 0100 	mov.w	r1, #0
/home/lubuntu/Dokument/GitHub/STM32-Computer/Firmware/STM32-Computer-Firmware/CA7/optee-os-3.19.0-r2/optee-os-stm32mp-3.19.0-stm32mp-r2/lib/libutils/isoc/bget_malloc.c:500
    4282:	bf08      	it	eq
    4284:	2401      	moveq	r4, #1
/home/lubuntu/Dokument/GitHub/STM32-Computer/Firmware/STM32-Computer-Firmware/CA7/optee-os-3.19.0-r2/optee-os-stm32mp-3.19.0-stm32mp-r2/lib/libutils/isoc/bget_malloc.c:502
    4286:	4643      	mov	r3, r8
    4288:	4622      	mov	r2, r4
    428a:	4608      	mov	r0, r1
    428c:	f7fe ff1a 	bl	30c4 <bget>
/home/lubuntu/Dokument/GitHub/STM32-Computer/Firmware/STM32-Computer-Firmware/CA7/optee-os-3.19.0-r2/optee-os-stm32mp-3.19.0-stm32mp-r2/lib/libutils/isoc/bget_malloc.c:504
    4290:	4681      	mov	r9, r0
    4292:	2800      	cmp	r0, #0
    4294:	d0e9      	beq.n	426a <raw_realloc+0x1e>
/home/lubuntu/Dokument/GitHub/STM32-Computer/Firmware/STM32-Computer-Firmware/CA7/optee-os-3.19.0-r2/optee-os-stm32mp-3.19.0-stm32mp-r2/lib/libutils/isoc/bget_malloc.c:504 (discriminator 1)
    4296:	2d00      	cmp	r5, #0
    4298:	d0e9      	beq.n	426e <raw_realloc+0x22>
bget_buf_size():
/home/lubuntu/Dokument/GitHub/STM32-Computer/Firmware/STM32-Computer-Firmware/CA7/optee-os-3.19.0-r2/optee-os-stm32mp-3.19.0-stm32mp-r2/lib/libutils/isoc/bget_malloc.c:207
    429a:	f855 6c04 	ldr.w	r6, [r5, #-4]
    429e:	f1c6 26ff 	rsb	r6, r6, #4278255360	@ 0xff00ff00
    42a2:	f506 067f 	add.w	r6, r6, #16711680	@ 0xff0000
    42a6:	36f8      	adds	r6, #248	@ 0xf8
/home/lubuntu/Dokument/GitHub/STM32-Computer/Firmware/STM32-Computer-Firmware/CA7/optee-os-3.19.0-r2/optee-os-stm32mp-3.19.0-stm32mp-r2/lib/libutils/isoc/bget_malloc.c:208
    42a8:	2e00      	cmp	r6, #0
    42aa:	dc01      	bgt.n	42b0 <raw_realloc+0x64>
    42ac:	f7fe fefa 	bl	30a4 <bget_buf_size.part.0>
raw_realloc():
/home/lubuntu/Dokument/GitHub/STM32-Computer/Firmware/STM32-Computer-Firmware/CA7/optee-os-3.19.0-r2/optee-os-stm32mp-3.19.0-stm32mp-r2/lib/libutils/isoc/bget_malloc.c:508
    42b0:	42b4      	cmp	r4, r6
    42b2:	dd0f      	ble.n	42d4 <raw_realloc+0x88>
/home/lubuntu/Dokument/GitHub/STM32-Computer/Firmware/STM32-Computer-Firmware/CA7/optee-os-3.19.0-r2/optee-os-stm32mp-3.19.0-stm32mp-r2/lib/libutils/isoc/bget_malloc.c:509
    42b4:	4632      	mov	r2, r6
    42b6:	4629      	mov	r1, r5
    42b8:	f7ff fa0c 	bl	36d4 <memcpy>
/home/lubuntu/Dokument/GitHub/STM32-Computer/Firmware/STM32-Computer-Firmware/CA7/optee-os-3.19.0-r2/optee-os-stm32mp-3.19.0-stm32mp-r2/lib/libutils/isoc/bget_malloc.c:512
    42bc:	1ba2      	subs	r2, r4, r6
    42be:	2100      	movs	r1, #0
    42c0:	eb09 0006 	add.w	r0, r9, r6
    42c4:	f000 f83e 	bl	4344 <memset>
/home/lubuntu/Dokument/GitHub/STM32-Computer/Firmware/STM32-Computer-Firmware/CA7/optee-os-3.19.0-r2/optee-os-stm32mp-3.19.0-stm32mp-r2/lib/libutils/isoc/bget_malloc.c:518
    42c8:	2200      	movs	r2, #0
    42ca:	4641      	mov	r1, r8
    42cc:	4628      	mov	r0, r5
    42ce:	f7ff f82d 	bl	332c <brel>
    42d2:	e7cc      	b.n	426e <raw_realloc+0x22>
/home/lubuntu/Dokument/GitHub/STM32-Computer/Firmware/STM32-Computer-Firmware/CA7/optee-os-3.19.0-r2/optee-os-stm32mp-3.19.0-stm32mp-r2/lib/libutils/isoc/bget_malloc.c:515
    42d4:	4622      	mov	r2, r4
    42d6:	4629      	mov	r1, r5
    42d8:	f7ff f9fc 	bl	36d4 <memcpy>
    42dc:	e7f4      	b.n	42c8 <raw_realloc+0x7c>

000042de <isxdigit>:
isxdigit():
/home/lubuntu/Dokument/GitHub/STM32-Computer/Firmware/STM32-Computer-Firmware/CA7/optee-os-3.19.0-r2/optee-os-stm32mp-3.19.0-stm32mp-r2/lib/libutils/isoc/isxdigit.c:9
    42de:	f1a0 0330 	sub.w	r3, r0, #48	@ 0x30
    42e2:	2b09      	cmp	r3, #9
    42e4:	d907      	bls.n	42f6 <isxdigit+0x18>
/home/lubuntu/Dokument/GitHub/STM32-Computer/Firmware/STM32-Computer-Firmware/CA7/optee-os-3.19.0-r2/optee-os-stm32mp-3.19.0-stm32mp-r2/lib/libutils/isoc/isxdigit.c:11
    42e6:	f020 0020 	bic.w	r0, r0, #32
    42ea:	3841      	subs	r0, #65	@ 0x41
    42ec:	2805      	cmp	r0, #5
    42ee:	bf8c      	ite	hi
    42f0:	2000      	movhi	r0, #0
    42f2:	2001      	movls	r0, #1
    42f4:	4770      	bx	lr
/home/lubuntu/Dokument/GitHub/STM32-Computer/Firmware/STM32-Computer-Firmware/CA7/optee-os-3.19.0-r2/optee-os-stm32mp-3.19.0-stm32mp-r2/lib/libutils/isoc/isxdigit.c:10
    42f6:	2001      	movs	r0, #1
/home/lubuntu/Dokument/GitHub/STM32-Computer/Firmware/STM32-Computer-Firmware/CA7/optee-os-3.19.0-r2/optee-os-stm32mp-3.19.0-stm32mp-r2/lib/libutils/isoc/isxdigit.c:16
    42f8:	4770      	bx	lr

000042fa <snprintf>:
snprintf():
/home/lubuntu/Dokument/GitHub/STM32-Computer/Firmware/STM32-Computer-Firmware/CA7/optee-os-3.19.0-r2/optee-os-stm32mp-3.19.0-stm32mp-r2/lib/libutils/isoc/snprintf.c:10
    42fa:	b40c      	push	{r2, r3}
    42fc:	b51f      	push	{r0, r1, r2, r3, r4, lr}
    42fe:	ab06      	add	r3, sp, #24
/home/lubuntu/Dokument/GitHub/STM32-Computer/Firmware/STM32-Computer-Firmware/CA7/optee-os-3.19.0-r2/optee-os-stm32mp-3.19.0-stm32mp-r2/lib/libutils/isoc/snprintf.c:15
    4300:	2400      	movs	r4, #0
/home/lubuntu/Dokument/GitHub/STM32-Computer/Firmware/STM32-Computer-Firmware/CA7/optee-os-3.19.0-r2/optee-os-stm32mp-3.19.0-stm32mp-r2/lib/libutils/isoc/snprintf.c:10
    4302:	f853 2b04 	ldr.w	r2, [r3], #4
/home/lubuntu/Dokument/GitHub/STM32-Computer/Firmware/STM32-Computer-Firmware/CA7/optee-os-3.19.0-r2/optee-os-stm32mp-3.19.0-stm32mp-r2/lib/libutils/isoc/snprintf.c:15
    4306:	9400      	str	r4, [sp, #0]
/home/lubuntu/Dokument/GitHub/STM32-Computer/Firmware/STM32-Computer-Firmware/CA7/optee-os-3.19.0-r2/optee-os-stm32mp-3.19.0-stm32mp-r2/lib/libutils/isoc/snprintf.c:14
    4308:	9303      	str	r3, [sp, #12]
/home/lubuntu/Dokument/GitHub/STM32-Computer/Firmware/STM32-Computer-Firmware/CA7/optee-os-3.19.0-r2/optee-os-stm32mp-3.19.0-stm32mp-r2/lib/libutils/isoc/snprintf.c:15
    430a:	f000 f8a9 	bl	4460 <__vsnprintf>
/home/lubuntu/Dokument/GitHub/STM32-Computer/Firmware/STM32-Computer-Firmware/CA7/optee-os-3.19.0-r2/optee-os-stm32mp-3.19.0-stm32mp-r2/lib/libutils/isoc/snprintf.c:19
    430e:	b004      	add	sp, #16
    4310:	e8bd 4010 	ldmia.w	sp!, {r4, lr}
    4314:	b002      	add	sp, #8
    4316:	4770      	bx	lr

00004318 <tolower>:
tolower():
/home/lubuntu/Dokument/GitHub/STM32-Computer/Firmware/STM32-Computer-Firmware/CA7/optee-os-3.19.0-r2/optee-os-stm32mp-3.19.0-stm32mp-r2/lib/libutils/isoc/tolower.c:9
    4318:	f1a0 0341 	sub.w	r3, r0, #65	@ 0x41
    431c:	2b19      	cmp	r3, #25
/home/lubuntu/Dokument/GitHub/STM32-Computer/Firmware/STM32-Computer-Firmware/CA7/optee-os-3.19.0-r2/optee-os-stm32mp-3.19.0-stm32mp-r2/lib/libutils/isoc/tolower.c:10
    431e:	bf98      	it	ls
    4320:	3020      	addls	r0, #32
/home/lubuntu/Dokument/GitHub/STM32-Computer/Firmware/STM32-Computer-Firmware/CA7/optee-os-3.19.0-r2/optee-os-stm32mp-3.19.0-stm32mp-r2/lib/libutils/isoc/tolower.c:12
    4322:	4770      	bx	lr

00004324 <memcmp>:
memcmp():
/home/lubuntu/Dokument/GitHub/STM32-Computer/Firmware/STM32-Computer-Firmware/CA7/optee-os-3.19.0-r2/optee-os-stm32mp-3.19.0-stm32mp-r2/lib/libutils/isoc/newlib/memcmp.c:90
    4324:	4402      	add	r2, r0
    4326:	3901      	subs	r1, #1
/home/lubuntu/Dokument/GitHub/STM32-Computer/Firmware/STM32-Computer-Firmware/CA7/optee-os-3.19.0-r2/optee-os-stm32mp-3.19.0-stm32mp-r2/lib/libutils/isoc/newlib/memcmp.c:85
    4328:	b510      	push	{r4, lr}
/home/lubuntu/Dokument/GitHub/STM32-Computer/Firmware/STM32-Computer-Firmware/CA7/optee-os-3.19.0-r2/optee-os-stm32mp-3.19.0-stm32mp-r2/lib/libutils/isoc/newlib/memcmp.c:90
    432a:	4290      	cmp	r0, r2
    432c:	d101      	bne.n	4332 <memcmp+0xe>
/home/lubuntu/Dokument/GitHub/STM32-Computer/Firmware/STM32-Computer-Firmware/CA7/optee-os-3.19.0-r2/optee-os-stm32mp-3.19.0-stm32mp-r2/lib/libutils/isoc/newlib/memcmp.c:96
    432e:	2000      	movs	r0, #0
    4330:	e005      	b.n	433e <memcmp+0x1a>
/home/lubuntu/Dokument/GitHub/STM32-Computer/Firmware/STM32-Computer-Firmware/CA7/optee-os-3.19.0-r2/optee-os-stm32mp-3.19.0-stm32mp-r2/lib/libutils/isoc/newlib/memcmp.c:91
    4332:	7803      	ldrb	r3, [r0, #0]
    4334:	f811 4f01 	ldrb.w	r4, [r1, #1]!
    4338:	42a3      	cmp	r3, r4
    433a:	d001      	beq.n	4340 <memcmp+0x1c>
/home/lubuntu/Dokument/GitHub/STM32-Computer/Firmware/STM32-Computer-Firmware/CA7/optee-os-3.19.0-r2/optee-os-stm32mp-3.19.0-stm32mp-r2/lib/libutils/isoc/newlib/memcmp.c:92
    433c:	1b18      	subs	r0, r3, r4
/home/lubuntu/Dokument/GitHub/STM32-Computer/Firmware/STM32-Computer-Firmware/CA7/optee-os-3.19.0-r2/optee-os-stm32mp-3.19.0-stm32mp-r2/lib/libutils/isoc/newlib/memcmp.c:136
    433e:	bd10      	pop	{r4, pc}
/home/lubuntu/Dokument/GitHub/STM32-Computer/Firmware/STM32-Computer-Firmware/CA7/optee-os-3.19.0-r2/optee-os-stm32mp-3.19.0-stm32mp-r2/lib/libutils/isoc/newlib/memcmp.c:93
    4340:	3001      	adds	r0, #1
/home/lubuntu/Dokument/GitHub/STM32-Computer/Firmware/STM32-Computer-Firmware/CA7/optee-os-3.19.0-r2/optee-os-stm32mp-3.19.0-stm32mp-r2/lib/libutils/isoc/newlib/memcmp.c:94
    4342:	e7f2      	b.n	432a <memcmp+0x6>

00004344 <memset>:
memset():
/home/lubuntu/Dokument/GitHub/STM32-Computer/Firmware/STM32-Computer-Firmware/CA7/optee-os-3.19.0-r2/optee-os-stm32mp-3.19.0-stm32mp-r2/lib/libutils/isoc/newlib/memset.c:125
    4344:	4402      	add	r2, r0
/home/lubuntu/Dokument/GitHub/STM32-Computer/Firmware/STM32-Computer-Firmware/CA7/optee-os-3.19.0-r2/optee-os-stm32mp-3.19.0-stm32mp-r2/lib/libutils/isoc/newlib/memset.c:77
    4346:	4603      	mov	r3, r0
/home/lubuntu/Dokument/GitHub/STM32-Computer/Firmware/STM32-Computer-Firmware/CA7/optee-os-3.19.0-r2/optee-os-stm32mp-3.19.0-stm32mp-r2/lib/libutils/isoc/newlib/memset.c:125
    4348:	4293      	cmp	r3, r2
    434a:	d100      	bne.n	434e <memset+0xa>
/home/lubuntu/Dokument/GitHub/STM32-Computer/Firmware/STM32-Computer-Firmware/CA7/optee-os-3.19.0-r2/optee-os-stm32mp-3.19.0-stm32mp-r2/lib/libutils/isoc/newlib/memset.c:129
    434c:	4770      	bx	lr
/home/lubuntu/Dokument/GitHub/STM32-Computer/Firmware/STM32-Computer-Firmware/CA7/optee-os-3.19.0-r2/optee-os-stm32mp-3.19.0-stm32mp-r2/lib/libutils/isoc/newlib/memset.c:126
    434e:	f803 1b01 	strb.w	r1, [r3], #1
    4352:	e7f9      	b.n	4348 <memset+0x4>

00004354 <strcmp>:
strcmp():
/home/lubuntu/Dokument/GitHub/STM32-Computer/Firmware/STM32-Computer-Firmware/CA7/optee-os-3.19.0-r2/optee-os-stm32mp-3.19.0-stm32mp-r2/lib/libutils/isoc/newlib/strcmp.c:99
    4354:	1e43      	subs	r3, r0, #1
    4356:	3901      	subs	r1, #1
    4358:	f813 2f01 	ldrb.w	r2, [r3, #1]!
    435c:	f811 0f01 	ldrb.w	r0, [r1, #1]!
    4360:	b10a      	cbz	r2, 4366 <strcmp+0x12>
/home/lubuntu/Dokument/GitHub/STM32-Computer/Firmware/STM32-Computer-Firmware/CA7/optee-os-3.19.0-r2/optee-os-stm32mp-3.19.0-stm32mp-r2/lib/libutils/isoc/newlib/strcmp.c:99 (discriminator 1)
    4362:	4282      	cmp	r2, r0
    4364:	d0f8      	beq.n	4358 <strcmp+0x4>
/home/lubuntu/Dokument/GitHub/STM32-Computer/Firmware/STM32-Computer-Firmware/CA7/optee-os-3.19.0-r2/optee-os-stm32mp-3.19.0-stm32mp-r2/lib/libutils/isoc/newlib/strcmp.c:142
    4366:	1a10      	subs	r0, r2, r0
    4368:	4770      	bx	lr

0000436a <strcpy>:
strcpy():
/home/lubuntu/Dokument/GitHub/STM32-Computer/Firmware/STM32-Computer-Firmware/CA7/optee-os-3.19.0-r2/optee-os-stm32mp-3.19.0-stm32mp-r2/lib/libutils/isoc/newlib/strcpy.c:101
    436a:	1e42      	subs	r2, r0, #1
/home/lubuntu/Dokument/GitHub/STM32-Computer/Firmware/STM32-Computer-Firmware/CA7/optee-os-3.19.0-r2/optee-os-stm32mp-3.19.0-stm32mp-r2/lib/libutils/isoc/newlib/strcpy.c:101 (discriminator 1)
    436c:	f811 3b01 	ldrb.w	r3, [r1], #1
    4370:	f802 3f01 	strb.w	r3, [r2, #1]!
    4374:	2b00      	cmp	r3, #0
    4376:	d1f9      	bne.n	436c <strcpy+0x2>
/home/lubuntu/Dokument/GitHub/STM32-Computer/Firmware/STM32-Computer-Firmware/CA7/optee-os-3.19.0-r2/optee-os-stm32mp-3.19.0-stm32mp-r2/lib/libutils/isoc/newlib/strcpy.c:132
    4378:	4770      	bx	lr

0000437a <strnlen>:
strnlen():
/home/lubuntu/Dokument/GitHub/STM32-Computer/Firmware/STM32-Computer-Firmware/CA7/optee-os-3.19.0-r2/optee-os-stm32mp-3.19.0-stm32mp-r2/lib/libutils/isoc/newlib/strnlen.c:77
    437a:	4401      	add	r1, r0
    437c:	4602      	mov	r2, r0
/home/lubuntu/Dokument/GitHub/STM32-Computer/Firmware/STM32-Computer-Firmware/CA7/optee-os-3.19.0-r2/optee-os-stm32mp-3.19.0-stm32mp-r2/lib/libutils/isoc/newlib/strnlen.c:74
    437e:	b510      	push	{r4, lr}
    4380:	4613      	mov	r3, r2
/home/lubuntu/Dokument/GitHub/STM32-Computer/Firmware/STM32-Computer-Firmware/CA7/optee-os-3.19.0-r2/optee-os-stm32mp-3.19.0-stm32mp-r2/lib/libutils/isoc/newlib/strnlen.c:77
    4382:	428a      	cmp	r2, r1
    4384:	d003      	beq.n	438e <strnlen+0x14>
/home/lubuntu/Dokument/GitHub/STM32-Computer/Firmware/STM32-Computer-Firmware/CA7/optee-os-3.19.0-r2/optee-os-stm32mp-3.19.0-stm32mp-r2/lib/libutils/isoc/newlib/strnlen.c:77 (discriminator 1)
    4386:	781c      	ldrb	r4, [r3, #0]
    4388:	3201      	adds	r2, #1
    438a:	2c00      	cmp	r4, #0
    438c:	d1f8      	bne.n	4380 <strnlen+0x6>
/home/lubuntu/Dokument/GitHub/STM32-Computer/Firmware/STM32-Computer-Firmware/CA7/optee-os-3.19.0-r2/optee-os-stm32mp-3.19.0-stm32mp-r2/lib/libutils/isoc/newlib/strnlen.c:80
    438e:	1a18      	subs	r0, r3, r0
/home/lubuntu/Dokument/GitHub/STM32-Computer/Firmware/STM32-Computer-Firmware/CA7/optee-os-3.19.0-r2/optee-os-stm32mp-3.19.0-stm32mp-r2/lib/libutils/isoc/newlib/strnlen.c:81
    4390:	bd10      	pop	{r4, pc}

00004392 <ul_div_qr>:
ul_div_qr():
/home/lubuntu/Dokument/GitHub/STM32-Computer/Firmware/STM32-Computer-Firmware/CA7/optee-os-3.19.0-r2/optee-os-stm32mp-3.19.0-stm32mp-r2/lib/libutils/isoc/arch/arm/arm32_aeabi_ldivmod.c:47
    4392:	468c      	mov	ip, r1
division_lqr():
/home/lubuntu/Dokument/GitHub/STM32-Computer/Firmware/STM32-Computer-Firmware/CA7/optee-os-3.19.0-r2/optee-os-stm32mp-3.19.0-stm32mp-r2/lib/libutils/isoc/arch/arm/arm32_aeabi_ldivmod.c:22
    4394:	ea52 0103 	orrs.w	r1, r2, r3
ul_div_qr():
/home/lubuntu/Dokument/GitHub/STM32-Computer/Firmware/STM32-Computer-Firmware/CA7/optee-os-3.19.0-r2/optee-os-stm32mp-3.19.0-stm32mp-r2/lib/libutils/isoc/arch/arm/arm32_aeabi_ldivmod.c:47
    4398:	b5f0      	push	{r4, r5, r6, r7, lr}
    439a:	9d05      	ldr	r5, [sp, #20]
division_lqr():
/home/lubuntu/Dokument/GitHub/STM32-Computer/Firmware/STM32-Computer-Firmware/CA7/optee-os-3.19.0-r2/optee-os-stm32mp-3.19.0-stm32mp-r2/lib/libutils/isoc/arch/arm/arm32_aeabi_ldivmod.c:22
    439c:	d128      	bne.n	43f0 <ul_div_qr+0x5e>
/home/lubuntu/Dokument/GitHub/STM32-Computer/Firmware/STM32-Computer-Firmware/CA7/optee-os-3.19.0-r2/optee-os-stm32mp-3.19.0-stm32mp-r2/lib/libutils/isoc/arch/arm/arm32_aeabi_ldivmod.c:23
    439e:	f04f 32ff 	mov.w	r2, #4294967295	@ 0xffffffff
    43a2:	f04f 33ff 	mov.w	r3, #4294967295	@ 0xffffffff
    43a6:	e9c5 2302 	strd	r2, r3, [r5, #8]
ul_div_qr():
/home/lubuntu/Dokument/GitHub/STM32-Computer/Firmware/STM32-Computer-Firmware/CA7/optee-os-3.19.0-r2/optee-os-stm32mp-3.19.0-stm32mp-r2/lib/libutils/isoc/arch/arm/arm32_aeabi_ldivmod.c:52
    43aa:	692b      	ldr	r3, [r5, #16]
    43ac:	b133      	cbz	r3, 43bc <ul_div_qr+0x2a>
/home/lubuntu/Dokument/GitHub/STM32-Computer/Firmware/STM32-Computer-Firmware/CA7/optee-os-3.19.0-r2/optee-os-stm32mp-3.19.0-stm32mp-r2/lib/libutils/isoc/arch/arm/arm32_aeabi_ldivmod.c:53
    43ae:	e9d5 3200 	ldrd	r3, r2, [r5]
    43b2:	425b      	negs	r3, r3
    43b4:	eb62 0242 	sbc.w	r2, r2, r2, lsl #1
    43b8:	e9c5 3200 	strd	r3, r2, [r5]
/home/lubuntu/Dokument/GitHub/STM32-Computer/Firmware/STM32-Computer-Firmware/CA7/optee-os-3.19.0-r2/optee-os-stm32mp-3.19.0-stm32mp-r2/lib/libutils/isoc/arch/arm/arm32_aeabi_ldivmod.c:54
    43bc:	696b      	ldr	r3, [r5, #20]
    43be:	b133      	cbz	r3, 43ce <ul_div_qr+0x3c>
/home/lubuntu/Dokument/GitHub/STM32-Computer/Firmware/STM32-Computer-Firmware/CA7/optee-os-3.19.0-r2/optee-os-stm32mp-3.19.0-stm32mp-r2/lib/libutils/isoc/arch/arm/arm32_aeabi_ldivmod.c:55
    43c0:	e9d5 3202 	ldrd	r3, r2, [r5, #8]
    43c4:	425b      	negs	r3, r3
    43c6:	eb62 0242 	sbc.w	r2, r2, r2, lsl #1
    43ca:	e9c5 3202 	strd	r3, r2, [r5, #8]
/home/lubuntu/Dokument/GitHub/STM32-Computer/Firmware/STM32-Computer-Firmware/CA7/optee-os-3.19.0-r2/optee-os-stm32mp-3.19.0-stm32mp-r2/lib/libutils/isoc/arch/arm/arm32_aeabi_ldivmod.c:56
    43ce:	bdf0      	pop	{r4, r5, r6, r7, pc}
division_lqr():
/home/lubuntu/Dokument/GitHub/STM32-Computer/Firmware/STM32-Computer-Firmware/CA7/optee-os-3.19.0-r2/optee-os-stm32mp-3.19.0-stm32mp-r2/lib/libutils/isoc/arch/arm/arm32_aeabi_ldivmod.c:28
    43d0:	19b6      	adds	r6, r6, r6
    43d2:	417f      	adcs	r7, r7
/home/lubuntu/Dokument/GitHub/STM32-Computer/Firmware/STM32-Computer-Firmware/CA7/optee-os-3.19.0-r2/optee-os-stm32mp-3.19.0-stm32mp-r2/lib/libutils/isoc/arch/arm/arm32_aeabi_ldivmod.c:29
    43d4:	1892      	adds	r2, r2, r2
    43d6:	415b      	adcs	r3, r3
/home/lubuntu/Dokument/GitHub/STM32-Computer/Firmware/STM32-Computer-Firmware/CA7/optee-os-3.19.0-r2/optee-os-stm32mp-3.19.0-stm32mp-r2/lib/libutils/isoc/arch/arm/arm32_aeabi_ldivmod.c:27
    43d8:	2b00      	cmp	r3, #0
    43da:	daf9      	bge.n	43d0 <ul_div_qr+0x3e>
/home/lubuntu/Dokument/GitHub/STM32-Computer/Firmware/STM32-Computer-Firmware/CA7/optee-os-3.19.0-r2/optee-os-stm32mp-3.19.0-stm32mp-r2/lib/libutils/isoc/arch/arm/arm32_aeabi_ldivmod.c:21
    43dc:	2400      	movs	r4, #0
    43de:	4621      	mov	r1, r4
/home/lubuntu/Dokument/GitHub/STM32-Computer/Firmware/STM32-Computer-Firmware/CA7/optee-os-3.19.0-r2/optee-os-stm32mp-3.19.0-stm32mp-r2/lib/libutils/isoc/arch/arm/arm32_aeabi_ldivmod.c:32
    43e0:	ea56 0e07 	orrs.w	lr, r6, r7
    43e4:	d107      	bne.n	43f6 <ul_div_qr+0x64>
/home/lubuntu/Dokument/GitHub/STM32-Computer/Firmware/STM32-Computer-Firmware/CA7/optee-os-3.19.0-r2/optee-os-stm32mp-3.19.0-stm32mp-r2/lib/libutils/isoc/arch/arm/arm32_aeabi_ldivmod.c:41
    43e6:	e9c5 0c02 	strd	r0, ip, [r5, #8]
/home/lubuntu/Dokument/GitHub/STM32-Computer/Firmware/STM32-Computer-Firmware/CA7/optee-os-3.19.0-r2/optee-os-stm32mp-3.19.0-stm32mp-r2/lib/libutils/isoc/arch/arm/arm32_aeabi_ldivmod.c:42
    43ea:	e9c5 4100 	strd	r4, r1, [r5]
    43ee:	e7dc      	b.n	43aa <ul_div_qr+0x18>
/home/lubuntu/Dokument/GitHub/STM32-Computer/Firmware/STM32-Computer-Firmware/CA7/optee-os-3.19.0-r2/optee-os-stm32mp-3.19.0-stm32mp-r2/lib/libutils/isoc/arch/arm/arm32_aeabi_ldivmod.c:21
    43f0:	2601      	movs	r6, #1
    43f2:	2700      	movs	r7, #0
    43f4:	e7f0      	b.n	43d8 <ul_div_qr+0x46>
/home/lubuntu/Dokument/GitHub/STM32-Computer/Firmware/STM32-Computer-Firmware/CA7/optee-os-3.19.0-r2/optee-os-stm32mp-3.19.0-stm32mp-r2/lib/libutils/isoc/arch/arm/arm32_aeabi_ldivmod.c:33
    43f6:	1924      	adds	r4, r4, r4
    43f8:	4149      	adcs	r1, r1
/home/lubuntu/Dokument/GitHub/STM32-Computer/Firmware/STM32-Computer-Firmware/CA7/optee-os-3.19.0-r2/optee-os-stm32mp-3.19.0-stm32mp-r2/lib/libutils/isoc/arch/arm/arm32_aeabi_ldivmod.c:34
    43fa:	4290      	cmp	r0, r2
    43fc:	eb7c 0e03 	sbcs.w	lr, ip, r3
    4400:	d305      	bcc.n	440e <ul_div_qr+0x7c>
/home/lubuntu/Dokument/GitHub/STM32-Computer/Firmware/STM32-Computer-Firmware/CA7/optee-os-3.19.0-r2/optee-os-stm32mp-3.19.0-stm32mp-r2/lib/libutils/isoc/arch/arm/arm32_aeabi_ldivmod.c:35
    4402:	1a80      	subs	r0, r0, r2
    4404:	eb6c 0c03 	sbc.w	ip, ip, r3
/home/lubuntu/Dokument/GitHub/STM32-Computer/Firmware/STM32-Computer-Firmware/CA7/optee-os-3.19.0-r2/optee-os-stm32mp-3.19.0-stm32mp-r2/lib/libutils/isoc/arch/arm/arm32_aeabi_ldivmod.c:36
    4408:	3401      	adds	r4, #1
    440a:	f141 0100 	adc.w	r1, r1, #0
/home/lubuntu/Dokument/GitHub/STM32-Computer/Firmware/STM32-Computer-Firmware/CA7/optee-os-3.19.0-r2/optee-os-stm32mp-3.19.0-stm32mp-r2/lib/libutils/isoc/arch/arm/arm32_aeabi_ldivmod.c:38
    440e:	0852      	lsrs	r2, r2, #1
/home/lubuntu/Dokument/GitHub/STM32-Computer/Firmware/STM32-Computer-Firmware/CA7/optee-os-3.19.0-r2/optee-os-stm32mp-3.19.0-stm32mp-r2/lib/libutils/isoc/arch/arm/arm32_aeabi_ldivmod.c:39
    4410:	0876      	lsrs	r6, r6, #1
/home/lubuntu/Dokument/GitHub/STM32-Computer/Firmware/STM32-Computer-Firmware/CA7/optee-os-3.19.0-r2/optee-os-stm32mp-3.19.0-stm32mp-r2/lib/libutils/isoc/arch/arm/arm32_aeabi_ldivmod.c:38
    4412:	ea42 72c3 	orr.w	r2, r2, r3, lsl #31
/home/lubuntu/Dokument/GitHub/STM32-Computer/Firmware/STM32-Computer-Firmware/CA7/optee-os-3.19.0-r2/optee-os-stm32mp-3.19.0-stm32mp-r2/lib/libutils/isoc/arch/arm/arm32_aeabi_ldivmod.c:39
    4416:	ea46 76c7 	orr.w	r6, r6, r7, lsl #31
/home/lubuntu/Dokument/GitHub/STM32-Computer/Firmware/STM32-Computer-Firmware/CA7/optee-os-3.19.0-r2/optee-os-stm32mp-3.19.0-stm32mp-r2/lib/libutils/isoc/arch/arm/arm32_aeabi_ldivmod.c:38
    441a:	085b      	lsrs	r3, r3, #1
/home/lubuntu/Dokument/GitHub/STM32-Computer/Firmware/STM32-Computer-Firmware/CA7/optee-os-3.19.0-r2/optee-os-stm32mp-3.19.0-stm32mp-r2/lib/libutils/isoc/arch/arm/arm32_aeabi_ldivmod.c:39
    441c:	087f      	lsrs	r7, r7, #1
    441e:	e7df      	b.n	43e0 <ul_div_qr+0x4e>

00004420 <__ul_divmod>:
__ul_divmod():
/home/lubuntu/Dokument/GitHub/STM32-Computer/Firmware/STM32-Computer-Firmware/CA7/optee-os-3.19.0-r2/optee-os-stm32mp-3.19.0-stm32mp-r2/lib/libutils/isoc/arch/arm/arm32_aeabi_ldivmod.c:66
    4420:	e92d 43d0 	stmdb	sp!, {r4, r6, r7, r8, r9, lr}
    4424:	b088      	sub	sp, #32
/home/lubuntu/Dokument/GitHub/STM32-Computer/Firmware/STM32-Computer-Firmware/CA7/optee-os-3.19.0-r2/optee-os-stm32mp-3.19.0-stm32mp-r2/lib/libutils/isoc/arch/arm/arm32_aeabi_ldivmod.c:69
    4426:	ab02      	add	r3, sp, #8
/home/lubuntu/Dokument/GitHub/STM32-Computer/Firmware/STM32-Computer-Firmware/CA7/optee-os-3.19.0-r2/optee-os-stm32mp-3.19.0-stm32mp-r2/lib/libutils/isoc/arch/arm/arm32_aeabi_ldivmod.c:66
    4428:	4604      	mov	r4, r0
/home/lubuntu/Dokument/GitHub/STM32-Computer/Firmware/STM32-Computer-Firmware/CA7/optee-os-3.19.0-r2/optee-os-stm32mp-3.19.0-stm32mp-r2/lib/libutils/isoc/arch/arm/arm32_aeabi_ldivmod.c:67
    442a:	e9d0 6700 	ldrd	r6, r7, [r0]
/home/lubuntu/Dokument/GitHub/STM32-Computer/Firmware/STM32-Computer-Firmware/CA7/optee-os-3.19.0-r2/optee-os-stm32mp-3.19.0-stm32mp-r2/lib/libutils/isoc/arch/arm/arm32_aeabi_ldivmod.c:68
    442e:	e9d0 8902 	ldrd	r8, r9, [r0, #8]
/home/lubuntu/Dokument/GitHub/STM32-Computer/Firmware/STM32-Computer-Firmware/CA7/optee-os-3.19.0-r2/optee-os-stm32mp-3.19.0-stm32mp-r2/lib/libutils/isoc/arch/arm/arm32_aeabi_ldivmod.c:69
    4432:	2218      	movs	r2, #24
    4434:	2100      	movs	r1, #0
    4436:	4618      	mov	r0, r3
    4438:	f7ff ff84 	bl	4344 <memset>
/home/lubuntu/Dokument/GitHub/STM32-Computer/Firmware/STM32-Computer-Firmware/CA7/optee-os-3.19.0-r2/optee-os-stm32mp-3.19.0-stm32mp-r2/lib/libutils/isoc/arch/arm/arm32_aeabi_ldivmod.c:71
    443c:	9000      	str	r0, [sp, #0]
    443e:	4642      	mov	r2, r8
    4440:	464b      	mov	r3, r9
    4442:	4630      	mov	r0, r6
    4444:	4639      	mov	r1, r7
    4446:	f7ff ffa4 	bl	4392 <ul_div_qr>
/home/lubuntu/Dokument/GitHub/STM32-Computer/Firmware/STM32-Computer-Firmware/CA7/optee-os-3.19.0-r2/optee-os-stm32mp-3.19.0-stm32mp-r2/lib/libutils/isoc/arch/arm/arm32_aeabi_ldivmod.c:73
    444a:	e9dd 2302 	ldrd	r2, r3, [sp, #8]
    444e:	e9c4 2300 	strd	r2, r3, [r4]
/home/lubuntu/Dokument/GitHub/STM32-Computer/Firmware/STM32-Computer-Firmware/CA7/optee-os-3.19.0-r2/optee-os-stm32mp-3.19.0-stm32mp-r2/lib/libutils/isoc/arch/arm/arm32_aeabi_ldivmod.c:74
    4452:	e9dd 2304 	ldrd	r2, r3, [sp, #16]
    4456:	e9c4 2302 	strd	r2, r3, [r4, #8]
/home/lubuntu/Dokument/GitHub/STM32-Computer/Firmware/STM32-Computer-Firmware/CA7/optee-os-3.19.0-r2/optee-os-stm32mp-3.19.0-stm32mp-r2/lib/libutils/isoc/arch/arm/arm32_aeabi_ldivmod.c:75
    445a:	b008      	add	sp, #32
    445c:	e8bd 83d0 	ldmia.w	sp!, {r4, r6, r7, r8, r9, pc}

00004460 <__vsnprintf>:
__vsnprintf():
/home/lubuntu/Dokument/GitHub/STM32-Computer/Firmware/STM32-Computer-Firmware/CA7/optee-os-3.19.0-r2/optee-os-stm32mp-3.19.0-stm32mp-r2/lib/libutils/ext/snprintk.c:138
    4460:	b57f      	push	{r0, r1, r2, r3, r4, r5, r6, lr}
    4462:	4604      	mov	r4, r0
/home/lubuntu/Dokument/GitHub/STM32-Computer/Firmware/STM32-Computer-Firmware/CA7/optee-os-3.19.0-r2/optee-os-stm32mp-3.19.0-stm32mp-r2/lib/libutils/ext/snprintk.c:142
    4464:	1866      	adds	r6, r4, r1
/home/lubuntu/Dokument/GitHub/STM32-Computer/Firmware/STM32-Computer-Firmware/CA7/optee-os-3.19.0-r2/optee-os-stm32mp-3.19.0-stm32mp-r2/lib/libutils/ext/snprintk.c:138
    4466:	4610      	mov	r0, r2
/home/lubuntu/Dokument/GitHub/STM32-Computer/Firmware/STM32-Computer-Firmware/CA7/optee-os-3.19.0-r2/optee-os-stm32mp-3.19.0-stm32mp-r2/lib/libutils/ext/snprintk.c:143
    4468:	f89d 2020 	ldrb.w	r2, [sp, #32]
/home/lubuntu/Dokument/GitHub/STM32-Computer/Firmware/STM32-Computer-Firmware/CA7/optee-os-3.19.0-r2/optee-os-stm32mp-3.19.0-stm32mp-r2/lib/libutils/ext/snprintk.c:138
    446c:	460d      	mov	r5, r1
/home/lubuntu/Dokument/GitHub/STM32-Computer/Firmware/STM32-Computer-Firmware/CA7/optee-os-3.19.0-r2/optee-os-stm32mp-3.19.0-stm32mp-r2/lib/libutils/ext/snprintk.c:142
    446e:	9603      	str	r6, [sp, #12]
/home/lubuntu/Dokument/GitHub/STM32-Computer/Firmware/STM32-Computer-Firmware/CA7/optee-os-3.19.0-r2/optee-os-stm32mp-3.19.0-stm32mp-r2/lib/libutils/ext/snprintk.c:143
    4470:	a903      	add	r1, sp, #12
    4472:	9200      	str	r2, [sp, #0]
    4474:	4622      	mov	r2, r4
    4476:	f7ff f9a7 	bl	37c8 <kprintf.constprop.0>
/home/lubuntu/Dokument/GitHub/STM32-Computer/Firmware/STM32-Computer-Firmware/CA7/optee-os-3.19.0-r2/optee-os-stm32mp-3.19.0-stm32mp-r2/lib/libutils/ext/snprintk.c:144
    447a:	b13c      	cbz	r4, 448c <__vsnprintf+0x2c>
/home/lubuntu/Dokument/GitHub/STM32-Computer/Firmware/STM32-Computer-Firmware/CA7/optee-os-3.19.0-r2/optee-os-stm32mp-3.19.0-stm32mp-r2/lib/libutils/ext/snprintk.c:144 (discriminator 1)
    447c:	b135      	cbz	r5, 448c <__vsnprintf+0x2c>
/home/lubuntu/Dokument/GitHub/STM32-Computer/Firmware/STM32-Computer-Firmware/CA7/optee-os-3.19.0-r2/optee-os-stm32mp-3.19.0-stm32mp-r2/lib/libutils/ext/snprintk.c:146
    447e:	42a8      	cmp	r0, r5
    4480:	f04f 0300 	mov.w	r3, #0
/home/lubuntu/Dokument/GitHub/STM32-Computer/Firmware/STM32-Computer-Firmware/CA7/optee-os-3.19.0-r2/optee-os-stm32mp-3.19.0-stm32mp-r2/lib/libutils/ext/snprintk.c:147
    4484:	bf2c      	ite	cs
    4486:	f806 3c01 	strbcs.w	r3, [r6, #-1]
/home/lubuntu/Dokument/GitHub/STM32-Computer/Firmware/STM32-Computer-Firmware/CA7/optee-os-3.19.0-r2/optee-os-stm32mp-3.19.0-stm32mp-r2/lib/libutils/ext/snprintk.c:149
    448a:	5423      	strbcc	r3, [r4, r0]
/home/lubuntu/Dokument/GitHub/STM32-Computer/Firmware/STM32-Computer-Firmware/CA7/optee-os-3.19.0-r2/optee-os-stm32mp-3.19.0-stm32mp-r2/lib/libutils/ext/snprintk.c:152
    448c:	b004      	add	sp, #16
    448e:	bd70      	pop	{r4, r5, r6, pc}

00004490 <vsnprintk>:
vsnprintk():
/home/lubuntu/Dokument/GitHub/STM32-Computer/Firmware/STM32-Computer-Firmware/CA7/optee-os-3.19.0-r2/optee-os-stm32mp-3.19.0-stm32mp-r2/lib/libutils/ext/snprintk.c:130
    4490:	b513      	push	{r0, r1, r4, lr}
/home/lubuntu/Dokument/GitHub/STM32-Computer/Firmware/STM32-Computer-Firmware/CA7/optee-os-3.19.0-r2/optee-os-stm32mp-3.19.0-stm32mp-r2/lib/libutils/ext/snprintk.c:131
    4492:	2401      	movs	r4, #1
    4494:	9400      	str	r4, [sp, #0]
    4496:	f7ff ffe3 	bl	4460 <__vsnprintf>
/home/lubuntu/Dokument/GitHub/STM32-Computer/Firmware/STM32-Computer-Firmware/CA7/optee-os-3.19.0-r2/optee-os-stm32mp-3.19.0-stm32mp-r2/lib/libutils/ext/snprintk.c:132
    449a:	b002      	add	sp, #8
    449c:	bd10      	pop	{r4, pc}

0000449e <snprintk>:
snprintk():
/home/lubuntu/Dokument/GitHub/STM32-Computer/Firmware/STM32-Computer-Firmware/CA7/optee-os-3.19.0-r2/optee-os-stm32mp-3.19.0-stm32mp-r2/lib/libutils/ext/snprintk.c:113
    449e:	b40c      	push	{r2, r3}
    44a0:	b507      	push	{r0, r1, r2, lr}
    44a2:	ab04      	add	r3, sp, #16
    44a4:	f853 2b04 	ldr.w	r2, [r3], #4
/home/lubuntu/Dokument/GitHub/STM32-Computer/Firmware/STM32-Computer-Firmware/CA7/optee-os-3.19.0-r2/optee-os-stm32mp-3.19.0-stm32mp-r2/lib/libutils/ext/snprintk.c:117
    44a8:	9301      	str	r3, [sp, #4]
/home/lubuntu/Dokument/GitHub/STM32-Computer/Firmware/STM32-Computer-Firmware/CA7/optee-os-3.19.0-r2/optee-os-stm32mp-3.19.0-stm32mp-r2/lib/libutils/ext/snprintk.c:118
    44aa:	f7ff fff1 	bl	4490 <vsnprintk>
/home/lubuntu/Dokument/GitHub/STM32-Computer/Firmware/STM32-Computer-Firmware/CA7/optee-os-3.19.0-r2/optee-os-stm32mp-3.19.0-stm32mp-r2/lib/libutils/ext/snprintk.c:122
    44ae:	b003      	add	sp, #12
    44b0:	f85d eb04 	ldr.w	lr, [sp], #4
    44b4:	b002      	add	sp, #8
    44b6:	4770      	bx	lr

000044b8 <trace_printf>:
trace_printf():
/home/lubuntu/Dokument/GitHub/STM32-Computer/Firmware/STM32-Computer-Firmware/CA7/optee-os-3.19.0-r2/optee-os-stm32mp-3.19.0-stm32mp-r2/lib/libutils/ext/trace.c:104
    44b8:	b530      	push	{r4, r5, lr}
    44ba:	b085      	sub	sp, #20
    44bc:	ac08      	add	r4, sp, #32
    44be:	f854 5b04 	ldr.w	r5, [r4], #4
/home/lubuntu/Dokument/GitHub/STM32-Computer/Firmware/STM32-Computer-Firmware/CA7/optee-os-3.19.0-r2/optee-os-stm32mp-3.19.0-stm32mp-r2/lib/libutils/ext/trace.c:108
    44c2:	9401      	str	r4, [sp, #4]
    44c4:	9500      	str	r5, [sp, #0]
/home/lubuntu/Dokument/GitHub/STM32-Computer/Firmware/STM32-Computer-Firmware/CA7/optee-os-3.19.0-r2/optee-os-stm32mp-3.19.0-stm32mp-r2/lib/libutils/ext/trace.c:107
    44c6:	9403      	str	r4, [sp, #12]
/home/lubuntu/Dokument/GitHub/STM32-Computer/Firmware/STM32-Computer-Firmware/CA7/optee-os-3.19.0-r2/optee-os-stm32mp-3.19.0-stm32mp-r2/lib/libutils/ext/trace.c:108
    44c8:	f7ff fcec 	bl	3ea4 <trace_vprintf>
/home/lubuntu/Dokument/GitHub/STM32-Computer/Firmware/STM32-Computer-Firmware/CA7/optee-os-3.19.0-r2/optee-os-stm32mp-3.19.0-stm32mp-r2/lib/libutils/ext/trace.c:110
    44cc:	b005      	add	sp, #20
    44ce:	bd30      	pop	{r4, r5, pc}

000044d0 <__aeabi_unwind_cpp_pr0>:
__aeabi_unwind_cpp_pr0():
/home/lubuntu/Dokument/GitHub/STM32-Computer/Firmware/STM32-Computer-Firmware/CA7/optee-os-3.19.0-r2/optee-os-stm32mp-3.19.0-stm32mp-r2/lib/libutils/ext/arch/arm/aeabi_unwind.c:9
    44d0:	4770      	bx	lr

000044d2 <__aeabi_unwind_cpp_pr1>:
__aeabi_unwind_cpp_pr1():
/home/lubuntu/Dokument/GitHub/STM32-Computer/Firmware/STM32-Computer-Firmware/CA7/optee-os-3.19.0-r2/optee-os-stm32mp-3.19.0-stm32mp-r2/lib/libutils/ext/arch/arm/aeabi_unwind.c:12
    44d2:	4770      	bx	lr

000044d4 <memchr>:
memchr():
/home/lubuntu/Dokument/GitHub/STM32-Computer/Firmware/STM32-Computer-Firmware/CA7/optee-os-3.19.0-r2/optee-os-stm32mp-3.19.0-stm32mp-r2/lib/libutils/isoc/newlib/memchr.c:109
    44d4:	4402      	add	r2, r0
    44d6:	b2c9      	uxtb	r1, r1
/home/lubuntu/Dokument/GitHub/STM32-Computer/Firmware/STM32-Computer-Firmware/CA7/optee-os-3.19.0-r2/optee-os-stm32mp-3.19.0-stm32mp-r2/lib/libutils/isoc/newlib/memchr.c:153
    44d8:	4603      	mov	r3, r0
/home/lubuntu/Dokument/GitHub/STM32-Computer/Firmware/STM32-Computer-Firmware/CA7/optee-os-3.19.0-r2/optee-os-stm32mp-3.19.0-stm32mp-r2/lib/libutils/isoc/newlib/memchr.c:107
    44da:	b510      	push	{r4, lr}
    44dc:	4618      	mov	r0, r3
/home/lubuntu/Dokument/GitHub/STM32-Computer/Firmware/STM32-Computer-Firmware/CA7/optee-os-3.19.0-r2/optee-os-stm32mp-3.19.0-stm32mp-r2/lib/libutils/isoc/newlib/memchr.c:153
    44de:	4293      	cmp	r3, r2
    44e0:	d101      	bne.n	44e6 <memchr+0x12>
/home/lubuntu/Dokument/GitHub/STM32-Computer/Firmware/STM32-Computer-Firmware/CA7/optee-os-3.19.0-r2/optee-os-stm32mp-3.19.0-stm32mp-r2/lib/libutils/isoc/newlib/memchr.c:159
    44e2:	2000      	movs	r0, #0
    44e4:	e003      	b.n	44ee <memchr+0x1a>
/home/lubuntu/Dokument/GitHub/STM32-Computer/Firmware/STM32-Computer-Firmware/CA7/optee-os-3.19.0-r2/optee-os-stm32mp-3.19.0-stm32mp-r2/lib/libutils/isoc/newlib/memchr.c:154
    44e6:	7804      	ldrb	r4, [r0, #0]
    44e8:	3301      	adds	r3, #1
    44ea:	428c      	cmp	r4, r1
    44ec:	d1f6      	bne.n	44dc <memchr+0x8>
/home/lubuntu/Dokument/GitHub/STM32-Computer/Firmware/STM32-Computer-Firmware/CA7/optee-os-3.19.0-r2/optee-os-stm32mp-3.19.0-stm32mp-r2/lib/libutils/isoc/newlib/memchr.c:160
    44ee:	bd10      	pop	{r4, pc}

000044f0 <strlen>:
strlen():
/home/lubuntu/Dokument/GitHub/STM32-Computer/Firmware/STM32-Computer-Firmware/CA7/optee-os-3.19.0-r2/optee-os-stm32mp-3.19.0-stm32mp-r2/lib/libutils/isoc/newlib/strlen.c:117
    44f0:	4603      	mov	r3, r0
    44f2:	461a      	mov	r2, r3
    44f4:	3301      	adds	r3, #1
    44f6:	7811      	ldrb	r1, [r2, #0]
    44f8:	2900      	cmp	r1, #0
    44fa:	d1fa      	bne.n	44f2 <strlen+0x2>
/home/lubuntu/Dokument/GitHub/STM32-Computer/Firmware/STM32-Computer-Firmware/CA7/optee-os-3.19.0-r2/optee-os-stm32mp-3.19.0-stm32mp-r2/lib/libutils/isoc/newlib/strlen.c:120
    44fc:	1a10      	subs	r0, r2, r0
    44fe:	4770      	bx	lr

00004500 <trace_ext_puts>:
trace_ext_puts():
/home/lubuntu/Dokument/GitHub/STM32-Computer/Firmware/STM32-Computer-Firmware/CA7/optee-os-3.19.0-r2/optee-os-stm32mp-3.19.0-stm32mp-r2/lib/libutee/trace_ext.c:22
    4500:	b510      	push	{r4, lr}
    4502:	4604      	mov	r4, r0
/home/lubuntu/Dokument/GitHub/STM32-Computer/Firmware/STM32-Computer-Firmware/CA7/optee-os-3.19.0-r2/optee-os-stm32mp-3.19.0-stm32mp-r2/lib/libutee/trace_ext.c:24
    4504:	f7ff fff4 	bl	44f0 <strlen>
    4508:	4601      	mov	r1, r0
    450a:	4620      	mov	r0, r4
/home/lubuntu/Dokument/GitHub/STM32-Computer/Firmware/STM32-Computer-Firmware/CA7/optee-os-3.19.0-r2/optee-os-stm32mp-3.19.0-stm32mp-r2/lib/libutee/trace_ext.c:28
    450c:	e8bd 4010 	ldmia.w	sp!, {r4, lr}
/home/lubuntu/Dokument/GitHub/STM32-Computer/Firmware/STM32-Computer-Firmware/CA7/optee-os-3.19.0-r2/optee-os-stm32mp-3.19.0-stm32mp-r2/lib/libutee/trace_ext.c:24
    4510:	f000 b84e 	b.w	45b0 <___ldelf_log_from_thumb>

00004514 <trace_ext_get_thread_id>:
trace_ext_get_thread_id():
/home/lubuntu/Dokument/GitHub/STM32-Computer/Firmware/STM32-Computer-Firmware/CA7/optee-os-3.19.0-r2/optee-os-stm32mp-3.19.0-stm32mp-r2/lib/libutee/trace_ext.c:33
    4514:	f04f 30ff 	mov.w	r0, #4294967295	@ 0xffffffff
    4518:	4770      	bx	lr
    451a:	0000      	movs	r0, r0
    451c:	0000      	movs	r0, r0
	...

00004520 <___ldelf_map_zi_from_thumb>:
___ldelf_map_zi_from_thumb():
    4520:	4778      	bx	pc
    4522:	e7fd      	b.n	4520 <___ldelf_map_zi_from_thumb>
    4524:	e59fc000 	ldr	ip, [pc]	@ 452c <___ldelf_map_zi_from_thumb+0xc>
    4528:	e08cf00f 	add	pc, ip, pc
    452c:	ffffbb84 	.word	0xffffbb84

00004530 <___ldelf_map_bin_from_thumb>:
___ldelf_map_bin_from_thumb():
    4530:	4778      	bx	pc
    4532:	e7fd      	b.n	4530 <___ldelf_map_bin_from_thumb>
    4534:	e59fc000 	ldr	ip, [pc]	@ 453c <___ldelf_map_bin_from_thumb+0xc>
    4538:	e08cf00f 	add	pc, ip, pc
    453c:	ffffbbc8 	.word	0xffffbbc8

00004540 <___ldelf_open_bin_from_thumb>:
___ldelf_open_bin_from_thumb():
    4540:	4778      	bx	pc
    4542:	e7fd      	b.n	4540 <___ldelf_open_bin_from_thumb>
    4544:	e59fc000 	ldr	ip, [pc]	@ 454c <___ldelf_open_bin_from_thumb+0xc>
    4548:	e08cf00f 	add	pc, ip, pc
    454c:	ffffbb90 	.word	0xffffbb90

00004550 <___ldelf_close_bin_from_thumb>:
___ldelf_close_bin_from_thumb():
    4550:	4778      	bx	pc
    4552:	e7fd      	b.n	4550 <___ldelf_close_bin_from_thumb>
    4554:	e59fc000 	ldr	ip, [pc]	@ 455c <___ldelf_close_bin_from_thumb+0xc>
    4558:	e08cf00f 	add	pc, ip, pc
    455c:	ffffbb94 	.word	0xffffbb94

00004560 <___ldelf_cp_from_bin_from_thumb>:
___ldelf_cp_from_bin_from_thumb():
    4560:	4778      	bx	pc
    4562:	e7fd      	b.n	4560 <___ldelf_cp_from_bin_from_thumb>
    4564:	e59fc000 	ldr	ip, [pc]	@ 456c <___ldelf_cp_from_bin_from_thumb+0xc>
    4568:	e08cf00f 	add	pc, ip, pc
    456c:	ffffbbb0 	.word	0xffffbbb0

00004570 <___ldelf_unmap_from_thumb>:
___ldelf_unmap_from_thumb():
    4570:	4778      	bx	pc
    4572:	e7fd      	b.n	4570 <___ldelf_unmap_from_thumb>
    4574:	e59fc000 	ldr	ip, [pc]	@ 457c <___ldelf_unmap_from_thumb+0xc>
    4578:	e08cf00f 	add	pc, ip, pc
    457c:	ffffbb4c 	.word	0xffffbb4c

00004580 <___ldelf_gen_rnd_num_from_thumb>:
___ldelf_gen_rnd_num_from_thumb():
    4580:	4778      	bx	pc
    4582:	e7fd      	b.n	4580 <___ldelf_gen_rnd_num_from_thumb>
    4584:	e59fc000 	ldr	ip, [pc]	@ 458c <___ldelf_gen_rnd_num_from_thumb+0xc>
    4588:	e08cf00f 	add	pc, ip, pc
    458c:	ffffbbd0 	.word	0xffffbbd0

00004590 <___ldelf_set_prot_from_thumb>:
___ldelf_set_prot_from_thumb():
    4590:	4778      	bx	pc
    4592:	e7fd      	b.n	4590 <___ldelf_set_prot_from_thumb>
    4594:	e59fc000 	ldr	ip, [pc]	@ 459c <___ldelf_set_prot_from_thumb+0xc>
    4598:	e08cf00f 	add	pc, ip, pc
    459c:	ffffbb94 	.word	0xffffbb94

000045a0 <___ldelf_remap_from_thumb>:
___ldelf_remap_from_thumb():
    45a0:	4778      	bx	pc
    45a2:	e7fd      	b.n	45a0 <___ldelf_remap_from_thumb>
    45a4:	e59fc000 	ldr	ip, [pc]	@ 45ac <___ldelf_remap_from_thumb+0xc>
    45a8:	e08cf00f 	add	pc, ip, pc
    45ac:	ffffbb98 	.word	0xffffbb98

000045b0 <___ldelf_log_from_thumb>:
___ldelf_log_from_thumb():
    45b0:	4778      	bx	pc
    45b2:	e7fd      	b.n	45b0 <___ldelf_log_from_thumb>
    45b4:	e59fc000 	ldr	ip, [pc]	@ 45bc <___ldelf_log_from_thumb+0xc>
    45b8:	e08cf00f 	add	pc, ip, pc
    45bc:	ffffbacc 	.word	0xffffbacc
