
/home/lubuntu/Dokument/GitHub/STM32-Computer/Firmware/STM32-Computer-Firmware/CA7/optee-os-3.19.0-r2/optee-os-stm32mp-3.19.0-stm32mp-r2/../build/stm32mp157c-ed1/ldelf/ldelf.elf:     file format elf32-littlearm
/home/lubuntu/Dokument/GitHub/STM32-Computer/Firmware/STM32-Computer-Firmware/CA7/optee-os-3.19.0-r2/optee-os-stm32mp-3.19.0-stm32mp-r2/../build/stm32mp157c-ed1/ldelf/ldelf.elf
architecture: armv7, flags 0x00000150:
HAS_SYMS, DYNAMIC, D_PAGED
start address 0x00000000

Program Header:
0x70000001 off    0x00006780 vaddr 0x00005780 paddr 0x00005780 align 2**2
         filesz 0x00000398 memsz 0x00000398 flags r--
    LOAD off    0x00001000 vaddr 0x00000000 paddr 0x00000000 align 2**12
         filesz 0x00005cc8 memsz 0x00005cc8 flags r-x
    LOAD off    0x00007000 vaddr 0x00006000 paddr 0x00006000 align 2**12
         filesz 0x0000010c memsz 0x00000118 flags rw-
 DYNAMIC off    0x00007000 vaddr 0x00006000 paddr 0x00006000 align 2**2
         filesz 0x00000088 memsz 0x00000088 flags rw-
   STACK off    0x00000000 vaddr 0x00000000 paddr 0x00000000 align 2**4
         filesz 0x00000000 memsz 0x00000000 flags rwx

Dynamic Section:
  HASH                 0x00005c80
  GNU_HASH             0x00005768
  STRTAB               0x00005c7c
  SYMTAB               0x00005c4c
  STRSZ                0x00000001
  SYMENT               0x00000010
  DEBUG                0x00000000
  REL                  0x00005c98
  RELSZ                0x00000030
  RELENT               0x00000008
  FLAGS_1              0x08000000
  RELCOUNT             0x00000003
private flags = 0x5000200: [Version5 EABI] [soft-float ABI]

Sections:
Idx Name          Size      VMA       LMA       File off  Algn
  0 .text         000045c0  00000000  00000000  00001000  2**3
                  CONTENTS, ALLOC, LOAD, READONLY, CODE
  1 .rodata       000011a8  000045c0  000045c0  000055c0  2**0
                  CONTENTS, ALLOC, LOAD, READONLY, DATA
  2 .gnu.hash     00000018  00005768  00005768  00006768  2**2
                  CONTENTS, ALLOC, LOAD, READONLY, DATA
  3 .ARM.exidx    00000398  00005780  00005780  00006780  2**2
                  CONTENTS, ALLOC, LOAD, READONLY, DATA
  4 .ARM.extab    00000134  00005b18  00005b18  00006b18  2**2
                  CONTENTS, ALLOC, LOAD, READONLY, DATA
  5 .dynsym       00000030  00005c4c  00005c4c  00006c4c  2**2
                  CONTENTS, ALLOC, LOAD, READONLY, DATA
  6 .dynstr       00000001  00005c7c  00005c7c  00006c7c  2**0
                  CONTENTS, ALLOC, LOAD, READONLY, DATA
  7 .hash         00000018  00005c80  00005c80  00006c80  2**2
                  CONTENTS, ALLOC, LOAD, READONLY, DATA
  8 .rel.got      00000018  00005c98  00005c98  00006c98  2**2
                  CONTENTS, ALLOC, LOAD, READONLY, DATA
  9 .dynamic      00000088  00006000  00006000  00007000  2**2
                  CONTENTS, ALLOC, LOAD, DATA
 10 .got          00000018  00006088  00006088  00007088  2**2
                  CONTENTS, ALLOC, LOAD, DATA
 11 .data         0000006c  000060a0  000060a0  000070a0  2**2
                  CONTENTS, ALLOC, LOAD, DATA
 12 .bss          0000000c  0000610c  0000610c  0000710c  2**2
                  ALLOC
 13 .ARM.attributes 0000002f  00000000  00000000  0000710c  2**0
                  CONTENTS, READONLY
 14 .comment      00000012  00000000  00000000  0000713b  2**0
                  CONTENTS, READONLY
 15 .debug_line   00009815  00000000  00000000  0000714d  2**0
                  CONTENTS, READONLY, DEBUGGING, OCTETS
 16 .debug_line_str 0000010c  00000000  00000000  00010962  2**0
                  CONTENTS, READONLY, DEBUGGING, OCTETS
 17 .debug_info   0000e129  00000000  00000000  00010a6e  2**0
                  CONTENTS, READONLY, DEBUGGING, OCTETS
 18 .debug_abbrev 00002c73  00000000  00000000  0001eb97  2**0
                  CONTENTS, READONLY, DEBUGGING, OCTETS
 19 .debug_aranges 00000920  00000000  00000000  00021810  2**3
                  CONTENTS, READONLY, DEBUGGING, OCTETS
 20 .debug_str    0001564a  00000000  00000000  00022130  2**0
                  CONTENTS, READONLY, DEBUGGING, OCTETS
 21 .rel.dyn      00000018  00005cb0  00005cb0  00006cb0  2**2
                  CONTENTS, ALLOC, LOAD, READONLY, DATA
 22 .debug_rnglists 00000d91  00000000  00000000  0003777a  2**0
                  CONTENTS, READONLY, DEBUGGING, OCTETS
 23 .debug_loclists 00007eef  00000000  00000000  0003850b  2**0
                  CONTENTS, READONLY, DEBUGGING, OCTETS
 24 .debug_macro  00015aea  00000000  00000000  000403fa  2**0
                  CONTENTS, READONLY, DEBUGGING, OCTETS
 25 .debug_frame  0000113c  00000000  00000000  00055ee4  2**2
                  CONTENTS, READONLY, DEBUGGING, OCTETS
SYMBOL TABLE:
00000000 l    d  .text	00000000 .text
000045c0 l    d  .rodata	00000000 .rodata
00005768 l    d  .gnu.hash	00000000 .gnu.hash
00005780 l    d  .ARM.exidx	00000000 .ARM.exidx
00005b18 l    d  .ARM.extab	00000000 .ARM.extab
00005c4c l    d  .dynsym	00000000 .dynsym
00005c7c l    d  .dynstr	00000000 .dynstr
00005c80 l    d  .hash	00000000 .hash
00005c98 l    d  .rel.got	00000000 .rel.got
00006000 l    d  .dynamic	00000000 .dynamic
00006088 l    d  .got	00000000 .got
000060a0 l    d  .data	00000000 .data
0000610c l    d  .bss	00000000 .bss
00000000 l    d  .ARM.attributes	00000000 .ARM.attributes
00000000 l    d  .comment	00000000 .comment
00000000 l    d  .debug_line	00000000 .debug_line
00000000 l    d  .debug_line_str	00000000 .debug_line_str
00000000 l    d  .debug_info	00000000 .debug_info
00000000 l    d  .debug_abbrev	00000000 .debug_abbrev
00000000 l    d  .debug_aranges	00000000 .debug_aranges
00000000 l    d  .debug_str	00000000 .debug_str
00005cb0 l    d  .rel.dyn	00000000 .rel.dyn
00000000 l    d  .debug_rnglists	00000000 .debug_rnglists
00000000 l    d  .debug_loclists	00000000 .debug_loclists
00000000 l    d  .debug_macro	00000000 .debug_macro
00000000 l    d  .debug_frame	00000000 .debug_frame
00000000 l    df *ABS*	00000000 start_a32.o
0000005c l       .text	00000000 reloc_begin_rel
00000060 l       .text	00000000 reloc_end_rel
00000000 l    df *ABS*	00000000 syscalls_a32.o
00000000 l    df *ABS*	00000000 dl.c
00000000 l    df *ABS*	00000000 main.c
00000200 l     F .text	00000024 dl_entry
00003fdc l     F .text	00000018 print_to_console
00000224 l     F .text	000000d4 dump_ta_state
00004647 l     O .rodata	0000000e __func__.0
0000610c l     O .bss	00000004 mpool_base
00004655 l     O .rodata	00000006 __func__.1
00000000 l    df *ABS*	00000000 sys.c
00000000 l    df *ABS*	00000000 ta_elf.c
000004a0 l     F .text	00000084 check_range
00004fc4 l     O .rodata	0000000c __func__.19
00000524 l     F .text	00000070 check_hashtab
00004f81 l     O .rodata	0000000e __func__.15
00000594 l     F .text	00000044 queue_elf_helper
000005d8 l     F .text	00000090 add_segment
00005023 l     O .rodata	0000000c __func__.24
00000668 l     F .text	00000040 get_pad_begin
0000507a l     O .rodata	0000000e __func__.31
000006a8 l     F .text	0000004c ta_elf_add_bti
0000506b l     O .rodata	0000000f __func__.30
000006f4 l     F .text	00000188 init_elf
0000504e l     O .rodata	00000009 __func__.28
0000087c l     F .text	00000040 close_handle
00004f49 l     O .rodata	0000000d __func__.12
00004052 l     F .text	0000001a print_wrapper
000008bc l     F .text	00000060 check_phdr_in_range.constprop.0
00004fd0 l     O .rodata	00000014 __func__.20
0000091c l     F .text	00000018 _assert_trap.constprop.0
00000934 l     F .text	000000e4 print_seg
00006114 l     O .bss	00000004 ta_stack
00000a18 l     F .text	000000ec copy_section_headers
00004faf l     O .rodata	00000015 __func__.18
00000b04 l     F .text	0000038c populate_segments
00005099 l     O .rodata	00000012 __func__.33
00005088 l     O .rodata	00000011 __func__.32
00000e90 l     F .text	00000380 map_segments
00005041 l     O .rodata	0000000d __func__.27
000060a4 l     O .data	00000004 last_tls_mod_id.26
0000502f l     O .rodata	00000012 __func__.25
00005013 l     O .rodata	00000010 __func__.23
0000406c l     F .text	0000002a read_dyn
00001210 l     F .text	000000a4 save_soname_from_segment
00004f56 l     O .rodata	00000019 __func__.13
000012b4 l     F .text	000002e4 save_symtab
00004f8f l     O .rodata	00000010 __func__.16
00004f9f l     O .rodata	00000010 __func__.17
00004f6f l     O .rodata	00000012 __func__.14
00001598 l     F .text	000000a8 get_init_fini_array.constprop.0
00004e86 l     O .rodata	00000014 __func__.2
00004096 l     F .text	0000005c elf_get_init_fini_array.constprop.0
0000166c l     F .text	00000040 queue_elf
000050b5 l     O .rodata	0000000a __func__.35
000016ac l     F .text	00000114 add_deps_from_segment
00004fe4 l     O .rodata	00000016 __func__.21
000040f2 l     F .text	0000004a add_dependencies
000050bf l     O .rodata	00000011 __func__.36
000050ab l     O .rodata	0000000a __func__.34
00004ffa l     O .rodata	00000019 __func__.22
00005057 l     O .rodata	00000014 __func__.29
00006110 l     O .bss	00000004 ta_stack_size
00004f18 l     O .rodata	00000017 __func__.10
00004eff l     O .rodata	00000019 __func__.9
00004ed7 l     O .rodata	00000012 __func__.6
00004ee9 l     O .rodata	00000016 __func__.8
00004ea3 l     O .rodata	00000021 __func__.4
00004e9a l     O .rodata	00000009 __func__.3
00004e6d l     O .rodata	00000019 __func__.1
00004e5a l     O .rodata	00000013 __func__.0
00004f2f l     O .rodata	0000001a __func__.11
00004ec4 l     O .rodata	00000013 __func__.5
00000000 l    df *ABS*	00000000 ta_elf_rel.c
0000413e l     F .text	0000000c confine_array_index
000022d0 l     F .text	00000150 check_found_sym
00005331 l     O .rodata	00000010 __func__.6
00005325 l     O .rodata	0000000c __func__.5
00002420 l     F .text	000001c0 resolve_sym_helper
00005341 l     O .rodata	00000013 __func__.7
000025e0 l     F .text	00000088 e32_get_sym_name.constprop.0.isra.0
00005307 l     O .rodata	00000011 __func__.3
000026e4 l     F .text	0000006c e32_process_dyn_rel
000052fb l     O .rodata	0000000c __func__.2
000052db l     O .rodata	0000000d __func__.0
00005318 l     O .rodata	0000000d __func__.4
000052e8 l     O .rodata	00000013 __func__.1
00000000 l    df *ABS*	00000000 unwind_arm32.c
0000414a l     F .text	00000028 pop_vsp
00004172 l     F .text	0000003e unwind_exec_read_byte
000053a6 l     O .rodata	0000000b __func__.1
00005395 l     O .rodata	00000011 __func__.0
00000000 l    df *ABS*	00000000 assert.c
00000000 l    df *ABS*	00000000 tee_uuid_from_str.c
00002f6c l     F .text	00000048 parse_hex
00000000 l    df *ABS*	00000000 utee_syscalls_a32.o
00000000 l    df *ABS*	00000000 bget_malloc.c
000041b0 l     F .text	00000020 raw_malloc_return_hook
000041d0 l     F .text	0000000a _assert_trap
000030a4 l     F .text	00000020 bget_buf_size.part.0
000056cb l     O .rodata	0000000e __func__.2
000056ea l     O .rodata	00000005 __func__.8
000056e4 l     O .rodata	00000006 __func__.7
000056df l     O .rodata	00000005 __func__.5
000056d9 l     O .rodata	00000006 __func__.4
000060b0 l     O .data	0000005c malloc_ctx
000035ac l     F .text	000000b8 gen_malloc_add_pool
000056b7 l     O .rodata	00000014 __func__.1
00000000 l    df *ABS*	00000000 memcpy.c
00000000 l    df *ABS*	00000000 arm32_aeabi_ldivmod_a32.o
00000000 l    df *ABS*	00000000 snprintk.c
000037c8 l     F .text	000006dc kprintf.constprop.0
00005738 l     O .rodata	00000011 hexdigits
00005727 l     O .rodata	00000011 HEXDIGITS
00000000 l    df *ABS*	00000000 trace.c
00005763 l     O .rodata	00000005 lvl_strs.1
00000000 l    df *ABS*	00000000 isxdigit.c
00000000 l    df *ABS*	00000000 snprintf.c
00000000 l    df *ABS*	00000000 tolower.c
00000000 l    df *ABS*	00000000 memcmp.c
00000000 l    df *ABS*	00000000 memset.c
00000000 l    df *ABS*	00000000 strcmp.c
00000000 l    df *ABS*	00000000 strcpy.c
00000000 l    df *ABS*	00000000 strnlen.c
00000000 l    df *ABS*	00000000 arm32_aeabi_ldivmod.c
00004392 l     F .text	0000008e ul_div_qr
00000000 l    df *ABS*	00000000 aeabi_unwind.c
00000000 l    df *ABS*	00000000 memchr.c
00000000 l    df *ABS*	00000000 strlen.c
00000000 l    df *ABS*	00000000 trace_ext.c
00000000 l    df *ABS*	00000000 
0000436a l     F .text	00000010 strcpy
00004206 l     F .text	00000008 raw_free
00002668 l     F .text	0000007c ta_elf_resolve_sym
00002fb4 l     F .text	000000c8 tee_uuid_from_str
00004490 l     F .text	0000000e vsnprintk
000042fa l     F .text	0000001e snprintf
00006000 l     O *ABS*	00000000 _DYNAMIC
00002750 l     F .text	00000498 ta_elf_relocate
00001640 l     F .text	0000002c ta_elf_find_elf
000044b8 l     F .text	00000018 trace_printf
000036d4 l     F .text	000000dc memcpy
00003ff4 l     F .text	00000008 sys_return_cleanup
00004318 l     F .text	0000000c tolower
00003664 l     F .text	00000014 malloc
0000404a l     F .text	00000004 sys_remap
00001c0c l     F .text	0000020c ta_elf_print_mappings
000041da l     F .text	0000002c raw_malloc
000032d0 l     F .text	0000005c bgetz
0000041c l     F .text	00000084 __panic
00003ea4 l     F .text	00000138 trace_vprintf
00002f34 l     F .text	00000028 _assert_log
000042de l     F .text	0000001c isxdigit
0000437a l     F .text	00000018 strnlen
00001e68 l     F .text	00000038 ta_elf_stack_trace_a32
00003678 l     F .text	00000020 calloc
00004420 l     F .text	00000040 __ul_divmod
00000174 l     F .text	00000040 dlopen_entry
00004010 l     F .text	00000004 sys_unmap
000044d4 l     F .text	0000001c memchr
00002028 l     F .text	0000016c ta_elf_set_elf_phdr_info
00001bb4 l     F .text	00000058 ta_elf_finalize_mappings
00002230 l     F .text	000000a0 ta_elf_add_library
00003698 l     F .text	0000001c realloc
000001b4 l     F .text	0000004c dlsym_entry
00004324 l     F .text	00000020 memcmp
000036c4 l     F .text	00000010 malloc_add_pool
0000424c l     F .text	00000092 raw_realloc
00002194 l     F .text	0000009c ta_elf_finalize_load_main
00003518 l     F .text	00000094 bpool
00004014 l     F .text	00000008 sys_open_ta_bin
00004344 l     F .text	00000010 memset
00001e18 l     F .text	00000050 find_exidx
00004354 l     F .text	00000016 strcmp
0000401c l     F .text	00000004 sys_close_ta_bin
00002ee8 l     F .text	0000004c print_stack_arm32
0000413c l     F .text	00000002 ta_elf_stack_trace_a64
0000449e l     F .text	0000001a snprintk
00002be8 l     F .text	00000300 unwind_stack_arm32
000030c4 l     F .text	0000020c bget
00003ffc l     F .text	00000014 sys_map_zi
00004020 l     F .text	00000016 sys_map_ta_bin
000002f8 l     F .text	00000124 ldelf
00002f5c l     F .text	00000010 _assert_break
00006088 l     O *ABS*	00000000 _GLOBAL_OFFSET_TABLE_
00001b0c l     F .text	000000a8 ta_elf_load_dependency
00004460 l     F .text	00000030 __vsnprintf
0000404e l     F .text	00000004 sys_gen_random_num
00004500 l     F .text	00000014 trace_ext_puts
00004514 l     F .text	00000006 trace_ext_get_thread_id
00004046 l     F .text	00000004 sys_set_prot
0000420e l     F .text	0000003e raw_calloc
000044f0 l     F .text	00000010 strlen
0000332c l     F .text	000001ec brel
000017c0 l     F .text	0000034c ta_elf_load_main
00001ea0 l     F .text	00000188 ta_elf_set_init_fini_info_compat
00004036 l     F .text	00000010 sys_copy_from_ta_bin
000036b4 l     F .text	00000010 free
00004520 l     F .text	00000010 ___ldelf_map_zi_from_thumb
00004530 l     F .text	00000010 ___ldelf_map_bin_from_thumb
00004540 l     F .text	00000010 ___ldelf_open_bin_from_thumb
00004550 l     F .text	00000010 ___ldelf_close_bin_from_thumb
00004560 l     F .text	00000010 ___ldelf_cp_from_bin_from_thumb
00004570 l     F .text	00000010 ___ldelf_unmap_from_thumb
00004580 l     F .text	00000010 ___ldelf_gen_rnd_num_from_thumb
00004590 l     F .text	00000010 ___ldelf_set_prot_from_thumb
000045a0 l     F .text	00000010 ___ldelf_remap_from_thumb
000045b0 l     F .text	00000010 ___ldelf_log_from_thumb
00005c98 g       .rel.got	00000000 __reloc_begin
00000148 g     F .text	00000018 _ldelf_remap
000044d0 g     F .text	00000002 .hidden __aeabi_unwind_cpp_pr0
000060a8 g     O .data	00000008 .hidden main_elf_queue
00000000 g       .text	00000000 __text_start
00000120 g     F .text	00000014 _ldelf_cp_from_bin
00000078 g     F .text	00000014 _ldelf_return
000037b0 g     F .text	00000018 __aeabi_uldivmod
00000064 g     F .text	00000014 _ldelf_panic
000060a0 g     O .data	00000004 .hidden trace_level
0000467d g     O .rodata	00000003 .hidden trace_ext_prefix
0000008c g     F .text	00000014 _ldelf_log
00000108 g     F .text	00000018 _ldelf_map_bin
00003090 g     F .text	00000014 __utee_panic
0000307c g     F .text	00000014 _utee_panic
00005cc8 g       .rel.dyn	00000000 __reloc_end
00000160 g     F .text	00000014 _ldelf_gen_rnd_num
00000000 g     F .text	00000064 _ldelf_start
000000f4 g     F .text	00000014 _ldelf_close_bin
000045c0 g       .text	00000000 __text_end
000000cc g     F .text	00000014 _ldelf_unmap
000000e0 g     F .text	00000014 _ldelf_open_bin
00000134 g     F .text	00000014 _ldelf_set_prot
000000b4 g     F .text	00000018 _ldelf_map_zi
000044d2 g     F .text	00000002 .hidden __aeabi_unwind_cpp_pr1
000000a0 g     F .text	00000014 __ldelf_panic



Disassembly of section .text:

00000000 <_ldelf_start>:
_ldelf_start():
/home/lubuntu/Dokument/GitHub/STM32-Computer/Firmware/STM32-Computer-Firmware/CA7/optee-os-3.19.0-r2/optee-os-stm32mp-3.19.0-stm32mp-r2/ldelf/start_a32.S:24
       0:	e28f4054 	add	r4, pc, #84	@ 0x54
/home/lubuntu/Dokument/GitHub/STM32-Computer/Firmware/STM32-Computer-Firmware/CA7/optee-os-3.19.0-r2/optee-os-stm32mp-3.19.0-stm32mp-r2/ldelf/start_a32.S:25
       4:	e59f5050 	ldr	r5, [pc, #80]	@ 5c <reloc_begin_rel>
/home/lubuntu/Dokument/GitHub/STM32-Computer/Firmware/STM32-Computer-Firmware/CA7/optee-os-3.19.0-r2/optee-os-stm32mp-3.19.0-stm32mp-r2/ldelf/start_a32.S:26
       8:	e59f6050 	ldr	r6, [pc, #80]	@ 60 <reloc_end_rel>
/home/lubuntu/Dokument/GitHub/STM32-Computer/Firmware/STM32-Computer-Firmware/CA7/optee-os-3.19.0-r2/optee-os-stm32mp-3.19.0-stm32mp-r2/ldelf/start_a32.S:27
       c:	e0855004 	add	r5, r5, r4
/home/lubuntu/Dokument/GitHub/STM32-Computer/Firmware/STM32-Computer-Firmware/CA7/optee-os-3.19.0-r2/optee-os-stm32mp-3.19.0-stm32mp-r2/ldelf/start_a32.S:28
      10:	e0866004 	add	r6, r6, r4
/home/lubuntu/Dokument/GitHub/STM32-Computer/Firmware/STM32-Computer-Firmware/CA7/optee-os-3.19.0-r2/optee-os-stm32mp-3.19.0-stm32mp-r2/ldelf/start_a32.S:29
      14:	e1550006 	cmp	r5, r6
/home/lubuntu/Dokument/GitHub/STM32-Computer/Firmware/STM32-Computer-Firmware/CA7/optee-os-3.19.0-r2/optee-os-stm32mp-3.19.0-stm32mp-r2/ldelf/start_a32.S:30
      18:	0a00000a 	beq	48 <_ldelf_start+0x48>
/home/lubuntu/Dokument/GitHub/STM32-Computer/Firmware/STM32-Computer-Firmware/CA7/optee-os-3.19.0-r2/optee-os-stm32mp-3.19.0-stm32mp-r2/ldelf/start_a32.S:32
      1c:	e24f4024 	sub	r4, pc, #36	@ 0x24
/home/lubuntu/Dokument/GitHub/STM32-Computer/Firmware/STM32-Computer-Firmware/CA7/optee-os-3.19.0-r2/optee-os-stm32mp-3.19.0-stm32mp-r2/ldelf/start_a32.S:35
      20:	e8b50180 	ldm	r5!, {r7, r8}
/home/lubuntu/Dokument/GitHub/STM32-Computer/Firmware/STM32-Computer-Firmware/CA7/optee-os-3.19.0-r2/optee-os-stm32mp-3.19.0-stm32mp-r2/ldelf/start_a32.S:36
      24:	e20880ff 	and	r8, r8, #255	@ 0xff
/home/lubuntu/Dokument/GitHub/STM32-Computer/Firmware/STM32-Computer-Firmware/CA7/optee-os-3.19.0-r2/optee-os-stm32mp-3.19.0-stm32mp-r2/ldelf/start_a32.S:37
      28:	e3580017 	cmp	r8, #23
/home/lubuntu/Dokument/GitHub/STM32-Computer/Firmware/STM32-Computer-Firmware/CA7/optee-os-3.19.0-r2/optee-os-stm32mp-3.19.0-stm32mp-r2/ldelf/start_a32.S:39
      2c:	1a000008 	bne	54 <_ldelf_start+0x54>
/home/lubuntu/Dokument/GitHub/STM32-Computer/Firmware/STM32-Computer-Firmware/CA7/optee-os-3.19.0-r2/optee-os-stm32mp-3.19.0-stm32mp-r2/ldelf/start_a32.S:42
      30:	e0877004 	add	r7, r7, r4
/home/lubuntu/Dokument/GitHub/STM32-Computer/Firmware/STM32-Computer-Firmware/CA7/optee-os-3.19.0-r2/optee-os-stm32mp-3.19.0-stm32mp-r2/ldelf/start_a32.S:43
      34:	e5978000 	ldr	r8, [r7]
/home/lubuntu/Dokument/GitHub/STM32-Computer/Firmware/STM32-Computer-Firmware/CA7/optee-os-3.19.0-r2/optee-os-stm32mp-3.19.0-stm32mp-r2/ldelf/start_a32.S:44
      38:	e0888004 	add	r8, r8, r4
/home/lubuntu/Dokument/GitHub/STM32-Computer/Firmware/STM32-Computer-Firmware/CA7/optee-os-3.19.0-r2/optee-os-stm32mp-3.19.0-stm32mp-r2/ldelf/start_a32.S:45
      3c:	e5878000 	str	r8, [r7]
/home/lubuntu/Dokument/GitHub/STM32-Computer/Firmware/STM32-Computer-Firmware/CA7/optee-os-3.19.0-r2/optee-os-stm32mp-3.19.0-stm32mp-r2/ldelf/start_a32.S:47
      40:	e1550006 	cmp	r5, r6
/home/lubuntu/Dokument/GitHub/STM32-Computer/Firmware/STM32-Computer-Firmware/CA7/optee-os-3.19.0-r2/optee-os-stm32mp-3.19.0-stm32mp-r2/ldelf/start_a32.S:48
      44:	3afffff5 	bcc	20 <_ldelf_start+0x20>
/home/lubuntu/Dokument/GitHub/STM32-Computer/Firmware/STM32-Computer-Firmware/CA7/optee-os-3.19.0-r2/optee-os-stm32mp-3.19.0-stm32mp-r2/ldelf/start_a32.S:50
      48:	fa0000aa 	blx	2f8 <ldelf>
/home/lubuntu/Dokument/GitHub/STM32-Computer/Firmware/STM32-Computer-Firmware/CA7/optee-os-3.19.0-r2/optee-os-stm32mp-3.19.0-stm32mp-r2/ldelf/start_a32.S:51
      4c:	e3a00000 	mov	r0, #0
/home/lubuntu/Dokument/GitHub/STM32-Computer/Firmware/STM32-Computer-Firmware/CA7/optee-os-3.19.0-r2/optee-os-stm32mp-3.19.0-stm32mp-r2/ldelf/start_a32.S:52
      50:	eb000008 	bl	78 <_ldelf_return>
/home/lubuntu/Dokument/GitHub/STM32-Computer/Firmware/STM32-Computer-Firmware/CA7/optee-os-3.19.0-r2/optee-os-stm32mp-3.19.0-stm32mp-r2/ldelf/start_a32.S:53
      54:	e3a00000 	mov	r0, #0
/home/lubuntu/Dokument/GitHub/STM32-Computer/Firmware/STM32-Computer-Firmware/CA7/optee-os-3.19.0-r2/optee-os-stm32mp-3.19.0-stm32mp-r2/ldelf/start_a32.S:54
      58:	eb000001 	bl	64 <_ldelf_panic>

0000005c <reloc_begin_rel>:
      5c:	00005c3c 	.word	0x00005c3c

00000060 <reloc_end_rel>:
      60:	00005c68 	.word	0x00005c68

00000064 <_ldelf_panic>:
_ldelf_panic():
/home/lubuntu/Dokument/GitHub/STM32-Computer/Firmware/STM32-Computer-Firmware/CA7/optee-os-3.19.0-r2/optee-os-stm32mp-3.19.0-stm32mp-r2/ldelf/syscalls_a32.S:41
      64:	e92d4fff 	push	{r0, r1, r2, r3, r4, r5, r6, r7, r8, r9, sl, fp, lr}
/home/lubuntu/Dokument/GitHub/STM32-Computer/Firmware/STM32-Computer-Firmware/CA7/optee-os-3.19.0-r2/optee-os-stm32mp-3.19.0-stm32mp-r2/ldelf/syscalls_a32.S:43
      68:	e1a0e00f 	mov	lr, pc
/home/lubuntu/Dokument/GitHub/STM32-Computer/Firmware/STM32-Computer-Firmware/CA7/optee-os-3.19.0-r2/optee-os-stm32mp-3.19.0-stm32mp-r2/ldelf/syscalls_a32.S:44
      6c:	e52de004 	push	{lr}		@ (str lr, [sp, #-4]!)
/home/lubuntu/Dokument/GitHub/STM32-Computer/Firmware/STM32-Computer-Firmware/CA7/optee-os-3.19.0-r2/optee-os-stm32mp-3.19.0-stm32mp-r2/ldelf/syscalls_a32.S:46
      70:	e1a0100d 	mov	r1, sp
/home/lubuntu/Dokument/GitHub/STM32-Computer/Firmware/STM32-Computer-Firmware/CA7/optee-os-3.19.0-r2/optee-os-stm32mp-3.19.0-stm32mp-r2/ldelf/syscalls_a32.S:47
      74:	eb000009 	bl	a0 <__ldelf_panic>

00000078 <_ldelf_return>:
_ldelf_return():
/home/lubuntu/Dokument/GitHub/STM32-Computer/Firmware/STM32-Computer-Firmware/CA7/optee-os-3.19.0-r2/optee-os-stm32mp-3.19.0-stm32mp-r2/ldelf/syscalls_asm.S:9
      78:	e92d40e0 	push	{r5, r6, r7, lr}
      7c:	e3a07000 	mov	r7, #0
      80:	e3a06000 	mov	r6, #0
      84:	ef000000 	svc	0x00000000
      88:	e8bd80e0 	pop	{r5, r6, r7, pc}

0000008c <_ldelf_log>:
_ldelf_log():
/home/lubuntu/Dokument/GitHub/STM32-Computer/Firmware/STM32-Computer-Firmware/CA7/optee-os-3.19.0-r2/optee-os-stm32mp-3.19.0-stm32mp-r2/ldelf/syscalls_asm.S:10
      8c:	e92d40e0 	push	{r5, r6, r7, lr}
      90:	e3a07001 	mov	r7, #1
      94:	e3a06000 	mov	r6, #0
      98:	ef000000 	svc	0x00000000
      9c:	e8bd80e0 	pop	{r5, r6, r7, pc}

000000a0 <__ldelf_panic>:
__ldelf_panic():
/home/lubuntu/Dokument/GitHub/STM32-Computer/Firmware/STM32-Computer-Firmware/CA7/optee-os-3.19.0-r2/optee-os-stm32mp-3.19.0-stm32mp-r2/ldelf/syscalls_asm.S:11
      a0:	e92d40e0 	push	{r5, r6, r7, lr}
      a4:	e3a07002 	mov	r7, #2
      a8:	e3a06000 	mov	r6, #0
      ac:	ef000000 	svc	0x00000000
      b0:	e8bd80e0 	pop	{r5, r6, r7, pc}

000000b4 <_ldelf_map_zi>:
_ldelf_map_zi():
/home/lubuntu/Dokument/GitHub/STM32-Computer/Firmware/STM32-Computer-Firmware/CA7/optee-os-3.19.0-r2/optee-os-stm32mp-3.19.0-stm32mp-r2/ldelf/syscalls_asm.S:12
      b4:	e92d40e0 	push	{r5, r6, r7, lr}
      b8:	e3a07003 	mov	r7, #3
      bc:	e3a06002 	mov	r6, #2
      c0:	e28d5010 	add	r5, sp, #16
      c4:	ef000000 	svc	0x00000000
      c8:	e8bd80e0 	pop	{r5, r6, r7, pc}

000000cc <_ldelf_unmap>:
_ldelf_unmap():
/home/lubuntu/Dokument/GitHub/STM32-Computer/Firmware/STM32-Computer-Firmware/CA7/optee-os-3.19.0-r2/optee-os-stm32mp-3.19.0-stm32mp-r2/ldelf/syscalls_asm.S:13
      cc:	e92d40e0 	push	{r5, r6, r7, lr}
      d0:	e3a07004 	mov	r7, #4
      d4:	e3a06000 	mov	r6, #0
      d8:	ef000000 	svc	0x00000000
      dc:	e8bd80e0 	pop	{r5, r6, r7, pc}

000000e0 <_ldelf_open_bin>:
_ldelf_open_bin():
/home/lubuntu/Dokument/GitHub/STM32-Computer/Firmware/STM32-Computer-Firmware/CA7/optee-os-3.19.0-r2/optee-os-stm32mp-3.19.0-stm32mp-r2/ldelf/syscalls_asm.S:14
      e0:	e92d40e0 	push	{r5, r6, r7, lr}
      e4:	e3a07005 	mov	r7, #5
      e8:	e3a06000 	mov	r6, #0
      ec:	ef000000 	svc	0x00000000
      f0:	e8bd80e0 	pop	{r5, r6, r7, pc}

000000f4 <_ldelf_close_bin>:
_ldelf_close_bin():
/home/lubuntu/Dokument/GitHub/STM32-Computer/Firmware/STM32-Computer-Firmware/CA7/optee-os-3.19.0-r2/optee-os-stm32mp-3.19.0-stm32mp-r2/ldelf/syscalls_asm.S:15
      f4:	e92d40e0 	push	{r5, r6, r7, lr}
      f8:	e3a07006 	mov	r7, #6
      fc:	e3a06000 	mov	r6, #0
     100:	ef000000 	svc	0x00000000
     104:	e8bd80e0 	pop	{r5, r6, r7, pc}

00000108 <_ldelf_map_bin>:
_ldelf_map_bin():
/home/lubuntu/Dokument/GitHub/STM32-Computer/Firmware/STM32-Computer-Firmware/CA7/optee-os-3.19.0-r2/optee-os-stm32mp-3.19.0-stm32mp-r2/ldelf/syscalls_asm.S:16
     108:	e92d40e0 	push	{r5, r6, r7, lr}
     10c:	e3a07007 	mov	r7, #7
     110:	e3a06004 	mov	r6, #4
     114:	e28d5010 	add	r5, sp, #16
     118:	ef000000 	svc	0x00000000
     11c:	e8bd80e0 	pop	{r5, r6, r7, pc}

00000120 <_ldelf_cp_from_bin>:
_ldelf_cp_from_bin():
/home/lubuntu/Dokument/GitHub/STM32-Computer/Firmware/STM32-Computer-Firmware/CA7/optee-os-3.19.0-r2/optee-os-stm32mp-3.19.0-stm32mp-r2/ldelf/syscalls_asm.S:17
     120:	e92d40e0 	push	{r5, r6, r7, lr}
     124:	e3a07008 	mov	r7, #8
     128:	e3a06000 	mov	r6, #0
     12c:	ef000000 	svc	0x00000000
     130:	e8bd80e0 	pop	{r5, r6, r7, pc}

00000134 <_ldelf_set_prot>:
_ldelf_set_prot():
/home/lubuntu/Dokument/GitHub/STM32-Computer/Firmware/STM32-Computer-Firmware/CA7/optee-os-3.19.0-r2/optee-os-stm32mp-3.19.0-stm32mp-r2/ldelf/syscalls_asm.S:18
     134:	e92d40e0 	push	{r5, r6, r7, lr}
     138:	e3a07009 	mov	r7, #9
     13c:	e3a06000 	mov	r6, #0
     140:	ef000000 	svc	0x00000000
     144:	e8bd80e0 	pop	{r5, r6, r7, pc}

00000148 <_ldelf_remap>:
_ldelf_remap():
/home/lubuntu/Dokument/GitHub/STM32-Computer/Firmware/STM32-Computer-Firmware/CA7/optee-os-3.19.0-r2/optee-os-stm32mp-3.19.0-stm32mp-r2/ldelf/syscalls_asm.S:19
     148:	e92d40e0 	push	{r5, r6, r7, lr}
     14c:	e3a0700a 	mov	r7, #10
     150:	e3a06003 	mov	r6, #3
     154:	e28d5010 	add	r5, sp, #16
     158:	ef000000 	svc	0x00000000
     15c:	e8bd80e0 	pop	{r5, r6, r7, pc}

00000160 <_ldelf_gen_rnd_num>:
_ldelf_gen_rnd_num():
/home/lubuntu/Dokument/GitHub/STM32-Computer/Firmware/STM32-Computer-Firmware/CA7/optee-os-3.19.0-r2/optee-os-stm32mp-3.19.0-stm32mp-r2/ldelf/syscalls_asm.S:20
     160:	e92d40e0 	push	{r5, r6, r7, lr}
     164:	e3a0700b 	mov	r7, #11
     168:	e3a06000 	mov	r6, #0
     16c:	ef000000 	svc	0x00000000
     170:	e8bd80e0 	pop	{r5, r6, r7, pc}

00000174 <dlopen_entry>:
dlopen_entry():
/home/lubuntu/Dokument/GitHub/STM32-Computer/Firmware/STM32-Computer-Firmware/CA7/optee-os-3.19.0-r2/optee-os-stm32mp-3.19.0-stm32mp-r2/ldelf/dl.c:12
     174:	b51f      	push	{r0, r1, r2, r3, r4, lr}
     176:	4604      	mov	r4, r0
/home/lubuntu/Dokument/GitHub/STM32-Computer/Firmware/STM32-Computer-Firmware/CA7/optee-os-3.19.0-r2/optee-os-stm32mp-3.19.0-stm32mp-r2/ldelf/dl.c:13
     178:	466b      	mov	r3, sp
     17a:	2210      	movs	r2, #16
     17c:	2100      	movs	r1, #0
     17e:	4618      	mov	r0, r3
     180:	f004 f8e0 	bl	4344 <memset>
/home/lubuntu/Dokument/GitHub/STM32-Computer/Firmware/STM32-Computer-Firmware/CA7/optee-os-3.19.0-r2/optee-os-stm32mp-3.19.0-stm32mp-r2/ldelf/dl.c:15
     184:	69a1      	ldr	r1, [r4, #24]
     186:	f241 1202 	movw	r2, #4354	@ 0x1102
     18a:	4291      	cmp	r1, r2
     18c:	d10c      	bne.n	1a8 <dlopen_entry+0x34>
/home/lubuntu/Dokument/GitHub/STM32-Computer/Firmware/STM32-Computer-Firmware/CA7/optee-os-3.19.0-r2/optee-os-stm32mp-3.19.0-stm32mp-r2/ldelf/dl.c:18
     18e:	3408      	adds	r4, #8
     190:	4601      	mov	r1, r0
     192:	2210      	movs	r2, #16
     194:	4620      	mov	r0, r4
     196:	f004 f8c5 	bl	4324 <memcmp>
     19a:	b130      	cbz	r0, 1aa <dlopen_entry+0x36>
/home/lubuntu/Dokument/GitHub/STM32-Computer/Firmware/STM32-Computer-Firmware/CA7/optee-os-3.19.0-r2/optee-os-stm32mp-3.19.0-stm32mp-r2/ldelf/dl.c:21
     19c:	4620      	mov	r0, r4
/home/lubuntu/Dokument/GitHub/STM32-Computer/Firmware/STM32-Computer-Firmware/CA7/optee-os-3.19.0-r2/optee-os-stm32mp-3.19.0-stm32mp-r2/ldelf/dl.c:22
     19e:	b004      	add	sp, #16
     1a0:	e8bd 4010 	ldmia.w	sp!, {r4, lr}
/home/lubuntu/Dokument/GitHub/STM32-Computer/Firmware/STM32-Computer-Firmware/CA7/optee-os-3.19.0-r2/optee-os-stm32mp-3.19.0-stm32mp-r2/ldelf/dl.c:21
     1a4:	f002 b844 	b.w	2230 <ta_elf_add_library>
/home/lubuntu/Dokument/GitHub/STM32-Computer/Firmware/STM32-Computer-Firmware/CA7/optee-os-3.19.0-r2/optee-os-stm32mp-3.19.0-stm32mp-r2/ldelf/dl.c:16
     1a8:	4801      	ldr	r0, [pc, #4]	@ (1b0 <dlopen_entry+0x3c>)
/home/lubuntu/Dokument/GitHub/STM32-Computer/Firmware/STM32-Computer-Firmware/CA7/optee-os-3.19.0-r2/optee-os-stm32mp-3.19.0-stm32mp-r2/ldelf/dl.c:22
     1aa:	b004      	add	sp, #16
     1ac:	bd10      	pop	{r4, pc}
     1ae:	bf00      	nop
     1b0:	ffff0006 	.word	0xffff0006

000001b4 <dlsym_entry>:
dlsym_entry():
/home/lubuntu/Dokument/GitHub/STM32-Computer/Firmware/STM32-Computer-Firmware/CA7/optee-os-3.19.0-r2/optee-os-stm32mp-3.19.0-stm32mp-r2/ldelf/dl.c:25
     1b4:	b530      	push	{r4, r5, lr}
     1b6:	b085      	sub	sp, #20
/home/lubuntu/Dokument/GitHub/STM32-Computer/Firmware/STM32-Computer-Firmware/CA7/optee-os-3.19.0-r2/optee-os-stm32mp-3.19.0-stm32mp-r2/ldelf/dl.c:27
     1b8:	466b      	mov	r3, sp
/home/lubuntu/Dokument/GitHub/STM32-Computer/Firmware/STM32-Computer-Firmware/CA7/optee-os-3.19.0-r2/optee-os-stm32mp-3.19.0-stm32mp-r2/ldelf/dl.c:25
     1ba:	4604      	mov	r4, r0
/home/lubuntu/Dokument/GitHub/STM32-Computer/Firmware/STM32-Computer-Firmware/CA7/optee-os-3.19.0-r2/optee-os-stm32mp-3.19.0-stm32mp-r2/ldelf/dl.c:27
     1bc:	2210      	movs	r2, #16
     1be:	4618      	mov	r0, r3
     1c0:	2100      	movs	r1, #0
/home/lubuntu/Dokument/GitHub/STM32-Computer/Firmware/STM32-Computer-Firmware/CA7/optee-os-3.19.0-r2/optee-os-stm32mp-3.19.0-stm32mp-r2/ldelf/dl.c:29
     1c2:	f104 0508 	add.w	r5, r4, #8
/home/lubuntu/Dokument/GitHub/STM32-Computer/Firmware/STM32-Computer-Firmware/CA7/optee-os-3.19.0-r2/optee-os-stm32mp-3.19.0-stm32mp-r2/ldelf/dl.c:27
     1c6:	f004 f8bd 	bl	4344 <memset>
/home/lubuntu/Dokument/GitHub/STM32-Computer/Firmware/STM32-Computer-Firmware/CA7/optee-os-3.19.0-r2/optee-os-stm32mp-3.19.0-stm32mp-r2/ldelf/dl.c:29
     1ca:	4601      	mov	r1, r0
     1cc:	2210      	movs	r2, #16
     1ce:	4628      	mov	r0, r5
     1d0:	f004 f8a8 	bl	4324 <memcmp>
     1d4:	4603      	mov	r3, r0
     1d6:	b120      	cbz	r0, 1e2 <dlsym_entry+0x2e>
/home/lubuntu/Dokument/GitHub/STM32-Computer/Firmware/STM32-Computer-Firmware/CA7/optee-os-3.19.0-r2/optee-os-stm32mp-3.19.0-stm32mp-r2/ldelf/dl.c:30
     1d8:	4628      	mov	r0, r5
     1da:	f001 fa31 	bl	1640 <ta_elf_find_elf>
/home/lubuntu/Dokument/GitHub/STM32-Computer/Firmware/STM32-Computer-Firmware/CA7/optee-os-3.19.0-r2/optee-os-stm32mp-3.19.0-stm32mp-r2/ldelf/dl.c:31
     1de:	4603      	mov	r3, r0
     1e0:	b148      	cbz	r0, 1f6 <dlsym_entry+0x42>
/home/lubuntu/Dokument/GitHub/STM32-Computer/Firmware/STM32-Computer-Firmware/CA7/optee-os-3.19.0-r2/optee-os-stm32mp-3.19.0-stm32mp-r2/ldelf/dl.c:35
     1e2:	2200      	movs	r2, #0
     1e4:	f104 0118 	add.w	r1, r4, #24
     1e8:	f104 001c 	add.w	r0, r4, #28
/home/lubuntu/Dokument/GitHub/STM32-Computer/Firmware/STM32-Computer-Firmware/CA7/optee-os-3.19.0-r2/optee-os-stm32mp-3.19.0-stm32mp-r2/ldelf/dl.c:37
     1ec:	b005      	add	sp, #20
     1ee:	e8bd 4030 	ldmia.w	sp!, {r4, r5, lr}
/home/lubuntu/Dokument/GitHub/STM32-Computer/Firmware/STM32-Computer-Firmware/CA7/optee-os-3.19.0-r2/optee-os-stm32mp-3.19.0-stm32mp-r2/ldelf/dl.c:35
     1f2:	f002 ba39 	b.w	2668 <ta_elf_resolve_sym>
/home/lubuntu/Dokument/GitHub/STM32-Computer/Firmware/STM32-Computer-Firmware/CA7/optee-os-3.19.0-r2/optee-os-stm32mp-3.19.0-stm32mp-r2/ldelf/dl.c:37
     1f6:	4801      	ldr	r0, [pc, #4]	@ (1fc <dlsym_entry+0x48>)
     1f8:	b005      	add	sp, #20
     1fa:	bd30      	pop	{r4, r5, pc}
     1fc:	ffff0008 	.word	0xffff0008

00000200 <dl_entry>:
dl_entry():
/home/lubuntu/Dokument/GitHub/STM32-Computer/Firmware/STM32-Computer-Firmware/CA7/optee-os-3.19.0-r2/optee-os-stm32mp-3.19.0-stm32mp-r2/ldelf/main.c:107
     200:	b508      	push	{r3, lr}
     202:	4604      	mov	r4, r0
/home/lubuntu/Dokument/GitHub/STM32-Computer/Firmware/STM32-Computer-Firmware/CA7/optee-os-3.19.0-r2/optee-os-stm32mp-3.19.0-stm32mp-r2/ldelf/main.c:108
     204:	6803      	ldr	r3, [r0, #0]
     206:	b12b      	cbz	r3, 214 <dl_entry+0x14>
     208:	2b01      	cmp	r3, #1
     20a:	d006      	beq.n	21a <dl_entry+0x1a>
     20c:	4804      	ldr	r0, [pc, #16]	@ (220 <dl_entry+0x20>)
/home/lubuntu/Dokument/GitHub/STM32-Computer/Firmware/STM32-Computer-Firmware/CA7/optee-os-3.19.0-r2/optee-os-stm32mp-3.19.0-stm32mp-r2/ldelf/main.c:110
     20e:	6060      	str	r0, [r4, #4]
/home/lubuntu/Dokument/GitHub/STM32-Computer/Firmware/STM32-Computer-Firmware/CA7/optee-os-3.19.0-r2/optee-os-stm32mp-3.19.0-stm32mp-r2/ldelf/main.c:119
     210:	f003 fef0 	bl	3ff4 <sys_return_cleanup>
/home/lubuntu/Dokument/GitHub/STM32-Computer/Firmware/STM32-Computer-Firmware/CA7/optee-os-3.19.0-r2/optee-os-stm32mp-3.19.0-stm32mp-r2/ldelf/main.c:110
     214:	f7ff ffae 	bl	174 <dlopen_entry>
/home/lubuntu/Dokument/GitHub/STM32-Computer/Firmware/STM32-Computer-Firmware/CA7/optee-os-3.19.0-r2/optee-os-stm32mp-3.19.0-stm32mp-r2/ldelf/main.c:111
     218:	e7f9      	b.n	20e <dl_entry+0xe>
/home/lubuntu/Dokument/GitHub/STM32-Computer/Firmware/STM32-Computer-Firmware/CA7/optee-os-3.19.0-r2/optee-os-stm32mp-3.19.0-stm32mp-r2/ldelf/main.c:113
     21a:	f7ff ffcb 	bl	1b4 <dlsym_entry>
/home/lubuntu/Dokument/GitHub/STM32-Computer/Firmware/STM32-Computer-Firmware/CA7/optee-os-3.19.0-r2/optee-os-stm32mp-3.19.0-stm32mp-r2/ldelf/main.c:114
     21e:	e7f6      	b.n	20e <dl_entry+0xe>
     220:	ffff000a 	.word	0xffff000a

00000224 <dump_ta_state>:
dump_ta_state():
/home/lubuntu/Dokument/GitHub/STM32-Computer/Firmware/STM32-Computer-Firmware/CA7/optee-os-3.19.0-r2/optee-os-stm32mp-3.19.0-stm32mp-r2/ldelf/main.c:32
     224:	4b29      	ldr	r3, [pc, #164]	@ (2cc <dump_ta_state+0xa8>)
     226:	4604      	mov	r4, r0
     228:	b507      	push	{r0, r1, r2, lr}
     22a:	447b      	add	r3, pc
/home/lubuntu/Dokument/GitHub/STM32-Computer/Firmware/STM32-Computer-Firmware/CA7/optee-os-3.19.0-r2/optee-os-stm32mp-3.19.0-stm32mp-r2/ldelf/main.c:33
     22c:	4a28      	ldr	r2, [pc, #160]	@ (2d0 <dump_ta_state+0xac>)
     22e:	589e      	ldr	r6, [r3, r2]
     230:	6835      	ldr	r5, [r6, #0]
/home/lubuntu/Dokument/GitHub/STM32-Computer/Firmware/STM32-Computer-Firmware/CA7/optee-os-3.19.0-r2/optee-os-stm32mp-3.19.0-stm32mp-r2/ldelf/main.c:35
     232:	b10d      	cbz	r5, 238 <dump_ta_state+0x14>
/home/lubuntu/Dokument/GitHub/STM32-Computer/Firmware/STM32-Computer-Firmware/CA7/optee-os-3.19.0-r2/optee-os-stm32mp-3.19.0-stm32mp-r2/ldelf/main.c:35 (discriminator 2)
     234:	782b      	ldrb	r3, [r5, #0]
     236:	b953      	cbnz	r3, 24e <dump_ta_state+0x2a>
_assert_trap():
/home/lubuntu/Dokument/GitHub/STM32-Computer/Firmware/STM32-Computer-Firmware/CA7/optee-os-3.19.0-r2/optee-os-stm32mp-3.19.0-stm32mp-r2/lib/libutils/isoc/include/assert.h:19
     238:	4b26      	ldr	r3, [pc, #152]	@ (2d4 <dump_ta_state+0xb0>)
     23a:	2223      	movs	r2, #35	@ 0x23
     23c:	4926      	ldr	r1, [pc, #152]	@ (2d8 <dump_ta_state+0xb4>)
     23e:	4827      	ldr	r0, [pc, #156]	@ (2dc <dump_ta_state+0xb8>)
     240:	447b      	add	r3, pc
     242:	4479      	add	r1, pc
     244:	4478      	add	r0, pc
     246:	f002 fe75 	bl	2f34 <_assert_log>
/home/lubuntu/Dokument/GitHub/STM32-Computer/Firmware/STM32-Computer-Firmware/CA7/optee-os-3.19.0-r2/optee-os-stm32mp-3.19.0-stm32mp-r2/lib/libutils/isoc/include/assert.h:20
     24a:	f002 fe87 	bl	2f5c <_assert_break>
dump_ta_state():
/home/lubuntu/Dokument/GitHub/STM32-Computer/Firmware/STM32-Computer-Firmware/CA7/optee-os-3.19.0-r2/optee-os-stm32mp-3.19.0-stm32mp-r2/ldelf/main.c:36
     24e:	f105 038c 	add.w	r3, r5, #140	@ 0x8c
     252:	2100      	movs	r1, #0
     254:	9301      	str	r3, [sp, #4]
     256:	4608      	mov	r0, r1
     258:	4b21      	ldr	r3, [pc, #132]	@ (2e0 <dump_ta_state+0xbc>)
     25a:	447b      	add	r3, pc
     25c:	9300      	str	r3, [sp, #0]
     25e:	2301      	movs	r3, #1
     260:	461a      	mov	r2, r3
     262:	f004 f929 	bl	44b8 <trace_printf>
/home/lubuntu/Dokument/GitHub/STM32-Computer/Firmware/STM32-Computer-Firmware/CA7/optee-os-3.19.0-r2/optee-os-stm32mp-3.19.0-stm32mp-r2/ldelf/main.c:37
     266:	786b      	ldrb	r3, [r5, #1]
     268:	b30b      	cbz	r3, 2ae <dump_ta_state+0x8a>
     26a:	4b1e      	ldr	r3, [pc, #120]	@ (2e4 <dump_ta_state+0xc0>)
     26c:	447b      	add	r3, pc
/home/lubuntu/Dokument/GitHub/STM32-Computer/Firmware/STM32-Computer-Firmware/CA7/optee-os-3.19.0-r2/optee-os-stm32mp-3.19.0-stm32mp-r2/ldelf/main.c:37 (discriminator 4)
     26e:	9301      	str	r3, [sp, #4]
     270:	2100      	movs	r1, #0
     272:	4b1d      	ldr	r3, [pc, #116]	@ (2e8 <dump_ta_state+0xc4>)
     274:	4608      	mov	r0, r1
     276:	447b      	add	r3, pc
     278:	9300      	str	r3, [sp, #0]
     27a:	2301      	movs	r3, #1
     27c:	461a      	mov	r2, r3
     27e:	f004 f91b 	bl	44b8 <trace_printf>
/home/lubuntu/Dokument/GitHub/STM32-Computer/Firmware/STM32-Computer-Firmware/CA7/optee-os-3.19.0-r2/optee-os-stm32mp-3.19.0-stm32mp-r2/ldelf/main.c:40 (discriminator 4)
     282:	4b1a      	ldr	r3, [pc, #104]	@ (2ec <dump_ta_state+0xc8>)
     284:	4632      	mov	r2, r6
     286:	491a      	ldr	r1, [pc, #104]	@ (2f0 <dump_ta_state+0xcc>)
     288:	2000      	movs	r0, #0
     28a:	447b      	add	r3, pc
     28c:	4479      	add	r1, pc
     28e:	681b      	ldr	r3, [r3, #0]
     290:	9301      	str	r3, [sp, #4]
/home/lubuntu/Dokument/GitHub/STM32-Computer/Firmware/STM32-Computer-Firmware/CA7/optee-os-3.19.0-r2/optee-os-stm32mp-3.19.0-stm32mp-r2/ldelf/main.c:41 (discriminator 4)
     292:	f104 0348 	add.w	r3, r4, #72	@ 0x48
/home/lubuntu/Dokument/GitHub/STM32-Computer/Firmware/STM32-Computer-Firmware/CA7/optee-os-3.19.0-r2/optee-os-stm32mp-3.19.0-stm32mp-r2/ldelf/main.c:40 (discriminator 4)
     296:	9300      	str	r3, [sp, #0]
     298:	6c63      	ldr	r3, [r4, #68]	@ 0x44
     29a:	f001 fcb7 	bl	1c0c <ta_elf_print_mappings>
/home/lubuntu/Dokument/GitHub/STM32-Computer/Firmware/STM32-Computer-Firmware/CA7/optee-os-3.19.0-r2/optee-os-stm32mp-3.19.0-stm32mp-r2/ldelf/main.c:43 (discriminator 4)
     29e:	f894 3040 	ldrb.w	r3, [r4, #64]	@ 0x40
     2a2:	b13b      	cbz	r3, 2b4 <dump_ta_state+0x90>
/home/lubuntu/Dokument/GitHub/STM32-Computer/Firmware/STM32-Computer-Firmware/CA7/optee-os-3.19.0-r2/optee-os-stm32mp-3.19.0-stm32mp-r2/ldelf/main.c:44
     2a4:	4620      	mov	r0, r4
     2a6:	f001 fddf 	bl	1e68 <ta_elf_stack_trace_a32>
/home/lubuntu/Dokument/GitHub/STM32-Computer/Firmware/STM32-Computer-Firmware/CA7/optee-os-3.19.0-r2/optee-os-stm32mp-3.19.0-stm32mp-r2/ldelf/main.c:49
     2aa:	f003 fea3 	bl	3ff4 <sys_return_cleanup>
/home/lubuntu/Dokument/GitHub/STM32-Computer/Firmware/STM32-Computer-Firmware/CA7/optee-os-3.19.0-r2/optee-os-stm32mp-3.19.0-stm32mp-r2/ldelf/main.c:37
     2ae:	4b11      	ldr	r3, [pc, #68]	@ (2f4 <dump_ta_state+0xd0>)
     2b0:	447b      	add	r3, pc
     2b2:	e7dc      	b.n	26e <dump_ta_state+0x4a>
/home/lubuntu/Dokument/GitHub/STM32-Computer/Firmware/STM32-Computer-Firmware/CA7/optee-os-3.19.0-r2/optee-os-stm32mp-3.19.0-stm32mp-r2/ldelf/main.c:46
     2b4:	e9d4 2304 	ldrd	r2, r3, [r4, #16]
     2b8:	e9d4 0100 	ldrd	r0, r1, [r4]
     2bc:	e9cd 2300 	strd	r2, r3, [sp]
     2c0:	e9d4 2302 	ldrd	r2, r3, [r4, #8]
     2c4:	f003 ff3a 	bl	413c <ta_elf_stack_trace_a64>
     2c8:	e7ef      	b.n	2aa <dump_ta_state+0x86>
     2ca:	bf00      	nop
     2cc:	00005e5a 	.word	0x00005e5a
     2d0:	0000000c 	.word	0x0000000c
     2d4:	00004403 	.word	0x00004403
     2d8:	00004386 	.word	0x00004386
     2dc:	00004391 	.word	0x00004391
     2e0:	0000438f 	.word	0x0000438f
     2e4:	00004350 	.word	0x00004350
     2e8:	00004385 	.word	0x00004385
     2ec:	00005e7e 	.word	0x00005e7e
     2f0:	00003d4d 	.word	0x00003d4d
     2f4:	00004310 	.word	0x00004310

000002f8 <ldelf>:
ldelf():
/home/lubuntu/Dokument/GitHub/STM32-Computer/Firmware/STM32-Computer-Firmware/CA7/optee-os-3.19.0-r2/optee-os-stm32mp-3.19.0-stm32mp-r2/ldelf/main.c:130
     2f8:	b58f      	push	{r0, r1, r2, r3, r7, lr}
     2fa:	4604      	mov	r4, r0
/home/lubuntu/Dokument/GitHub/STM32-Computer/Firmware/STM32-Computer-Firmware/CA7/optee-os-3.19.0-r2/optee-os-stm32mp-3.19.0-stm32mp-r2/ldelf/main.c:134
     2fc:	4d3c      	ldr	r5, [pc, #240]	@ (3f0 <ldelf+0xf8>)
     2fe:	2203      	movs	r2, #3
     300:	4b3c      	ldr	r3, [pc, #240]	@ (3f4 <ldelf+0xfc>)
     302:	2186      	movs	r1, #134	@ 0x86
     304:	447d      	add	r5, pc
     306:	447b      	add	r3, pc
/home/lubuntu/Dokument/GitHub/STM32-Computer/Firmware/STM32-Computer-Firmware/CA7/optee-os-3.19.0-r2/optee-os-stm32mp-3.19.0-stm32mp-r2/ldelf/main.c:135
     308:	4f3b      	ldr	r7, [pc, #236]	@ (3f8 <ldelf+0x100>)
/home/lubuntu/Dokument/GitHub/STM32-Computer/Firmware/STM32-Computer-Firmware/CA7/optee-os-3.19.0-r2/optee-os-stm32mp-3.19.0-stm32mp-r2/ldelf/main.c:134
     30a:	9001      	str	r0, [sp, #4]
     30c:	4628      	mov	r0, r5
     30e:	9300      	str	r3, [sp, #0]
     310:	2301      	movs	r3, #1
/home/lubuntu/Dokument/GitHub/STM32-Computer/Firmware/STM32-Computer-Firmware/CA7/optee-os-3.19.0-r2/optee-os-stm32mp-3.19.0-stm32mp-r2/ldelf/main.c:130
     312:	4e3a      	ldr	r6, [pc, #232]	@ (3fc <ldelf+0x104>)
/home/lubuntu/Dokument/GitHub/STM32-Computer/Firmware/STM32-Computer-Firmware/CA7/optee-os-3.19.0-r2/optee-os-stm32mp-3.19.0-stm32mp-r2/ldelf/main.c:134
     314:	f004 f8d0 	bl	44b8 <trace_printf>
/home/lubuntu/Dokument/GitHub/STM32-Computer/Firmware/STM32-Computer-Firmware/CA7/optee-os-3.19.0-r2/optee-os-stm32mp-3.19.0-stm32mp-r2/ldelf/main.c:135
     318:	447f      	add	r7, pc
     31a:	2300      	movs	r3, #0
     31c:	9300      	str	r3, [sp, #0]
     31e:	463a      	mov	r2, r7
/home/lubuntu/Dokument/GitHub/STM32-Computer/Firmware/STM32-Computer-Firmware/CA7/optee-os-3.19.0-r2/optee-os-stm32mp-3.19.0-stm32mp-r2/ldelf/main.c:130
     320:	447e      	add	r6, pc
/home/lubuntu/Dokument/GitHub/STM32-Computer/Firmware/STM32-Computer-Firmware/CA7/optee-os-3.19.0-r2/optee-os-stm32mp-3.19.0-stm32mp-r2/ldelf/main.c:135
     322:	4619      	mov	r1, r3
     324:	f44f 4080 	mov.w	r0, #16384	@ 0x4000
     328:	f003 fe68 	bl	3ffc <sys_map_zi>
/home/lubuntu/Dokument/GitHub/STM32-Computer/Firmware/STM32-Computer-Firmware/CA7/optee-os-3.19.0-r2/optee-os-stm32mp-3.19.0-stm32mp-r2/ldelf/main.c:136
     32c:	b190      	cbz	r0, 354 <ldelf+0x5c>
/home/lubuntu/Dokument/GitHub/STM32-Computer/Firmware/STM32-Computer-Firmware/CA7/optee-os-3.19.0-r2/optee-os-stm32mp-3.19.0-stm32mp-r2/ldelf/main.c:137
     32e:	9002      	str	r0, [sp, #8]
     330:	f44f 4380 	mov.w	r3, #16384	@ 0x4000
     334:	9301      	str	r3, [sp, #4]
     336:	2189      	movs	r1, #137	@ 0x89
     338:	4b31      	ldr	r3, [pc, #196]	@ (400 <ldelf+0x108>)
     33a:	4628      	mov	r0, r5
     33c:	447b      	add	r3, pc
     33e:	9300      	str	r3, [sp, #0]
     340:	2301      	movs	r3, #1
     342:	461a      	mov	r2, r3
     344:	f004 f8b8 	bl	44b8 <trace_printf>
/home/lubuntu/Dokument/GitHub/STM32-Computer/Firmware/STM32-Computer-Firmware/CA7/optee-os-3.19.0-r2/optee-os-stm32mp-3.19.0-stm32mp-r2/ldelf/main.c:138
     348:	482e      	ldr	r0, [pc, #184]	@ (404 <ldelf+0x10c>)
     34a:	462a      	mov	r2, r5
     34c:	218a      	movs	r1, #138	@ 0x8a
     34e:	4478      	add	r0, pc
     350:	f000 f864 	bl	41c <__panic>
/home/lubuntu/Dokument/GitHub/STM32-Computer/Firmware/STM32-Computer-Firmware/CA7/optee-os-3.19.0-r2/optee-os-stm32mp-3.19.0-stm32mp-r2/ldelf/main.c:140
     354:	6838      	ldr	r0, [r7, #0]
     356:	f44f 4180 	mov.w	r1, #16384	@ 0x4000
     35a:	f003 f9b3 	bl	36c4 <malloc_add_pool>
/home/lubuntu/Dokument/GitHub/STM32-Computer/Firmware/STM32-Computer-Firmware/CA7/optee-os-3.19.0-r2/optee-os-stm32mp-3.19.0-stm32mp-r2/ldelf/main.c:143
     35e:	f104 0314 	add.w	r3, r4, #20
     362:	f104 0220 	add.w	r2, r4, #32
     366:	f104 0110 	add.w	r1, r4, #16
     36a:	4620      	mov	r0, r4
     36c:	f001 fa28 	bl	17c0 <ta_elf_load_main>
/home/lubuntu/Dokument/GitHub/STM32-Computer/Firmware/STM32-Computer-Firmware/CA7/optee-os-3.19.0-r2/optee-os-stm32mp-3.19.0-stm32mp-r2/ldelf/main.c:151
     370:	4b25      	ldr	r3, [pc, #148]	@ (408 <ldelf+0x110>)
     372:	58f6      	ldr	r6, [r6, r3]
     374:	6835      	ldr	r5, [r6, #0]
/home/lubuntu/Dokument/GitHub/STM32-Computer/Firmware/STM32-Computer-Firmware/CA7/optee-os-3.19.0-r2/optee-os-stm32mp-3.19.0-stm32mp-r2/ldelf/main.c:151 (discriminator 1)
     376:	b9cd      	cbnz	r5, 3ac <ldelf+0xb4>
/home/lubuntu/Dokument/GitHub/STM32-Computer/Firmware/STM32-Computer-Firmware/CA7/optee-os-3.19.0-r2/optee-os-stm32mp-3.19.0-stm32mp-r2/ldelf/main.c:154
     378:	6835      	ldr	r5, [r6, #0]
/home/lubuntu/Dokument/GitHub/STM32-Computer/Firmware/STM32-Computer-Firmware/CA7/optee-os-3.19.0-r2/optee-os-stm32mp-3.19.0-stm32mp-r2/ldelf/main.c:154 (discriminator 1)
     37a:	bb0d      	cbnz	r5, 3c0 <ldelf+0xc8>
/home/lubuntu/Dokument/GitHub/STM32-Computer/Firmware/STM32-Computer-Firmware/CA7/optee-os-3.19.0-r2/optee-os-stm32mp-3.19.0-stm32mp-r2/ldelf/main.c:168
     37c:	4f23      	ldr	r7, [pc, #140]	@ (40c <ldelf+0x114>)
/home/lubuntu/Dokument/GitHub/STM32-Computer/Firmware/STM32-Computer-Firmware/CA7/optee-os-3.19.0-r2/optee-os-stm32mp-3.19.0-stm32mp-r2/ldelf/main.c:159
     37e:	f104 0018 	add.w	r0, r4, #24
     382:	f001 ff07 	bl	2194 <ta_elf_finalize_load_main>
/home/lubuntu/Dokument/GitHub/STM32-Computer/Firmware/STM32-Computer-Firmware/CA7/optee-os-3.19.0-r2/optee-os-stm32mp-3.19.0-stm32mp-r2/ldelf/main.c:167
     386:	6835      	ldr	r5, [r6, #0]
/home/lubuntu/Dokument/GitHub/STM32-Computer/Firmware/STM32-Computer-Firmware/CA7/optee-os-3.19.0-r2/optee-os-stm32mp-3.19.0-stm32mp-r2/ldelf/main.c:161
     388:	2200      	movs	r2, #0
/home/lubuntu/Dokument/GitHub/STM32-Computer/Firmware/STM32-Computer-Firmware/CA7/optee-os-3.19.0-r2/optee-os-stm32mp-3.19.0-stm32mp-r2/ldelf/main.c:168
     38a:	4e21      	ldr	r6, [pc, #132]	@ (410 <ldelf+0x118>)
/home/lubuntu/Dokument/GitHub/STM32-Computer/Firmware/STM32-Computer-Firmware/CA7/optee-os-3.19.0-r2/optee-os-stm32mp-3.19.0-stm32mp-r2/ldelf/main.c:161
     38c:	2300      	movs	r3, #0
/home/lubuntu/Dokument/GitHub/STM32-Computer/Firmware/STM32-Computer-Firmware/CA7/optee-os-3.19.0-r2/optee-os-stm32mp-3.19.0-stm32mp-r2/ldelf/main.c:168
     38e:	447f      	add	r7, pc
     390:	447e      	add	r6, pc
/home/lubuntu/Dokument/GitHub/STM32-Computer/Firmware/STM32-Computer-Firmware/CA7/optee-os-3.19.0-r2/optee-os-stm32mp-3.19.0-stm32mp-r2/ldelf/main.c:161
     392:	e9c4 230c 	strd	r2, r3, [r4, #48]	@ 0x30
/home/lubuntu/Dokument/GitHub/STM32-Computer/Firmware/STM32-Computer-Firmware/CA7/optee-os-3.19.0-r2/optee-os-stm32mp-3.19.0-stm32mp-r2/ldelf/main.c:167 (discriminator 1)
     396:	b9e5      	cbnz	r5, 3d2 <ldelf+0xda>
/home/lubuntu/Dokument/GitHub/STM32-Computer/Firmware/STM32-Computer-Firmware/CA7/optee-os-3.19.0-r2/optee-os-stm32mp-3.19.0-stm32mp-r2/ldelf/main.c:172
     398:	4b1e      	ldr	r3, [pc, #120]	@ (414 <ldelf+0x11c>)
     39a:	447b      	add	r3, pc
     39c:	e9c4 350a 	strd	r3, r5, [r4, #40]	@ 0x28
/home/lubuntu/Dokument/GitHub/STM32-Computer/Firmware/STM32-Computer-Firmware/CA7/optee-os-3.19.0-r2/optee-os-stm32mp-3.19.0-stm32mp-r2/ldelf/main.c:176
     3a0:	4b1d      	ldr	r3, [pc, #116]	@ (418 <ldelf+0x120>)
     3a2:	447b      	add	r3, pc
     3a4:	e9c4 350e 	strd	r3, r5, [r4, #56]	@ 0x38
/home/lubuntu/Dokument/GitHub/STM32-Computer/Firmware/STM32-Computer-Firmware/CA7/optee-os-3.19.0-r2/optee-os-stm32mp-3.19.0-stm32mp-r2/ldelf/main.c:178
     3a8:	f003 fe24 	bl	3ff4 <sys_return_cleanup>
/home/lubuntu/Dokument/GitHub/STM32-Computer/Firmware/STM32-Computer-Firmware/CA7/optee-os-3.19.0-r2/optee-os-stm32mp-3.19.0-stm32mp-r2/ldelf/main.c:152 (discriminator 3)
     3ac:	6921      	ldr	r1, [r4, #16]
     3ae:	4628      	mov	r0, r5
     3b0:	3900      	subs	r1, #0
     3b2:	bf18      	it	ne
     3b4:	2101      	movne	r1, #1
     3b6:	f001 fba9 	bl	1b0c <ta_elf_load_dependency>
/home/lubuntu/Dokument/GitHub/STM32-Computer/Firmware/STM32-Computer-Firmware/CA7/optee-os-3.19.0-r2/optee-os-stm32mp-3.19.0-stm32mp-r2/ldelf/main.c:151 (discriminator 3)
     3ba:	f8d5 509c 	ldr.w	r5, [r5, #156]	@ 0x9c
     3be:	e7da      	b.n	376 <ldelf+0x7e>
/home/lubuntu/Dokument/GitHub/STM32-Computer/Firmware/STM32-Computer-Firmware/CA7/optee-os-3.19.0-r2/optee-os-stm32mp-3.19.0-stm32mp-r2/ldelf/main.c:155 (discriminator 3)
     3c0:	4628      	mov	r0, r5
     3c2:	f002 f9c5 	bl	2750 <ta_elf_relocate>
/home/lubuntu/Dokument/GitHub/STM32-Computer/Firmware/STM32-Computer-Firmware/CA7/optee-os-3.19.0-r2/optee-os-stm32mp-3.19.0-stm32mp-r2/ldelf/main.c:156 (discriminator 3)
     3c6:	4628      	mov	r0, r5
     3c8:	f001 fbf4 	bl	1bb4 <ta_elf_finalize_mappings>
/home/lubuntu/Dokument/GitHub/STM32-Computer/Firmware/STM32-Computer-Firmware/CA7/optee-os-3.19.0-r2/optee-os-stm32mp-3.19.0-stm32mp-r2/ldelf/main.c:154 (discriminator 3)
     3cc:	f8d5 509c 	ldr.w	r5, [r5, #156]	@ 0x9c
     3d0:	e7d3      	b.n	37a <ldelf+0x82>
/home/lubuntu/Dokument/GitHub/STM32-Computer/Firmware/STM32-Computer-Firmware/CA7/optee-os-3.19.0-r2/optee-os-stm32mp-3.19.0-stm32mp-r2/ldelf/main.c:168 (discriminator 3)
     3d2:	686b      	ldr	r3, [r5, #4]
     3d4:	2203      	movs	r2, #3
     3d6:	9700      	str	r7, [sp, #0]
     3d8:	21a8      	movs	r1, #168	@ 0xa8
     3da:	9302      	str	r3, [sp, #8]
     3dc:	f105 038c 	add.w	r3, r5, #140	@ 0x8c
     3e0:	9301      	str	r3, [sp, #4]
     3e2:	4630      	mov	r0, r6
     3e4:	2301      	movs	r3, #1
     3e6:	f004 f867 	bl	44b8 <trace_printf>
/home/lubuntu/Dokument/GitHub/STM32-Computer/Firmware/STM32-Computer-Firmware/CA7/optee-os-3.19.0-r2/optee-os-stm32mp-3.19.0-stm32mp-r2/ldelf/main.c:167 (discriminator 3)
     3ea:	f8d5 509c 	ldr.w	r5, [r5, #156]	@ 0x9c
     3ee:	e7d2      	b.n	396 <ldelf+0x9e>
     3f0:	0000434d 	.word	0x0000434d
     3f4:	000042ff 	.word	0x000042ff
     3f8:	00005df0 	.word	0x00005df0
     3fc:	00005d64 	.word	0x00005d64
     400:	000042d9 	.word	0x000042d9
     404:	0000427a 	.word	0x0000427a
     408:	0000000c 	.word	0x0000000c
     40c:	000042a2 	.word	0x000042a2
     410:	000042c1 	.word	0x000042c1
     414:	fffffe87 	.word	0xfffffe87
     418:	fffffe5b 	.word	0xfffffe5b

0000041c <__panic>:
__panic():
/home/lubuntu/Dokument/GitHub/STM32-Computer/Firmware/STM32-Computer-Firmware/CA7/optee-os-3.19.0-r2/optee-os-stm32mp-3.19.0-stm32mp-r2/ldelf/sys.c:17
     41c:	b57f      	push	{r0, r1, r2, r3, r4, r5, r6, lr}
     41e:	460b      	mov	r3, r1
     420:	4611      	mov	r1, r2
/home/lubuntu/Dokument/GitHub/STM32-Computer/Firmware/STM32-Computer-Firmware/CA7/optee-os-3.19.0-r2/optee-os-stm32mp-3.19.0-stm32mp-r2/ldelf/sys.c:18
     422:	4602      	mov	r2, r0
     424:	b958      	cbnz	r0, 43e <__panic+0x22>
/home/lubuntu/Dokument/GitHub/STM32-Computer/Firmware/STM32-Computer-Firmware/CA7/optee-os-3.19.0-r2/optee-os-stm32mp-3.19.0-stm32mp-r2/ldelf/sys.c:18 (discriminator 1)
     426:	b9f1      	cbnz	r1, 466 <__panic+0x4a>
/home/lubuntu/Dokument/GitHub/STM32-Computer/Firmware/STM32-Computer-Firmware/CA7/optee-os-3.19.0-r2/optee-os-stm32mp-3.19.0-stm32mp-r2/ldelf/sys.c:19
     428:	4b15      	ldr	r3, [pc, #84]	@ (480 <__panic+0x64>)
     42a:	447b      	add	r3, pc
     42c:	9300      	str	r3, [sp, #0]
     42e:	2301      	movs	r3, #1
     430:	461a      	mov	r2, r3
     432:	f004 f841 	bl	44b8 <trace_printf>
/home/lubuntu/Dokument/GitHub/STM32-Computer/Firmware/STM32-Computer-Firmware/CA7/optee-os-3.19.0-r2/optee-os-stm32mp-3.19.0-stm32mp-r2/ldelf/sys.c:25
     436:	2001      	movs	r0, #1
     438:	f7ff ee14 	blx	64 <_ldelf_panic>
/home/lubuntu/Dokument/GitHub/STM32-Computer/Firmware/STM32-Computer-Firmware/CA7/optee-os-3.19.0-r2/optee-os-stm32mp-3.19.0-stm32mp-r2/ldelf/sys.c:27 (discriminator 1)
     43c:	e7fe      	b.n	43c <__panic+0x20>
/home/lubuntu/Dokument/GitHub/STM32-Computer/Firmware/STM32-Computer-Firmware/CA7/optee-os-3.19.0-r2/optee-os-stm32mp-3.19.0-stm32mp-r2/ldelf/sys.c:21 (discriminator 8)
     43e:	b9d1      	cbnz	r1, 476 <__panic+0x5a>
/home/lubuntu/Dokument/GitHub/STM32-Computer/Firmware/STM32-Computer-Firmware/CA7/optee-os-3.19.0-r2/optee-os-stm32mp-3.19.0-stm32mp-r2/ldelf/sys.c:21
     440:	4910      	ldr	r1, [pc, #64]	@ (484 <__panic+0x68>)
     442:	4479      	add	r1, pc
     444:	4608      	mov	r0, r1
     446:	460c      	mov	r4, r1
/home/lubuntu/Dokument/GitHub/STM32-Computer/Firmware/STM32-Computer-Firmware/CA7/optee-os-3.19.0-r2/optee-os-stm32mp-3.19.0-stm32mp-r2/ldelf/sys.c:21 (discriminator 20)
     448:	9302      	str	r3, [sp, #8]
     44a:	4b0f      	ldr	r3, [pc, #60]	@ (488 <__panic+0x6c>)
     44c:	9104      	str	r1, [sp, #16]
     44e:	2100      	movs	r1, #0
     450:	447b      	add	r3, pc
     452:	9300      	str	r3, [sp, #0]
     454:	2301      	movs	r3, #1
     456:	9003      	str	r0, [sp, #12]
     458:	4608      	mov	r0, r1
     45a:	9201      	str	r2, [sp, #4]
     45c:	461a      	mov	r2, r3
     45e:	9405      	str	r4, [sp, #20]
     460:	f004 f82a 	bl	44b8 <trace_printf>
     464:	e7e7      	b.n	436 <__panic+0x1a>
     466:	4a09      	ldr	r2, [pc, #36]	@ (48c <__panic+0x70>)
/home/lubuntu/Dokument/GitHub/STM32-Computer/Firmware/STM32-Computer-Firmware/CA7/optee-os-3.19.0-r2/optee-os-stm32mp-3.19.0-stm32mp-r2/ldelf/sys.c:21
     468:	4603      	mov	r3, r0
     46a:	4c09      	ldr	r4, [pc, #36]	@ (490 <__panic+0x74>)
     46c:	4809      	ldr	r0, [pc, #36]	@ (494 <__panic+0x78>)
     46e:	447a      	add	r2, pc
     470:	4478      	add	r0, pc
     472:	447c      	add	r4, pc
     474:	e7e8      	b.n	448 <__panic+0x2c>
     476:	4808      	ldr	r0, [pc, #32]	@ (498 <__panic+0x7c>)
     478:	4c08      	ldr	r4, [pc, #32]	@ (49c <__panic+0x80>)
     47a:	4478      	add	r0, pc
     47c:	447c      	add	r4, pc
     47e:	e7e3      	b.n	448 <__panic+0x2c>
     480:	00004233 	.word	0x00004233
     484:	0000442d 	.word	0x0000442d
     488:	00004213 	.word	0x00004213
     48c:	000041ed 	.word	0x000041ed
     490:	000041e7 	.word	0x000041e7
     494:	000041e7 	.word	0x000041e7
     498:	000041dd 	.word	0x000041dd
     49c:	000041dd 	.word	0x000041dd

000004a0 <check_range>:
check_range():
/home/lubuntu/Dokument/GitHub/STM32-Computer/Firmware/STM32-Computer-Firmware/CA7/optee-os-3.19.0-r2/optee-os-stm32mp-3.19.0-stm32mp-r2/ldelf/ta_elf.c:196
     4a0:	b51f      	push	{r0, r1, r2, r3, r4, lr}
/home/lubuntu/Dokument/GitHub/STM32-Computer/Firmware/STM32-Computer-Firmware/CA7/optee-os-3.19.0-r2/optee-os-stm32mp-3.19.0-stm32mp-r2/ldelf/ta_elf.c:199
     4a2:	6844      	ldr	r4, [r0, #4]
     4a4:	4294      	cmp	r4, r2
     4a6:	d90e      	bls.n	4c6 <check_range+0x26>
/home/lubuntu/Dokument/GitHub/STM32-Computer/Firmware/STM32-Computer-Firmware/CA7/optee-os-3.19.0-r2/optee-os-stm32mp-3.19.0-stm32mp-r2/ldelf/ta_elf.c:200
     4a8:	4b18      	ldr	r3, [pc, #96]	@ (50c <check_range+0x6c>)
     4aa:	4819      	ldr	r0, [pc, #100]	@ (510 <check_range+0x70>)
     4ac:	447b      	add	r3, pc
     4ae:	9300      	str	r3, [sp, #0]
     4b0:	2301      	movs	r3, #1
     4b2:	9202      	str	r2, [sp, #8]
     4b4:	461a      	mov	r2, r3
     4b6:	9101      	str	r1, [sp, #4]
     4b8:	21c8      	movs	r1, #200	@ 0xc8
     4ba:	4478      	add	r0, pc
     4bc:	f003 fffc 	bl	44b8 <trace_printf>
/home/lubuntu/Dokument/GitHub/STM32-Computer/Firmware/STM32-Computer-Firmware/CA7/optee-os-3.19.0-r2/optee-os-stm32mp-3.19.0-stm32mp-r2/ldelf/ta_elf.c:203
     4c0:	4811      	ldr	r0, [pc, #68]	@ (508 <check_range+0x68>)
     4c2:	f7ff edda 	blx	78 <_ldelf_return>
/home/lubuntu/Dokument/GitHub/STM32-Computer/Firmware/STM32-Computer-Firmware/CA7/optee-os-3.19.0-r2/optee-os-stm32mp-3.19.0-stm32mp-r2/ldelf/ta_elf.c:202
     4c6:	18d3      	adds	r3, r2, r3
     4c8:	d210      	bcs.n	4ec <check_range+0x4c>
/home/lubuntu/Dokument/GitHub/STM32-Computer/Firmware/STM32-Computer-Firmware/CA7/optee-os-3.19.0-r2/optee-os-stm32mp-3.19.0-stm32mp-r2/ldelf/ta_elf.c:205
     4ca:	6880      	ldr	r0, [r0, #8]
     4cc:	4283      	cmp	r3, r0
     4ce:	d919      	bls.n	504 <check_range+0x64>
/home/lubuntu/Dokument/GitHub/STM32-Computer/Firmware/STM32-Computer-Firmware/CA7/optee-os-3.19.0-r2/optee-os-stm32mp-3.19.0-stm32mp-r2/ldelf/ta_elf.c:206
     4d0:	9303      	str	r3, [sp, #12]
     4d2:	4b10      	ldr	r3, [pc, #64]	@ (514 <check_range+0x74>)
     4d4:	4810      	ldr	r0, [pc, #64]	@ (518 <check_range+0x78>)
     4d6:	447b      	add	r3, pc
     4d8:	9300      	str	r3, [sp, #0]
     4da:	2301      	movs	r3, #1
     4dc:	9202      	str	r2, [sp, #8]
     4de:	461a      	mov	r2, r3
     4e0:	9101      	str	r1, [sp, #4]
     4e2:	21ce      	movs	r1, #206	@ 0xce
     4e4:	4478      	add	r0, pc
     4e6:	f003 ffe7 	bl	44b8 <trace_printf>
     4ea:	e7e9      	b.n	4c0 <check_range+0x20>
/home/lubuntu/Dokument/GitHub/STM32-Computer/Firmware/STM32-Computer-Firmware/CA7/optee-os-3.19.0-r2/optee-os-stm32mp-3.19.0-stm32mp-r2/ldelf/ta_elf.c:203
     4ec:	4b0b      	ldr	r3, [pc, #44]	@ (51c <check_range+0x7c>)
     4ee:	480c      	ldr	r0, [pc, #48]	@ (520 <check_range+0x80>)
     4f0:	447b      	add	r3, pc
     4f2:	9300      	str	r3, [sp, #0]
     4f4:	2301      	movs	r3, #1
     4f6:	9101      	str	r1, [sp, #4]
     4f8:	461a      	mov	r2, r3
     4fa:	4478      	add	r0, pc
     4fc:	21cb      	movs	r1, #203	@ 0xcb
     4fe:	f003 ffdb 	bl	44b8 <trace_printf>
     502:	e7dd      	b.n	4c0 <check_range+0x20>
/home/lubuntu/Dokument/GitHub/STM32-Computer/Firmware/STM32-Computer-Firmware/CA7/optee-os-3.19.0-r2/optee-os-stm32mp-3.19.0-stm32mp-r2/ldelf/ta_elf.c:208
     504:	b004      	add	sp, #16
     506:	bd10      	pop	{r4, pc}
     508:	ffff0005 	.word	0xffff0005
     50c:	000041d0 	.word	0x000041d0
     510:	00004b06 	.word	0x00004b06
     514:	000041cb 	.word	0x000041cb
     518:	00004adc 	.word	0x00004adc
     51c:	0000419f 	.word	0x0000419f
     520:	00004ac6 	.word	0x00004ac6

00000524 <check_hashtab>:
check_hashtab():
/home/lubuntu/Dokument/GitHub/STM32-Computer/Firmware/STM32-Computer-Firmware/CA7/optee-os-3.19.0-r2/optee-os-stm32mp-3.19.0-stm32mp-r2/ldelf/ta_elf.c:223
     524:	f011 0f03 	tst.w	r1, #3
/home/lubuntu/Dokument/GitHub/STM32-Computer/Firmware/STM32-Computer-Firmware/CA7/optee-os-3.19.0-r2/optee-os-stm32mp-3.19.0-stm32mp-r2/ldelf/ta_elf.c:212
     528:	b507      	push	{r0, r1, r2, lr}
/home/lubuntu/Dokument/GitHub/STM32-Computer/Firmware/STM32-Computer-Firmware/CA7/optee-os-3.19.0-r2/optee-os-stm32mp-3.19.0-stm32mp-r2/ldelf/ta_elf.c:223
     52a:	d00d      	beq.n	548 <check_hashtab+0x24>
/home/lubuntu/Dokument/GitHub/STM32-Computer/Firmware/STM32-Computer-Firmware/CA7/optee-os-3.19.0-r2/optee-os-stm32mp-3.19.0-stm32mp-r2/ldelf/ta_elf.c:224
     52c:	4b14      	ldr	r3, [pc, #80]	@ (580 <check_hashtab+0x5c>)
     52e:	4815      	ldr	r0, [pc, #84]	@ (584 <check_hashtab+0x60>)
     530:	447b      	add	r3, pc
     532:	9300      	str	r3, [sp, #0]
     534:	2301      	movs	r3, #1
     536:	9101      	str	r1, [sp, #4]
     538:	461a      	mov	r2, r3
     53a:	4478      	add	r0, pc
     53c:	21e0      	movs	r1, #224	@ 0xe0
     53e:	f003 ffbb 	bl	44b8 <trace_printf>
/home/lubuntu/Dokument/GitHub/STM32-Computer/Firmware/STM32-Computer-Firmware/CA7/optee-os-3.19.0-r2/optee-os-stm32mp-3.19.0-stm32mp-r2/ldelf/ta_elf.c:229
     542:	480e      	ldr	r0, [pc, #56]	@ (57c <check_hashtab+0x58>)
     544:	f7ff ed98 	blx	78 <_ldelf_return>
/home/lubuntu/Dokument/GitHub/STM32-Computer/Firmware/STM32-Computer-Firmware/CA7/optee-os-3.19.0-r2/optee-os-stm32mp-3.19.0-stm32mp-r2/ldelf/ta_elf.c:226
     548:	3202      	adds	r2, #2
     54a:	d20c      	bcs.n	566 <check_hashtab+0x42>
/home/lubuntu/Dokument/GitHub/STM32-Computer/Firmware/STM32-Computer-Firmware/CA7/optee-os-3.19.0-r2/optee-os-stm32mp-3.19.0-stm32mp-r2/ldelf/ta_elf.c:227
     54c:	18d2      	adds	r2, r2, r3
     54e:	d20a      	bcs.n	566 <check_hashtab+0x42>
/home/lubuntu/Dokument/GitHub/STM32-Computer/Firmware/STM32-Computer-Firmware/CA7/optee-os-3.19.0-r2/optee-os-stm32mp-3.19.0-stm32mp-r2/ldelf/ta_elf.c:228
     550:	0093      	lsls	r3, r2, #2
     552:	0f92      	lsrs	r2, r2, #30
     554:	d107      	bne.n	566 <check_hashtab+0x42>
/home/lubuntu/Dokument/GitHub/STM32-Computer/Firmware/STM32-Computer-Firmware/CA7/optee-os-3.19.0-r2/optee-os-stm32mp-3.19.0-stm32mp-r2/ldelf/ta_elf.c:231
     556:	460a      	mov	r2, r1
     558:	490b      	ldr	r1, [pc, #44]	@ (588 <check_hashtab+0x64>)
     55a:	4479      	add	r1, pc
/home/lubuntu/Dokument/GitHub/STM32-Computer/Firmware/STM32-Computer-Firmware/CA7/optee-os-3.19.0-r2/optee-os-stm32mp-3.19.0-stm32mp-r2/ldelf/ta_elf.c:232
     55c:	b003      	add	sp, #12
     55e:	f85d eb04 	ldr.w	lr, [sp], #4
/home/lubuntu/Dokument/GitHub/STM32-Computer/Firmware/STM32-Computer-Firmware/CA7/optee-os-3.19.0-r2/optee-os-stm32mp-3.19.0-stm32mp-r2/ldelf/ta_elf.c:231
     562:	f7ff bf9d 	b.w	4a0 <check_range>
/home/lubuntu/Dokument/GitHub/STM32-Computer/Firmware/STM32-Computer-Firmware/CA7/optee-os-3.19.0-r2/optee-os-stm32mp-3.19.0-stm32mp-r2/ldelf/ta_elf.c:229
     566:	4b09      	ldr	r3, [pc, #36]	@ (58c <check_hashtab+0x68>)
     568:	21e5      	movs	r1, #229	@ 0xe5
     56a:	4809      	ldr	r0, [pc, #36]	@ (590 <check_hashtab+0x6c>)
     56c:	447b      	add	r3, pc
     56e:	9300      	str	r3, [sp, #0]
     570:	2301      	movs	r3, #1
     572:	4478      	add	r0, pc
     574:	461a      	mov	r2, r3
     576:	f003 ff9f 	bl	44b8 <trace_printf>
     57a:	e7e2      	b.n	542 <check_hashtab+0x1e>
     57c:	ffff0005 	.word	0xffff0005
     580:	0000418a 	.word	0x0000418a
     584:	00004a43 	.word	0x00004a43
     588:	0000418d 	.word	0x0000418d
     58c:	0000416a 	.word	0x0000416a
     590:	00004a0b 	.word	0x00004a0b

00000594 <queue_elf_helper>:
queue_elf_helper():
/home/lubuntu/Dokument/GitHub/STM32-Computer/Firmware/STM32-Computer-Firmware/CA7/optee-os-3.19.0-r2/optee-os-stm32mp-3.19.0-stm32mp-r2/ldelf/ta_elf.c:63
     594:	b570      	push	{r4, r5, r6, lr}
/home/lubuntu/Dokument/GitHub/STM32-Computer/Firmware/STM32-Computer-Firmware/CA7/optee-os-3.19.0-r2/optee-os-stm32mp-3.19.0-stm32mp-r2/ldelf/ta_elf.c:64
     596:	21a4      	movs	r1, #164	@ 0xa4
/home/lubuntu/Dokument/GitHub/STM32-Computer/Firmware/STM32-Computer-Firmware/CA7/optee-os-3.19.0-r2/optee-os-stm32mp-3.19.0-stm32mp-r2/ldelf/ta_elf.c:63
     598:	4606      	mov	r6, r0
/home/lubuntu/Dokument/GitHub/STM32-Computer/Firmware/STM32-Computer-Firmware/CA7/optee-os-3.19.0-r2/optee-os-stm32mp-3.19.0-stm32mp-r2/ldelf/ta_elf.c:64
     59a:	2001      	movs	r0, #1
     59c:	f003 f86c 	bl	3678 <calloc>
/home/lubuntu/Dokument/GitHub/STM32-Computer/Firmware/STM32-Computer-Firmware/CA7/optee-os-3.19.0-r2/optee-os-stm32mp-3.19.0-stm32mp-r2/ldelf/ta_elf.c:66
     5a0:	4604      	mov	r4, r0
     5a2:	b1a0      	cbz	r0, 5ce <queue_elf_helper+0x3a>
/home/lubuntu/Dokument/GitHub/STM32-Computer/Firmware/STM32-Computer-Firmware/CA7/optee-os-3.19.0-r2/optee-os-stm32mp-3.19.0-stm32mp-r2/ldelf/ta_elf.c:69
     5a4:	f100 0358 	add.w	r3, r0, #88	@ 0x58
/home/lubuntu/Dokument/GitHub/STM32-Computer/Firmware/STM32-Computer-Firmware/CA7/optee-os-3.19.0-r2/optee-os-stm32mp-3.19.0-stm32mp-r2/ldelf/ta_elf.c:71
     5a8:	f100 058c 	add.w	r5, r0, #140	@ 0x8c
/home/lubuntu/Dokument/GitHub/STM32-Computer/Firmware/STM32-Computer-Firmware/CA7/optee-os-3.19.0-r2/optee-os-stm32mp-3.19.0-stm32mp-r2/ldelf/ta_elf.c:69
     5ac:	65c3      	str	r3, [r0, #92]	@ 0x5c
/home/lubuntu/Dokument/GitHub/STM32-Computer/Firmware/STM32-Computer-Firmware/CA7/optee-os-3.19.0-r2/optee-os-stm32mp-3.19.0-stm32mp-r2/ldelf/ta_elf.c:71
     5ae:	e896 000f 	ldmia.w	r6, {r0, r1, r2, r3}
     5b2:	e885 000f 	stmia.w	r5, {r0, r1, r2, r3}
/home/lubuntu/Dokument/GitHub/STM32-Computer/Firmware/STM32-Computer-Firmware/CA7/optee-os-3.19.0-r2/optee-os-stm32mp-3.19.0-stm32mp-r2/ldelf/ta_elf.c:72
     5b6:	2300      	movs	r3, #0
     5b8:	f8c4 309c 	str.w	r3, [r4, #156]	@ 0x9c
     5bc:	4b05      	ldr	r3, [pc, #20]	@ (5d4 <queue_elf_helper+0x40>)
     5be:	447b      	add	r3, pc
     5c0:	685a      	ldr	r2, [r3, #4]
     5c2:	f8c4 20a0 	str.w	r2, [r4, #160]	@ 0xa0
     5c6:	6014      	str	r4, [r2, #0]
     5c8:	f104 029c 	add.w	r2, r4, #156	@ 0x9c
     5cc:	605a      	str	r2, [r3, #4]
/home/lubuntu/Dokument/GitHub/STM32-Computer/Firmware/STM32-Computer-Firmware/CA7/optee-os-3.19.0-r2/optee-os-stm32mp-3.19.0-stm32mp-r2/ldelf/ta_elf.c:74
     5ce:	4620      	mov	r0, r4
     5d0:	bd70      	pop	{r4, r5, r6, pc}
     5d2:	bf00      	nop
     5d4:	00005ae6 	.word	0x00005ae6

000005d8 <add_segment>:
add_segment():
/home/lubuntu/Dokument/GitHub/STM32-Computer/Firmware/STM32-Computer-Firmware/CA7/optee-os-3.19.0-r2/optee-os-stm32mp-3.19.0-stm32mp-r2/ldelf/ta_elf.c:502
     5d8:	e92d 41f3 	stmdb	sp!, {r0, r1, r4, r5, r6, r7, r8, lr}
     5dc:	4604      	mov	r4, r0
     5de:	f8dd 8020 	ldr.w	r8, [sp, #32]
     5e2:	460f      	mov	r7, r1
/home/lubuntu/Dokument/GitHub/STM32-Computer/Firmware/STM32-Computer-Firmware/CA7/optee-os-3.19.0-r2/optee-os-stm32mp-3.19.0-stm32mp-r2/ldelf/ta_elf.c:503
     5e4:	2001      	movs	r0, #1
     5e6:	2124      	movs	r1, #36	@ 0x24
/home/lubuntu/Dokument/GitHub/STM32-Computer/Firmware/STM32-Computer-Firmware/CA7/optee-os-3.19.0-r2/optee-os-stm32mp-3.19.0-stm32mp-r2/ldelf/ta_elf.c:502
     5e8:	4616      	mov	r6, r2
     5ea:	461d      	mov	r5, r3
/home/lubuntu/Dokument/GitHub/STM32-Computer/Firmware/STM32-Computer-Firmware/CA7/optee-os-3.19.0-r2/optee-os-stm32mp-3.19.0-stm32mp-r2/ldelf/ta_elf.c:503
     5ec:	f003 f844 	bl	3678 <calloc>
/home/lubuntu/Dokument/GitHub/STM32-Computer/Firmware/STM32-Computer-Firmware/CA7/optee-os-3.19.0-r2/optee-os-stm32mp-3.19.0-stm32mp-r2/ldelf/ta_elf.c:505
     5f0:	b968      	cbnz	r0, 60e <add_segment+0x36>
/home/lubuntu/Dokument/GitHub/STM32-Computer/Firmware/STM32-Computer-Firmware/CA7/optee-os-3.19.0-r2/optee-os-stm32mp-3.19.0-stm32mp-r2/ldelf/ta_elf.c:506
     5f2:	4b19      	ldr	r3, [pc, #100]	@ (658 <add_segment+0x80>)
     5f4:	f44f 71fd 	mov.w	r1, #506	@ 0x1fa
     5f8:	4818      	ldr	r0, [pc, #96]	@ (65c <add_segment+0x84>)
     5fa:	447b      	add	r3, pc
     5fc:	9300      	str	r3, [sp, #0]
     5fe:	2301      	movs	r3, #1
     600:	4478      	add	r0, pc
     602:	461a      	mov	r2, r3
     604:	f003 ff58 	bl	44b8 <trace_printf>
     608:	4811      	ldr	r0, [pc, #68]	@ (650 <add_segment+0x78>)
/home/lubuntu/Dokument/GitHub/STM32-Computer/Firmware/STM32-Computer-Firmware/CA7/optee-os-3.19.0-r2/optee-os-stm32mp-3.19.0-stm32mp-r2/ldelf/ta_elf.c:509
     60a:	f7ff ed36 	blx	78 <_ldelf_return>
/home/lubuntu/Dokument/GitHub/STM32-Computer/Firmware/STM32-Computer-Firmware/CA7/optee-os-3.19.0-r2/optee-os-stm32mp-3.19.0-stm32mp-r2/ldelf/ta_elf.c:508
     60e:	45a8      	cmp	r8, r5
     610:	d20c      	bcs.n	62c <add_segment+0x54>
/home/lubuntu/Dokument/GitHub/STM32-Computer/Firmware/STM32-Computer-Firmware/CA7/optee-os-3.19.0-r2/optee-os-stm32mp-3.19.0-stm32mp-r2/ldelf/ta_elf.c:509
     612:	4b13      	ldr	r3, [pc, #76]	@ (660 <add_segment+0x88>)
     614:	f240 11fd 	movw	r1, #509	@ 0x1fd
     618:	4812      	ldr	r0, [pc, #72]	@ (664 <add_segment+0x8c>)
     61a:	447b      	add	r3, pc
     61c:	9300      	str	r3, [sp, #0]
     61e:	2301      	movs	r3, #1
     620:	4478      	add	r0, pc
     622:	461a      	mov	r2, r3
     624:	f003 ff48 	bl	44b8 <trace_printf>
     628:	480a      	ldr	r0, [pc, #40]	@ (654 <add_segment+0x7c>)
     62a:	e7ee      	b.n	60a <add_segment+0x32>
/home/lubuntu/Dokument/GitHub/STM32-Computer/Firmware/STM32-Computer-Firmware/CA7/optee-os-3.19.0-r2/optee-os-stm32mp-3.19.0-stm32mp-r2/ldelf/ta_elf.c:515
     62c:	9b09      	ldr	r3, [sp, #36]	@ 0x24
/home/lubuntu/Dokument/GitHub/STM32-Computer/Firmware/STM32-Computer-Firmware/CA7/optee-os-3.19.0-r2/optee-os-stm32mp-3.19.0-stm32mp-r2/ldelf/ta_elf.c:512
     62e:	e9c0 7600 	strd	r7, r6, [r0]
/home/lubuntu/Dokument/GitHub/STM32-Computer/Firmware/STM32-Computer-Firmware/CA7/optee-os-3.19.0-r2/optee-os-stm32mp-3.19.0-stm32mp-r2/ldelf/ta_elf.c:515
     632:	6103      	str	r3, [r0, #16]
/home/lubuntu/Dokument/GitHub/STM32-Computer/Firmware/STM32-Computer-Firmware/CA7/optee-os-3.19.0-r2/optee-os-stm32mp-3.19.0-stm32mp-r2/ldelf/ta_elf.c:516
     634:	9b0a      	ldr	r3, [sp, #40]	@ 0x28
/home/lubuntu/Dokument/GitHub/STM32-Computer/Firmware/STM32-Computer-Firmware/CA7/optee-os-3.19.0-r2/optee-os-stm32mp-3.19.0-stm32mp-r2/ldelf/ta_elf.c:514
     636:	e9c0 5802 	strd	r5, r8, [r0, #8]
/home/lubuntu/Dokument/GitHub/STM32-Computer/Firmware/STM32-Computer-Firmware/CA7/optee-os-3.19.0-r2/optee-os-stm32mp-3.19.0-stm32mp-r2/ldelf/ta_elf.c:516
     63a:	6143      	str	r3, [r0, #20]
/home/lubuntu/Dokument/GitHub/STM32-Computer/Firmware/STM32-Computer-Firmware/CA7/optee-os-3.19.0-r2/optee-os-stm32mp-3.19.0-stm32mp-r2/ldelf/ta_elf.c:518
     63c:	2300      	movs	r3, #0
     63e:	61c3      	str	r3, [r0, #28]
     640:	6de3      	ldr	r3, [r4, #92]	@ 0x5c
     642:	6203      	str	r3, [r0, #32]
     644:	6018      	str	r0, [r3, #0]
     646:	301c      	adds	r0, #28
     648:	65e0      	str	r0, [r4, #92]	@ 0x5c
/home/lubuntu/Dokument/GitHub/STM32-Computer/Firmware/STM32-Computer-Firmware/CA7/optee-os-3.19.0-r2/optee-os-stm32mp-3.19.0-stm32mp-r2/ldelf/ta_elf.c:519
     64a:	b002      	add	sp, #8
     64c:	e8bd 81f0 	ldmia.w	sp!, {r4, r5, r6, r7, r8, pc}
     650:	ffff000c 	.word	0xffff000c
     654:	ffff0005 	.word	0xffff0005
     658:	000040f5 	.word	0x000040f5
     65c:	00004a1f 	.word	0x00004a1f
     660:	000040dc 	.word	0x000040dc
     664:	000049ff 	.word	0x000049ff

00000668 <get_pad_begin>:
get_pad_begin():
/home/lubuntu/Dokument/GitHub/STM32-Computer/Firmware/STM32-Computer-Firmware/CA7/optee-os-3.19.0-r2/optee-os-stm32mp-3.19.0-stm32mp-r2/ldelf/ta_elf.c:722
     668:	b51f      	push	{r0, r1, r2, r3, r4, lr}
/home/lubuntu/Dokument/GitHub/STM32-Computer/Firmware/STM32-Computer-Firmware/CA7/optee-os-3.19.0-r2/optee-os-stm32mp-3.19.0-stm32mp-r2/ldelf/ta_elf.c:727
     66a:	2400      	movs	r4, #0
     66c:	9403      	str	r4, [sp, #12]
/home/lubuntu/Dokument/GitHub/STM32-Computer/Firmware/STM32-Computer-Firmware/CA7/optee-os-3.19.0-r2/optee-os-stm32mp-3.19.0-stm32mp-r2/ldelf/ta_elf.c:733
     66e:	2104      	movs	r1, #4
     670:	a803      	add	r0, sp, #12
     672:	f003 fcec 	bl	404e <sys_gen_random_num>
/home/lubuntu/Dokument/GitHub/STM32-Computer/Firmware/STM32-Computer-Firmware/CA7/optee-os-3.19.0-r2/optee-os-stm32mp-3.19.0-stm32mp-r2/ldelf/ta_elf.c:734
     676:	b170      	cbz	r0, 696 <get_pad_begin+0x2e>
/home/lubuntu/Dokument/GitHub/STM32-Computer/Firmware/STM32-Computer-Firmware/CA7/optee-os-3.19.0-r2/optee-os-stm32mp-3.19.0-stm32mp-r2/ldelf/ta_elf.c:735
     678:	4b09      	ldr	r3, [pc, #36]	@ (6a0 <get_pad_begin+0x38>)
     67a:	2203      	movs	r2, #3
     67c:	9001      	str	r0, [sp, #4]
     67e:	f240 21df 	movw	r1, #735	@ 0x2df
     682:	4808      	ldr	r0, [pc, #32]	@ (6a4 <get_pad_begin+0x3c>)
     684:	447b      	add	r3, pc
     686:	4478      	add	r0, pc
     688:	9300      	str	r3, [sp, #0]
     68a:	2301      	movs	r3, #1
     68c:	f003 ff14 	bl	44b8 <trace_printf>
/home/lubuntu/Dokument/GitHub/STM32-Computer/Firmware/STM32-Computer-Firmware/CA7/optee-os-3.19.0-r2/optee-os-stm32mp-3.19.0-stm32mp-r2/ldelf/ta_elf.c:736
     690:	4620      	mov	r0, r4
/home/lubuntu/Dokument/GitHub/STM32-Computer/Firmware/STM32-Computer-Firmware/CA7/optee-os-3.19.0-r2/optee-os-stm32mp-3.19.0-stm32mp-r2/ldelf/ta_elf.c:745
     692:	b004      	add	sp, #16
     694:	bd10      	pop	{r4, pc}
/home/lubuntu/Dokument/GitHub/STM32-Computer/Firmware/STM32-Computer-Firmware/CA7/optee-os-3.19.0-r2/optee-os-stm32mp-3.19.0-stm32mp-r2/ldelf/ta_elf.c:738
     696:	9803      	ldr	r0, [sp, #12]
     698:	f000 007f 	and.w	r0, r0, #127	@ 0x7f
/home/lubuntu/Dokument/GitHub/STM32-Computer/Firmware/STM32-Computer-Firmware/CA7/optee-os-3.19.0-r2/optee-os-stm32mp-3.19.0-stm32mp-r2/ldelf/ta_elf.c:741
     69c:	0300      	lsls	r0, r0, #12
     69e:	e7f8      	b.n	692 <get_pad_begin+0x2a>
     6a0:	0000408c 	.word	0x0000408c
     6a4:	000049f0 	.word	0x000049f0

000006a8 <ta_elf_add_bti>:
ta_elf_add_bti():
/home/lubuntu/Dokument/GitHub/STM32-Computer/Firmware/STM32-Computer-Firmware/CA7/optee-os-3.19.0-r2/optee-os-stm32mp-3.19.0-stm32mp-r2/ldelf/ta_elf.c:880
     6a8:	b573      	push	{r0, r1, r4, r5, r6, lr}
     6aa:	4605      	mov	r5, r0
/home/lubuntu/Dokument/GitHub/STM32-Computer/Firmware/STM32-Computer-Firmware/CA7/optee-os-3.19.0-r2/optee-os-stm32mp-3.19.0-stm32mp-r2/ldelf/ta_elf.c:885
     6ac:	6d84      	ldr	r4, [r0, #88]	@ 0x58
/home/lubuntu/Dokument/GitHub/STM32-Computer/Firmware/STM32-Computer-Firmware/CA7/optee-os-3.19.0-r2/optee-os-stm32mp-3.19.0-stm32mp-r2/ldelf/ta_elf.c:885 (discriminator 1)
     6ae:	b90c      	cbnz	r4, 6b4 <ta_elf_add_bti+0xc>
/home/lubuntu/Dokument/GitHub/STM32-Computer/Firmware/STM32-Computer-Firmware/CA7/optee-os-3.19.0-r2/optee-os-stm32mp-3.19.0-stm32mp-r2/ldelf/ta_elf.c:894
     6b0:	b002      	add	sp, #8
     6b2:	bd70      	pop	{r4, r5, r6, pc}
/home/lubuntu/Dokument/GitHub/STM32-Computer/Firmware/STM32-Computer-Firmware/CA7/optee-os-3.19.0-r2/optee-os-stm32mp-3.19.0-stm32mp-r2/ldelf/ta_elf.c:888
     6b4:	6922      	ldr	r2, [r4, #16]
/home/lubuntu/Dokument/GitHub/STM32-Computer/Firmware/STM32-Computer-Firmware/CA7/optee-os-3.19.0-r2/optee-os-stm32mp-3.19.0-stm32mp-r2/ldelf/ta_elf.c:886
     6b6:	6868      	ldr	r0, [r5, #4]
/home/lubuntu/Dokument/GitHub/STM32-Computer/Firmware/STM32-Computer-Firmware/CA7/optee-os-3.19.0-r2/optee-os-stm32mp-3.19.0-stm32mp-r2/ldelf/ta_elf.c:888
     6b8:	07d2      	lsls	r2, r2, #31
/home/lubuntu/Dokument/GitHub/STM32-Computer/Firmware/STM32-Computer-Firmware/CA7/optee-os-3.19.0-r2/optee-os-stm32mp-3.19.0-stm32mp-r2/ldelf/ta_elf.c:886
     6ba:	6863      	ldr	r3, [r4, #4]
/home/lubuntu/Dokument/GitHub/STM32-Computer/Firmware/STM32-Computer-Firmware/CA7/optee-os-3.19.0-r2/optee-os-stm32mp-3.19.0-stm32mp-r2/ldelf/ta_elf.c:888
     6bc:	d514      	bpl.n	6e8 <ta_elf_add_bti+0x40>
/home/lubuntu/Dokument/GitHub/STM32-Computer/Firmware/STM32-Computer-Firmware/CA7/optee-os-3.19.0-r2/optee-os-stm32mp-3.19.0-stm32mp-r2/ldelf/ta_elf.c:889
     6be:	68e1      	ldr	r1, [r4, #12]
     6c0:	220c      	movs	r2, #12
     6c2:	4418      	add	r0, r3
     6c4:	f003 fcbf 	bl	4046 <sys_set_prot>
/home/lubuntu/Dokument/GitHub/STM32-Computer/Firmware/STM32-Computer-Firmware/CA7/optee-os-3.19.0-r2/optee-os-stm32mp-3.19.0-stm32mp-r2/ldelf/ta_elf.c:890
     6c8:	4606      	mov	r6, r0
     6ca:	b168      	cbz	r0, 6e8 <ta_elf_add_bti+0x40>
/home/lubuntu/Dokument/GitHub/STM32-Computer/Firmware/STM32-Computer-Firmware/CA7/optee-os-3.19.0-r2/optee-os-stm32mp-3.19.0-stm32mp-r2/ldelf/ta_elf.c:891
     6cc:	4b07      	ldr	r3, [pc, #28]	@ (6ec <ta_elf_add_bti+0x44>)
     6ce:	f240 317b 	movw	r1, #891	@ 0x37b
     6d2:	4807      	ldr	r0, [pc, #28]	@ (6f0 <ta_elf_add_bti+0x48>)
     6d4:	447b      	add	r3, pc
     6d6:	9300      	str	r3, [sp, #0]
     6d8:	2301      	movs	r3, #1
     6da:	4478      	add	r0, pc
     6dc:	461a      	mov	r2, r3
     6de:	f003 feeb 	bl	44b8 <trace_printf>
     6e2:	4630      	mov	r0, r6
     6e4:	f7ff ecc8 	blx	78 <_ldelf_return>
/home/lubuntu/Dokument/GitHub/STM32-Computer/Firmware/STM32-Computer-Firmware/CA7/optee-os-3.19.0-r2/optee-os-stm32mp-3.19.0-stm32mp-r2/ldelf/ta_elf.c:885
     6e8:	69e4      	ldr	r4, [r4, #28]
     6ea:	e7e0      	b.n	6ae <ta_elf_add_bti+0x6>
     6ec:	00004054 	.word	0x00004054
     6f0:	0000498d 	.word	0x0000498d

000006f4 <init_elf>:
init_elf():
/home/lubuntu/Dokument/GitHub/STM32-Computer/Firmware/STM32-Computer-Firmware/CA7/optee-os-3.19.0-r2/optee-os-stm32mp-3.19.0-stm32mp-r2/ldelf/ta_elf.c:445
     6f4:	b5f0      	push	{r4, r5, r6, r7, lr}
/home/lubuntu/Dokument/GitHub/STM32-Computer/Firmware/STM32-Computer-Firmware/CA7/optee-os-3.19.0-r2/optee-os-stm32mp-3.19.0-stm32mp-r2/ldelf/ta_elf.c:451
     6f6:	f100 068c 	add.w	r6, r0, #140	@ 0x8c
/home/lubuntu/Dokument/GitHub/STM32-Computer/Firmware/STM32-Computer-Firmware/CA7/optee-os-3.19.0-r2/optee-os-stm32mp-3.19.0-stm32mp-r2/ldelf/ta_elf.c:445
     6fa:	b087      	sub	sp, #28
/home/lubuntu/Dokument/GitHub/STM32-Computer/Firmware/STM32-Computer-Firmware/CA7/optee-os-3.19.0-r2/optee-os-stm32mp-3.19.0-stm32mp-r2/ldelf/ta_elf.c:447
     6fc:	2300      	movs	r3, #0
/home/lubuntu/Dokument/GitHub/STM32-Computer/Firmware/STM32-Computer-Firmware/CA7/optee-os-3.19.0-r2/optee-os-stm32mp-3.19.0-stm32mp-r2/ldelf/ta_elf.c:451
     6fe:	f100 0184 	add.w	r1, r0, #132	@ 0x84
/home/lubuntu/Dokument/GitHub/STM32-Computer/Firmware/STM32-Computer-Firmware/CA7/optee-os-3.19.0-r2/optee-os-stm32mp-3.19.0-stm32mp-r2/ldelf/ta_elf.c:445
     702:	4604      	mov	r4, r0
/home/lubuntu/Dokument/GitHub/STM32-Computer/Firmware/STM32-Computer-Firmware/CA7/optee-os-3.19.0-r2/optee-os-stm32mp-3.19.0-stm32mp-r2/ldelf/ta_elf.c:447
     704:	9305      	str	r3, [sp, #20]
/home/lubuntu/Dokument/GitHub/STM32-Computer/Firmware/STM32-Computer-Firmware/CA7/optee-os-3.19.0-r2/optee-os-stm32mp-3.19.0-stm32mp-r2/ldelf/ta_elf.c:451
     706:	4630      	mov	r0, r6
     708:	f003 fc84 	bl	4014 <sys_open_ta_bin>
/home/lubuntu/Dokument/GitHub/STM32-Computer/Firmware/STM32-Computer-Firmware/CA7/optee-os-3.19.0-r2/optee-os-stm32mp-3.19.0-stm32mp-r2/ldelf/ta_elf.c:452
     70c:	4605      	mov	r5, r0
     70e:	b170      	cbz	r0, 72e <init_elf+0x3a>
/home/lubuntu/Dokument/GitHub/STM32-Computer/Firmware/STM32-Computer-Firmware/CA7/optee-os-3.19.0-r2/optee-os-stm32mp-3.19.0-stm32mp-r2/ldelf/ta_elf.c:453
     710:	4b4e      	ldr	r3, [pc, #312]	@ (84c <init_elf+0x158>)
     712:	f240 11c5 	movw	r1, #453	@ 0x1c5
     716:	484e      	ldr	r0, [pc, #312]	@ (850 <init_elf+0x15c>)
     718:	447b      	add	r3, pc
     71a:	9300      	str	r3, [sp, #0]
     71c:	2301      	movs	r3, #1
     71e:	4478      	add	r0, pc
     720:	461a      	mov	r2, r3
     722:	9601      	str	r6, [sp, #4]
     724:	f003 fec8 	bl	44b8 <trace_printf>
/home/lubuntu/Dokument/GitHub/STM32-Computer/Firmware/STM32-Computer-Firmware/CA7/optee-os-3.19.0-r2/optee-os-stm32mp-3.19.0-stm32mp-r2/ldelf/ta_elf.c:463
     728:	4628      	mov	r0, r5
     72a:	f7ff eca6 	blx	78 <_ldelf_return>
/home/lubuntu/Dokument/GitHub/STM32-Computer/Firmware/STM32-Computer-Firmware/CA7/optee-os-3.19.0-r2/optee-os-stm32mp-3.19.0-stm32mp-r2/ldelf/ta_elf.c:459
     72e:	7823      	ldrb	r3, [r4, #0]
/home/lubuntu/Dokument/GitHub/STM32-Computer/Firmware/STM32-Computer-Firmware/CA7/optee-os-3.19.0-r2/optee-os-stm32mp-3.19.0-stm32mp-r2/ldelf/ta_elf.c:461
     730:	f44f 5180 	mov.w	r1, #4096	@ 0x1000
     734:	9002      	str	r0, [sp, #8]
     736:	9001      	str	r0, [sp, #4]
/home/lubuntu/Dokument/GitHub/STM32-Computer/Firmware/STM32-Computer-Firmware/CA7/optee-os-3.19.0-r2/optee-os-stm32mp-3.19.0-stm32mp-r2/ldelf/ta_elf.c:448
     738:	2b00      	cmp	r3, #0
/home/lubuntu/Dokument/GitHub/STM32-Computer/Firmware/STM32-Computer-Firmware/CA7/optee-os-3.19.0-r2/optee-os-stm32mp-3.19.0-stm32mp-r2/ldelf/ta_elf.c:461
     73a:	9000      	str	r0, [sp, #0]
     73c:	bf08      	it	eq
     73e:	2205      	moveq	r2, #5
     740:	f8d4 3084 	ldr.w	r3, [r4, #132]	@ 0x84
     744:	bf18      	it	ne
     746:	2201      	movne	r2, #1
     748:	a805      	add	r0, sp, #20
     74a:	f003 fc69 	bl	4020 <sys_map_ta_bin>
/home/lubuntu/Dokument/GitHub/STM32-Computer/Firmware/STM32-Computer-Firmware/CA7/optee-os-3.19.0-r2/optee-os-stm32mp-3.19.0-stm32mp-r2/ldelf/ta_elf.c:462
     74e:	4605      	mov	r5, r0
     750:	b158      	cbz	r0, 76a <init_elf+0x76>
/home/lubuntu/Dokument/GitHub/STM32-Computer/Firmware/STM32-Computer-Firmware/CA7/optee-os-3.19.0-r2/optee-os-stm32mp-3.19.0-stm32mp-r2/ldelf/ta_elf.c:463
     752:	4b40      	ldr	r3, [pc, #256]	@ (854 <init_elf+0x160>)
     754:	f240 11cf 	movw	r1, #463	@ 0x1cf
     758:	483f      	ldr	r0, [pc, #252]	@ (858 <init_elf+0x164>)
     75a:	447b      	add	r3, pc
     75c:	9300      	str	r3, [sp, #0]
     75e:	2301      	movs	r3, #1
     760:	4478      	add	r0, pc
     762:	461a      	mov	r2, r3
     764:	f003 fea8 	bl	44b8 <trace_printf>
     768:	e7de      	b.n	728 <init_elf+0x34>
/home/lubuntu/Dokument/GitHub/STM32-Computer/Firmware/STM32-Computer-Firmware/CA7/optee-os-3.19.0-r2/optee-os-stm32mp-3.19.0-stm32mp-r2/ldelf/ta_elf.c:464
     76a:	9a05      	ldr	r2, [sp, #20]
/home/lubuntu/Dokument/GitHub/STM32-Computer/Firmware/STM32-Computer-Firmware/CA7/optee-os-3.19.0-r2/optee-os-stm32mp-3.19.0-stm32mp-r2/ldelf/ta_elf.c:465
     76c:	7823      	ldrb	r3, [r4, #0]
/home/lubuntu/Dokument/GitHub/STM32-Computer/Firmware/STM32-Computer-Firmware/CA7/optee-os-3.19.0-r2/optee-os-stm32mp-3.19.0-stm32mp-r2/ldelf/ta_elf.c:464
     76e:	6122      	str	r2, [r4, #16]
/home/lubuntu/Dokument/GitHub/STM32-Computer/Firmware/STM32-Computer-Firmware/CA7/optee-os-3.19.0-r2/optee-os-stm32mp-3.19.0-stm32mp-r2/ldelf/ta_elf.c:465
     770:	b933      	cbnz	r3, 780 <init_elf+0x8c>
/home/lubuntu/Dokument/GitHub/STM32-Computer/Firmware/STM32-Computer-Firmware/CA7/optee-os-3.19.0-r2/optee-os-stm32mp-3.19.0-stm32mp-r2/ldelf/ta_elf.c:466
     772:	6062      	str	r2, [r4, #4]
/home/lubuntu/Dokument/GitHub/STM32-Computer/Firmware/STM32-Computer-Firmware/CA7/optee-os-3.19.0-r2/optee-os-stm32mp-3.19.0-stm32mp-r2/ldelf/ta_elf.c:467
     774:	f502 5380 	add.w	r3, r2, #4096	@ 0x1000
     778:	60a3      	str	r3, [r4, #8]
/home/lubuntu/Dokument/GitHub/STM32-Computer/Firmware/STM32-Computer-Firmware/CA7/optee-os-3.19.0-r2/optee-os-stm32mp-3.19.0-stm32mp-r2/ldelf/ta_elf.c:468
     77a:	f44f 5380 	mov.w	r3, #4096	@ 0x1000
     77e:	60e3      	str	r3, [r4, #12]
/home/lubuntu/Dokument/GitHub/STM32-Computer/Firmware/STM32-Computer-Firmware/CA7/optee-os-3.19.0-r2/optee-os-stm32mp-3.19.0-stm32mp-r2/ldelf/ta_elf.c:471
     780:	6811      	ldr	r1, [r2, #0]
     782:	4b2d      	ldr	r3, [pc, #180]	@ (838 <init_elf+0x144>)
     784:	4299      	cmp	r1, r3
     786:	d00c      	beq.n	7a2 <init_elf+0xae>
/home/lubuntu/Dokument/GitHub/STM32-Computer/Firmware/STM32-Computer-Firmware/CA7/optee-os-3.19.0-r2/optee-os-stm32mp-3.19.0-stm32mp-r2/ldelf/ta_elf.c:472
     788:	4b34      	ldr	r3, [pc, #208]	@ (85c <init_elf+0x168>)
     78a:	f44f 71ec 	mov.w	r1, #472	@ 0x1d8
     78e:	4834      	ldr	r0, [pc, #208]	@ (860 <init_elf+0x16c>)
     790:	447b      	add	r3, pc
     792:	9300      	str	r3, [sp, #0]
     794:	2301      	movs	r3, #1
     796:	4478      	add	r0, pc
     798:	461a      	mov	r2, r3
/home/lubuntu/Dokument/GitHub/STM32-Computer/Firmware/STM32-Computer-Firmware/CA7/optee-os-3.19.0-r2/optee-os-stm32mp-3.19.0-stm32mp-r2/ldelf/ta_elf.c:482
     79a:	f003 fe8d 	bl	44b8 <trace_printf>
     79e:	4827      	ldr	r0, [pc, #156]	@ (83c <init_elf+0x148>)
     7a0:	e7c3      	b.n	72a <init_elf+0x36>
e32_parse_ehdr():
/home/lubuntu/Dokument/GitHub/STM32-Computer/Firmware/STM32-Computer-Firmware/CA7/optee-os-3.19.0-r2/optee-os-stm32mp-3.19.0-stm32mp-r2/ldelf/ta_elf.c:103
     7a2:	6851      	ldr	r1, [r2, #4]
     7a4:	4b26      	ldr	r3, [pc, #152]	@ (840 <init_elf+0x14c>)
     7a6:	4299      	cmp	r1, r3
     7a8:	d135      	bne.n	816 <init_elf+0x122>
/home/lubuntu/Dokument/GitHub/STM32-Computer/Firmware/STM32-Computer-Firmware/CA7/optee-os-3.19.0-r2/optee-os-stm32mp-3.19.0-stm32mp-r2/ldelf/ta_elf.c:107
     7aa:	6911      	ldr	r1, [r2, #16]
     7ac:	4b25      	ldr	r3, [pc, #148]	@ (844 <init_elf+0x150>)
     7ae:	4299      	cmp	r1, r3
     7b0:	d131      	bne.n	816 <init_elf+0x122>
/home/lubuntu/Dokument/GitHub/STM32-Computer/Firmware/STM32-Computer-Firmware/CA7/optee-os-3.19.0-r2/optee-os-stm32mp-3.19.0-stm32mp-r2/ldelf/ta_elf.c:108
     7b2:	6a53      	ldr	r3, [r2, #36]	@ 0x24
     7b4:	f003 437f 	and.w	r3, r3, #4278190080	@ 0xff000000
/home/lubuntu/Dokument/GitHub/STM32-Computer/Firmware/STM32-Computer-Firmware/CA7/optee-os-3.19.0-r2/optee-os-stm32mp-3.19.0-stm32mp-r2/ldelf/ta_elf.c:107
     7b8:	f1b3 6fa0 	cmp.w	r3, #83886080	@ 0x5000000
     7bc:	d12b      	bne.n	816 <init_elf+0x122>
/home/lubuntu/Dokument/GitHub/STM32-Computer/Firmware/STM32-Computer-Firmware/CA7/optee-os-3.19.0-r2/optee-os-stm32mp-3.19.0-stm32mp-r2/ldelf/ta_elf.c:108
     7be:	8d56      	ldrh	r6, [r2, #42]	@ 0x2a
     7c0:	2e20      	cmp	r6, #32
     7c2:	d128      	bne.n	816 <init_elf+0x122>
/home/lubuntu/Dokument/GitHub/STM32-Computer/Firmware/STM32-Computer-Firmware/CA7/optee-os-3.19.0-r2/optee-os-stm32mp-3.19.0-stm32mp-r2/ldelf/ta_elf.c:112
     7c4:	8dd5      	ldrh	r5, [r2, #46]	@ 0x2e
     7c6:	2d28      	cmp	r5, #40	@ 0x28
     7c8:	d125      	bne.n	816 <init_elf+0x122>
/home/lubuntu/Dokument/GitHub/STM32-Computer/Firmware/STM32-Computer-Firmware/CA7/optee-os-3.19.0-r2/optee-os-stm32mp-3.19.0-stm32mp-r2/ldelf/ta_elf.c:117
     7ca:	6991      	ldr	r1, [r2, #24]
/home/lubuntu/Dokument/GitHub/STM32-Computer/Firmware/STM32-Computer-Firmware/CA7/optee-os-3.19.0-r2/optee-os-stm32mp-3.19.0-stm32mp-r2/ldelf/ta_elf.c:116
     7cc:	2301      	movs	r3, #1
/home/lubuntu/Dokument/GitHub/STM32-Computer/Firmware/STM32-Computer-Firmware/CA7/optee-os-3.19.0-r2/optee-os-stm32mp-3.19.0-stm32mp-r2/ldelf/ta_elf.c:118
     7ce:	69d0      	ldr	r0, [r2, #28]
/home/lubuntu/Dokument/GitHub/STM32-Computer/Firmware/STM32-Computer-Firmware/CA7/optee-os-3.19.0-r2/optee-os-stm32mp-3.19.0-stm32mp-r2/ldelf/ta_elf.c:117
     7d0:	6161      	str	r1, [r4, #20]
/home/lubuntu/Dokument/GitHub/STM32-Computer/Firmware/STM32-Computer-Firmware/CA7/optee-os-3.19.0-r2/optee-os-stm32mp-3.19.0-stm32mp-r2/ldelf/ta_elf.c:119
     7d2:	6a11      	ldr	r1, [r2, #32]
/home/lubuntu/Dokument/GitHub/STM32-Computer/Firmware/STM32-Computer-Firmware/CA7/optee-os-3.19.0-r2/optee-os-stm32mp-3.19.0-stm32mp-r2/ldelf/ta_elf.c:121
     7d4:	8e17      	ldrh	r7, [r2, #48]	@ 0x30
/home/lubuntu/Dokument/GitHub/STM32-Computer/Firmware/STM32-Computer-Firmware/CA7/optee-os-3.19.0-r2/optee-os-stm32mp-3.19.0-stm32mp-r2/ldelf/ta_elf.c:119
     7d6:	61e1      	str	r1, [r4, #28]
/home/lubuntu/Dokument/GitHub/STM32-Computer/Firmware/STM32-Computer-Firmware/CA7/optee-os-3.19.0-r2/optee-os-stm32mp-3.19.0-stm32mp-r2/ldelf/ta_elf.c:120
     7d8:	8d91      	ldrh	r1, [r2, #44]	@ 0x2c
/home/lubuntu/Dokument/GitHub/STM32-Computer/Firmware/STM32-Computer-Firmware/CA7/optee-os-3.19.0-r2/optee-os-stm32mp-3.19.0-stm32mp-r2/ldelf/ta_elf.c:116
     7da:	7063      	strb	r3, [r4, #1]
/home/lubuntu/Dokument/GitHub/STM32-Computer/Firmware/STM32-Computer-Firmware/CA7/optee-os-3.19.0-r2/optee-os-stm32mp-3.19.0-stm32mp-r2/ldelf/ta_elf.c:120
     7dc:	6221      	str	r1, [r4, #32]
init_elf():
/home/lubuntu/Dokument/GitHub/STM32-Computer/Firmware/STM32-Computer-Firmware/CA7/optee-os-3.19.0-r2/optee-os-stm32mp-3.19.0-stm32mp-r2/ldelf/ta_elf.c:480
     7de:	0149      	lsls	r1, r1, #5
/home/lubuntu/Dokument/GitHub/STM32-Computer/Firmware/STM32-Computer-Firmware/CA7/optee-os-3.19.0-r2/optee-os-stm32mp-3.19.0-stm32mp-r2/ldelf/ta_elf.c:481
     7e0:	1809      	adds	r1, r1, r0
e32_parse_ehdr():
/home/lubuntu/Dokument/GitHub/STM32-Computer/Firmware/STM32-Computer-Firmware/CA7/optee-os-3.19.0-r2/optee-os-stm32mp-3.19.0-stm32mp-r2/ldelf/ta_elf.c:118
     7e2:	61a0      	str	r0, [r4, #24]
/home/lubuntu/Dokument/GitHub/STM32-Computer/Firmware/STM32-Computer-Firmware/CA7/optee-os-3.19.0-r2/optee-os-stm32mp-3.19.0-stm32mp-r2/ldelf/ta_elf.c:121
     7e4:	6267      	str	r7, [r4, #36]	@ 0x24
/home/lubuntu/Dokument/GitHub/STM32-Computer/Firmware/STM32-Computer-Firmware/CA7/optee-os-3.19.0-r2/optee-os-stm32mp-3.19.0-stm32mp-r2/ldelf/ta_elf.c:122
     7e6:	62a6      	str	r6, [r4, #40]	@ 0x28
/home/lubuntu/Dokument/GitHub/STM32-Computer/Firmware/STM32-Computer-Firmware/CA7/optee-os-3.19.0-r2/optee-os-stm32mp-3.19.0-stm32mp-r2/ldelf/ta_elf.c:123
     7e8:	62e5      	str	r5, [r4, #44]	@ 0x2c
init_elf():
/home/lubuntu/Dokument/GitHub/STM32-Computer/Firmware/STM32-Computer-Firmware/CA7/optee-os-3.19.0-r2/optee-os-stm32mp-3.19.0-stm32mp-r2/ldelf/ta_elf.c:481
     7ea:	d20b      	bcs.n	804 <init_elf+0x110>
/home/lubuntu/Dokument/GitHub/STM32-Computer/Firmware/STM32-Computer-Firmware/CA7/optee-os-3.19.0-r2/optee-os-stm32mp-3.19.0-stm32mp-r2/ldelf/ta_elf.c:484
     7ec:	f5b1 5f80 	cmp.w	r1, #4096	@ 0x1000
     7f0:	d91e      	bls.n	830 <init_elf+0x13c>
/home/lubuntu/Dokument/GitHub/STM32-Computer/Firmware/STM32-Computer-Firmware/CA7/optee-os-3.19.0-r2/optee-os-stm32mp-3.19.0-stm32mp-r2/ldelf/ta_elf.c:485
     7f2:	4a1c      	ldr	r2, [pc, #112]	@ (864 <init_elf+0x170>)
     7f4:	f240 11e5 	movw	r1, #485	@ 0x1e5
     7f8:	481b      	ldr	r0, [pc, #108]	@ (868 <init_elf+0x174>)
     7fa:	447a      	add	r2, pc
     7fc:	9200      	str	r2, [sp, #0]
     7fe:	461a      	mov	r2, r3
     800:	4478      	add	r0, pc
     802:	e011      	b.n	828 <init_elf+0x134>
/home/lubuntu/Dokument/GitHub/STM32-Computer/Firmware/STM32-Computer-Firmware/CA7/optee-os-3.19.0-r2/optee-os-stm32mp-3.19.0-stm32mp-r2/ldelf/ta_elf.c:482
     804:	4a19      	ldr	r2, [pc, #100]	@ (86c <init_elf+0x178>)
     806:	f44f 71f1 	mov.w	r1, #482	@ 0x1e2
     80a:	4819      	ldr	r0, [pc, #100]	@ (870 <init_elf+0x17c>)
     80c:	447a      	add	r2, pc
     80e:	9200      	str	r2, [sp, #0]
     810:	461a      	mov	r2, r3
     812:	4478      	add	r0, pc
     814:	e7c1      	b.n	79a <init_elf+0xa6>
/home/lubuntu/Dokument/GitHub/STM32-Computer/Firmware/STM32-Computer-Firmware/CA7/optee-os-3.19.0-r2/optee-os-stm32mp-3.19.0-stm32mp-r2/ldelf/ta_elf.c:478
     816:	4b17      	ldr	r3, [pc, #92]	@ (874 <init_elf+0x180>)
     818:	f44f 71ef 	mov.w	r1, #478	@ 0x1de
     81c:	4816      	ldr	r0, [pc, #88]	@ (878 <init_elf+0x184>)
     81e:	447b      	add	r3, pc
     820:	9300      	str	r3, [sp, #0]
     822:	2301      	movs	r3, #1
     824:	4478      	add	r0, pc
     826:	461a      	mov	r2, r3
/home/lubuntu/Dokument/GitHub/STM32-Computer/Firmware/STM32-Computer-Firmware/CA7/optee-os-3.19.0-r2/optee-os-stm32mp-3.19.0-stm32mp-r2/ldelf/ta_elf.c:485
     828:	f003 fe46 	bl	44b8 <trace_printf>
     82c:	4806      	ldr	r0, [pc, #24]	@ (848 <init_elf+0x154>)
     82e:	e77c      	b.n	72a <init_elf+0x36>
/home/lubuntu/Dokument/GitHub/STM32-Computer/Firmware/STM32-Computer-Firmware/CA7/optee-os-3.19.0-r2/optee-os-stm32mp-3.19.0-stm32mp-r2/ldelf/ta_elf.c:487
     830:	4402      	add	r2, r0
     832:	6322      	str	r2, [r4, #48]	@ 0x30
/home/lubuntu/Dokument/GitHub/STM32-Computer/Firmware/STM32-Computer-Firmware/CA7/optee-os-3.19.0-r2/optee-os-stm32mp-3.19.0-stm32mp-r2/ldelf/ta_elf.c:488
     834:	b007      	add	sp, #28
     836:	bdf0      	pop	{r4, r5, r6, r7, pc}
     838:	464c457f 	.word	0x464c457f
     83c:	ffff0005 	.word	0xffff0005
     840:	00010101 	.word	0x00010101
     844:	00280003 	.word	0x00280003
     848:	ffff000a 	.word	0xffff000a
     84c:	0000401d 	.word	0x0000401d
     850:	0000492c 	.word	0x0000492c
     854:	00003ff1 	.word	0x00003ff1
     858:	000048ea 	.word	0x000048ea
     85c:	00003fca 	.word	0x00003fca
     860:	000048b4 	.word	0x000048b4
     864:	00003fa0 	.word	0x00003fa0
     868:	0000484a 	.word	0x0000484a
     86c:	00003f70 	.word	0x00003f70
     870:	00004838 	.word	0x00004838
     874:	00003f4d 	.word	0x00003f4d
     878:	00004826 	.word	0x00004826

0000087c <close_handle>:
close_handle():
/home/lubuntu/Dokument/GitHub/STM32-Computer/Firmware/STM32-Computer-Firmware/CA7/optee-os-3.19.0-r2/optee-os-stm32mp-3.19.0-stm32mp-r2/ldelf/ta_elf.c:1096
     87c:	b537      	push	{r0, r1, r2, r4, r5, lr}
     87e:	4604      	mov	r4, r0
/home/lubuntu/Dokument/GitHub/STM32-Computer/Firmware/STM32-Computer-Firmware/CA7/optee-os-3.19.0-r2/optee-os-stm32mp-3.19.0-stm32mp-r2/ldelf/ta_elf.c:1097
     880:	f8d0 0084 	ldr.w	r0, [r0, #132]	@ 0x84
     884:	f003 fbca 	bl	401c <sys_close_ta_bin>
/home/lubuntu/Dokument/GitHub/STM32-Computer/Firmware/STM32-Computer-Firmware/CA7/optee-os-3.19.0-r2/optee-os-stm32mp-3.19.0-stm32mp-r2/ldelf/ta_elf.c:1099
     888:	4605      	mov	r5, r0
     88a:	b168      	cbz	r0, 8a8 <close_handle+0x2c>
/home/lubuntu/Dokument/GitHub/STM32-Computer/Firmware/STM32-Computer-Firmware/CA7/optee-os-3.19.0-r2/optee-os-stm32mp-3.19.0-stm32mp-r2/ldelf/ta_elf.c:1100
     88c:	4b09      	ldr	r3, [pc, #36]	@ (8b4 <close_handle+0x38>)
     88e:	f240 414c 	movw	r1, #1100	@ 0x44c
     892:	4809      	ldr	r0, [pc, #36]	@ (8b8 <close_handle+0x3c>)
     894:	447b      	add	r3, pc
     896:	9300      	str	r3, [sp, #0]
     898:	2301      	movs	r3, #1
     89a:	4478      	add	r0, pc
     89c:	461a      	mov	r2, r3
     89e:	f003 fe0b 	bl	44b8 <trace_printf>
     8a2:	4628      	mov	r0, r5
     8a4:	f7ff ebe8 	blx	78 <_ldelf_return>
/home/lubuntu/Dokument/GitHub/STM32-Computer/Firmware/STM32-Computer-Firmware/CA7/optee-os-3.19.0-r2/optee-os-stm32mp-3.19.0-stm32mp-r2/ldelf/ta_elf.c:1101
     8a8:	f04f 33ff 	mov.w	r3, #4294967295	@ 0xffffffff
     8ac:	f8c4 3084 	str.w	r3, [r4, #132]	@ 0x84
/home/lubuntu/Dokument/GitHub/STM32-Computer/Firmware/STM32-Computer-Firmware/CA7/optee-os-3.19.0-r2/optee-os-stm32mp-3.19.0-stm32mp-r2/ldelf/ta_elf.c:1102
     8b0:	b003      	add	sp, #12
     8b2:	bd30      	pop	{r4, r5, pc}
     8b4:	00003f22 	.word	0x00003f22
     8b8:	000046ab 	.word	0x000046ab

000008bc <check_phdr_in_range.constprop.0>:
check_phdr_in_range():
/home/lubuntu/Dokument/GitHub/STM32-Computer/Firmware/STM32-Computer-Firmware/CA7/optee-os-3.19.0-r2/optee-os-stm32mp-3.19.0-stm32mp-r2/ldelf/ta_elf.c:160
     8bc:	b507      	push	{r0, r1, r2, lr}
/home/lubuntu/Dokument/GitHub/STM32-Computer/Firmware/STM32-Computer-Firmware/CA7/optee-os-3.19.0-r2/optee-os-stm32mp-3.19.0-stm32mp-r2/ldelf/ta_elf.c:165
     8be:	1889      	adds	r1, r1, r2
     8c0:	d20f      	bcs.n	8e2 <check_phdr_in_range.constprop.0+0x26>
/home/lubuntu/Dokument/GitHub/STM32-Computer/Firmware/STM32-Computer-Firmware/CA7/optee-os-3.19.0-r2/optee-os-stm32mp-3.19.0-stm32mp-r2/ldelf/ta_elf.c:173
     8c2:	6883      	ldr	r3, [r0, #8]
     8c4:	6842      	ldr	r2, [r0, #4]
     8c6:	1a9b      	subs	r3, r3, r2
     8c8:	4299      	cmp	r1, r3
     8ca:	d919      	bls.n	900 <check_phdr_in_range.constprop.0+0x44>
/home/lubuntu/Dokument/GitHub/STM32-Computer/Firmware/STM32-Computer-Firmware/CA7/optee-os-3.19.0-r2/optee-os-stm32mp-3.19.0-stm32mp-r2/ldelf/ta_elf.c:174
     8cc:	480f      	ldr	r0, [pc, #60]	@ (90c <check_phdr_in_range.constprop.0+0x50>)
     8ce:	2302      	movs	r3, #2
     8d0:	9301      	str	r3, [sp, #4]
     8d2:	21ae      	movs	r1, #174	@ 0xae
     8d4:	4b0e      	ldr	r3, [pc, #56]	@ (910 <check_phdr_in_range.constprop.0+0x54>)
     8d6:	4478      	add	r0, pc
     8d8:	447b      	add	r3, pc
     8da:	9300      	str	r3, [sp, #0]
     8dc:	2301      	movs	r3, #1
     8de:	461a      	mov	r2, r3
     8e0:	e009      	b.n	8f6 <check_phdr_in_range.constprop.0+0x3a>
/home/lubuntu/Dokument/GitHub/STM32-Computer/Firmware/STM32-Computer-Firmware/CA7/optee-os-3.19.0-r2/optee-os-stm32mp-3.19.0-stm32mp-r2/ldelf/ta_elf.c:166
     8e2:	480c      	ldr	r0, [pc, #48]	@ (914 <check_phdr_in_range.constprop.0+0x58>)
     8e4:	2302      	movs	r3, #2
     8e6:	9301      	str	r3, [sp, #4]
     8e8:	21a6      	movs	r1, #166	@ 0xa6
     8ea:	4b0b      	ldr	r3, [pc, #44]	@ (918 <check_phdr_in_range.constprop.0+0x5c>)
     8ec:	4478      	add	r0, pc
     8ee:	447b      	add	r3, pc
     8f0:	9300      	str	r3, [sp, #0]
     8f2:	2301      	movs	r3, #1
     8f4:	461a      	mov	r2, r3
/home/lubuntu/Dokument/GitHub/STM32-Computer/Firmware/STM32-Computer-Firmware/CA7/optee-os-3.19.0-r2/optee-os-stm32mp-3.19.0-stm32mp-r2/ldelf/ta_elf.c:174
     8f6:	f003 fddf 	bl	44b8 <trace_printf>
     8fa:	4803      	ldr	r0, [pc, #12]	@ (908 <check_phdr_in_range.constprop.0+0x4c>)
     8fc:	f7ff ebbc 	blx	78 <_ldelf_return>
/home/lubuntu/Dokument/GitHub/STM32-Computer/Firmware/STM32-Computer-Firmware/CA7/optee-os-3.19.0-r2/optee-os-stm32mp-3.19.0-stm32mp-r2/ldelf/ta_elf.c:176
     900:	b003      	add	sp, #12
     902:	f85d fb04 	ldr.w	pc, [sp], #4
     906:	bf00      	nop
     908:	ffff0005 	.word	0xffff0005
     90c:	000046f6 	.word	0x000046f6
     910:	00003f0b 	.word	0x00003f0b
     914:	000046e0 	.word	0x000046e0
     918:	00003ed9 	.word	0x00003ed9

0000091c <_assert_trap.constprop.0>:
_assert_trap():
/home/lubuntu/Dokument/GitHub/STM32-Computer/Firmware/STM32-Computer-Firmware/CA7/optee-os-3.19.0-r2/optee-os-stm32mp-3.19.0-stm32mp-r2/lib/libutils/isoc/include/assert.h:15
     91c:	b508      	push	{r3, lr}
     91e:	4613      	mov	r3, r2
/home/lubuntu/Dokument/GitHub/STM32-Computer/Firmware/STM32-Computer-Firmware/CA7/optee-os-3.19.0-r2/optee-os-stm32mp-3.19.0-stm32mp-r2/lib/libutils/isoc/include/assert.h:19
     920:	460a      	mov	r2, r1
     922:	4903      	ldr	r1, [pc, #12]	@ (930 <_assert_trap.constprop.0+0x14>)
     924:	4479      	add	r1, pc
     926:	f002 fb05 	bl	2f34 <_assert_log>
/home/lubuntu/Dokument/GitHub/STM32-Computer/Firmware/STM32-Computer-Firmware/CA7/optee-os-3.19.0-r2/optee-os-stm32mp-3.19.0-stm32mp-r2/lib/libutils/isoc/include/assert.h:20
     92a:	f002 fb17 	bl	2f5c <_assert_break>
     92e:	bf00      	nop
     930:	00003ee0 	.word	0x00003ee0

00000934 <print_seg>:
print_seg():
/home/lubuntu/Dokument/GitHub/STM32-Computer/Firmware/STM32-Computer-Firmware/CA7/optee-os-3.19.0-r2/optee-os-stm32mp-3.19.0-stm32mp-r2/ldelf/ta_elf.c:1325
     934:	e92d 4ff0 	stmdb	sp!, {r4, r5, r6, r7, r8, r9, sl, fp, lr}
     938:	4688      	mov	r8, r1
/home/lubuntu/Dokument/GitHub/STM32-Computer/Firmware/STM32-Computer-Firmware/CA7/optee-os-3.19.0-r2/optee-os-stm32mp-3.19.0-stm32mp-r2/ldelf/ta_elf.c:1329
     93a:	4930      	ldr	r1, [pc, #192]	@ (9fc <print_seg+0xc8>)
/home/lubuntu/Dokument/GitHub/STM32-Computer/Firmware/STM32-Computer-Firmware/CA7/optee-os-3.19.0-r2/optee-os-stm32mp-3.19.0-stm32mp-r2/ldelf/ta_elf.c:1325
     93c:	b08f      	sub	sp, #60	@ 0x3c
/home/lubuntu/Dokument/GitHub/STM32-Computer/Firmware/STM32-Computer-Firmware/CA7/optee-os-3.19.0-r2/optee-os-stm32mp-3.19.0-stm32mp-r2/ldelf/ta_elf.c:1329
     93e:	f10d 0b20 	add.w	fp, sp, #32
/home/lubuntu/Dokument/GitHub/STM32-Computer/Firmware/STM32-Computer-Firmware/CA7/optee-os-3.19.0-r2/optee-os-stm32mp-3.19.0-stm32mp-r2/ldelf/ta_elf.c:1325
     942:	461e      	mov	r6, r3
/home/lubuntu/Dokument/GitHub/STM32-Computer/Firmware/STM32-Computer-Firmware/CA7/optee-os-3.19.0-r2/optee-os-stm32mp-3.19.0-stm32mp-r2/ldelf/ta_elf.c:1329
     944:	4479      	add	r1, pc
/home/lubuntu/Dokument/GitHub/STM32-Computer/Firmware/STM32-Computer-Firmware/CA7/optee-os-3.19.0-r2/optee-os-stm32mp-3.19.0-stm32mp-r2/ldelf/ta_elf.c:1328
     946:	2300      	movs	r3, #0
/home/lubuntu/Dokument/GitHub/STM32-Computer/Firmware/STM32-Computer-Firmware/CA7/optee-os-3.19.0-r2/optee-os-stm32mp-3.19.0-stm32mp-r2/ldelf/ta_elf.c:1325
     948:	f8dd a060 	ldr.w	sl, [sp, #96]	@ 0x60
     94c:	4607      	mov	r7, r0
     94e:	9c1b      	ldr	r4, [sp, #108]	@ 0x6c
     950:	4691      	mov	r9, r2
/home/lubuntu/Dokument/GitHub/STM32-Computer/Firmware/STM32-Computer-Firmware/CA7/optee-os-3.19.0-r2/optee-os-stm32mp-3.19.0-stm32mp-r2/ldelf/ta_elf.c:1328
     952:	930c      	str	r3, [sp, #48]	@ 0x30
/home/lubuntu/Dokument/GitHub/STM32-Computer/Firmware/STM32-Computer-Firmware/CA7/optee-os-3.19.0-r2/optee-os-stm32mp-3.19.0-stm32mp-r2/ldelf/ta_elf.c:1329
     954:	2205      	movs	r2, #5
/home/lubuntu/Dokument/GitHub/STM32-Computer/Firmware/STM32-Computer-Firmware/CA7/optee-os-3.19.0-r2/optee-os-stm32mp-3.19.0-stm32mp-r2/ldelf/ta_elf.c:1328
     956:	f8ad 3034 	strh.w	r3, [sp, #52]	@ 0x34
/home/lubuntu/Dokument/GitHub/STM32-Computer/Firmware/STM32-Computer-Firmware/CA7/optee-os-3.19.0-r2/optee-os-stm32mp-3.19.0-stm32mp-r2/ldelf/ta_elf.c:1329
     95a:	4658      	mov	r0, fp
/home/lubuntu/Dokument/GitHub/STM32-Computer/Firmware/STM32-Computer-Firmware/CA7/optee-os-3.19.0-r2/optee-os-stm32mp-3.19.0-stm32mp-r2/ldelf/ta_elf.c:1328
     95c:	e9cd 330a 	strd	r3, r3, [sp, #40]	@ 0x28
     960:	ad0a      	add	r5, sp, #40	@ 0x28
/home/lubuntu/Dokument/GitHub/STM32-Computer/Firmware/STM32-Computer-Firmware/CA7/optee-os-3.19.0-r2/optee-os-stm32mp-3.19.0-stm32mp-r2/ldelf/ta_elf.c:1329
     962:	f002 feb7 	bl	36d4 <memcpy>
/home/lubuntu/Dokument/GitHub/STM32-Computer/Firmware/STM32-Computer-Firmware/CA7/optee-os-3.19.0-r2/optee-os-stm32mp-3.19.0-stm32mp-r2/ldelf/ta_elf.c:1331
     966:	2e00      	cmp	r6, #0
     968:	db2f      	blt.n	9ca <print_seg+0x96>
/home/lubuntu/Dokument/GitHub/STM32-Computer/Firmware/STM32-Computer-Firmware/CA7/optee-os-3.19.0-r2/optee-os-stm32mp-3.19.0-stm32mp-r2/ldelf/ta_elf.c:1332
     96a:	4a25      	ldr	r2, [pc, #148]	@ (a00 <print_seg+0xcc>)
     96c:	4633      	mov	r3, r6
     96e:	210e      	movs	r1, #14
     970:	4628      	mov	r0, r5
     972:	447a      	add	r2, pc
     974:	f003 fcc1 	bl	42fa <snprintf>
/home/lubuntu/Dokument/GitHub/STM32-Computer/Firmware/STM32-Computer-Firmware/CA7/optee-os-3.19.0-r2/optee-os-stm32mp-3.19.0-stm32mp-r2/ldelf/ta_elf.c:1349
     978:	07e0      	lsls	r0, r4, #31
/home/lubuntu/Dokument/GitHub/STM32-Computer/Firmware/STM32-Computer-Firmware/CA7/optee-os-3.19.0-r2/optee-os-stm32mp-3.19.0-stm32mp-r2/ldelf/ta_elf.c:1358
     97a:	4638      	mov	r0, r7
     97c:	9506      	str	r5, [sp, #24]
/home/lubuntu/Dokument/GitHub/STM32-Computer/Firmware/STM32-Computer-Firmware/CA7/optee-os-3.19.0-r2/optee-os-stm32mp-3.19.0-stm32mp-r2/ldelf/ta_elf.c:1350
     97e:	bf44      	itt	mi
     980:	2372      	movmi	r3, #114	@ 0x72
     982:	f88d 3020 	strbmi.w	r3, [sp, #32]
/home/lubuntu/Dokument/GitHub/STM32-Computer/Firmware/STM32-Computer-Firmware/CA7/optee-os-3.19.0-r2/optee-os-stm32mp-3.19.0-stm32mp-r2/ldelf/ta_elf.c:1351
     986:	07a1      	lsls	r1, r4, #30
/home/lubuntu/Dokument/GitHub/STM32-Computer/Firmware/STM32-Computer-Firmware/CA7/optee-os-3.19.0-r2/optee-os-stm32mp-3.19.0-stm32mp-r2/ldelf/ta_elf.c:1358
     988:	4641      	mov	r1, r8
     98a:	f8cd b014 	str.w	fp, [sp, #20]
/home/lubuntu/Dokument/GitHub/STM32-Computer/Firmware/STM32-Computer-Firmware/CA7/optee-os-3.19.0-r2/optee-os-stm32mp-3.19.0-stm32mp-r2/ldelf/ta_elf.c:1352
     98e:	bf44      	itt	mi
     990:	2377      	movmi	r3, #119	@ 0x77
     992:	f88d 3021 	strbmi.w	r3, [sp, #33]	@ 0x21
/home/lubuntu/Dokument/GitHub/STM32-Computer/Firmware/STM32-Computer-Firmware/CA7/optee-os-3.19.0-r2/optee-os-stm32mp-3.19.0-stm32mp-r2/ldelf/ta_elf.c:1353
     996:	0762      	lsls	r2, r4, #29
/home/lubuntu/Dokument/GitHub/STM32-Computer/Firmware/STM32-Computer-Firmware/CA7/optee-os-3.19.0-r2/optee-os-stm32mp-3.19.0-stm32mp-r2/ldelf/ta_elf.c:1358
     998:	4a1a      	ldr	r2, [pc, #104]	@ (a04 <print_seg+0xd0>)
/home/lubuntu/Dokument/GitHub/STM32-Computer/Firmware/STM32-Computer-Firmware/CA7/optee-os-3.19.0-r2/optee-os-stm32mp-3.19.0-stm32mp-r2/ldelf/ta_elf.c:1354
     99a:	bf44      	itt	mi
     99c:	2378      	movmi	r3, #120	@ 0x78
     99e:	f88d 3022 	strbmi.w	r3, [sp, #34]	@ 0x22
/home/lubuntu/Dokument/GitHub/STM32-Computer/Firmware/STM32-Computer-Firmware/CA7/optee-os-3.19.0-r2/optee-os-stm32mp-3.19.0-stm32mp-r2/ldelf/ta_elf.c:1355
     9a2:	0723      	lsls	r3, r4, #28
/home/lubuntu/Dokument/GitHub/STM32-Computer/Firmware/STM32-Computer-Firmware/CA7/optee-os-3.19.0-r2/optee-os-stm32mp-3.19.0-stm32mp-r2/ldelf/ta_elf.c:1358
     9a4:	447a      	add	r2, pc
/home/lubuntu/Dokument/GitHub/STM32-Computer/Firmware/STM32-Computer-Firmware/CA7/optee-os-3.19.0-r2/optee-os-stm32mp-3.19.0-stm32mp-r2/ldelf/ta_elf.c:1356
     9a6:	bf44      	itt	mi
     9a8:	2373      	movmi	r3, #115	@ 0x73
     9aa:	f88d 3023 	strbmi.w	r3, [sp, #35]	@ 0x23
/home/lubuntu/Dokument/GitHub/STM32-Computer/Firmware/STM32-Computer-Firmware/CA7/optee-os-3.19.0-r2/optee-os-stm32mp-3.19.0-stm32mp-r2/ldelf/ta_elf.c:1358
     9ae:	9b1a      	ldr	r3, [sp, #104]	@ 0x68
     9b0:	9304      	str	r3, [sp, #16]
     9b2:	9b19      	ldr	r3, [sp, #100]	@ 0x64
     9b4:	9303      	str	r3, [sp, #12]
     9b6:	2308      	movs	r3, #8
     9b8:	9302      	str	r3, [sp, #8]
     9ba:	e9cd 3a00 	strd	r3, sl, [sp]
     9be:	464b      	mov	r3, r9
     9c0:	f003 fb47 	bl	4052 <print_wrapper>
/home/lubuntu/Dokument/GitHub/STM32-Computer/Firmware/STM32-Computer-Firmware/CA7/optee-os-3.19.0-r2/optee-os-stm32mp-3.19.0-stm32mp-r2/ldelf/ta_elf.c:1361
     9c4:	b00f      	add	sp, #60	@ 0x3c
     9c6:	e8bd 8ff0 	ldmia.w	sp!, {r4, r5, r6, r7, r8, r9, sl, fp, pc}
/home/lubuntu/Dokument/GitHub/STM32-Computer/Firmware/STM32-Computer-Firmware/CA7/optee-os-3.19.0-r2/optee-os-stm32mp-3.19.0-stm32mp-r2/ldelf/ta_elf.c:1335
     9ca:	06e3      	lsls	r3, r4, #27
     9cc:	d504      	bpl.n	9d8 <print_seg+0xa4>
/home/lubuntu/Dokument/GitHub/STM32-Computer/Firmware/STM32-Computer-Firmware/CA7/optee-os-3.19.0-r2/optee-os-stm32mp-3.19.0-stm32mp-r2/ldelf/ta_elf.c:1336
     9ce:	490e      	ldr	r1, [pc, #56]	@ (a08 <print_seg+0xd4>)
     9d0:	4628      	mov	r0, r5
     9d2:	4479      	add	r1, pc
     9d4:	f003 fcc9 	bl	436a <strcpy>
/home/lubuntu/Dokument/GitHub/STM32-Computer/Firmware/STM32-Computer-Firmware/CA7/optee-os-3.19.0-r2/optee-os-stm32mp-3.19.0-stm32mp-r2/ldelf/ta_elf.c:1339
     9d8:	0626      	lsls	r6, r4, #24
     9da:	d504      	bpl.n	9e6 <print_seg+0xb2>
/home/lubuntu/Dokument/GitHub/STM32-Computer/Firmware/STM32-Computer-Firmware/CA7/optee-os-3.19.0-r2/optee-os-stm32mp-3.19.0-stm32mp-r2/ldelf/ta_elf.c:1340
     9dc:	490b      	ldr	r1, [pc, #44]	@ (a0c <print_seg+0xd8>)
     9de:	4628      	mov	r0, r5
     9e0:	4479      	add	r1, pc
     9e2:	f003 fcc2 	bl	436a <strcpy>
/home/lubuntu/Dokument/GitHub/STM32-Computer/Firmware/STM32-Computer-Firmware/CA7/optee-os-3.19.0-r2/optee-os-stm32mp-3.19.0-stm32mp-r2/ldelf/ta_elf.c:1343
     9e6:	4b0a      	ldr	r3, [pc, #40]	@ (a10 <print_seg+0xdc>)
     9e8:	447b      	add	r3, pc
     9ea:	681b      	ldr	r3, [r3, #0]
     9ec:	4553      	cmp	r3, sl
     9ee:	d1c3      	bne.n	978 <print_seg+0x44>
/home/lubuntu/Dokument/GitHub/STM32-Computer/Firmware/STM32-Computer-Firmware/CA7/optee-os-3.19.0-r2/optee-os-stm32mp-3.19.0-stm32mp-r2/ldelf/ta_elf.c:1344
     9f0:	4908      	ldr	r1, [pc, #32]	@ (a14 <print_seg+0xe0>)
     9f2:	4628      	mov	r0, r5
     9f4:	4479      	add	r1, pc
     9f6:	f003 fcb8 	bl	436a <strcpy>
/home/lubuntu/Dokument/GitHub/STM32-Computer/Firmware/STM32-Computer-Firmware/CA7/optee-os-3.19.0-r2/optee-os-stm32mp-3.19.0-stm32mp-r2/ldelf/ta_elf.c:1345
     9fa:	e7bd      	b.n	978 <print_seg+0x44>
     9fc:	00003f2c 	.word	0x00003f2c
     a00:	00003ea1 	.word	0x00003ea1
     a04:	00003e90 	.word	0x00003e90
     a08:	00003e47 	.word	0x00003e47
     a0c:	00003e42 	.word	0x00003e42
     a10:	00005728 	.word	0x00005728
     a14:	00003e37 	.word	0x00003e37

00000a18 <copy_section_headers>:
copy_section_headers():
/home/lubuntu/Dokument/GitHub/STM32-Computer/Firmware/STM32-Computer-Firmware/CA7/optee-os-3.19.0-r2/optee-os-stm32mp-3.19.0-stm32mp-r2/ldelf/ta_elf.c:1062
     a18:	e92d 41f3 	stmdb	sp!, {r0, r1, r4, r5, r6, r7, r8, lr}
     a1c:	4604      	mov	r4, r0
/home/lubuntu/Dokument/GitHub/STM32-Computer/Firmware/STM32-Computer-Firmware/CA7/optee-os-3.19.0-r2/optee-os-stm32mp-3.19.0-stm32mp-r2/ldelf/ta_elf.c:1067
     a1e:	6a43      	ldr	r3, [r0, #36]	@ 0x24
     a20:	6ac6      	ldr	r6, [r0, #44]	@ 0x2c
     a22:	fba3 6306 	umull	r6, r3, r3, r6
     a26:	1e1d      	subs	r5, r3, #0
     a28:	bf18      	it	ne
     a2a:	2501      	movne	r5, #1
     a2c:	b16b      	cbz	r3, a4a <copy_section_headers+0x32>
/home/lubuntu/Dokument/GitHub/STM32-Computer/Firmware/STM32-Computer-Firmware/CA7/optee-os-3.19.0-r2/optee-os-stm32mp-3.19.0-stm32mp-r2/ldelf/ta_elf.c:1068
     a2e:	4b2d      	ldr	r3, [pc, #180]	@ (ae4 <copy_section_headers+0xcc>)
     a30:	f240 412c 	movw	r1, #1068	@ 0x42c
     a34:	482c      	ldr	r0, [pc, #176]	@ (ae8 <copy_section_headers+0xd0>)
     a36:	447b      	add	r3, pc
     a38:	9300      	str	r3, [sp, #0]
     a3a:	2301      	movs	r3, #1
     a3c:	4478      	add	r0, pc
     a3e:	461a      	mov	r2, r3
     a40:	f003 fd3a 	bl	44b8 <trace_printf>
     a44:	4825      	ldr	r0, [pc, #148]	@ (adc <copy_section_headers+0xc4>)
/home/lubuntu/Dokument/GitHub/STM32-Computer/Firmware/STM32-Computer-Firmware/CA7/optee-os-3.19.0-r2/optee-os-stm32mp-3.19.0-stm32mp-r2/ldelf/ta_elf.c:1072
     a46:	f7ff eb18 	blx	78 <_ldelf_return>
/home/lubuntu/Dokument/GitHub/STM32-Computer/Firmware/STM32-Computer-Firmware/CA7/optee-os-3.19.0-r2/optee-os-stm32mp-3.19.0-stm32mp-r2/ldelf/ta_elf.c:1070
     a4a:	4630      	mov	r0, r6
     a4c:	f002 fe0a 	bl	3664 <malloc>
     a50:	6360      	str	r0, [r4, #52]	@ 0x34
     a52:	4607      	mov	r7, r0
/home/lubuntu/Dokument/GitHub/STM32-Computer/Firmware/STM32-Computer-Firmware/CA7/optee-os-3.19.0-r2/optee-os-stm32mp-3.19.0-stm32mp-r2/ldelf/ta_elf.c:1071
     a54:	b960      	cbnz	r0, a70 <copy_section_headers+0x58>
/home/lubuntu/Dokument/GitHub/STM32-Computer/Firmware/STM32-Computer-Firmware/CA7/optee-os-3.19.0-r2/optee-os-stm32mp-3.19.0-stm32mp-r2/ldelf/ta_elf.c:1072
     a56:	4b25      	ldr	r3, [pc, #148]	@ (aec <copy_section_headers+0xd4>)
     a58:	f44f 6186 	mov.w	r1, #1072	@ 0x430
     a5c:	4824      	ldr	r0, [pc, #144]	@ (af0 <copy_section_headers+0xd8>)
     a5e:	447b      	add	r3, pc
     a60:	9300      	str	r3, [sp, #0]
     a62:	2301      	movs	r3, #1
     a64:	4478      	add	r0, pc
     a66:	461a      	mov	r2, r3
     a68:	f003 fd26 	bl	44b8 <trace_printf>
     a6c:	481c      	ldr	r0, [pc, #112]	@ (ae0 <copy_section_headers+0xc8>)
     a6e:	e7ea      	b.n	a46 <copy_section_headers+0x2e>
/home/lubuntu/Dokument/GitHub/STM32-Computer/Firmware/STM32-Computer-Firmware/CA7/optee-os-3.19.0-r2/optee-os-stm32mp-3.19.0-stm32mp-r2/ldelf/ta_elf.c:1079
     a70:	f8d4 801c 	ldr.w	r8, [r4, #28]
     a74:	f5b8 5f80 	cmp.w	r8, #4096	@ 0x1000
     a78:	d213      	bcs.n	aa2 <copy_section_headers+0x8a>
/home/lubuntu/Dokument/GitHub/STM32-Computer/Firmware/STM32-Computer-Firmware/CA7/optee-os-3.19.0-r2/optee-os-stm32mp-3.19.0-stm32mp-r2/ldelf/ta_elf.c:1080
     a7a:	7823      	ldrb	r3, [r4, #0]
     a7c:	b13b      	cbz	r3, a8e <copy_section_headers+0x76>
/home/lubuntu/Dokument/GitHub/STM32-Computer/Firmware/STM32-Computer-Firmware/CA7/optee-os-3.19.0-r2/optee-os-stm32mp-3.19.0-stm32mp-r2/ldelf/ta_elf.c:1080 (discriminator 1)
     a7e:	4a1d      	ldr	r2, [pc, #116]	@ (af4 <copy_section_headers+0xdc>)
     a80:	f44f 6187 	mov.w	r1, #1080	@ 0x438
     a84:	481c      	ldr	r0, [pc, #112]	@ (af8 <copy_section_headers+0xe0>)
     a86:	447a      	add	r2, pc
     a88:	4478      	add	r0, pc
     a8a:	f7ff ff47 	bl	91c <_assert_trap.constprop.0>
/home/lubuntu/Dokument/GitHub/STM32-Computer/Firmware/STM32-Computer-Firmware/CA7/optee-os-3.19.0-r2/optee-os-stm32mp-3.19.0-stm32mp-r2/ldelf/ta_elf.c:1082
     a8e:	6861      	ldr	r1, [r4, #4]
/home/lubuntu/Dokument/GitHub/STM32-Computer/Firmware/STM32-Computer-Firmware/CA7/optee-os-3.19.0-r2/optee-os-stm32mp-3.19.0-stm32mp-r2/ldelf/ta_elf.c:1081
     a90:	f5c8 5580 	rsb	r5, r8, #4096	@ 0x1000
     a94:	42b5      	cmp	r5, r6
/home/lubuntu/Dokument/GitHub/STM32-Computer/Firmware/STM32-Computer-Firmware/CA7/optee-os-3.19.0-r2/optee-os-stm32mp-3.19.0-stm32mp-r2/ldelf/ta_elf.c:1082
     a96:	4441      	add	r1, r8
/home/lubuntu/Dokument/GitHub/STM32-Computer/Firmware/STM32-Computer-Firmware/CA7/optee-os-3.19.0-r2/optee-os-stm32mp-3.19.0-stm32mp-r2/ldelf/ta_elf.c:1081
     a98:	bf28      	it	cs
     a9a:	4635      	movcs	r5, r6
/home/lubuntu/Dokument/GitHub/STM32-Computer/Firmware/STM32-Computer-Firmware/CA7/optee-os-3.19.0-r2/optee-os-stm32mp-3.19.0-stm32mp-r2/ldelf/ta_elf.c:1082
     a9c:	462a      	mov	r2, r5
     a9e:	f002 fe19 	bl	36d4 <memcpy>
/home/lubuntu/Dokument/GitHub/STM32-Computer/Firmware/STM32-Computer-Firmware/CA7/optee-os-3.19.0-r2/optee-os-stm32mp-3.19.0-stm32mp-r2/ldelf/ta_elf.c:1086
     aa2:	42ae      	cmp	r6, r5
     aa4:	d916      	bls.n	ad4 <copy_section_headers+0xbc>
/home/lubuntu/Dokument/GitHub/STM32-Computer/Firmware/STM32-Computer-Firmware/CA7/optee-os-3.19.0-r2/optee-os-stm32mp-3.19.0-stm32mp-r2/ldelf/ta_elf.c:1087
     aa6:	f8d4 2084 	ldr.w	r2, [r4, #132]	@ 0x84
     aaa:	eb08 0305 	add.w	r3, r8, r5
     aae:	1b71      	subs	r1, r6, r5
     ab0:	1978      	adds	r0, r7, r5
     ab2:	f003 fac0 	bl	4036 <sys_copy_from_ta_bin>
/home/lubuntu/Dokument/GitHub/STM32-Computer/Firmware/STM32-Computer-Firmware/CA7/optee-os-3.19.0-r2/optee-os-stm32mp-3.19.0-stm32mp-r2/ldelf/ta_elf.c:1090
     ab6:	4604      	mov	r4, r0
     ab8:	b160      	cbz	r0, ad4 <copy_section_headers+0xbc>
/home/lubuntu/Dokument/GitHub/STM32-Computer/Firmware/STM32-Computer-Firmware/CA7/optee-os-3.19.0-r2/optee-os-stm32mp-3.19.0-stm32mp-r2/ldelf/ta_elf.c:1091
     aba:	4b10      	ldr	r3, [pc, #64]	@ (afc <copy_section_headers+0xe4>)
     abc:	f240 4143 	movw	r1, #1091	@ 0x443
     ac0:	480f      	ldr	r0, [pc, #60]	@ (b00 <copy_section_headers+0xe8>)
     ac2:	447b      	add	r3, pc
     ac4:	9300      	str	r3, [sp, #0]
     ac6:	2301      	movs	r3, #1
     ac8:	4478      	add	r0, pc
     aca:	461a      	mov	r2, r3
     acc:	f003 fcf4 	bl	44b8 <trace_printf>
     ad0:	4620      	mov	r0, r4
     ad2:	e7b8      	b.n	a46 <copy_section_headers+0x2e>
/home/lubuntu/Dokument/GitHub/STM32-Computer/Firmware/STM32-Computer-Firmware/CA7/optee-os-3.19.0-r2/optee-os-stm32mp-3.19.0-stm32mp-r2/ldelf/ta_elf.c:1093
     ad4:	b002      	add	sp, #8
     ad6:	e8bd 81f0 	ldmia.w	sp!, {r4, r5, r6, r7, r8, pc}
     ada:	bf00      	nop
     adc:	ffff0005 	.word	0xffff0005
     ae0:	ffff000c 	.word	0xffff000c
     ae4:	00003e3f 	.word	0x00003e3f
     ae8:	0000456f 	.word	0x0000456f
     aec:	00003e35 	.word	0x00003e35
     af0:	00004547 	.word	0x00004547
     af4:	00004525 	.word	0x00004525
     af8:	00003e12 	.word	0x00003e12
     afc:	00003de6 	.word	0x00003de6
     b00:	000044e3 	.word	0x000044e3

00000b04 <populate_segments>:
populate_segments():
/home/lubuntu/Dokument/GitHub/STM32-Computer/Firmware/STM32-Computer-Firmware/CA7/optee-os-3.19.0-r2/optee-os-stm32mp-3.19.0-stm32mp-r2/ldelf/ta_elf.c:748
     b04:	e92d 4ff0 	stmdb	sp!, {r4, r5, r6, r7, r8, r9, sl, fp, lr}
     b08:	b08b      	sub	sp, #44	@ 0x2c
/home/lubuntu/Dokument/GitHub/STM32-Computer/Firmware/STM32-Computer-Firmware/CA7/optee-os-3.19.0-r2/optee-os-stm32mp-3.19.0-stm32mp-r2/ldelf/ta_elf.c:751
     b0a:	2300      	movs	r3, #0
/home/lubuntu/Dokument/GitHub/STM32-Computer/Firmware/STM32-Computer-Firmware/CA7/optee-os-3.19.0-r2/optee-os-stm32mp-3.19.0-stm32mp-r2/ldelf/ta_elf.c:748
     b0c:	4605      	mov	r5, r0
/home/lubuntu/Dokument/GitHub/STM32-Computer/Firmware/STM32-Computer-Firmware/CA7/optee-os-3.19.0-r2/optee-os-stm32mp-3.19.0-stm32mp-r2/ldelf/ta_elf.c:751
     b0e:	9309      	str	r3, [sp, #36]	@ 0x24
/home/lubuntu/Dokument/GitHub/STM32-Computer/Firmware/STM32-Computer-Firmware/CA7/optee-os-3.19.0-r2/optee-os-stm32mp-3.19.0-stm32mp-r2/ldelf/ta_elf.c:754
     b10:	7883      	ldrb	r3, [r0, #2]
     b12:	b13b      	cbz	r3, b24 <populate_segments+0x20>
/home/lubuntu/Dokument/GitHub/STM32-Computer/Firmware/STM32-Computer-Firmware/CA7/optee-os-3.19.0-r2/optee-os-stm32mp-3.19.0-stm32mp-r2/ldelf/ta_elf.c:754 (discriminator 1)
     b14:	4aa8      	ldr	r2, [pc, #672]	@ (db8 <populate_segments+0x2b4>)
     b16:	f240 21f2 	movw	r1, #754	@ 0x2f2
     b1a:	48a8      	ldr	r0, [pc, #672]	@ (dbc <populate_segments+0x2b8>)
     b1c:	447a      	add	r2, pc
     b1e:	4478      	add	r0, pc
/home/lubuntu/Dokument/GitHub/STM32-Computer/Firmware/STM32-Computer-Firmware/CA7/optee-os-3.19.0-r2/optee-os-stm32mp-3.19.0-stm32mp-r2/ldelf/ta_elf.c:764 (discriminator 1)
     b20:	f7ff fefc 	bl	91c <_assert_trap.constprop.0>
/home/lubuntu/Dokument/GitHub/STM32-Computer/Firmware/STM32-Computer-Firmware/CA7/optee-os-3.19.0-r2/optee-os-stm32mp-3.19.0-stm32mp-r2/ldelf/ta_elf.c:755
     b24:	6d87      	ldr	r7, [r0, #88]	@ 0x58
roundup():
/home/lubuntu/Dokument/GitHub/STM32-Computer/Firmware/STM32-Computer-Firmware/CA7/optee-os-3.19.0-r2/optee-os-stm32mp-3.19.0-stm32mp-r2/ldelf/ta_elf.c:492
     b26:	f8df 8280 	ldr.w	r8, [pc, #640]	@ da8 <populate_segments+0x2a4>
populate_segments():
/home/lubuntu/Dokument/GitHub/STM32-Computer/Firmware/STM32-Computer-Firmware/CA7/optee-os-3.19.0-r2/optee-os-stm32mp-3.19.0-stm32mp-r2/ldelf/ta_elf.c:755 (discriminator 1)
     b2a:	b917      	cbnz	r7, b32 <populate_segments+0x2e>
/home/lubuntu/Dokument/GitHub/STM32-Computer/Firmware/STM32-Computer-Firmware/CA7/optee-os-3.19.0-r2/optee-os-stm32mp-3.19.0-stm32mp-r2/ldelf/ta_elf.c:877
     b2c:	b00b      	add	sp, #44	@ 0x2c
     b2e:	e8bd 8ff0 	ldmia.w	sp!, {r4, r5, r6, r7, r8, r9, sl, fp, pc}
/home/lubuntu/Dokument/GitHub/STM32-Computer/Firmware/STM32-Computer-Firmware/CA7/optee-os-3.19.0-r2/optee-os-stm32mp-3.19.0-stm32mp-r2/ldelf/ta_elf.c:756
     b32:	6deb      	ldr	r3, [r5, #92]	@ 0x5c
/home/lubuntu/Dokument/GitHub/STM32-Computer/Firmware/STM32-Computer-Firmware/CA7/optee-os-3.19.0-r2/optee-os-stm32mp-3.19.0-stm32mp-r2/ldelf/ta_elf.c:758
     b34:	687a      	ldr	r2, [r7, #4]
/home/lubuntu/Dokument/GitHub/STM32-Computer/Firmware/STM32-Computer-Firmware/CA7/optee-os-3.19.0-r2/optee-os-stm32mp-3.19.0-stm32mp-r2/ldelf/ta_elf.c:756
     b36:	685b      	ldr	r3, [r3, #4]
/home/lubuntu/Dokument/GitHub/STM32-Computer/Firmware/STM32-Computer-Firmware/CA7/optee-os-3.19.0-r2/optee-os-stm32mp-3.19.0-stm32mp-r2/ldelf/ta_elf.c:758
     b38:	68fc      	ldr	r4, [r7, #12]
/home/lubuntu/Dokument/GitHub/STM32-Computer/Firmware/STM32-Computer-Firmware/CA7/optee-os-3.19.0-r2/optee-os-stm32mp-3.19.0-stm32mp-r2/ldelf/ta_elf.c:756
     b3a:	681b      	ldr	r3, [r3, #0]
/home/lubuntu/Dokument/GitHub/STM32-Computer/Firmware/STM32-Computer-Firmware/CA7/optee-os-3.19.0-r2/optee-os-stm32mp-3.19.0-stm32mp-r2/ldelf/ta_elf.c:757
     b3c:	685e      	ldr	r6, [r3, #4]
     b3e:	68db      	ldr	r3, [r3, #12]
     b40:	441e      	add	r6, r3
/home/lubuntu/Dokument/GitHub/STM32-Computer/Firmware/STM32-Computer-Firmware/CA7/optee-os-3.19.0-r2/optee-os-stm32mp-3.19.0-stm32mp-r2/ldelf/ta_elf.c:760
     b42:	7e3b      	ldrb	r3, [r7, #24]
roundup():
/home/lubuntu/Dokument/GitHub/STM32-Computer/Firmware/STM32-Computer-Firmware/CA7/optee-os-3.19.0-r2/optee-os-stm32mp-3.19.0-stm32mp-r2/ldelf/ta_elf.c:492
     b44:	f606 76ff 	addw	r6, r6, #4095	@ 0xfff
     b48:	1ab6      	subs	r6, r6, r2
     b4a:	1b36      	subs	r6, r6, r4
     b4c:	ea06 0608 	and.w	r6, r6, r8
populate_segments():
/home/lubuntu/Dokument/GitHub/STM32-Computer/Firmware/STM32-Computer-Firmware/CA7/optee-os-3.19.0-r2/optee-os-stm32mp-3.19.0-stm32mp-r2/ldelf/ta_elf.c:760
     b50:	2b00      	cmp	r3, #0
     b52:	d071      	beq.n	c38 <populate_segments+0x134>
/home/lubuntu/Dokument/GitHub/STM32-Computer/Firmware/STM32-Computer-Firmware/CA7/optee-os-3.19.0-r2/optee-os-stm32mp-3.19.0-stm32mp-r2/ldelf/ta_elf.c:761
     b54:	4414      	add	r4, r2
rounddown():
/home/lubuntu/Dokument/GitHub/STM32-Computer/Firmware/STM32-Computer-Firmware/CA7/optee-os-3.19.0-r2/optee-os-stm32mp-3.19.0-stm32mp-r2/ldelf/ta_elf.c:497
     b56:	ea02 0308 	and.w	r3, r2, r8
roundup():
/home/lubuntu/Dokument/GitHub/STM32-Computer/Firmware/STM32-Computer-Firmware/CA7/optee-os-3.19.0-r2/optee-os-stm32mp-3.19.0-stm32mp-r2/ldelf/ta_elf.c:492
     b5a:	f604 74ff 	addw	r4, r4, #4095	@ 0xfff
     b5e:	ea04 0408 	and.w	r4, r4, r8
populate_segments():
/home/lubuntu/Dokument/GitHub/STM32-Computer/Firmware/STM32-Computer-Firmware/CA7/optee-os-3.19.0-r2/optee-os-stm32mp-3.19.0-stm32mp-r2/ldelf/ta_elf.c:761
     b62:	1ae4      	subs	r4, r4, r3
/home/lubuntu/Dokument/GitHub/STM32-Computer/Firmware/STM32-Computer-Firmware/CA7/optee-os-3.19.0-r2/optee-os-stm32mp-3.19.0-stm32mp-r2/ldelf/ta_elf.c:764
     b64:	686b      	ldr	r3, [r5, #4]
     b66:	b933      	cbnz	r3, b76 <populate_segments+0x72>
/home/lubuntu/Dokument/GitHub/STM32-Computer/Firmware/STM32-Computer-Firmware/CA7/optee-os-3.19.0-r2/optee-os-stm32mp-3.19.0-stm32mp-r2/ldelf/ta_elf.c:764 (discriminator 1)
     b68:	4a95      	ldr	r2, [pc, #596]	@ (dc0 <populate_segments+0x2bc>)
     b6a:	f44f 713f 	mov.w	r1, #764	@ 0x2fc
     b6e:	4895      	ldr	r0, [pc, #596]	@ (dc4 <populate_segments+0x2c0>)
     b70:	447a      	add	r2, pc
     b72:	4478      	add	r0, pc
     b74:	e7d4      	b.n	b20 <populate_segments+0x1c>
/home/lubuntu/Dokument/GitHub/STM32-Computer/Firmware/STM32-Computer-Firmware/CA7/optee-os-3.19.0-r2/optee-os-stm32mp-3.19.0-stm32mp-r2/ldelf/ta_elf.c:765
     b76:	4413      	add	r3, r2
/home/lubuntu/Dokument/GitHub/STM32-Computer/Firmware/STM32-Computer-Firmware/CA7/optee-os-3.19.0-r2/optee-os-stm32mp-3.19.0-stm32mp-r2/ldelf/ta_elf.c:766
     b78:	68aa      	ldr	r2, [r5, #8]
rounddown():
/home/lubuntu/Dokument/GitHub/STM32-Computer/Firmware/STM32-Computer-Firmware/CA7/optee-os-3.19.0-r2/optee-os-stm32mp-3.19.0-stm32mp-r2/ldelf/ta_elf.c:497
     b7a:	ea03 0308 	and.w	r3, r3, r8
populate_segments():
/home/lubuntu/Dokument/GitHub/STM32-Computer/Firmware/STM32-Computer-Firmware/CA7/optee-os-3.19.0-r2/optee-os-stm32mp-3.19.0-stm32mp-r2/ldelf/ta_elf.c:766
     b7e:	429a      	cmp	r2, r3
/home/lubuntu/Dokument/GitHub/STM32-Computer/Firmware/STM32-Computer-Firmware/CA7/optee-os-3.19.0-r2/optee-os-stm32mp-3.19.0-stm32mp-r2/ldelf/ta_elf.c:765
     b80:	9309      	str	r3, [sp, #36]	@ 0x24
/home/lubuntu/Dokument/GitHub/STM32-Computer/Firmware/STM32-Computer-Firmware/CA7/optee-os-3.19.0-r2/optee-os-stm32mp-3.19.0-stm32mp-r2/ldelf/ta_elf.c:766
     b82:	d906      	bls.n	b92 <populate_segments+0x8e>
/home/lubuntu/Dokument/GitHub/STM32-Computer/Firmware/STM32-Computer-Firmware/CA7/optee-os-3.19.0-r2/optee-os-stm32mp-3.19.0-stm32mp-r2/ldelf/ta_elf.c:766 (discriminator 1)
     b84:	4a90      	ldr	r2, [pc, #576]	@ (dc8 <populate_segments+0x2c4>)
     b86:	f240 21fe 	movw	r1, #766	@ 0x2fe
     b8a:	4890      	ldr	r0, [pc, #576]	@ (dcc <populate_segments+0x2c8>)
     b8c:	447a      	add	r2, pc
     b8e:	4478      	add	r0, pc
     b90:	e7c6      	b.n	b20 <populate_segments+0x1c>
/home/lubuntu/Dokument/GitHub/STM32-Computer/Firmware/STM32-Computer-Firmware/CA7/optee-os-3.19.0-r2/optee-os-stm32mp-3.19.0-stm32mp-r2/ldelf/ta_elf.c:767
     b92:	9600      	str	r6, [sp, #0]
     b94:	2300      	movs	r3, #0
     b96:	aa09      	add	r2, sp, #36	@ 0x24
     b98:	4619      	mov	r1, r3
     b9a:	4620      	mov	r0, r4
     b9c:	f003 fa2e 	bl	3ffc <sys_map_zi>
/home/lubuntu/Dokument/GitHub/STM32-Computer/Firmware/STM32-Computer-Firmware/CA7/optee-os-3.19.0-r2/optee-os-stm32mp-3.19.0-stm32mp-r2/ldelf/ta_elf.c:768
     ba0:	4606      	mov	r6, r0
     ba2:	b160      	cbz	r0, bbe <populate_segments+0xba>
/home/lubuntu/Dokument/GitHub/STM32-Computer/Firmware/STM32-Computer-Firmware/CA7/optee-os-3.19.0-r2/optee-os-stm32mp-3.19.0-stm32mp-r2/ldelf/ta_elf.c:769
     ba4:	4b8a      	ldr	r3, [pc, #552]	@ (dd0 <populate_segments+0x2cc>)
     ba6:	f240 3101 	movw	r1, #769	@ 0x301
     baa:	488a      	ldr	r0, [pc, #552]	@ (dd4 <populate_segments+0x2d0>)
     bac:	447b      	add	r3, pc
     bae:	9300      	str	r3, [sp, #0]
     bb0:	2301      	movs	r3, #1
     bb2:	4478      	add	r0, pc
     bb4:	461a      	mov	r2, r3
/home/lubuntu/Dokument/GitHub/STM32-Computer/Firmware/STM32-Computer-Firmware/CA7/optee-os-3.19.0-r2/optee-os-stm32mp-3.19.0-stm32mp-r2/ldelf/ta_elf.c:854
     bb6:	f003 fc7f 	bl	44b8 <trace_printf>
     bba:	4630      	mov	r0, r6
     bbc:	e032      	b.n	c24 <populate_segments+0x120>
copy_remapped_to():
/home/lubuntu/Dokument/GitHub/STM32-Computer/Firmware/STM32-Computer-Firmware/CA7/optee-os-3.19.0-r2/optee-os-stm32mp-3.19.0-stm32mp-r2/ldelf/ta_elf.c:564
     bbe:	686b      	ldr	r3, [r5, #4]
     bc0:	687a      	ldr	r2, [r7, #4]
/home/lubuntu/Dokument/GitHub/STM32-Computer/Firmware/STM32-Computer-Firmware/CA7/optee-os-3.19.0-r2/optee-os-stm32mp-3.19.0-stm32mp-r2/ldelf/ta_elf.c:566
     bc2:	683e      	ldr	r6, [r7, #0]
/home/lubuntu/Dokument/GitHub/STM32-Computer/Firmware/STM32-Computer-Firmware/CA7/optee-os-3.19.0-r2/optee-os-stm32mp-3.19.0-stm32mp-r2/ldelf/ta_elf.c:564
     bc4:	eb02 0903 	add.w	r9, r2, r3
/home/lubuntu/Dokument/GitHub/STM32-Computer/Firmware/STM32-Computer-Firmware/CA7/optee-os-3.19.0-r2/optee-os-stm32mp-3.19.0-stm32mp-r2/ldelf/ta_elf.c:569
     bc8:	68eb      	ldr	r3, [r5, #12]
/home/lubuntu/Dokument/GitHub/STM32-Computer/Firmware/STM32-Computer-Firmware/CA7/optee-os-3.19.0-r2/optee-os-stm32mp-3.19.0-stm32mp-r2/ldelf/ta_elf.c:567
     bca:	f8d7 a008 	ldr.w	sl, [r7, #8]
/home/lubuntu/Dokument/GitHub/STM32-Computer/Firmware/STM32-Computer-Firmware/CA7/optee-os-3.19.0-r2/optee-os-stm32mp-3.19.0-stm32mp-r2/ldelf/ta_elf.c:569
     bce:	429e      	cmp	r6, r3
     bd0:	d210      	bcs.n	bf4 <populate_segments+0xf0>
/home/lubuntu/Dokument/GitHub/STM32-Computer/Firmware/STM32-Computer-Firmware/CA7/optee-os-3.19.0-r2/optee-os-stm32mp-3.19.0-stm32mp-r2/ldelf/ta_elf.c:570
     bd2:	eba3 0b06 	sub.w	fp, r3, r6
/home/lubuntu/Dokument/GitHub/STM32-Computer/Firmware/STM32-Computer-Firmware/CA7/optee-os-3.19.0-r2/optee-os-stm32mp-3.19.0-stm32mp-r2/ldelf/ta_elf.c:571
     bd6:	4648      	mov	r0, r9
     bd8:	68a9      	ldr	r1, [r5, #8]
/home/lubuntu/Dokument/GitHub/STM32-Computer/Firmware/STM32-Computer-Firmware/CA7/optee-os-3.19.0-r2/optee-os-stm32mp-3.19.0-stm32mp-r2/ldelf/ta_elf.c:570
     bda:	45d3      	cmp	fp, sl
/home/lubuntu/Dokument/GitHub/STM32-Computer/Firmware/STM32-Computer-Firmware/CA7/optee-os-3.19.0-r2/optee-os-stm32mp-3.19.0-stm32mp-r2/ldelf/ta_elf.c:571
     bdc:	eba1 0103 	sub.w	r1, r1, r3
/home/lubuntu/Dokument/GitHub/STM32-Computer/Firmware/STM32-Computer-Firmware/CA7/optee-os-3.19.0-r2/optee-os-stm32mp-3.19.0-stm32mp-r2/ldelf/ta_elf.c:570
     be0:	bf28      	it	cs
     be2:	46d3      	movcs	fp, sl
/home/lubuntu/Dokument/GitHub/STM32-Computer/Firmware/STM32-Computer-Firmware/CA7/optee-os-3.19.0-r2/optee-os-stm32mp-3.19.0-stm32mp-r2/ldelf/ta_elf.c:571
     be4:	4431      	add	r1, r6
     be6:	465a      	mov	r2, fp
/home/lubuntu/Dokument/GitHub/STM32-Computer/Firmware/STM32-Computer-Firmware/CA7/optee-os-3.19.0-r2/optee-os-stm32mp-3.19.0-stm32mp-r2/ldelf/ta_elf.c:572
     be8:	44d9      	add	r9, fp
/home/lubuntu/Dokument/GitHub/STM32-Computer/Firmware/STM32-Computer-Firmware/CA7/optee-os-3.19.0-r2/optee-os-stm32mp-3.19.0-stm32mp-r2/ldelf/ta_elf.c:571
     bea:	f002 fd73 	bl	36d4 <memcpy>
/home/lubuntu/Dokument/GitHub/STM32-Computer/Firmware/STM32-Computer-Firmware/CA7/optee-os-3.19.0-r2/optee-os-stm32mp-3.19.0-stm32mp-r2/ldelf/ta_elf.c:573
     bee:	445e      	add	r6, fp
/home/lubuntu/Dokument/GitHub/STM32-Computer/Firmware/STM32-Computer-Firmware/CA7/optee-os-3.19.0-r2/optee-os-stm32mp-3.19.0-stm32mp-r2/ldelf/ta_elf.c:574
     bf0:	ebaa 0a0b 	sub.w	sl, sl, fp
/home/lubuntu/Dokument/GitHub/STM32-Computer/Firmware/STM32-Computer-Firmware/CA7/optee-os-3.19.0-r2/optee-os-stm32mp-3.19.0-stm32mp-r2/ldelf/ta_elf.c:577
     bf4:	f1ba 0f00 	cmp.w	sl, #0
     bf8:	d019      	beq.n	c2e <populate_segments+0x12a>
/home/lubuntu/Dokument/GitHub/STM32-Computer/Firmware/STM32-Computer-Firmware/CA7/optee-os-3.19.0-r2/optee-os-stm32mp-3.19.0-stm32mp-r2/ldelf/ta_elf.c:578
     bfa:	f8d5 2084 	ldr.w	r2, [r5, #132]	@ 0x84
     bfe:	4648      	mov	r0, r9
     c00:	4633      	mov	r3, r6
     c02:	4651      	mov	r1, sl
     c04:	f003 fa17 	bl	4036 <sys_copy_from_ta_bin>
/home/lubuntu/Dokument/GitHub/STM32-Computer/Firmware/STM32-Computer-Firmware/CA7/optee-os-3.19.0-r2/optee-os-stm32mp-3.19.0-stm32mp-r2/ldelf/ta_elf.c:581
     c08:	4681      	mov	r9, r0
     c0a:	b168      	cbz	r0, c28 <populate_segments+0x124>
/home/lubuntu/Dokument/GitHub/STM32-Computer/Firmware/STM32-Computer-Firmware/CA7/optee-os-3.19.0-r2/optee-os-stm32mp-3.19.0-stm32mp-r2/ldelf/ta_elf.c:582
     c0c:	4b72      	ldr	r3, [pc, #456]	@ (dd8 <populate_segments+0x2d4>)
     c0e:	f240 2146 	movw	r1, #582	@ 0x246
     c12:	4872      	ldr	r0, [pc, #456]	@ (ddc <populate_segments+0x2d8>)
     c14:	447b      	add	r3, pc
     c16:	9300      	str	r3, [sp, #0]
     c18:	2301      	movs	r3, #1
     c1a:	4478      	add	r0, pc
     c1c:	461a      	mov	r2, r3
     c1e:	f003 fc4b 	bl	44b8 <trace_printf>
     c22:	4648      	mov	r0, r9
populate_segments():
/home/lubuntu/Dokument/GitHub/STM32-Computer/Firmware/STM32-Computer-Firmware/CA7/optee-os-3.19.0-r2/optee-os-stm32mp-3.19.0-stm32mp-r2/ldelf/ta_elf.c:868
     c24:	f7ff ea28 	blx	78 <_ldelf_return>
copy_remapped_to():
/home/lubuntu/Dokument/GitHub/STM32-Computer/Firmware/STM32-Computer-Firmware/CA7/optee-os-3.19.0-r2/optee-os-stm32mp-3.19.0-stm32mp-r2/ldelf/ta_elf.c:583
     c28:	68eb      	ldr	r3, [r5, #12]
     c2a:	4433      	add	r3, r6
     c2c:	60eb      	str	r3, [r5, #12]
populate_segments():
/home/lubuntu/Dokument/GitHub/STM32-Computer/Firmware/STM32-Computer-Firmware/CA7/optee-os-3.19.0-r2/optee-os-stm32mp-3.19.0-stm32mp-r2/ldelf/ta_elf.c:772
     c2e:	9b09      	ldr	r3, [sp, #36]	@ 0x24
     c30:	4423      	add	r3, r4
/home/lubuntu/Dokument/GitHub/STM32-Computer/Firmware/STM32-Computer-Firmware/CA7/optee-os-3.19.0-r2/optee-os-stm32mp-3.19.0-stm32mp-r2/ldelf/ta_elf.c:810
     c32:	60ab      	str	r3, [r5, #8]
/home/lubuntu/Dokument/GitHub/STM32-Computer/Firmware/STM32-Computer-Firmware/CA7/optee-os-3.19.0-r2/optee-os-stm32mp-3.19.0-stm32mp-r2/ldelf/ta_elf.c:755 (discriminator 2)
     c34:	69ff      	ldr	r7, [r7, #28]
     c36:	e778      	b.n	b2a <populate_segments+0x26>
/home/lubuntu/Dokument/GitHub/STM32-Computer/Firmware/STM32-Computer-Firmware/CA7/optee-os-3.19.0-r2/optee-os-stm32mp-3.19.0-stm32mp-r2/ldelf/ta_elf.c:777
     c38:	f8d7 b000 	ldr.w	fp, [r7]
/home/lubuntu/Dokument/GitHub/STM32-Computer/Firmware/STM32-Computer-Firmware/CA7/optee-os-3.19.0-r2/optee-os-stm32mp-3.19.0-stm32mp-r2/ldelf/ta_elf.c:780
     c3c:	68e9      	ldr	r1, [r5, #12]
/home/lubuntu/Dokument/GitHub/STM32-Computer/Firmware/STM32-Computer-Firmware/CA7/optee-os-3.19.0-r2/optee-os-stm32mp-3.19.0-stm32mp-r2/ldelf/ta_elf.c:775
     c3e:	f8d7 9008 	ldr.w	r9, [r7, #8]
/home/lubuntu/Dokument/GitHub/STM32-Computer/Firmware/STM32-Computer-Firmware/CA7/optee-os-3.19.0-r2/optee-os-stm32mp-3.19.0-stm32mp-r2/ldelf/ta_elf.c:780
     c42:	4559      	cmp	r1, fp
     c44:	d93e      	bls.n	cc4 <populate_segments+0x1c0>
/home/lubuntu/Dokument/GitHub/STM32-Computer/Firmware/STM32-Computer-Firmware/CA7/optee-os-3.19.0-r2/optee-os-stm32mp-3.19.0-stm32mp-r2/ldelf/ta_elf.c:786
     c46:	eb02 0109 	add.w	r1, r2, r9
     c4a:	f5b1 5f80 	cmp.w	r1, #4096	@ 0x1000
     c4e:	d231      	bcs.n	cb4 <populate_segments+0x1b0>
/home/lubuntu/Dokument/GitHub/STM32-Computer/Firmware/STM32-Computer-Firmware/CA7/optee-os-3.19.0-r2/optee-os-stm32mp-3.19.0-stm32mp-r2/ldelf/ta_elf.c:793
     c50:	4414      	add	r4, r2
     c52:	f5b4 5f80 	cmp.w	r4, #4096	@ 0x1000
     c56:	d9ed      	bls.n	c34 <populate_segments+0x130>
/home/lubuntu/Dokument/GitHub/STM32-Computer/Firmware/STM32-Computer-Firmware/CA7/optee-os-3.19.0-r2/optee-os-stm32mp-3.19.0-stm32mp-r2/ldelf/ta_elf.c:801
     c58:	68a9      	ldr	r1, [r5, #8]
roundup():
/home/lubuntu/Dokument/GitHub/STM32-Computer/Firmware/STM32-Computer-Firmware/CA7/optee-os-3.19.0-r2/optee-os-stm32mp-3.19.0-stm32mp-r2/ldelf/ta_elf.c:492
     c5a:	f604 74ff 	addw	r4, r4, #4095	@ 0xfff
     c5e:	ea04 0408 	and.w	r4, r4, r8
     c62:	f602 72ff 	addw	r2, r2, #4095	@ 0xfff
     c66:	ea02 0208 	and.w	r2, r2, r8
populate_segments():
/home/lubuntu/Dokument/GitHub/STM32-Computer/Firmware/STM32-Computer-Firmware/CA7/optee-os-3.19.0-r2/optee-os-stm32mp-3.19.0-stm32mp-r2/ldelf/ta_elf.c:802
     c6a:	1aa4      	subs	r4, r4, r2
/home/lubuntu/Dokument/GitHub/STM32-Computer/Firmware/STM32-Computer-Firmware/CA7/optee-os-3.19.0-r2/optee-os-stm32mp-3.19.0-stm32mp-r2/ldelf/ta_elf.c:801
     c6c:	9109      	str	r1, [sp, #36]	@ 0x24
/home/lubuntu/Dokument/GitHub/STM32-Computer/Firmware/STM32-Computer-Firmware/CA7/optee-os-3.19.0-r2/optee-os-stm32mp-3.19.0-stm32mp-r2/ldelf/ta_elf.c:805
     c6e:	f5b4 5480 	subs.w	r4, r4, #4096	@ 0x1000
     c72:	d106      	bne.n	c82 <populate_segments+0x17e>
/home/lubuntu/Dokument/GitHub/STM32-Computer/Firmware/STM32-Computer-Firmware/CA7/optee-os-3.19.0-r2/optee-os-stm32mp-3.19.0-stm32mp-r2/ldelf/ta_elf.c:805 (discriminator 1)
     c74:	4a5a      	ldr	r2, [pc, #360]	@ (de0 <populate_segments+0x2dc>)
     c76:	f240 3125 	movw	r1, #805	@ 0x325
     c7a:	485a      	ldr	r0, [pc, #360]	@ (de4 <populate_segments+0x2e0>)
     c7c:	447a      	add	r2, pc
     c7e:	4478      	add	r0, pc
     c80:	e74e      	b.n	b20 <populate_segments+0x1c>
/home/lubuntu/Dokument/GitHub/STM32-Computer/Firmware/STM32-Computer-Firmware/CA7/optee-os-3.19.0-r2/optee-os-stm32mp-3.19.0-stm32mp-r2/ldelf/ta_elf.c:806
     c82:	9300      	str	r3, [sp, #0]
     c84:	aa09      	add	r2, sp, #36	@ 0x24
     c86:	4619      	mov	r1, r3
     c88:	4620      	mov	r0, r4
     c8a:	f003 f9b7 	bl	3ffc <sys_map_zi>
/home/lubuntu/Dokument/GitHub/STM32-Computer/Firmware/STM32-Computer-Firmware/CA7/optee-os-3.19.0-r2/optee-os-stm32mp-3.19.0-stm32mp-r2/ldelf/ta_elf.c:808
     c8e:	4606      	mov	r6, r0
     c90:	b148      	cbz	r0, ca6 <populate_segments+0x1a2>
/home/lubuntu/Dokument/GitHub/STM32-Computer/Firmware/STM32-Computer-Firmware/CA7/optee-os-3.19.0-r2/optee-os-stm32mp-3.19.0-stm32mp-r2/ldelf/ta_elf.c:809
     c92:	4b55      	ldr	r3, [pc, #340]	@ (de8 <populate_segments+0x2e4>)
     c94:	f240 3129 	movw	r1, #809	@ 0x329
     c98:	4854      	ldr	r0, [pc, #336]	@ (dec <populate_segments+0x2e8>)
     c9a:	447b      	add	r3, pc
     c9c:	9300      	str	r3, [sp, #0]
     c9e:	2301      	movs	r3, #1
     ca0:	4478      	add	r0, pc
     ca2:	461a      	mov	r2, r3
     ca4:	e787      	b.n	bb6 <populate_segments+0xb2>
roundup():
/home/lubuntu/Dokument/GitHub/STM32-Computer/Firmware/STM32-Computer-Firmware/CA7/optee-os-3.19.0-r2/optee-os-stm32mp-3.19.0-stm32mp-r2/ldelf/ta_elf.c:492
     ca6:	9b09      	ldr	r3, [sp, #36]	@ 0x24
     ca8:	f603 73ff 	addw	r3, r3, #4095	@ 0xfff
     cac:	4423      	add	r3, r4
     cae:	ea03 0308 	and.w	r3, r3, r8
     cb2:	e7be      	b.n	c32 <populate_segments+0x12e>
populate_segments():
/home/lubuntu/Dokument/GitHub/STM32-Computer/Firmware/STM32-Computer-Firmware/CA7/optee-os-3.19.0-r2/optee-os-stm32mp-3.19.0-stm32mp-r2/ldelf/ta_elf.c:815
     cb4:	f502 5280 	add.w	r2, r2, #4096	@ 0x1000
/home/lubuntu/Dokument/GitHub/STM32-Computer/Firmware/STM32-Computer-Firmware/CA7/optee-os-3.19.0-r2/optee-os-stm32mp-3.19.0-stm32mp-r2/ldelf/ta_elf.c:816
     cb8:	f5a9 5980 	sub.w	r9, r9, #4096	@ 0x1000
/home/lubuntu/Dokument/GitHub/STM32-Computer/Firmware/STM32-Computer-Firmware/CA7/optee-os-3.19.0-r2/optee-os-stm32mp-3.19.0-stm32mp-r2/ldelf/ta_elf.c:817
     cbc:	f5a4 5480 	sub.w	r4, r4, #4096	@ 0x1000
/home/lubuntu/Dokument/GitHub/STM32-Computer/Firmware/STM32-Computer-Firmware/CA7/optee-os-3.19.0-r2/optee-os-stm32mp-3.19.0-stm32mp-r2/ldelf/ta_elf.c:818
     cc0:	f50b 5b80 	add.w	fp, fp, #4096	@ 0x1000
/home/lubuntu/Dokument/GitHub/STM32-Computer/Firmware/STM32-Computer-Firmware/CA7/optee-os-3.19.0-r2/optee-os-stm32mp-3.19.0-stm32mp-r2/ldelf/ta_elf.c:821
     cc4:	686b      	ldr	r3, [r5, #4]
     cc6:	b9e3      	cbnz	r3, d02 <populate_segments+0x1fe>
/home/lubuntu/Dokument/GitHub/STM32-Computer/Firmware/STM32-Computer-Firmware/CA7/optee-os-3.19.0-r2/optee-os-stm32mp-3.19.0-stm32mp-r2/ldelf/ta_elf.c:822
     cc8:	9309      	str	r3, [sp, #36]	@ 0x24
/home/lubuntu/Dokument/GitHub/STM32-Computer/Firmware/STM32-Computer-Firmware/CA7/optee-os-3.19.0-r2/optee-os-stm32mp-3.19.0-stm32mp-r2/ldelf/ta_elf.c:823
     cca:	f7ff fccd 	bl	668 <get_pad_begin>
     cce:	9004      	str	r0, [sp, #16]
/home/lubuntu/Dokument/GitHub/STM32-Computer/Firmware/STM32-Computer-Firmware/CA7/optee-os-3.19.0-r2/optee-os-stm32mp-3.19.0-stm32mp-r2/ldelf/ta_elf.c:834
     cd0:	693b      	ldr	r3, [r7, #16]
/home/lubuntu/Dokument/GitHub/STM32-Computer/Firmware/STM32-Computer-Firmware/CA7/optee-os-3.19.0-r2/optee-os-stm32mp-3.19.0-stm32mp-r2/ldelf/ta_elf.c:837
     cd2:	f013 0f02 	tst.w	r3, #2
     cd6:	bf14      	ite	ne
     cd8:	2202      	movne	r2, #2
     cda:	2201      	moveq	r2, #1
/home/lubuntu/Dokument/GitHub/STM32-Computer/Firmware/STM32-Computer-Firmware/CA7/optee-os-3.19.0-r2/optee-os-stm32mp-3.19.0-stm32mp-r2/ldelf/ta_elf.c:838
     cdc:	07d9      	lsls	r1, r3, #31
/home/lubuntu/Dokument/GitHub/STM32-Computer/Firmware/STM32-Computer-Firmware/CA7/optee-os-3.19.0-r2/optee-os-stm32mp-3.19.0-stm32mp-r2/ldelf/ta_elf.c:839
     cde:	bf48      	it	mi
     ce0:	f042 0204 	orrmi.w	r2, r2, #4
/home/lubuntu/Dokument/GitHub/STM32-Computer/Firmware/STM32-Computer-Firmware/CA7/optee-os-3.19.0-r2/optee-os-stm32mp-3.19.0-stm32mp-r2/ldelf/ta_elf.c:840
     ce4:	075b      	lsls	r3, r3, #29
     ce6:	d411      	bmi.n	d0c <populate_segments+0x208>
/home/lubuntu/Dokument/GitHub/STM32-Computer/Firmware/STM32-Computer-Firmware/CA7/optee-os-3.19.0-r2/optee-os-stm32mp-3.19.0-stm32mp-r2/ldelf/ta_elf.c:841
     ce8:	4b41      	ldr	r3, [pc, #260]	@ (df0 <populate_segments+0x2ec>)
     cea:	f240 3149 	movw	r1, #841	@ 0x349
     cee:	4841      	ldr	r0, [pc, #260]	@ (df4 <populate_segments+0x2f0>)
     cf0:	447b      	add	r3, pc
     cf2:	9300      	str	r3, [sp, #0]
     cf4:	2301      	movs	r3, #1
     cf6:	4478      	add	r0, pc
     cf8:	461a      	mov	r2, r3
     cfa:	f003 fbdd 	bl	44b8 <trace_printf>
     cfe:	482b      	ldr	r0, [pc, #172]	@ (dac <populate_segments+0x2a8>)
     d00:	e790      	b.n	c24 <populate_segments+0x120>
/home/lubuntu/Dokument/GitHub/STM32-Computer/Firmware/STM32-Computer-Firmware/CA7/optee-os-3.19.0-r2/optee-os-stm32mp-3.19.0-stm32mp-r2/ldelf/ta_elf.c:830
     d02:	4413      	add	r3, r2
     d04:	9309      	str	r3, [sp, #36]	@ 0x24
/home/lubuntu/Dokument/GitHub/STM32-Computer/Firmware/STM32-Computer-Firmware/CA7/optee-os-3.19.0-r2/optee-os-stm32mp-3.19.0-stm32mp-r2/ldelf/ta_elf.c:831
     d06:	2300      	movs	r3, #0
     d08:	9304      	str	r3, [sp, #16]
     d0a:	e7e1      	b.n	cd0 <populate_segments+0x1cc>
/home/lubuntu/Dokument/GitHub/STM32-Computer/Firmware/STM32-Computer-Firmware/CA7/optee-os-3.19.0-r2/optee-os-stm32mp-3.19.0-stm32mp-r2/ldelf/ta_elf.c:843
     d0c:	f012 0302 	ands.w	r3, r2, #2
     d10:	9306      	str	r3, [sp, #24]
     d12:	ab09      	add	r3, sp, #36	@ 0x24
     d14:	9305      	str	r3, [sp, #20]
     d16:	d038      	beq.n	d8a <populate_segments+0x286>
/home/lubuntu/Dokument/GitHub/STM32-Computer/Firmware/STM32-Computer-Firmware/CA7/optee-os-3.19.0-r2/optee-os-stm32mp-3.19.0-stm32mp-r2/ldelf/ta_elf.c:844
     d18:	9b04      	ldr	r3, [sp, #16]
     d1a:	2100      	movs	r1, #0
     d1c:	9a05      	ldr	r2, [sp, #20]
     d1e:	4620      	mov	r0, r4
     d20:	9600      	str	r6, [sp, #0]
     d22:	f003 f96b 	bl	3ffc <sys_map_zi>
/home/lubuntu/Dokument/GitHub/STM32-Computer/Firmware/STM32-Computer-Firmware/CA7/optee-os-3.19.0-r2/optee-os-stm32mp-3.19.0-stm32mp-r2/ldelf/ta_elf.c:846
     d26:	9b04      	ldr	r3, [sp, #16]
/home/lubuntu/Dokument/GitHub/STM32-Computer/Firmware/STM32-Computer-Firmware/CA7/optee-os-3.19.0-r2/optee-os-stm32mp-3.19.0-stm32mp-r2/ldelf/ta_elf.c:844
     d28:	4682      	mov	sl, r0
/home/lubuntu/Dokument/GitHub/STM32-Computer/Firmware/STM32-Computer-Firmware/CA7/optee-os-3.19.0-r2/optee-os-stm32mp-3.19.0-stm32mp-r2/ldelf/ta_elf.c:846
     d2a:	b153      	cbz	r3, d42 <populate_segments+0x23e>
/home/lubuntu/Dokument/GitHub/STM32-Computer/Firmware/STM32-Computer-Firmware/CA7/optee-os-3.19.0-r2/optee-os-stm32mp-3.19.0-stm32mp-r2/ldelf/ta_elf.c:846 (discriminator 1)
     d2c:	4b20      	ldr	r3, [pc, #128]	@ (db0 <populate_segments+0x2ac>)
     d2e:	4298      	cmp	r0, r3
     d30:	d107      	bne.n	d42 <populate_segments+0x23e>
/home/lubuntu/Dokument/GitHub/STM32-Computer/Firmware/STM32-Computer-Firmware/CA7/optee-os-3.19.0-r2/optee-os-stm32mp-3.19.0-stm32mp-r2/ldelf/ta_elf.c:847
     d32:	9a05      	ldr	r2, [sp, #20]
     d34:	2300      	movs	r3, #0
     d36:	9600      	str	r6, [sp, #0]
     d38:	4619      	mov	r1, r3
     d3a:	4620      	mov	r0, r4
     d3c:	f003 f95e 	bl	3ffc <sys_map_zi>
     d40:	4682      	mov	sl, r0
/home/lubuntu/Dokument/GitHub/STM32-Computer/Firmware/STM32-Computer-Firmware/CA7/optee-os-3.19.0-r2/optee-os-stm32mp-3.19.0-stm32mp-r2/ldelf/ta_elf.c:849
     d42:	f1ba 0f00 	cmp.w	sl, #0
     d46:	d00c      	beq.n	d62 <populate_segments+0x25e>
/home/lubuntu/Dokument/GitHub/STM32-Computer/Firmware/STM32-Computer-Firmware/CA7/optee-os-3.19.0-r2/optee-os-stm32mp-3.19.0-stm32mp-r2/ldelf/ta_elf.c:850
     d48:	4b2b      	ldr	r3, [pc, #172]	@ (df8 <populate_segments+0x2f4>)
     d4a:	f240 3152 	movw	r1, #850	@ 0x352
     d4e:	482b      	ldr	r0, [pc, #172]	@ (dfc <populate_segments+0x2f8>)
     d50:	447b      	add	r3, pc
     d52:	9300      	str	r3, [sp, #0]
     d54:	2301      	movs	r3, #1
     d56:	4478      	add	r0, pc
     d58:	461a      	mov	r2, r3
/home/lubuntu/Dokument/GitHub/STM32-Computer/Firmware/STM32-Computer-Firmware/CA7/optee-os-3.19.0-r2/optee-os-stm32mp-3.19.0-stm32mp-r2/ldelf/ta_elf.c:868
     d5a:	f003 fbad 	bl	44b8 <trace_printf>
     d5e:	4650      	mov	r0, sl
     d60:	e760      	b.n	c24 <populate_segments+0x120>
/home/lubuntu/Dokument/GitHub/STM32-Computer/Firmware/STM32-Computer-Firmware/CA7/optee-os-3.19.0-r2/optee-os-stm32mp-3.19.0-stm32mp-r2/ldelf/ta_elf.c:851
     d62:	f8d5 2084 	ldr.w	r2, [r5, #132]	@ 0x84
     d66:	465b      	mov	r3, fp
     d68:	9809      	ldr	r0, [sp, #36]	@ 0x24
     d6a:	4649      	mov	r1, r9
     d6c:	f003 f963 	bl	4036 <sys_copy_from_ta_bin>
/home/lubuntu/Dokument/GitHub/STM32-Computer/Firmware/STM32-Computer-Firmware/CA7/optee-os-3.19.0-r2/optee-os-stm32mp-3.19.0-stm32mp-r2/ldelf/ta_elf.c:853
     d70:	4606      	mov	r6, r0
     d72:	2800      	cmp	r0, #0
     d74:	d078      	beq.n	e68 <populate_segments+0x364>
/home/lubuntu/Dokument/GitHub/STM32-Computer/Firmware/STM32-Computer-Firmware/CA7/optee-os-3.19.0-r2/optee-os-stm32mp-3.19.0-stm32mp-r2/ldelf/ta_elf.c:854
     d76:	4b22      	ldr	r3, [pc, #136]	@ (e00 <populate_segments+0x2fc>)
     d78:	f240 3156 	movw	r1, #854	@ 0x356
     d7c:	4821      	ldr	r0, [pc, #132]	@ (e04 <populate_segments+0x300>)
     d7e:	447b      	add	r3, pc
     d80:	9300      	str	r3, [sp, #0]
     d82:	2301      	movs	r3, #1
     d84:	4478      	add	r0, pc
     d86:	461a      	mov	r2, r3
     d88:	e715      	b.n	bb6 <populate_segments+0xb2>
/home/lubuntu/Dokument/GitHub/STM32-Computer/Firmware/STM32-Computer-Firmware/CA7/optee-os-3.19.0-r2/optee-os-stm32mp-3.19.0-stm32mp-r2/ldelf/ta_elf.c:856
     d8a:	45a1      	cmp	r9, r4
     d8c:	d040      	beq.n	e10 <populate_segments+0x30c>
/home/lubuntu/Dokument/GitHub/STM32-Computer/Firmware/STM32-Computer-Firmware/CA7/optee-os-3.19.0-r2/optee-os-stm32mp-3.19.0-stm32mp-r2/ldelf/ta_elf.c:857
     d8e:	4b1e      	ldr	r3, [pc, #120]	@ (e08 <populate_segments+0x304>)
     d90:	f240 3159 	movw	r1, #857	@ 0x359
     d94:	481d      	ldr	r0, [pc, #116]	@ (e0c <populate_segments+0x308>)
     d96:	447b      	add	r3, pc
     d98:	9300      	str	r3, [sp, #0]
     d9a:	2301      	movs	r3, #1
     d9c:	4478      	add	r0, pc
     d9e:	461a      	mov	r2, r3
     da0:	f003 fb8a 	bl	44b8 <trace_printf>
     da4:	4803      	ldr	r0, [pc, #12]	@ (db4 <populate_segments+0x2b0>)
     da6:	e73d      	b.n	c24 <populate_segments+0x120>
     da8:	fffff000 	.word	0xfffff000
     dac:	ffff000a 	.word	0xffff000a
     db0:	ffff000c 	.word	0xffff000c
     db4:	ffff0005 	.word	0xffff0005
     db8:	00004579 	.word	0x00004579
     dbc:	00003d9f 	.word	0x00003d9f
     dc0:	00004525 	.word	0x00004525
     dc4:	00003d5b 	.word	0x00003d5b
     dc8:	00004509 	.word	0x00004509
     dcc:	00003d4e 	.word	0x00003d4e
     dd0:	00003d44 	.word	0x00003d44
     dd4:	000044e3 	.word	0x000044e3
     dd8:	00003c94 	.word	0x00003c94
     ddc:	0000446a 	.word	0x0000446a
     de0:	00004419 	.word	0x00004419
     de4:	00003c7d 	.word	0x00003c7d
     de8:	00003c56 	.word	0x00003c56
     dec:	000043f5 	.word	0x000043f5
     df0:	00003c15 	.word	0x00003c15
     df4:	0000439f 	.word	0x0000439f
     df8:	00003ba0 	.word	0x00003ba0
     dfc:	0000433f 	.word	0x0000433f
     e00:	00003b2a 	.word	0x00003b2a
     e04:	00004311 	.word	0x00004311
     e08:	00003b88 	.word	0x00003b88
     e0c:	000042f9 	.word	0x000042f9
/home/lubuntu/Dokument/GitHub/STM32-Computer/Firmware/STM32-Computer-Firmware/CA7/optee-os-3.19.0-r2/optee-os-stm32mp-3.19.0-stm32mp-r2/ldelf/ta_elf.c:859
     e10:	9b04      	ldr	r3, [sp, #16]
     e12:	4649      	mov	r1, r9
     e14:	9602      	str	r6, [sp, #8]
     e16:	9301      	str	r3, [sp, #4]
     e18:	f8cd b000 	str.w	fp, [sp]
     e1c:	9805      	ldr	r0, [sp, #20]
     e1e:	f8d5 3084 	ldr.w	r3, [r5, #132]	@ 0x84
     e22:	9207      	str	r2, [sp, #28]
     e24:	f003 f8fc 	bl	4020 <sys_map_ta_bin>
/home/lubuntu/Dokument/GitHub/STM32-Computer/Firmware/STM32-Computer-Firmware/CA7/optee-os-3.19.0-r2/optee-os-stm32mp-3.19.0-stm32mp-r2/ldelf/ta_elf.c:862
     e28:	9b04      	ldr	r3, [sp, #16]
/home/lubuntu/Dokument/GitHub/STM32-Computer/Firmware/STM32-Computer-Firmware/CA7/optee-os-3.19.0-r2/optee-os-stm32mp-3.19.0-stm32mp-r2/ldelf/ta_elf.c:859
     e2a:	4682      	mov	sl, r0
/home/lubuntu/Dokument/GitHub/STM32-Computer/Firmware/STM32-Computer-Firmware/CA7/optee-os-3.19.0-r2/optee-os-stm32mp-3.19.0-stm32mp-r2/ldelf/ta_elf.c:862
     e2c:	b17b      	cbz	r3, e4e <populate_segments+0x34a>
/home/lubuntu/Dokument/GitHub/STM32-Computer/Firmware/STM32-Computer-Firmware/CA7/optee-os-3.19.0-r2/optee-os-stm32mp-3.19.0-stm32mp-r2/ldelf/ta_elf.c:862 (discriminator 1)
     e2e:	4b15      	ldr	r3, [pc, #84]	@ (e84 <populate_segments+0x380>)
     e30:	9a07      	ldr	r2, [sp, #28]
     e32:	4298      	cmp	r0, r3
     e34:	d10b      	bne.n	e4e <populate_segments+0x34a>
/home/lubuntu/Dokument/GitHub/STM32-Computer/Firmware/STM32-Computer-Firmware/CA7/optee-os-3.19.0-r2/optee-os-stm32mp-3.19.0-stm32mp-r2/ldelf/ta_elf.c:863
     e36:	9b06      	ldr	r3, [sp, #24]
     e38:	4649      	mov	r1, r9
     e3a:	9602      	str	r6, [sp, #8]
     e3c:	9301      	str	r3, [sp, #4]
     e3e:	f8cd b000 	str.w	fp, [sp]
     e42:	9805      	ldr	r0, [sp, #20]
     e44:	f8d5 3084 	ldr.w	r3, [r5, #132]	@ 0x84
     e48:	f003 f8ea 	bl	4020 <sys_map_ta_bin>
     e4c:	4682      	mov	sl, r0
/home/lubuntu/Dokument/GitHub/STM32-Computer/Firmware/STM32-Computer-Firmware/CA7/optee-os-3.19.0-r2/optee-os-stm32mp-3.19.0-stm32mp-r2/ldelf/ta_elf.c:867
     e4e:	f1ba 0f00 	cmp.w	sl, #0
     e52:	d009      	beq.n	e68 <populate_segments+0x364>
/home/lubuntu/Dokument/GitHub/STM32-Computer/Firmware/STM32-Computer-Firmware/CA7/optee-os-3.19.0-r2/optee-os-stm32mp-3.19.0-stm32mp-r2/ldelf/ta_elf.c:868
     e54:	4b0c      	ldr	r3, [pc, #48]	@ (e88 <populate_segments+0x384>)
     e56:	f44f 7159 	mov.w	r1, #868	@ 0x364
     e5a:	480c      	ldr	r0, [pc, #48]	@ (e8c <populate_segments+0x388>)
     e5c:	447b      	add	r3, pc
     e5e:	9300      	str	r3, [sp, #0]
     e60:	2301      	movs	r3, #1
     e62:	4478      	add	r0, pc
     e64:	461a      	mov	r2, r3
     e66:	e778      	b.n	d5a <populate_segments+0x256>
/home/lubuntu/Dokument/GitHub/STM32-Computer/Firmware/STM32-Computer-Firmware/CA7/optee-os-3.19.0-r2/optee-os-stm32mp-3.19.0-stm32mp-r2/ldelf/ta_elf.c:871
     e68:	686a      	ldr	r2, [r5, #4]
/home/lubuntu/Dokument/GitHub/STM32-Computer/Firmware/STM32-Computer-Firmware/CA7/optee-os-3.19.0-r2/optee-os-stm32mp-3.19.0-stm32mp-r2/ldelf/ta_elf.c:872
     e6a:	9b09      	ldr	r3, [sp, #36]	@ 0x24
/home/lubuntu/Dokument/GitHub/STM32-Computer/Firmware/STM32-Computer-Firmware/CA7/optee-os-3.19.0-r2/optee-os-stm32mp-3.19.0-stm32mp-r2/ldelf/ta_elf.c:871
     e6c:	b902      	cbnz	r2, e70 <populate_segments+0x36c>
/home/lubuntu/Dokument/GitHub/STM32-Computer/Firmware/STM32-Computer-Firmware/CA7/optee-os-3.19.0-r2/optee-os-stm32mp-3.19.0-stm32mp-r2/ldelf/ta_elf.c:872
     e6e:	606b      	str	r3, [r5, #4]
roundup():
/home/lubuntu/Dokument/GitHub/STM32-Computer/Firmware/STM32-Computer-Firmware/CA7/optee-os-3.19.0-r2/optee-os-stm32mp-3.19.0-stm32mp-r2/ldelf/ta_elf.c:492
     e70:	f603 73ff 	addw	r3, r3, #4095	@ 0xfff
     e74:	4423      	add	r3, r4
     e76:	ea03 0308 	and.w	r3, r3, r8
populate_segments():
/home/lubuntu/Dokument/GitHub/STM32-Computer/Firmware/STM32-Computer-Firmware/CA7/optee-os-3.19.0-r2/optee-os-stm32mp-3.19.0-stm32mp-r2/ldelf/ta_elf.c:873
     e7a:	60ab      	str	r3, [r5, #8]
/home/lubuntu/Dokument/GitHub/STM32-Computer/Firmware/STM32-Computer-Firmware/CA7/optee-os-3.19.0-r2/optee-os-stm32mp-3.19.0-stm32mp-r2/ldelf/ta_elf.c:874
     e7c:	68eb      	ldr	r3, [r5, #12]
     e7e:	444b      	add	r3, r9
     e80:	60eb      	str	r3, [r5, #12]
     e82:	e6d7      	b.n	c34 <populate_segments+0x130>
     e84:	ffff000c 	.word	0xffff000c
     e88:	000038ef 	.word	0x000038ef
     e8c:	00004233 	.word	0x00004233

00000e90 <map_segments>:
map_segments():
/home/lubuntu/Dokument/GitHub/STM32-Computer/Firmware/STM32-Computer-Firmware/CA7/optee-os-3.19.0-r2/optee-os-stm32mp-3.19.0-stm32mp-r2/ldelf/ta_elf.c:960
     e90:	e92d 47f0 	stmdb	sp!, {r4, r5, r6, r7, r8, r9, sl, lr}
     e94:	4604      	mov	r4, r0
parse_load_segments():
/home/lubuntu/Dokument/GitHub/STM32-Computer/Firmware/STM32-Computer-Firmware/CA7/optee-os-3.19.0-r2/optee-os-stm32mp-3.19.0-stm32mp-r2/ldelf/ta_elf.c:525
     e96:	7846      	ldrb	r6, [r0, #1]
map_segments():
/home/lubuntu/Dokument/GitHub/STM32-Computer/Firmware/STM32-Computer-Firmware/CA7/optee-os-3.19.0-r2/optee-os-stm32mp-3.19.0-stm32mp-r2/ldelf/ta_elf.c:960
     e98:	b086      	sub	sp, #24
parse_load_segments():
/home/lubuntu/Dokument/GitHub/STM32-Computer/Firmware/STM32-Computer-Firmware/CA7/optee-os-3.19.0-r2/optee-os-stm32mp-3.19.0-stm32mp-r2/ldelf/ta_elf.c:526
     e9a:	6b05      	ldr	r5, [r0, #48]	@ 0x30
/home/lubuntu/Dokument/GitHub/STM32-Computer/Firmware/STM32-Computer-Firmware/CA7/optee-os-3.19.0-r2/optee-os-stm32mp-3.19.0-stm32mp-r2/ldelf/ta_elf.c:525
     e9c:	2e00      	cmp	r6, #0
     e9e:	d06f      	beq.n	f80 <map_segments+0xf0>
/home/lubuntu/Dokument/GitHub/STM32-Computer/Firmware/STM32-Computer-Firmware/CA7/optee-os-3.19.0-r2/optee-os-stm32mp-3.19.0-stm32mp-r2/ldelf/ta_elf.c:534
     ea0:	4f99      	ldr	r7, [pc, #612]	@ (1108 <map_segments+0x278>)
/home/lubuntu/Dokument/GitHub/STM32-Computer/Firmware/STM32-Computer-Firmware/CA7/optee-os-3.19.0-r2/optee-os-stm32mp-3.19.0-stm32mp-r2/ldelf/ta_elf.c:528
     ea2:	2600      	movs	r6, #0
     ea4:	6a23      	ldr	r3, [r4, #32]
     ea6:	429e      	cmp	r6, r3
     ea8:	d32a      	bcc.n	f00 <map_segments+0x70>
adjust_segments():
/home/lubuntu/Dokument/GitHub/STM32-Computer/Firmware/STM32-Computer-Firmware/CA7/optee-os-3.19.0-r2/optee-os-stm32mp-3.19.0-stm32mp-r2/ldelf/ta_elf.c:596
     eaa:	6da0      	ldr	r0, [r4, #88]	@ 0x58
/home/lubuntu/Dokument/GitHub/STM32-Computer/Firmware/STM32-Computer-Firmware/CA7/optee-os-3.19.0-r2/optee-os-stm32mp-3.19.0-stm32mp-r2/ldelf/ta_elf.c:592
     eac:	2600      	movs	r6, #0
/home/lubuntu/Dokument/GitHub/STM32-Computer/Firmware/STM32-Computer-Firmware/CA7/optee-os-3.19.0-r2/optee-os-stm32mp-3.19.0-stm32mp-r2/ldelf/ta_elf.c:596
     eae:	4601      	mov	r1, r0
     eb0:	2900      	cmp	r1, #0
     eb2:	d172      	bne.n	f9a <map_segments+0x10a>
/home/lubuntu/Dokument/GitHub/STM32-Computer/Firmware/STM32-Computer-Firmware/CA7/optee-os-3.19.0-r2/optee-os-stm32mp-3.19.0-stm32mp-r2/ldelf/ta_elf.c:619
     eb4:	b138      	cbz	r0, ec6 <map_segments+0x36>
/home/lubuntu/Dokument/GitHub/STM32-Computer/Firmware/STM32-Computer-Firmware/CA7/optee-os-3.19.0-r2/optee-os-stm32mp-3.19.0-stm32mp-r2/ldelf/ta_elf.c:620
     eb6:	69c0      	ldr	r0, [r0, #28]
/home/lubuntu/Dokument/GitHub/STM32-Computer/Firmware/STM32-Computer-Firmware/CA7/optee-os-3.19.0-r2/optee-os-stm32mp-3.19.0-stm32mp-r2/ldelf/ta_elf.c:616
     eb8:	3e01      	subs	r6, #1
rounddown():
/home/lubuntu/Dokument/GitHub/STM32-Computer/Firmware/STM32-Computer-Firmware/CA7/optee-os-3.19.0-r2/optee-os-stm32mp-3.19.0-stm32mp-r2/ldelf/ta_elf.c:497
     eba:	4f94      	ldr	r7, [pc, #592]	@ (110c <map_segments+0x27c>)
adjust_segments():
/home/lubuntu/Dokument/GitHub/STM32-Computer/Firmware/STM32-Computer-Firmware/CA7/optee-os-3.19.0-r2/optee-os-stm32mp-3.19.0-stm32mp-r2/ldelf/ta_elf.c:667
     ebc:	f04f 0801 	mov.w	r8, #1
/home/lubuntu/Dokument/GitHub/STM32-Computer/Firmware/STM32-Computer-Firmware/CA7/optee-os-3.19.0-r2/optee-os-stm32mp-3.19.0-stm32mp-r2/ldelf/ta_elf.c:621
     ec0:	2800      	cmp	r0, #0
     ec2:	f040 80c3 	bne.w	104c <map_segments+0x1bc>
map_segments():
/home/lubuntu/Dokument/GitHub/STM32-Computer/Firmware/STM32-Computer-Firmware/CA7/optee-os-3.19.0-r2/optee-os-stm32mp-3.19.0-stm32mp-r2/ldelf/ta_elf.c:965
     ec6:	6da3      	ldr	r3, [r4, #88]	@ 0x58
     ec8:	681b      	ldr	r3, [r3, #0]
     eca:	f5b3 5f80 	cmp.w	r3, #4096	@ 0x1000
     ece:	f080 8193 	bcs.w	11f8 <map_segments+0x368>
/home/lubuntu/Dokument/GitHub/STM32-Computer/Firmware/STM32-Computer-Firmware/CA7/optee-os-3.19.0-r2/optee-os-stm32mp-3.19.0-stm32mp-r2/ldelf/ta_elf.c:967
     ed2:	68a5      	ldr	r5, [r4, #8]
/home/lubuntu/Dokument/GitHub/STM32-Computer/Firmware/STM32-Computer-Firmware/CA7/optee-os-3.19.0-r2/optee-os-stm32mp-3.19.0-stm32mp-r2/ldelf/ta_elf.c:966
     ed4:	2300      	movs	r3, #0
     ed6:	9305      	str	r3, [sp, #20]
/home/lubuntu/Dokument/GitHub/STM32-Computer/Firmware/STM32-Computer-Firmware/CA7/optee-os-3.19.0-r2/optee-os-stm32mp-3.19.0-stm32mp-r2/ldelf/ta_elf.c:967
     ed8:	6863      	ldr	r3, [r4, #4]
     eda:	1aed      	subs	r5, r5, r3
/home/lubuntu/Dokument/GitHub/STM32-Computer/Firmware/STM32-Computer-Firmware/CA7/optee-os-3.19.0-r2/optee-os-stm32mp-3.19.0-stm32mp-r2/ldelf/ta_elf.c:968
     edc:	6de3      	ldr	r3, [r4, #92]	@ 0x5c
     ede:	685b      	ldr	r3, [r3, #4]
     ee0:	f8d3 9000 	ldr.w	r9, [r3]
/home/lubuntu/Dokument/GitHub/STM32-Computer/Firmware/STM32-Computer-Firmware/CA7/optee-os-3.19.0-r2/optee-os-stm32mp-3.19.0-stm32mp-r2/ldelf/ta_elf.c:969
     ee4:	f7ff fbc0 	bl	668 <get_pad_begin>
/home/lubuntu/Dokument/GitHub/STM32-Computer/Firmware/STM32-Computer-Firmware/CA7/optee-os-3.19.0-r2/optee-os-stm32mp-3.19.0-stm32mp-r2/ldelf/ta_elf.c:975
     ee8:	7826      	ldrb	r6, [r4, #0]
/home/lubuntu/Dokument/GitHub/STM32-Computer/Firmware/STM32-Computer-Firmware/CA7/optee-os-3.19.0-r2/optee-os-stm32mp-3.19.0-stm32mp-r2/ldelf/ta_elf.c:969
     eea:	4603      	mov	r3, r0
/home/lubuntu/Dokument/GitHub/STM32-Computer/Firmware/STM32-Computer-Firmware/CA7/optee-os-3.19.0-r2/optee-os-stm32mp-3.19.0-stm32mp-r2/ldelf/ta_elf.c:975
     eec:	2e00      	cmp	r6, #0
     eee:	f000 8143 	beq.w	1178 <map_segments+0x2e8>
     ef2:	4a87      	ldr	r2, [pc, #540]	@ (1110 <map_segments+0x280>)
     ef4:	f240 31cf 	movw	r1, #975	@ 0x3cf
     ef8:	4886      	ldr	r0, [pc, #536]	@ (1114 <map_segments+0x284>)
     efa:	447a      	add	r2, pc
     efc:	4478      	add	r0, pc
     efe:	e026      	b.n	f4e <map_segments+0xbe>
parse_load_segments():
/home/lubuntu/Dokument/GitHub/STM32-Computer/Firmware/STM32-Computer-Firmware/CA7/optee-os-3.19.0-r2/optee-os-stm32mp-3.19.0-stm32mp-r2/ldelf/ta_elf.c:529
     f00:	682b      	ldr	r3, [r5, #0]
     f02:	2b01      	cmp	r3, #1
     f04:	d10e      	bne.n	f24 <map_segments+0x94>
/home/lubuntu/Dokument/GitHub/STM32-Computer/Firmware/STM32-Computer-Firmware/CA7/optee-os-3.19.0-r2/optee-os-stm32mp-3.19.0-stm32mp-r2/ldelf/ta_elf.c:530
     f06:	69eb      	ldr	r3, [r5, #28]
     f08:	4620      	mov	r0, r4
     f0a:	9302      	str	r3, [sp, #8]
     f0c:	69ab      	ldr	r3, [r5, #24]
     f0e:	9301      	str	r3, [sp, #4]
     f10:	696b      	ldr	r3, [r5, #20]
     f12:	9300      	str	r3, [sp, #0]
     f14:	692b      	ldr	r3, [r5, #16]
     f16:	68aa      	ldr	r2, [r5, #8]
     f18:	6869      	ldr	r1, [r5, #4]
     f1a:	f7ff fb5d 	bl	5d8 <add_segment>
/home/lubuntu/Dokument/GitHub/STM32-Computer/Firmware/STM32-Computer-Firmware/CA7/optee-os-3.19.0-r2/optee-os-stm32mp-3.19.0-stm32mp-r2/ldelf/ta_elf.c:528
     f1e:	3601      	adds	r6, #1
     f20:	3520      	adds	r5, #32
     f22:	e7bf      	b.n	ea4 <map_segments+0x14>
/home/lubuntu/Dokument/GitHub/STM32-Computer/Firmware/STM32-Computer-Firmware/CA7/optee-os-3.19.0-r2/optee-os-stm32mp-3.19.0-stm32mp-r2/ldelf/ta_elf.c:534
     f24:	42bb      	cmp	r3, r7
     f26:	d104      	bne.n	f32 <map_segments+0xa2>
/home/lubuntu/Dokument/GitHub/STM32-Computer/Firmware/STM32-Computer-Firmware/CA7/optee-os-3.19.0-r2/optee-os-stm32mp-3.19.0-stm32mp-r2/ldelf/ta_elf.c:535
     f28:	68ab      	ldr	r3, [r5, #8]
     f2a:	6623      	str	r3, [r4, #96]	@ 0x60
/home/lubuntu/Dokument/GitHub/STM32-Computer/Firmware/STM32-Computer-Firmware/CA7/optee-os-3.19.0-r2/optee-os-stm32mp-3.19.0-stm32mp-r2/ldelf/ta_elf.c:536
     f2c:	692b      	ldr	r3, [r5, #16]
     f2e:	6663      	str	r3, [r4, #100]	@ 0x64
     f30:	e7f5      	b.n	f1e <map_segments+0x8e>
/home/lubuntu/Dokument/GitHub/STM32-Computer/Firmware/STM32-Computer-Firmware/CA7/optee-os-3.19.0-r2/optee-os-stm32mp-3.19.0-stm32mp-r2/ldelf/ta_elf.c:537
     f32:	2b07      	cmp	r3, #7
     f34:	d1f3      	bne.n	f1e <map_segments+0x8e>
assign_tls_mod_id():
/home/lubuntu/Dokument/GitHub/STM32-Computer/Firmware/STM32-Computer-Firmware/CA7/optee-os-3.19.0-r2/optee-os-stm32mp-3.19.0-stm32mp-r2/ldelf/ta_elf.c:58
     f36:	4b78      	ldr	r3, [pc, #480]	@ (1118 <map_segments+0x288>)
/home/lubuntu/Dokument/GitHub/STM32-Computer/Firmware/STM32-Computer-Firmware/CA7/optee-os-3.19.0-r2/optee-os-stm32mp-3.19.0-stm32mp-r2/ldelf/ta_elf.c:57
     f38:	7822      	ldrb	r2, [r4, #0]
/home/lubuntu/Dokument/GitHub/STM32-Computer/Firmware/STM32-Computer-Firmware/CA7/optee-os-3.19.0-r2/optee-os-stm32mp-3.19.0-stm32mp-r2/ldelf/ta_elf.c:58
     f3a:	447b      	add	r3, pc
     f3c:	681b      	ldr	r3, [r3, #0]
/home/lubuntu/Dokument/GitHub/STM32-Computer/Firmware/STM32-Computer-Firmware/CA7/optee-os-3.19.0-r2/optee-os-stm32mp-3.19.0-stm32mp-r2/ldelf/ta_elf.c:57
     f3e:	b142      	cbz	r2, f52 <map_segments+0xc2>
/home/lubuntu/Dokument/GitHub/STM32-Computer/Firmware/STM32-Computer-Firmware/CA7/optee-os-3.19.0-r2/optee-os-stm32mp-3.19.0-stm32mp-r2/ldelf/ta_elf.c:58
     f40:	2b01      	cmp	r3, #1
     f42:	d006      	beq.n	f52 <map_segments+0xc2>
     f44:	4a75      	ldr	r2, [pc, #468]	@ (111c <map_segments+0x28c>)
     f46:	213a      	movs	r1, #58	@ 0x3a
     f48:	4875      	ldr	r0, [pc, #468]	@ (1120 <map_segments+0x290>)
     f4a:	447a      	add	r2, pc
     f4c:	4478      	add	r0, pc
adjust_segments():
/home/lubuntu/Dokument/GitHub/STM32-Computer/Firmware/STM32-Computer-Firmware/CA7/optee-os-3.19.0-r2/optee-os-stm32mp-3.19.0-stm32mp-r2/ldelf/ta_elf.c:599
     f4e:	f7ff fce5 	bl	91c <_assert_trap.constprop.0>
assign_tls_mod_id():
/home/lubuntu/Dokument/GitHub/STM32-Computer/Firmware/STM32-Computer-Firmware/CA7/optee-os-3.19.0-r2/optee-os-stm32mp-3.19.0-stm32mp-r2/ldelf/ta_elf.c:59
     f52:	4a74      	ldr	r2, [pc, #464]	@ (1124 <map_segments+0x294>)
     f54:	1c59      	adds	r1, r3, #1
     f56:	66a3      	str	r3, [r4, #104]	@ 0x68
     f58:	447a      	add	r2, pc
     f5a:	6011      	str	r1, [r2, #0]
/home/lubuntu/Dokument/GitHub/STM32-Computer/Firmware/STM32-Computer-Firmware/CA7/optee-os-3.19.0-r2/optee-os-stm32mp-3.19.0-stm32mp-r2/ldelf/ta_elf.c:60
     f5c:	e7df      	b.n	f1e <map_segments+0x8e>
parse_load_segments():
/home/lubuntu/Dokument/GitHub/STM32-Computer/Firmware/STM32-Computer-Firmware/CA7/optee-os-3.19.0-r2/optee-os-stm32mp-3.19.0-stm32mp-r2/ldelf/ta_elf.c:544
     f5e:	682b      	ldr	r3, [r5, #0]
     f60:	2b01      	cmp	r3, #1
     f62:	d111      	bne.n	f88 <map_segments+0xf8>
/home/lubuntu/Dokument/GitHub/STM32-Computer/Firmware/STM32-Computer-Firmware/CA7/optee-os-3.19.0-r2/optee-os-stm32mp-3.19.0-stm32mp-r2/ldelf/ta_elf.c:545
     f64:	6b2b      	ldr	r3, [r5, #48]	@ 0x30
     f66:	4620      	mov	r0, r4
     f68:	9302      	str	r3, [sp, #8]
     f6a:	686b      	ldr	r3, [r5, #4]
     f6c:	9301      	str	r3, [sp, #4]
     f6e:	6aab      	ldr	r3, [r5, #40]	@ 0x28
     f70:	9300      	str	r3, [sp, #0]
     f72:	6a2b      	ldr	r3, [r5, #32]
     f74:	692a      	ldr	r2, [r5, #16]
     f76:	68a9      	ldr	r1, [r5, #8]
     f78:	f7ff fb2e 	bl	5d8 <add_segment>
/home/lubuntu/Dokument/GitHub/STM32-Computer/Firmware/STM32-Computer-Firmware/CA7/optee-os-3.19.0-r2/optee-os-stm32mp-3.19.0-stm32mp-r2/ldelf/ta_elf.c:543
     f7c:	3601      	adds	r6, #1
     f7e:	3538      	adds	r5, #56	@ 0x38
     f80:	6a23      	ldr	r3, [r4, #32]
     f82:	429e      	cmp	r6, r3
     f84:	d3eb      	bcc.n	f5e <map_segments+0xce>
     f86:	e790      	b.n	eaa <map_segments+0x1a>
/home/lubuntu/Dokument/GitHub/STM32-Computer/Firmware/STM32-Computer-Firmware/CA7/optee-os-3.19.0-r2/optee-os-stm32mp-3.19.0-stm32mp-r2/ldelf/ta_elf.c:549
     f88:	2b07      	cmp	r3, #7
     f8a:	d1f7      	bne.n	f7c <map_segments+0xec>
/home/lubuntu/Dokument/GitHub/STM32-Computer/Firmware/STM32-Computer-Firmware/CA7/optee-os-3.19.0-r2/optee-os-stm32mp-3.19.0-stm32mp-r2/ldelf/ta_elf.c:550
     f8c:	692b      	ldr	r3, [r5, #16]
     f8e:	66e3      	str	r3, [r4, #108]	@ 0x6c
/home/lubuntu/Dokument/GitHub/STM32-Computer/Firmware/STM32-Computer-Firmware/CA7/optee-os-3.19.0-r2/optee-os-stm32mp-3.19.0-stm32mp-r2/ldelf/ta_elf.c:551
     f90:	6a2b      	ldr	r3, [r5, #32]
     f92:	6723      	str	r3, [r4, #112]	@ 0x70
/home/lubuntu/Dokument/GitHub/STM32-Computer/Firmware/STM32-Computer-Firmware/CA7/optee-os-3.19.0-r2/optee-os-stm32mp-3.19.0-stm32mp-r2/ldelf/ta_elf.c:552
     f94:	6aab      	ldr	r3, [r5, #40]	@ 0x28
     f96:	6763      	str	r3, [r4, #116]	@ 0x74
     f98:	e7f0      	b.n	f7c <map_segments+0xec>
adjust_segments():
/home/lubuntu/Dokument/GitHub/STM32-Computer/Firmware/STM32-Computer-Firmware/CA7/optee-os-3.19.0-r2/optee-os-stm32mp-3.19.0-stm32mp-r2/ldelf/ta_elf.c:599
     f9a:	694d      	ldr	r5, [r1, #20]
     f9c:	f5b5 5f80 	cmp.w	r5, #4096	@ 0x1000
     fa0:	d206      	bcs.n	fb0 <map_segments+0x120>
     fa2:	4a61      	ldr	r2, [pc, #388]	@ (1128 <map_segments+0x298>)
     fa4:	f240 2157 	movw	r1, #599	@ 0x257
     fa8:	4860      	ldr	r0, [pc, #384]	@ (112c <map_segments+0x29c>)
     faa:	447a      	add	r2, pc
     fac:	4478      	add	r0, pc
     fae:	e7ce      	b.n	f4e <map_segments+0xbe>
/home/lubuntu/Dokument/GitHub/STM32-Computer/Firmware/STM32-Computer-Firmware/CA7/optee-os-3.19.0-r2/optee-os-stm32mp-3.19.0-stm32mp-r2/ldelf/ta_elf.c:600
     fb0:	f8d1 e004 	ldr.w	lr, [r1, #4]
     fb4:	68cb      	ldr	r3, [r1, #12]
     fb6:	eb1e 0203 	adds.w	r2, lr, r3
     fba:	d209      	bcs.n	fd0 <map_segments+0x140>
/home/lubuntu/Dokument/GitHub/STM32-Computer/Firmware/STM32-Computer-Firmware/CA7/optee-os-3.19.0-r2/optee-os-stm32mp-3.19.0-stm32mp-r2/ldelf/ta_elf.c:601
     fbc:	688a      	ldr	r2, [r1, #8]
     fbe:	4293      	cmp	r3, r2
     fc0:	d20d      	bcs.n	fde <map_segments+0x14e>
     fc2:	4a5b      	ldr	r2, [pc, #364]	@ (1130 <map_segments+0x2a0>)
     fc4:	f240 2159 	movw	r1, #601	@ 0x259
     fc8:	485a      	ldr	r0, [pc, #360]	@ (1134 <map_segments+0x2a4>)
     fca:	447a      	add	r2, pc
     fcc:	4478      	add	r0, pc
     fce:	e7be      	b.n	f4e <map_segments+0xbe>
/home/lubuntu/Dokument/GitHub/STM32-Computer/Firmware/STM32-Computer-Firmware/CA7/optee-os-3.19.0-r2/optee-os-stm32mp-3.19.0-stm32mp-r2/ldelf/ta_elf.c:600
     fd0:	4a59      	ldr	r2, [pc, #356]	@ (1138 <map_segments+0x2a8>)
     fd2:	f44f 7116 	mov.w	r1, #600	@ 0x258
     fd6:	4859      	ldr	r0, [pc, #356]	@ (113c <map_segments+0x2ac>)
     fd8:	447a      	add	r2, pc
     fda:	4478      	add	r0, pc
     fdc:	e7b7      	b.n	f4e <map_segments+0xbe>
/home/lubuntu/Dokument/GitHub/STM32-Computer/Firmware/STM32-Computer-Firmware/CA7/optee-os-3.19.0-r2/optee-os-stm32mp-3.19.0-stm32mp-r2/ldelf/ta_elf.c:602
     fde:	680f      	ldr	r7, [r1, #0]
     fe0:	ea8e 0307 	eor.w	r3, lr, r7
     fe4:	f3c3 030b 	ubfx	r3, r3, #0, #12
     fe8:	b133      	cbz	r3, ff8 <map_segments+0x168>
     fea:	4a55      	ldr	r2, [pc, #340]	@ (1140 <map_segments+0x2b0>)
     fec:	f240 215a 	movw	r1, #602	@ 0x25a
     ff0:	4854      	ldr	r0, [pc, #336]	@ (1144 <map_segments+0x2b4>)
     ff2:	447a      	add	r2, pc
     ff4:	4478      	add	r0, pc
     ff6:	e7aa      	b.n	f4e <map_segments+0xbe>
/home/lubuntu/Dokument/GitHub/STM32-Computer/Firmware/STM32-Computer-Firmware/CA7/optee-os-3.19.0-r2/optee-os-stm32mp-3.19.0-stm32mp-r2/ldelf/ta_elf.c:605
     ff8:	6a0b      	ldr	r3, [r1, #32]
     ffa:	685b      	ldr	r3, [r3, #4]
     ffc:	681b      	ldr	r3, [r3, #0]
/home/lubuntu/Dokument/GitHub/STM32-Computer/Firmware/STM32-Computer-Firmware/CA7/optee-os-3.19.0-r2/optee-os-stm32mp-3.19.0-stm32mp-r2/ldelf/ta_elf.c:606
     ffe:	b1c3      	cbz	r3, 1032 <map_segments+0x1a2>
/home/lubuntu/Dokument/GitHub/STM32-Computer/Firmware/STM32-Computer-Firmware/CA7/optee-os-3.19.0-r2/optee-os-stm32mp-3.19.0-stm32mp-r2/ldelf/ta_elf.c:607
    1000:	685a      	ldr	r2, [r3, #4]
    1002:	f8d3 c00c 	ldr.w	ip, [r3, #12]
    1006:	4462      	add	r2, ip
    1008:	4596      	cmp	lr, r2
    100a:	d206      	bcs.n	101a <map_segments+0x18a>
    100c:	4a4e      	ldr	r2, [pc, #312]	@ (1148 <map_segments+0x2b8>)
    100e:	f240 215f 	movw	r1, #607	@ 0x25f
    1012:	484e      	ldr	r0, [pc, #312]	@ (114c <map_segments+0x2bc>)
    1014:	447a      	add	r2, pc
    1016:	4478      	add	r0, pc
    1018:	e799      	b.n	f4e <map_segments+0xbe>
/home/lubuntu/Dokument/GitHub/STM32-Computer/Firmware/STM32-Computer-Firmware/CA7/optee-os-3.19.0-r2/optee-os-stm32mp-3.19.0-stm32mp-r2/ldelf/ta_elf.c:608
    101a:	681a      	ldr	r2, [r3, #0]
    101c:	689b      	ldr	r3, [r3, #8]
    101e:	4413      	add	r3, r2
    1020:	429f      	cmp	r7, r3
    1022:	d206      	bcs.n	1032 <map_segments+0x1a2>
    1024:	4a4a      	ldr	r2, [pc, #296]	@ (1150 <map_segments+0x2c0>)
    1026:	f44f 7118 	mov.w	r1, #608	@ 0x260
    102a:	484a      	ldr	r0, [pc, #296]	@ (1154 <map_segments+0x2c4>)
    102c:	447a      	add	r2, pc
    102e:	4478      	add	r0, pc
    1030:	e78d      	b.n	f4e <map_segments+0xbe>
/home/lubuntu/Dokument/GitHub/STM32-Computer/Firmware/STM32-Computer-Firmware/CA7/optee-os-3.19.0-r2/optee-os-stm32mp-3.19.0-stm32mp-r2/ldelf/ta_elf.c:611
    1032:	b146      	cbz	r6, 1046 <map_segments+0x1b6>
/home/lubuntu/Dokument/GitHub/STM32-Computer/Firmware/STM32-Computer-Firmware/CA7/optee-os-3.19.0-r2/optee-os-stm32mp-3.19.0-stm32mp-r2/ldelf/ta_elf.c:613
    1034:	42b5      	cmp	r5, r6
    1036:	d007      	beq.n	1048 <map_segments+0x1b8>
    1038:	4a47      	ldr	r2, [pc, #284]	@ (1158 <map_segments+0x2c8>)
    103a:	f240 2165 	movw	r1, #613	@ 0x265
    103e:	4847      	ldr	r0, [pc, #284]	@ (115c <map_segments+0x2cc>)
    1040:	447a      	add	r2, pc
    1042:	4478      	add	r0, pc
    1044:	e783      	b.n	f4e <map_segments+0xbe>
    1046:	462e      	mov	r6, r5
/home/lubuntu/Dokument/GitHub/STM32-Computer/Firmware/STM32-Computer-Firmware/CA7/optee-os-3.19.0-r2/optee-os-stm32mp-3.19.0-stm32mp-r2/ldelf/ta_elf.c:596
    1048:	69c9      	ldr	r1, [r1, #28]
    104a:	e731      	b.n	eb0 <map_segments+0x20>
/home/lubuntu/Dokument/GitHub/STM32-Computer/Firmware/STM32-Computer-Firmware/CA7/optee-os-3.19.0-r2/optee-os-stm32mp-3.19.0-stm32mp-r2/ldelf/ta_elf.c:622
    104c:	6a01      	ldr	r1, [r0, #32]
/home/lubuntu/Dokument/GitHub/STM32-Computer/Firmware/STM32-Computer-Firmware/CA7/optee-os-3.19.0-r2/optee-os-stm32mp-3.19.0-stm32mp-r2/ldelf/ta_elf.c:641
    104e:	6802      	ldr	r2, [r0, #0]
/home/lubuntu/Dokument/GitHub/STM32-Computer/Firmware/STM32-Computer-Firmware/CA7/optee-os-3.19.0-r2/optee-os-stm32mp-3.19.0-stm32mp-r2/ldelf/ta_elf.c:622
    1050:	684b      	ldr	r3, [r1, #4]
    1052:	681d      	ldr	r5, [r3, #0]
/home/lubuntu/Dokument/GitHub/STM32-Computer/Firmware/STM32-Computer-Firmware/CA7/optee-os-3.19.0-r2/optee-os-stm32mp-3.19.0-stm32mp-r2/ldelf/ta_elf.c:640
    1054:	6843      	ldr	r3, [r0, #4]
/home/lubuntu/Dokument/GitHub/STM32-Computer/Firmware/STM32-Computer-Firmware/CA7/optee-os-3.19.0-r2/optee-os-stm32mp-3.19.0-stm32mp-r2/ldelf/ta_elf.c:623
    1056:	f8d5 c004 	ldr.w	ip, [r5, #4]
    105a:	f8d5 900c 	ldr.w	r9, [r5, #12]
rounddown():
/home/lubuntu/Dokument/GitHub/STM32-Computer/Firmware/STM32-Computer-Firmware/CA7/optee-os-3.19.0-r2/optee-os-stm32mp-3.19.0-stm32mp-r2/ldelf/ta_elf.c:497
    105e:	ea03 0e07 	and.w	lr, r3, r7
adjust_segments():
/home/lubuntu/Dokument/GitHub/STM32-Computer/Firmware/STM32-Computer-Firmware/CA7/optee-os-3.19.0-r2/optee-os-stm32mp-3.19.0-stm32mp-r2/ldelf/ta_elf.c:623
    1062:	eb0c 0a09 	add.w	sl, ip, r9
/home/lubuntu/Dokument/GitHub/STM32-Computer/Firmware/STM32-Computer-Firmware/CA7/optee-os-3.19.0-r2/optee-os-stm32mp-3.19.0-stm32mp-r2/ldelf/ta_elf.c:640
    1066:	45f2      	cmp	sl, lr
    1068:	d92c      	bls.n	10c4 <map_segments+0x234>
/home/lubuntu/Dokument/GitHub/STM32-Computer/Firmware/STM32-Computer-Firmware/CA7/optee-os-3.19.0-r2/optee-os-stm32mp-3.19.0-stm32mp-r2/ldelf/ta_elf.c:641
    106a:	405a      	eors	r2, r3
    106c:	4232      	tst	r2, r6
    106e:	d006      	beq.n	107e <map_segments+0x1ee>
    1070:	4a3b      	ldr	r2, [pc, #236]	@ (1160 <map_segments+0x2d0>)
    1072:	f240 2181 	movw	r1, #641	@ 0x281
    1076:	483b      	ldr	r0, [pc, #236]	@ (1164 <map_segments+0x2d4>)
    1078:	447a      	add	r2, pc
    107a:	4478      	add	r0, pc
    107c:	e767      	b.n	f4e <map_segments+0xbe>
/home/lubuntu/Dokument/GitHub/STM32-Computer/Firmware/STM32-Computer-Firmware/CA7/optee-os-3.19.0-r2/optee-os-stm32mp-3.19.0-stm32mp-r2/ldelf/ta_elf.c:642
    107e:	68aa      	ldr	r2, [r5, #8]
    1080:	4591      	cmp	r9, r2
    1082:	d006      	beq.n	1092 <map_segments+0x202>
    1084:	4a38      	ldr	r2, [pc, #224]	@ (1168 <map_segments+0x2d8>)
    1086:	f240 2182 	movw	r1, #642	@ 0x282
    108a:	4838      	ldr	r0, [pc, #224]	@ (116c <map_segments+0x2dc>)
    108c:	447a      	add	r2, pc
    108e:	4478      	add	r0, pc
    1090:	e75d      	b.n	f4e <map_segments+0xbe>
/home/lubuntu/Dokument/GitHub/STM32-Computer/Firmware/STM32-Computer-Firmware/CA7/optee-os-3.19.0-r2/optee-os-stm32mp-3.19.0-stm32mp-r2/ldelf/ta_elf.c:649
    1092:	6882      	ldr	r2, [r0, #8]
    1094:	441a      	add	r2, r3
    1096:	eba2 020c 	sub.w	r2, r2, ip
    109a:	60aa      	str	r2, [r5, #8]
/home/lubuntu/Dokument/GitHub/STM32-Computer/Firmware/STM32-Computer-Firmware/CA7/optee-os-3.19.0-r2/optee-os-stm32mp-3.19.0-stm32mp-r2/ldelf/ta_elf.c:651
    109c:	68c2      	ldr	r2, [r0, #12]
    109e:	441a      	add	r2, r3
    10a0:	eba2 020c 	sub.w	r2, r2, ip
/home/lubuntu/Dokument/GitHub/STM32-Computer/Firmware/STM32-Computer-Firmware/CA7/optee-os-3.19.0-r2/optee-os-stm32mp-3.19.0-stm32mp-r2/ldelf/ta_elf.c:653
    10a4:	692b      	ldr	r3, [r5, #16]
/home/lubuntu/Dokument/GitHub/STM32-Computer/Firmware/STM32-Computer-Firmware/CA7/optee-os-3.19.0-r2/optee-os-stm32mp-3.19.0-stm32mp-r2/ldelf/ta_elf.c:651
    10a6:	60ea      	str	r2, [r5, #12]
/home/lubuntu/Dokument/GitHub/STM32-Computer/Firmware/STM32-Computer-Firmware/CA7/optee-os-3.19.0-r2/optee-os-stm32mp-3.19.0-stm32mp-r2/ldelf/ta_elf.c:653
    10a8:	6902      	ldr	r2, [r0, #16]
    10aa:	4313      	orrs	r3, r2
    10ac:	612b      	str	r3, [r5, #16]
/home/lubuntu/Dokument/GitHub/STM32-Computer/Firmware/STM32-Computer-Firmware/CA7/optee-os-3.19.0-r2/optee-os-stm32mp-3.19.0-stm32mp-r2/ldelf/ta_elf.c:655
    10ae:	69c3      	ldr	r3, [r0, #28]
    10b0:	b133      	cbz	r3, 10c0 <map_segments+0x230>
    10b2:	6219      	str	r1, [r3, #32]
    10b4:	6a02      	ldr	r2, [r0, #32]
    10b6:	6013      	str	r3, [r2, #0]
/home/lubuntu/Dokument/GitHub/STM32-Computer/Firmware/STM32-Computer-Firmware/CA7/optee-os-3.19.0-r2/optee-os-stm32mp-3.19.0-stm32mp-r2/ldelf/ta_elf.c:656
    10b8:	f002 fafc 	bl	36b4 <free>
/home/lubuntu/Dokument/GitHub/STM32-Computer/Firmware/STM32-Computer-Firmware/CA7/optee-os-3.19.0-r2/optee-os-stm32mp-3.19.0-stm32mp-r2/ldelf/ta_elf.c:657
    10bc:	69e8      	ldr	r0, [r5, #28]
/home/lubuntu/Dokument/GitHub/STM32-Computer/Firmware/STM32-Computer-Firmware/CA7/optee-os-3.19.0-r2/optee-os-stm32mp-3.19.0-stm32mp-r2/ldelf/ta_elf.c:658
    10be:	e6ff      	b.n	ec0 <map_segments+0x30>
/home/lubuntu/Dokument/GitHub/STM32-Computer/Firmware/STM32-Computer-Firmware/CA7/optee-os-3.19.0-r2/optee-os-stm32mp-3.19.0-stm32mp-r2/ldelf/ta_elf.c:655
    10c0:	65e1      	str	r1, [r4, #92]	@ 0x5c
    10c2:	e7f7      	b.n	10b4 <map_segments+0x224>
/home/lubuntu/Dokument/GitHub/STM32-Computer/Firmware/STM32-Computer-Firmware/CA7/optee-os-3.19.0-r2/optee-os-stm32mp-3.19.0-stm32mp-r2/ldelf/ta_elf.c:662
    10c4:	4216      	tst	r6, r2
rounddown():
/home/lubuntu/Dokument/GitHub/STM32-Computer/Firmware/STM32-Computer-Firmware/CA7/optee-os-3.19.0-r2/optee-os-stm32mp-3.19.0-stm32mp-r2/ldelf/ta_elf.c:497
    10c6:	ea02 0107 	and.w	r1, r2, r7
adjust_segments():
/home/lubuntu/Dokument/GitHub/STM32-Computer/Firmware/STM32-Computer-Firmware/CA7/optee-os-3.19.0-r2/optee-os-stm32mp-3.19.0-stm32mp-r2/ldelf/ta_elf.c:662
    10ca:	d010      	beq.n	10ee <map_segments+0x25e>
/home/lubuntu/Dokument/GitHub/STM32-Computer/Firmware/STM32-Computer-Firmware/CA7/optee-os-3.19.0-r2/optee-os-stm32mp-3.19.0-stm32mp-r2/ldelf/ta_elf.c:664
    10cc:	682a      	ldr	r2, [r5, #0]
    10ce:	68ad      	ldr	r5, [r5, #8]
    10d0:	442a      	add	r2, r5
/home/lubuntu/Dokument/GitHub/STM32-Computer/Firmware/STM32-Computer-Firmware/CA7/optee-os-3.19.0-r2/optee-os-stm32mp-3.19.0-stm32mp-r2/ldelf/ta_elf.c:662
    10d2:	428a      	cmp	r2, r1
    10d4:	d90b      	bls.n	10ee <map_segments+0x25e>
/home/lubuntu/Dokument/GitHub/STM32-Computer/Firmware/STM32-Computer-Firmware/CA7/optee-os-3.19.0-r2/optee-os-stm32mp-3.19.0-stm32mp-r2/ldelf/ta_elf.c:666
    10d6:	6902      	ldr	r2, [r0, #16]
    10d8:	0792      	lsls	r2, r2, #30
    10da:	d406      	bmi.n	10ea <map_segments+0x25a>
    10dc:	4a24      	ldr	r2, [pc, #144]	@ (1170 <map_segments+0x2e0>)
    10de:	f240 219a 	movw	r1, #666	@ 0x29a
    10e2:	4824      	ldr	r0, [pc, #144]	@ (1174 <map_segments+0x2e4>)
    10e4:	447a      	add	r2, pc
    10e6:	4478      	add	r0, pc
    10e8:	e731      	b.n	f4e <map_segments+0xbe>
/home/lubuntu/Dokument/GitHub/STM32-Computer/Firmware/STM32-Computer-Firmware/CA7/optee-os-3.19.0-r2/optee-os-stm32mp-3.19.0-stm32mp-r2/ldelf/ta_elf.c:667
    10ea:	f880 8018 	strb.w	r8, [r0, #24]
/home/lubuntu/Dokument/GitHub/STM32-Computer/Firmware/STM32-Computer-Firmware/CA7/optee-os-3.19.0-r2/optee-os-stm32mp-3.19.0-stm32mp-r2/ldelf/ta_elf.c:674
    10ee:	6882      	ldr	r2, [r0, #8]
    10f0:	eba3 030e 	sub.w	r3, r3, lr
    10f4:	441a      	add	r2, r3
    10f6:	6082      	str	r2, [r0, #8]
/home/lubuntu/Dokument/GitHub/STM32-Computer/Firmware/STM32-Computer-Firmware/CA7/optee-os-3.19.0-r2/optee-os-stm32mp-3.19.0-stm32mp-r2/ldelf/ta_elf.c:675
    10f8:	68c2      	ldr	r2, [r0, #12]
/home/lubuntu/Dokument/GitHub/STM32-Computer/Firmware/STM32-Computer-Firmware/CA7/optee-os-3.19.0-r2/optee-os-stm32mp-3.19.0-stm32mp-r2/ldelf/ta_elf.c:677
    10fa:	e9c0 1e00 	strd	r1, lr, [r0]
/home/lubuntu/Dokument/GitHub/STM32-Computer/Firmware/STM32-Computer-Firmware/CA7/optee-os-3.19.0-r2/optee-os-stm32mp-3.19.0-stm32mp-r2/ldelf/ta_elf.c:675
    10fe:	441a      	add	r2, r3
    1100:	60c2      	str	r2, [r0, #12]
/home/lubuntu/Dokument/GitHub/STM32-Computer/Firmware/STM32-Computer-Firmware/CA7/optee-os-3.19.0-r2/optee-os-stm32mp-3.19.0-stm32mp-r2/ldelf/ta_elf.c:678
    1102:	69c0      	ldr	r0, [r0, #28]
    1104:	e6dc      	b.n	ec0 <map_segments+0x30>
    1106:	bf00      	nop
    1108:	70000001 	.word	0x70000001
    110c:	fffff000 	.word	0xfffff000
    1110:	00004143 	.word	0x00004143
    1114:	0000399e 	.word	0x0000399e
    1118:	00005166 	.word	0x00005166
    111c:	000040e1 	.word	0x000040e1
    1120:	000039ec 	.word	0x000039ec
    1124:	00005148 	.word	0x00005148
    1128:	00004065 	.word	0x00004065
    112c:	000039a1 	.word	0x000039a1
    1130:	00004045 	.word	0x00004045
    1134:	000039cd 	.word	0x000039cd
    1138:	00004037 	.word	0x00004037
    113c:	00003991 	.word	0x00003991
    1140:	0000401d 	.word	0x0000401d
    1144:	000039bf 	.word	0x000039bf
    1148:	00003ffb 	.word	0x00003ffb
    114c:	000039df 	.word	0x000039df
    1150:	00003fe3 	.word	0x00003fe3
    1154:	000039f7 	.word	0x000039f7
    1158:	00003fcf 	.word	0x00003fcf
    115c:	00003a16 	.word	0x00003a16
    1160:	00003f97 	.word	0x00003f97
    1164:	000039f2 	.word	0x000039f2
    1168:	00003f83 	.word	0x00003f83
    116c:	00003a0a 	.word	0x00003a0a
    1170:	00003f2b 	.word	0x00003f2b
    1174:	000039d6 	.word	0x000039d6
map_segments():
/home/lubuntu/Dokument/GitHub/STM32-Computer/Firmware/STM32-Computer-Firmware/CA7/optee-os-3.19.0-r2/optee-os-stm32mp-3.19.0-stm32mp-r2/ldelf/ta_elf.c:982
    1178:	f8d9 100c 	ldr.w	r1, [r9, #12]
    117c:	af05      	add	r7, sp, #20
    117e:	f8d9 2004 	ldr.w	r2, [r9, #4]
roundup():
/home/lubuntu/Dokument/GitHub/STM32-Computer/Firmware/STM32-Computer-Firmware/CA7/optee-os-3.19.0-r2/optee-os-stm32mp-3.19.0-stm32mp-r2/ldelf/ta_elf.c:492
    1182:	f8df 807c 	ldr.w	r8, [pc, #124]	@ 1200 <map_segments+0x370>
map_segments():
/home/lubuntu/Dokument/GitHub/STM32-Computer/Firmware/STM32-Computer-Firmware/CA7/optee-os-3.19.0-r2/optee-os-stm32mp-3.19.0-stm32mp-r2/ldelf/ta_elf.c:982
    1186:	440a      	add	r2, r1
    1188:	4639      	mov	r1, r7
roundup():
/home/lubuntu/Dokument/GitHub/STM32-Computer/Firmware/STM32-Computer-Firmware/CA7/optee-os-3.19.0-r2/optee-os-stm32mp-3.19.0-stm32mp-r2/ldelf/ta_elf.c:492
    118a:	f602 72ff 	addw	r2, r2, #4095	@ 0xfff
    118e:	ea02 0208 	and.w	r2, r2, r8
map_segments():
/home/lubuntu/Dokument/GitHub/STM32-Computer/Firmware/STM32-Computer-Firmware/CA7/optee-os-3.19.0-r2/optee-os-stm32mp-3.19.0-stm32mp-r2/ldelf/ta_elf.c:982
    1192:	9200      	str	r2, [sp, #0]
    1194:	462a      	mov	r2, r5
    1196:	6860      	ldr	r0, [r4, #4]
    1198:	f002 ff57 	bl	404a <sys_remap>
/home/lubuntu/Dokument/GitHub/STM32-Computer/Firmware/STM32-Computer-Firmware/CA7/optee-os-3.19.0-r2/optee-os-stm32mp-3.19.0-stm32mp-r2/ldelf/ta_elf.c:984
    119c:	4b19      	ldr	r3, [pc, #100]	@ (1204 <map_segments+0x374>)
/home/lubuntu/Dokument/GitHub/STM32-Computer/Firmware/STM32-Computer-Firmware/CA7/optee-os-3.19.0-r2/optee-os-stm32mp-3.19.0-stm32mp-r2/ldelf/ta_elf.c:982
    119e:	4682      	mov	sl, r0
/home/lubuntu/Dokument/GitHub/STM32-Computer/Firmware/STM32-Computer-Firmware/CA7/optee-os-3.19.0-r2/optee-os-stm32mp-3.19.0-stm32mp-r2/ldelf/ta_elf.c:984
    11a0:	4298      	cmp	r0, r3
    11a2:	d110      	bne.n	11c6 <map_segments+0x336>
/home/lubuntu/Dokument/GitHub/STM32-Computer/Firmware/STM32-Computer-Firmware/CA7/optee-os-3.19.0-r2/optee-os-stm32mp-3.19.0-stm32mp-r2/ldelf/ta_elf.c:985
    11a4:	f8d9 200c 	ldr.w	r2, [r9, #12]
    11a8:	4639      	mov	r1, r7
    11aa:	f8d9 3004 	ldr.w	r3, [r9, #4]
    11ae:	4413      	add	r3, r2
    11b0:	462a      	mov	r2, r5
roundup():
/home/lubuntu/Dokument/GitHub/STM32-Computer/Firmware/STM32-Computer-Firmware/CA7/optee-os-3.19.0-r2/optee-os-stm32mp-3.19.0-stm32mp-r2/ldelf/ta_elf.c:492
    11b2:	f603 73ff 	addw	r3, r3, #4095	@ 0xfff
    11b6:	ea03 0308 	and.w	r3, r3, r8
map_segments():
/home/lubuntu/Dokument/GitHub/STM32-Computer/Firmware/STM32-Computer-Firmware/CA7/optee-os-3.19.0-r2/optee-os-stm32mp-3.19.0-stm32mp-r2/ldelf/ta_elf.c:985
    11ba:	9300      	str	r3, [sp, #0]
    11bc:	4633      	mov	r3, r6
    11be:	6860      	ldr	r0, [r4, #4]
    11c0:	f002 ff43 	bl	404a <sys_remap>
    11c4:	4682      	mov	sl, r0
/home/lubuntu/Dokument/GitHub/STM32-Computer/Firmware/STM32-Computer-Firmware/CA7/optee-os-3.19.0-r2/optee-os-stm32mp-3.19.0-stm32mp-r2/ldelf/ta_elf.c:987
    11c6:	f1ba 0f00 	cmp.w	sl, #0
    11ca:	d00d      	beq.n	11e8 <map_segments+0x358>
/home/lubuntu/Dokument/GitHub/STM32-Computer/Firmware/STM32-Computer-Firmware/CA7/optee-os-3.19.0-r2/optee-os-stm32mp-3.19.0-stm32mp-r2/ldelf/ta_elf.c:988
    11cc:	4b0e      	ldr	r3, [pc, #56]	@ (1208 <map_segments+0x378>)
    11ce:	f44f 7177 	mov.w	r1, #988	@ 0x3dc
    11d2:	480e      	ldr	r0, [pc, #56]	@ (120c <map_segments+0x37c>)
    11d4:	447b      	add	r3, pc
    11d6:	9300      	str	r3, [sp, #0]
    11d8:	2301      	movs	r3, #1
    11da:	4478      	add	r0, pc
    11dc:	461a      	mov	r2, r3
    11de:	f003 f96b 	bl	44b8 <trace_printf>
    11e2:	4650      	mov	r0, sl
    11e4:	f7fe ef48 	blx	78 <_ldelf_return>
/home/lubuntu/Dokument/GitHub/STM32-Computer/Firmware/STM32-Computer-Firmware/CA7/optee-os-3.19.0-r2/optee-os-stm32mp-3.19.0-stm32mp-r2/ldelf/ta_elf.c:989
    11e8:	9b05      	ldr	r3, [sp, #20]
/home/lubuntu/Dokument/GitHub/STM32-Computer/Firmware/STM32-Computer-Firmware/CA7/optee-os-3.19.0-r2/optee-os-stm32mp-3.19.0-stm32mp-r2/ldelf/ta_elf.c:992
    11ea:	69a2      	ldr	r2, [r4, #24]
/home/lubuntu/Dokument/GitHub/STM32-Computer/Firmware/STM32-Computer-Firmware/CA7/optee-os-3.19.0-r2/optee-os-stm32mp-3.19.0-stm32mp-r2/ldelf/ta_elf.c:991
    11ec:	441d      	add	r5, r3
/home/lubuntu/Dokument/GitHub/STM32-Computer/Firmware/STM32-Computer-Firmware/CA7/optee-os-3.19.0-r2/optee-os-stm32mp-3.19.0-stm32mp-r2/ldelf/ta_elf.c:992
    11ee:	441a      	add	r2, r3
/home/lubuntu/Dokument/GitHub/STM32-Computer/Firmware/STM32-Computer-Firmware/CA7/optee-os-3.19.0-r2/optee-os-stm32mp-3.19.0-stm32mp-r2/ldelf/ta_elf.c:989
    11f0:	6123      	str	r3, [r4, #16]
/home/lubuntu/Dokument/GitHub/STM32-Computer/Firmware/STM32-Computer-Firmware/CA7/optee-os-3.19.0-r2/optee-os-stm32mp-3.19.0-stm32mp-r2/ldelf/ta_elf.c:990
    11f2:	6063      	str	r3, [r4, #4]
/home/lubuntu/Dokument/GitHub/STM32-Computer/Firmware/STM32-Computer-Firmware/CA7/optee-os-3.19.0-r2/optee-os-stm32mp-3.19.0-stm32mp-r2/ldelf/ta_elf.c:991
    11f4:	60a5      	str	r5, [r4, #8]
/home/lubuntu/Dokument/GitHub/STM32-Computer/Firmware/STM32-Computer-Firmware/CA7/optee-os-3.19.0-r2/optee-os-stm32mp-3.19.0-stm32mp-r2/ldelf/ta_elf.c:992
    11f6:	6322      	str	r2, [r4, #48]	@ 0x30
/home/lubuntu/Dokument/GitHub/STM32-Computer/Firmware/STM32-Computer-Firmware/CA7/optee-os-3.19.0-r2/optee-os-stm32mp-3.19.0-stm32mp-r2/ldelf/ta_elf.c:994
    11f8:	b006      	add	sp, #24
    11fa:	e8bd 87f0 	ldmia.w	sp!, {r4, r5, r6, r7, r8, r9, sl, pc}
    11fe:	bf00      	nop
    1200:	fffff000 	.word	0xfffff000
    1204:	ffff000c 	.word	0xffff000c
    1208:	000038fa 	.word	0x000038fa
    120c:	00003e63 	.word	0x00003e63

00001210 <save_soname_from_segment>:
save_soname_from_segment():
/home/lubuntu/Dokument/GitHub/STM32-Computer/Firmware/STM32-Computer-Firmware/CA7/optee-os-3.19.0-r2/optee-os-stm32mp-3.19.0-stm32mp-r2/ldelf/ta_elf.c:315
    1210:	2902      	cmp	r1, #2
/home/lubuntu/Dokument/GitHub/STM32-Computer/Firmware/STM32-Computer-Firmware/CA7/optee-os-3.19.0-r2/optee-os-stm32mp-3.19.0-stm32mp-r2/ldelf/ta_elf.c:307
    1212:	e92d 47ff 	stmdb	sp!, {r0, r1, r2, r3, r4, r5, r6, r7, r8, r9, sl, lr}
    1216:	4617      	mov	r7, r2
/home/lubuntu/Dokument/GitHub/STM32-Computer/Firmware/STM32-Computer-Firmware/CA7/optee-os-3.19.0-r2/optee-os-stm32mp-3.19.0-stm32mp-r2/ldelf/ta_elf.c:311
    1218:	f04f 0200 	mov.w	r2, #0
/home/lubuntu/Dokument/GitHub/STM32-Computer/Firmware/STM32-Computer-Firmware/CA7/optee-os-3.19.0-r2/optee-os-stm32mp-3.19.0-stm32mp-r2/ldelf/ta_elf.c:307
    121c:	4606      	mov	r6, r0
/home/lubuntu/Dokument/GitHub/STM32-Computer/Firmware/STM32-Computer-Firmware/CA7/optee-os-3.19.0-r2/optee-os-stm32mp-3.19.0-stm32mp-r2/ldelf/ta_elf.c:312
    121e:	e9cd 2202 	strd	r2, r2, [sp, #8]
/home/lubuntu/Dokument/GitHub/STM32-Computer/Firmware/STM32-Computer-Firmware/CA7/optee-os-3.19.0-r2/optee-os-stm32mp-3.19.0-stm32mp-r2/ldelf/ta_elf.c:315
    1222:	d13c      	bne.n	129e <save_soname_from_segment+0x8e>
/home/lubuntu/Dokument/GitHub/STM32-Computer/Firmware/STM32-Computer-Firmware/CA7/optee-os-3.19.0-r2/optee-os-stm32mp-3.19.0-stm32mp-r2/ldelf/ta_elf.c:318
    1224:	7842      	ldrb	r2, [r0, #1]
/home/lubuntu/Dokument/GitHub/STM32-Computer/Firmware/STM32-Computer-Firmware/CA7/optee-os-3.19.0-r2/optee-os-stm32mp-3.19.0-stm32mp-r2/ldelf/ta_elf.c:319
    1226:	2a00      	cmp	r2, #0
    1228:	bf0c      	ite	eq
    122a:	2210      	moveq	r2, #16
    122c:	2208      	movne	r2, #8
/home/lubuntu/Dokument/GitHub/STM32-Computer/Firmware/STM32-Computer-Firmware/CA7/optee-os-3.19.0-r2/optee-os-stm32mp-3.19.0-stm32mp-r2/ldelf/ta_elf.c:323
    122e:	fbb3 f8f2 	udiv	r8, r3, r2
    1232:	fb02 3418 	mls	r4, r2, r8, r3
    1236:	b13c      	cbz	r4, 1248 <save_soname_from_segment+0x38>
/home/lubuntu/Dokument/GitHub/STM32-Computer/Firmware/STM32-Computer-Firmware/CA7/optee-os-3.19.0-r2/optee-os-stm32mp-3.19.0-stm32mp-r2/ldelf/ta_elf.c:323 (discriminator 1)
    1238:	4a1c      	ldr	r2, [pc, #112]	@ (12ac <save_soname_from_segment+0x9c>)
    123a:	f240 1143 	movw	r1, #323	@ 0x143
    123e:	481c      	ldr	r0, [pc, #112]	@ (12b0 <save_soname_from_segment+0xa0>)
    1240:	447a      	add	r2, pc
    1242:	4478      	add	r0, pc
    1244:	f7ff fb6a 	bl	91c <_assert_trap.constprop.0>
/home/lubuntu/Dokument/GitHub/STM32-Computer/Firmware/STM32-Computer-Firmware/CA7/optee-os-3.19.0-r2/optee-os-stm32mp-3.19.0-stm32mp-r2/ldelf/ta_elf.c:326
    1248:	4625      	mov	r5, r4
/home/lubuntu/Dokument/GitHub/STM32-Computer/Firmware/STM32-Computer-Firmware/CA7/optee-os-3.19.0-r2/optee-os-stm32mp-3.19.0-stm32mp-r2/ldelf/ta_elf.c:327
    124a:	f10d 0908 	add.w	r9, sp, #8
    124e:	f10d 0a0c 	add.w	sl, sp, #12
/home/lubuntu/Dokument/GitHub/STM32-Computer/Firmware/STM32-Computer-Firmware/CA7/optee-os-3.19.0-r2/optee-os-stm32mp-3.19.0-stm32mp-r2/ldelf/ta_elf.c:326 (discriminator 1)
    1252:	4545      	cmp	r5, r8
    1254:	d101      	bne.n	125a <save_soname_from_segment+0x4a>
/home/lubuntu/Dokument/GitHub/STM32-Computer/Firmware/STM32-Computer-Firmware/CA7/optee-os-3.19.0-r2/optee-os-stm32mp-3.19.0-stm32mp-r2/ldelf/ta_elf.c:313
    1256:	2500      	movs	r5, #0
    1258:	e00d      	b.n	1276 <save_soname_from_segment+0x66>
/home/lubuntu/Dokument/GitHub/STM32-Computer/Firmware/STM32-Computer-Firmware/CA7/optee-os-3.19.0-r2/optee-os-stm32mp-3.19.0-stm32mp-r2/ldelf/ta_elf.c:327
    125a:	f8cd a000 	str.w	sl, [sp]
    125e:	464b      	mov	r3, r9
    1260:	462a      	mov	r2, r5
    1262:	4639      	mov	r1, r7
    1264:	4630      	mov	r0, r6
    1266:	f002 ff01 	bl	406c <read_dyn>
/home/lubuntu/Dokument/GitHub/STM32-Computer/Firmware/STM32-Computer-Firmware/CA7/optee-os-3.19.0-r2/optee-os-stm32mp-3.19.0-stm32mp-r2/ldelf/ta_elf.c:328
    126a:	9b02      	ldr	r3, [sp, #8]
    126c:	2b05      	cmp	r3, #5
    126e:	d119      	bne.n	12a4 <save_soname_from_segment+0x94>
/home/lubuntu/Dokument/GitHub/STM32-Computer/Firmware/STM32-Computer-Firmware/CA7/optee-os-3.19.0-r2/optee-os-stm32mp-3.19.0-stm32mp-r2/ldelf/ta_elf.c:329
    1270:	6875      	ldr	r5, [r6, #4]
    1272:	9b03      	ldr	r3, [sp, #12]
    1274:	441d      	add	r5, r3
/home/lubuntu/Dokument/GitHub/STM32-Computer/Firmware/STM32-Computer-Firmware/CA7/optee-os-3.19.0-r2/optee-os-stm32mp-3.19.0-stm32mp-r2/ldelf/ta_elf.c:334
    1276:	f10d 0908 	add.w	r9, sp, #8
    127a:	f10d 0a0c 	add.w	sl, sp, #12
/home/lubuntu/Dokument/GitHub/STM32-Computer/Firmware/STM32-Computer-Firmware/CA7/optee-os-3.19.0-r2/optee-os-stm32mp-3.19.0-stm32mp-r2/ldelf/ta_elf.c:333 (discriminator 1)
    127e:	4544      	cmp	r4, r8
    1280:	d00d      	beq.n	129e <save_soname_from_segment+0x8e>
/home/lubuntu/Dokument/GitHub/STM32-Computer/Firmware/STM32-Computer-Firmware/CA7/optee-os-3.19.0-r2/optee-os-stm32mp-3.19.0-stm32mp-r2/ldelf/ta_elf.c:334
    1282:	f8cd a000 	str.w	sl, [sp]
    1286:	464b      	mov	r3, r9
    1288:	4622      	mov	r2, r4
    128a:	4639      	mov	r1, r7
    128c:	4630      	mov	r0, r6
    128e:	f002 feed 	bl	406c <read_dyn>
/home/lubuntu/Dokument/GitHub/STM32-Computer/Firmware/STM32-Computer-Firmware/CA7/optee-os-3.19.0-r2/optee-os-stm32mp-3.19.0-stm32mp-r2/ldelf/ta_elf.c:335
    1292:	9b02      	ldr	r3, [sp, #8]
    1294:	2b0e      	cmp	r3, #14
    1296:	d107      	bne.n	12a8 <save_soname_from_segment+0x98>
/home/lubuntu/Dokument/GitHub/STM32-Computer/Firmware/STM32-Computer-Firmware/CA7/optee-os-3.19.0-r2/optee-os-stm32mp-3.19.0-stm32mp-r2/ldelf/ta_elf.c:336
    1298:	9b03      	ldr	r3, [sp, #12]
    129a:	442b      	add	r3, r5
    129c:	6573      	str	r3, [r6, #84]	@ 0x54
/home/lubuntu/Dokument/GitHub/STM32-Computer/Firmware/STM32-Computer-Firmware/CA7/optee-os-3.19.0-r2/optee-os-stm32mp-3.19.0-stm32mp-r2/ldelf/ta_elf.c:340
    129e:	b004      	add	sp, #16
    12a0:	e8bd 87f0 	ldmia.w	sp!, {r4, r5, r6, r7, r8, r9, sl, pc}
/home/lubuntu/Dokument/GitHub/STM32-Computer/Firmware/STM32-Computer-Firmware/CA7/optee-os-3.19.0-r2/optee-os-stm32mp-3.19.0-stm32mp-r2/ldelf/ta_elf.c:326 (discriminator 2)
    12a4:	3501      	adds	r5, #1
    12a6:	e7d4      	b.n	1252 <save_soname_from_segment+0x42>
/home/lubuntu/Dokument/GitHub/STM32-Computer/Firmware/STM32-Computer-Firmware/CA7/optee-os-3.19.0-r2/optee-os-stm32mp-3.19.0-stm32mp-r2/ldelf/ta_elf.c:333 (discriminator 2)
    12a8:	3401      	adds	r4, #1
    12aa:	e7e8      	b.n	127e <save_soname_from_segment+0x6e>
    12ac:	00003d12 	.word	0x00003d12
    12b0:	00003896 	.word	0x00003896

000012b4 <save_symtab>:
save_symtab():
/home/lubuntu/Dokument/GitHub/STM32-Computer/Firmware/STM32-Computer-Firmware/CA7/optee-os-3.19.0-r2/optee-os-stm32mp-3.19.0-stm32mp-r2/ldelf/ta_elf.c:416
    12b4:	b5f7      	push	{r0, r1, r2, r4, r5, r6, r7, lr}
    12b6:	4604      	mov	r4, r0
/home/lubuntu/Dokument/GitHub/STM32-Computer/Firmware/STM32-Computer-Firmware/CA7/optee-os-3.19.0-r2/optee-os-stm32mp-3.19.0-stm32mp-r2/ldelf/ta_elf.c:420
    12b8:	6b47      	ldr	r7, [r0, #52]	@ 0x34
/home/lubuntu/Dokument/GitHub/STM32-Computer/Firmware/STM32-Computer-Firmware/CA7/optee-os-3.19.0-r2/optee-os-stm32mp-3.19.0-stm32mp-r2/ldelf/ta_elf.c:419
    12ba:	7843      	ldrb	r3, [r0, #1]
/home/lubuntu/Dokument/GitHub/STM32-Computer/Firmware/STM32-Computer-Firmware/CA7/optee-os-3.19.0-r2/optee-os-stm32mp-3.19.0-stm32mp-r2/ldelf/ta_elf.c:422
    12bc:	6a42      	ldr	r2, [r0, #36]	@ 0x24
    12be:	463d      	mov	r5, r7
/home/lubuntu/Dokument/GitHub/STM32-Computer/Firmware/STM32-Computer-Firmware/CA7/optee-os-3.19.0-r2/optee-os-stm32mp-3.19.0-stm32mp-r2/ldelf/ta_elf.c:419
    12c0:	b9cb      	cbnz	r3, 12f6 <save_symtab+0x42>
/home/lubuntu/Dokument/GitHub/STM32-Computer/Firmware/STM32-Computer-Firmware/CA7/optee-os-3.19.0-r2/optee-os-stm32mp-3.19.0-stm32mp-r2/ldelf/ta_elf.c:431 (discriminator 1)
    12c2:	4293      	cmp	r3, r2
    12c4:	d01a      	beq.n	12fc <save_symtab+0x48>
/home/lubuntu/Dokument/GitHub/STM32-Computer/Firmware/STM32-Computer-Firmware/CA7/optee-os-3.19.0-r2/optee-os-stm32mp-3.19.0-stm32mp-r2/ldelf/ta_elf.c:432
    12c6:	6868      	ldr	r0, [r5, #4]
    12c8:	f105 0140 	add.w	r1, r5, #64	@ 0x40
    12cc:	280b      	cmp	r0, #11
    12ce:	f040 80b0 	bne.w	1432 <save_symtab+0x17e>
e64_save_symtab():
/home/lubuntu/Dokument/GitHub/STM32-Computer/Firmware/STM32-Computer-Firmware/CA7/optee-os-3.19.0-r2/optee-os-stm32mp-3.19.0-stm32mp-r2/ldelf/ta_elf.c:392
    12d2:	692a      	ldr	r2, [r5, #16]
    12d4:	6863      	ldr	r3, [r4, #4]
/home/lubuntu/Dokument/GitHub/STM32-Computer/Firmware/STM32-Computer-Firmware/CA7/optee-os-3.19.0-r2/optee-os-stm32mp-3.19.0-stm32mp-r2/ldelf/ta_elf.c:390
    12d6:	6aae      	ldr	r6, [r5, #40]	@ 0x28
/home/lubuntu/Dokument/GitHub/STM32-Computer/Firmware/STM32-Computer-Firmware/CA7/optee-os-3.19.0-r2/optee-os-stm32mp-3.19.0-stm32mp-r2/ldelf/ta_elf.c:392
    12d8:	441a      	add	r2, r3
/home/lubuntu/Dokument/GitHub/STM32-Computer/Firmware/STM32-Computer-Firmware/CA7/optee-os-3.19.0-r2/optee-os-stm32mp-3.19.0-stm32mp-r2/ldelf/ta_elf.c:395
    12da:	0751      	lsls	r1, r2, #29
/home/lubuntu/Dokument/GitHub/STM32-Computer/Firmware/STM32-Computer-Firmware/CA7/optee-os-3.19.0-r2/optee-os-stm32mp-3.19.0-stm32mp-r2/ldelf/ta_elf.c:392
    12dc:	63a2      	str	r2, [r4, #56]	@ 0x38
/home/lubuntu/Dokument/GitHub/STM32-Computer/Firmware/STM32-Computer-Firmware/CA7/optee-os-3.19.0-r2/optee-os-stm32mp-3.19.0-stm32mp-r2/ldelf/ta_elf.c:395
    12de:	d074      	beq.n	13ca <save_symtab+0x116>
/home/lubuntu/Dokument/GitHub/STM32-Computer/Firmware/STM32-Computer-Firmware/CA7/optee-os-3.19.0-r2/optee-os-stm32mp-3.19.0-stm32mp-r2/ldelf/ta_elf.c:396
    12e0:	4b97      	ldr	r3, [pc, #604]	@ (1540 <save_symtab+0x28c>)
    12e2:	f44f 71c6 	mov.w	r1, #396	@ 0x18c
    12e6:	4897      	ldr	r0, [pc, #604]	@ (1544 <save_symtab+0x290>)
    12e8:	447b      	add	r3, pc
    12ea:	9300      	str	r3, [sp, #0]
    12ec:	2301      	movs	r3, #1
    12ee:	9201      	str	r2, [sp, #4]
    12f0:	461a      	mov	r2, r3
    12f2:	4478      	add	r0, pc
    12f4:	e02d      	b.n	1352 <save_symtab+0x9e>
save_symtab():
/home/lubuntu/Dokument/GitHub/STM32-Computer/Firmware/STM32-Computer-Firmware/CA7/optee-os-3.19.0-r2/optee-os-stm32mp-3.19.0-stm32mp-r2/ldelf/ta_elf.c:422
    12f6:	2300      	movs	r3, #0
/home/lubuntu/Dokument/GitHub/STM32-Computer/Firmware/STM32-Computer-Firmware/CA7/optee-os-3.19.0-r2/optee-os-stm32mp-3.19.0-stm32mp-r2/ldelf/ta_elf.c:422 (discriminator 1)
    12f8:	4293      	cmp	r3, r2
    12fa:	d114      	bne.n	1326 <save_symtab+0x72>
save_hashtab():
/home/lubuntu/Dokument/GitHub/STM32-Computer/Firmware/STM32-Computer-Firmware/CA7/optee-os-3.19.0-r2/optee-os-stm32mp-3.19.0-stm32mp-r2/ldelf/ta_elf.c:266
    12fc:	7862      	ldrb	r2, [r4, #1]
/home/lubuntu/Dokument/GitHub/STM32-Computer/Firmware/STM32-Computer-Firmware/CA7/optee-os-3.19.0-r2/optee-os-stm32mp-3.19.0-stm32mp-r2/ldelf/ta_elf.c:267
    12fe:	6b63      	ldr	r3, [r4, #52]	@ 0x34
/home/lubuntu/Dokument/GitHub/STM32-Computer/Firmware/STM32-Computer-Firmware/CA7/optee-os-3.19.0-r2/optee-os-stm32mp-3.19.0-stm32mp-r2/ldelf/ta_elf.c:269
    1300:	6a61      	ldr	r1, [r4, #36]	@ 0x24
/home/lubuntu/Dokument/GitHub/STM32-Computer/Firmware/STM32-Computer-Firmware/CA7/optee-os-3.19.0-r2/optee-os-stm32mp-3.19.0-stm32mp-r2/ldelf/ta_elf.c:266
    1302:	2a00      	cmp	r2, #0
    1304:	f040 8098 	bne.w	1438 <save_symtab+0x184>
/home/lubuntu/Dokument/GitHub/STM32-Computer/Firmware/STM32-Computer-Firmware/CA7/optee-os-3.19.0-r2/optee-os-stm32mp-3.19.0-stm32mp-r2/ldelf/ta_elf.c:289
    1308:	4e8b      	ldr	r6, [pc, #556]	@ (1538 <save_symtab+0x284>)
/home/lubuntu/Dokument/GitHub/STM32-Computer/Firmware/STM32-Computer-Firmware/CA7/optee-os-3.19.0-r2/optee-os-stm32mp-3.19.0-stm32mp-r2/ldelf/ta_elf.c:283
    130a:	428a      	cmp	r2, r1
    130c:	f000 809a 	beq.w	1444 <save_symtab+0x190>
/home/lubuntu/Dokument/GitHub/STM32-Computer/Firmware/STM32-Computer-Firmware/CA7/optee-os-3.19.0-r2/optee-os-stm32mp-3.19.0-stm32mp-r2/ldelf/ta_elf.c:284
    1310:	6865      	ldr	r5, [r4, #4]
    1312:	6918      	ldr	r0, [r3, #16]
    1314:	4428      	add	r0, r5
/home/lubuntu/Dokument/GitHub/STM32-Computer/Firmware/STM32-Computer-Firmware/CA7/optee-os-3.19.0-r2/optee-os-stm32mp-3.19.0-stm32mp-r2/ldelf/ta_elf.c:287
    1316:	685d      	ldr	r5, [r3, #4]
    1318:	2d05      	cmp	r5, #5
    131a:	f040 80b3 	bne.w	1484 <save_symtab+0x1d0>
/home/lubuntu/Dokument/GitHub/STM32-Computer/Firmware/STM32-Computer-Firmware/CA7/optee-os-3.19.0-r2/optee-os-stm32mp-3.19.0-stm32mp-r2/ldelf/ta_elf.c:288
    131e:	64a0      	str	r0, [r4, #72]	@ 0x48
/home/lubuntu/Dokument/GitHub/STM32-Computer/Firmware/STM32-Computer-Firmware/CA7/optee-os-3.19.0-r2/optee-os-stm32mp-3.19.0-stm32mp-r2/ldelf/ta_elf.c:283
    1320:	3201      	adds	r2, #1
    1322:	3340      	adds	r3, #64	@ 0x40
    1324:	e7f1      	b.n	130a <save_symtab+0x56>
save_symtab():
/home/lubuntu/Dokument/GitHub/STM32-Computer/Firmware/STM32-Computer-Firmware/CA7/optee-os-3.19.0-r2/optee-os-stm32mp-3.19.0-stm32mp-r2/ldelf/ta_elf.c:423
    1326:	6868      	ldr	r0, [r5, #4]
    1328:	f105 0128 	add.w	r1, r5, #40	@ 0x28
    132c:	280b      	cmp	r0, #11
    132e:	d149      	bne.n	13c4 <save_symtab+0x110>
e32_save_symtab():
/home/lubuntu/Dokument/GitHub/STM32-Computer/Firmware/STM32-Computer-Firmware/CA7/optee-os-3.19.0-r2/optee-os-stm32mp-3.19.0-stm32mp-r2/ldelf/ta_elf.c:368
    1330:	68ea      	ldr	r2, [r5, #12]
    1332:	6863      	ldr	r3, [r4, #4]
/home/lubuntu/Dokument/GitHub/STM32-Computer/Firmware/STM32-Computer-Firmware/CA7/optee-os-3.19.0-r2/optee-os-stm32mp-3.19.0-stm32mp-r2/ldelf/ta_elf.c:366
    1334:	69ae      	ldr	r6, [r5, #24]
/home/lubuntu/Dokument/GitHub/STM32-Computer/Firmware/STM32-Computer-Firmware/CA7/optee-os-3.19.0-r2/optee-os-stm32mp-3.19.0-stm32mp-r2/ldelf/ta_elf.c:368
    1336:	441a      	add	r2, r3
/home/lubuntu/Dokument/GitHub/STM32-Computer/Firmware/STM32-Computer-Firmware/CA7/optee-os-3.19.0-r2/optee-os-stm32mp-3.19.0-stm32mp-r2/ldelf/ta_elf.c:369
    1338:	0793      	lsls	r3, r2, #30
/home/lubuntu/Dokument/GitHub/STM32-Computer/Firmware/STM32-Computer-Firmware/CA7/optee-os-3.19.0-r2/optee-os-stm32mp-3.19.0-stm32mp-r2/ldelf/ta_elf.c:368
    133a:	63a2      	str	r2, [r4, #56]	@ 0x38
/home/lubuntu/Dokument/GitHub/STM32-Computer/Firmware/STM32-Computer-Firmware/CA7/optee-os-3.19.0-r2/optee-os-stm32mp-3.19.0-stm32mp-r2/ldelf/ta_elf.c:369
    133c:	d00c      	beq.n	1358 <save_symtab+0xa4>
/home/lubuntu/Dokument/GitHub/STM32-Computer/Firmware/STM32-Computer-Firmware/CA7/optee-os-3.19.0-r2/optee-os-stm32mp-3.19.0-stm32mp-r2/ldelf/ta_elf.c:370
    133e:	4b82      	ldr	r3, [pc, #520]	@ (1548 <save_symtab+0x294>)
    1340:	f44f 71b9 	mov.w	r1, #370	@ 0x172
    1344:	4881      	ldr	r0, [pc, #516]	@ (154c <save_symtab+0x298>)
    1346:	447b      	add	r3, pc
    1348:	9300      	str	r3, [sp, #0]
    134a:	2301      	movs	r3, #1
    134c:	9201      	str	r2, [sp, #4]
    134e:	461a      	mov	r2, r3
    1350:	4478      	add	r0, pc
check_gnu_hashtab():
/home/lubuntu/Dokument/GitHub/STM32-Computer/Firmware/STM32-Computer-Firmware/CA7/optee-os-3.19.0-r2/optee-os-stm32mp-3.19.0-stm32mp-r2/ldelf/ta_elf.c:242
    1352:	f003 f8b1 	bl	44b8 <trace_printf>
    1356:	e013      	b.n	1380 <save_symtab+0xcc>
e32_save_symtab():
/home/lubuntu/Dokument/GitHub/STM32-Computer/Firmware/STM32-Computer-Firmware/CA7/optee-os-3.19.0-r2/optee-os-stm32mp-3.19.0-stm32mp-r2/ldelf/ta_elf.c:372
    1358:	497d      	ldr	r1, [pc, #500]	@ (1550 <save_symtab+0x29c>)
    135a:	4620      	mov	r0, r4
    135c:	696b      	ldr	r3, [r5, #20]
    135e:	4479      	add	r1, pc
    1360:	f7ff f89e 	bl	4a0 <check_range>
/home/lubuntu/Dokument/GitHub/STM32-Computer/Firmware/STM32-Computer-Firmware/CA7/optee-os-3.19.0-r2/optee-os-stm32mp-3.19.0-stm32mp-r2/ldelf/ta_elf.c:374
    1364:	696b      	ldr	r3, [r5, #20]
    1366:	0718      	lsls	r0, r3, #28
    1368:	d00d      	beq.n	1386 <save_symtab+0xd2>
/home/lubuntu/Dokument/GitHub/STM32-Computer/Firmware/STM32-Computer-Firmware/CA7/optee-os-3.19.0-r2/optee-os-stm32mp-3.19.0-stm32mp-r2/ldelf/ta_elf.c:375
    136a:	4b7a      	ldr	r3, [pc, #488]	@ (1554 <save_symtab+0x2a0>)
    136c:	f240 1177 	movw	r1, #375	@ 0x177
    1370:	4879      	ldr	r0, [pc, #484]	@ (1558 <save_symtab+0x2a4>)
    1372:	447b      	add	r3, pc
    1374:	9300      	str	r3, [sp, #0]
    1376:	2301      	movs	r3, #1
    1378:	4478      	add	r0, pc
    137a:	461a      	mov	r2, r3
    137c:	f003 f89c 	bl	44b8 <trace_printf>
    1380:	486e      	ldr	r0, [pc, #440]	@ (153c <save_symtab+0x288>)
    1382:	f7fe ee7a 	blx	78 <_ldelf_return>
/home/lubuntu/Dokument/GitHub/STM32-Computer/Firmware/STM32-Computer-Firmware/CA7/optee-os-3.19.0-r2/optee-os-stm32mp-3.19.0-stm32mp-r2/ldelf/ta_elf.c:377
    1386:	091b      	lsrs	r3, r3, #4
    1388:	63e3      	str	r3, [r4, #60]	@ 0x3c
/home/lubuntu/Dokument/GitHub/STM32-Computer/Firmware/STM32-Computer-Firmware/CA7/optee-os-3.19.0-r2/optee-os-stm32mp-3.19.0-stm32mp-r2/ldelf/ta_elf.c:379
    138a:	6a63      	ldr	r3, [r4, #36]	@ 0x24
    138c:	429e      	cmp	r6, r3
    138e:	d309      	bcc.n	13a4 <save_symtab+0xf0>
/home/lubuntu/Dokument/GitHub/STM32-Computer/Firmware/STM32-Computer-Firmware/CA7/optee-os-3.19.0-r2/optee-os-stm32mp-3.19.0-stm32mp-r2/ldelf/ta_elf.c:380
    1390:	4b72      	ldr	r3, [pc, #456]	@ (155c <save_symtab+0x2a8>)
    1392:	f44f 71be 	mov.w	r1, #380	@ 0x17c
    1396:	4872      	ldr	r0, [pc, #456]	@ (1560 <save_symtab+0x2ac>)
    1398:	447b      	add	r3, pc
    139a:	9300      	str	r3, [sp, #0]
    139c:	2301      	movs	r3, #1
    139e:	4478      	add	r0, pc
    13a0:	461a      	mov	r2, r3
    13a2:	e7eb      	b.n	137c <save_symtab+0xc8>
/home/lubuntu/Dokument/GitHub/STM32-Computer/Firmware/STM32-Computer-Firmware/CA7/optee-os-3.19.0-r2/optee-os-stm32mp-3.19.0-stm32mp-r2/ldelf/ta_elf.c:382
    13a4:	496f      	ldr	r1, [pc, #444]	@ (1564 <save_symtab+0x2b0>)
/home/lubuntu/Dokument/GitHub/STM32-Computer/Firmware/STM32-Computer-Firmware/CA7/optee-os-3.19.0-r2/optee-os-stm32mp-3.19.0-stm32mp-r2/ldelf/ta_elf.c:381
    13a6:	2328      	movs	r3, #40	@ 0x28
    13a8:	fb03 7606 	mla	r6, r3, r6, r7
    13ac:	6863      	ldr	r3, [r4, #4]
/home/lubuntu/Dokument/GitHub/STM32-Computer/Firmware/STM32-Computer-Firmware/CA7/optee-os-3.19.0-r2/optee-os-stm32mp-3.19.0-stm32mp-r2/ldelf/ta_elf.c:382
    13ae:	4620      	mov	r0, r4
/home/lubuntu/Dokument/GitHub/STM32-Computer/Firmware/STM32-Computer-Firmware/CA7/optee-os-3.19.0-r2/optee-os-stm32mp-3.19.0-stm32mp-r2/ldelf/ta_elf.c:381
    13b0:	68f2      	ldr	r2, [r6, #12]
/home/lubuntu/Dokument/GitHub/STM32-Computer/Firmware/STM32-Computer-Firmware/CA7/optee-os-3.19.0-r2/optee-os-stm32mp-3.19.0-stm32mp-r2/ldelf/ta_elf.c:382
    13b2:	4479      	add	r1, pc
/home/lubuntu/Dokument/GitHub/STM32-Computer/Firmware/STM32-Computer-Firmware/CA7/optee-os-3.19.0-r2/optee-os-stm32mp-3.19.0-stm32mp-r2/ldelf/ta_elf.c:381
    13b4:	441a      	add	r2, r3
    13b6:	6422      	str	r2, [r4, #64]	@ 0x40
/home/lubuntu/Dokument/GitHub/STM32-Computer/Firmware/STM32-Computer-Firmware/CA7/optee-os-3.19.0-r2/optee-os-stm32mp-3.19.0-stm32mp-r2/ldelf/ta_elf.c:382
    13b8:	6973      	ldr	r3, [r6, #20]
    13ba:	f7ff f871 	bl	4a0 <check_range>
/home/lubuntu/Dokument/GitHub/STM32-Computer/Firmware/STM32-Computer-Firmware/CA7/optee-os-3.19.0-r2/optee-os-stm32mp-3.19.0-stm32mp-r2/ldelf/ta_elf.c:384
    13be:	6973      	ldr	r3, [r6, #20]
e64_save_symtab():
/home/lubuntu/Dokument/GitHub/STM32-Computer/Firmware/STM32-Computer-Firmware/CA7/optee-os-3.19.0-r2/optee-os-stm32mp-3.19.0-stm32mp-r2/ldelf/ta_elf.c:412
    13c0:	6463      	str	r3, [r4, #68]	@ 0x44
/home/lubuntu/Dokument/GitHub/STM32-Computer/Firmware/STM32-Computer-Firmware/CA7/optee-os-3.19.0-r2/optee-os-stm32mp-3.19.0-stm32mp-r2/ldelf/ta_elf.c:413
    13c2:	e79b      	b.n	12fc <save_symtab+0x48>
save_symtab():
/home/lubuntu/Dokument/GitHub/STM32-Computer/Firmware/STM32-Computer-Firmware/CA7/optee-os-3.19.0-r2/optee-os-stm32mp-3.19.0-stm32mp-r2/ldelf/ta_elf.c:422 (discriminator 2)
    13c4:	3301      	adds	r3, #1
    13c6:	460d      	mov	r5, r1
    13c8:	e796      	b.n	12f8 <save_symtab+0x44>
e64_save_symtab():
/home/lubuntu/Dokument/GitHub/STM32-Computer/Firmware/STM32-Computer-Firmware/CA7/optee-os-3.19.0-r2/optee-os-stm32mp-3.19.0-stm32mp-r2/ldelf/ta_elf.c:398
    13ca:	4967      	ldr	r1, [pc, #412]	@ (1568 <save_symtab+0x2b4>)
    13cc:	4620      	mov	r0, r4
    13ce:	6a2b      	ldr	r3, [r5, #32]
    13d0:	4479      	add	r1, pc
    13d2:	f7ff f865 	bl	4a0 <check_range>
/home/lubuntu/Dokument/GitHub/STM32-Computer/Firmware/STM32-Computer-Firmware/CA7/optee-os-3.19.0-r2/optee-os-stm32mp-3.19.0-stm32mp-r2/ldelf/ta_elf.c:401
    13d6:	2218      	movs	r2, #24
    13d8:	2300      	movs	r3, #0
    13da:	e9d5 0108 	ldrd	r0, r1, [r5, #32]
    13de:	f002 e9e8 	blx	37b0 <__aeabi_uldivmod>
    13e2:	431a      	orrs	r2, r3
    13e4:	d009      	beq.n	13fa <save_symtab+0x146>
/home/lubuntu/Dokument/GitHub/STM32-Computer/Firmware/STM32-Computer-Firmware/CA7/optee-os-3.19.0-r2/optee-os-stm32mp-3.19.0-stm32mp-r2/ldelf/ta_elf.c:402
    13e6:	4b61      	ldr	r3, [pc, #388]	@ (156c <save_symtab+0x2b8>)
    13e8:	f44f 71c9 	mov.w	r1, #402	@ 0x192
    13ec:	4860      	ldr	r0, [pc, #384]	@ (1570 <save_symtab+0x2bc>)
    13ee:	447b      	add	r3, pc
    13f0:	9300      	str	r3, [sp, #0]
    13f2:	2301      	movs	r3, #1
    13f4:	4478      	add	r0, pc
    13f6:	461a      	mov	r2, r3
    13f8:	e7c0      	b.n	137c <save_symtab+0xc8>
/home/lubuntu/Dokument/GitHub/STM32-Computer/Firmware/STM32-Computer-Firmware/CA7/optee-os-3.19.0-r2/optee-os-stm32mp-3.19.0-stm32mp-r2/ldelf/ta_elf.c:406
    13fa:	6a63      	ldr	r3, [r4, #36]	@ 0x24
/home/lubuntu/Dokument/GitHub/STM32-Computer/Firmware/STM32-Computer-Firmware/CA7/optee-os-3.19.0-r2/optee-os-stm32mp-3.19.0-stm32mp-r2/ldelf/ta_elf.c:404
    13fc:	63e0      	str	r0, [r4, #60]	@ 0x3c
/home/lubuntu/Dokument/GitHub/STM32-Computer/Firmware/STM32-Computer-Firmware/CA7/optee-os-3.19.0-r2/optee-os-stm32mp-3.19.0-stm32mp-r2/ldelf/ta_elf.c:406
    13fe:	429e      	cmp	r6, r3
    1400:	d309      	bcc.n	1416 <save_symtab+0x162>
/home/lubuntu/Dokument/GitHub/STM32-Computer/Firmware/STM32-Computer-Firmware/CA7/optee-os-3.19.0-r2/optee-os-stm32mp-3.19.0-stm32mp-r2/ldelf/ta_elf.c:407
    1402:	4b5c      	ldr	r3, [pc, #368]	@ (1574 <save_symtab+0x2c0>)
    1404:	f240 1197 	movw	r1, #407	@ 0x197
    1408:	485b      	ldr	r0, [pc, #364]	@ (1578 <save_symtab+0x2c4>)
    140a:	447b      	add	r3, pc
    140c:	9300      	str	r3, [sp, #0]
    140e:	2301      	movs	r3, #1
    1410:	4478      	add	r0, pc
    1412:	461a      	mov	r2, r3
    1414:	e7b2      	b.n	137c <save_symtab+0xc8>
/home/lubuntu/Dokument/GitHub/STM32-Computer/Firmware/STM32-Computer-Firmware/CA7/optee-os-3.19.0-r2/optee-os-stm32mp-3.19.0-stm32mp-r2/ldelf/ta_elf.c:409
    1416:	eb07 1686 	add.w	r6, r7, r6, lsl #6
/home/lubuntu/Dokument/GitHub/STM32-Computer/Firmware/STM32-Computer-Firmware/CA7/optee-os-3.19.0-r2/optee-os-stm32mp-3.19.0-stm32mp-r2/ldelf/ta_elf.c:410
    141a:	4620      	mov	r0, r4
/home/lubuntu/Dokument/GitHub/STM32-Computer/Firmware/STM32-Computer-Firmware/CA7/optee-os-3.19.0-r2/optee-os-stm32mp-3.19.0-stm32mp-r2/ldelf/ta_elf.c:409
    141c:	6863      	ldr	r3, [r4, #4]
    141e:	6932      	ldr	r2, [r6, #16]
/home/lubuntu/Dokument/GitHub/STM32-Computer/Firmware/STM32-Computer-Firmware/CA7/optee-os-3.19.0-r2/optee-os-stm32mp-3.19.0-stm32mp-r2/ldelf/ta_elf.c:410
    1420:	4956      	ldr	r1, [pc, #344]	@ (157c <save_symtab+0x2c8>)
/home/lubuntu/Dokument/GitHub/STM32-Computer/Firmware/STM32-Computer-Firmware/CA7/optee-os-3.19.0-r2/optee-os-stm32mp-3.19.0-stm32mp-r2/ldelf/ta_elf.c:409
    1422:	441a      	add	r2, r3
/home/lubuntu/Dokument/GitHub/STM32-Computer/Firmware/STM32-Computer-Firmware/CA7/optee-os-3.19.0-r2/optee-os-stm32mp-3.19.0-stm32mp-r2/ldelf/ta_elf.c:410
    1424:	4479      	add	r1, pc
    1426:	6a33      	ldr	r3, [r6, #32]
/home/lubuntu/Dokument/GitHub/STM32-Computer/Firmware/STM32-Computer-Firmware/CA7/optee-os-3.19.0-r2/optee-os-stm32mp-3.19.0-stm32mp-r2/ldelf/ta_elf.c:409
    1428:	6422      	str	r2, [r4, #64]	@ 0x40
/home/lubuntu/Dokument/GitHub/STM32-Computer/Firmware/STM32-Computer-Firmware/CA7/optee-os-3.19.0-r2/optee-os-stm32mp-3.19.0-stm32mp-r2/ldelf/ta_elf.c:410
    142a:	f7ff f839 	bl	4a0 <check_range>
/home/lubuntu/Dokument/GitHub/STM32-Computer/Firmware/STM32-Computer-Firmware/CA7/optee-os-3.19.0-r2/optee-os-stm32mp-3.19.0-stm32mp-r2/ldelf/ta_elf.c:412
    142e:	6a33      	ldr	r3, [r6, #32]
    1430:	e7c6      	b.n	13c0 <save_symtab+0x10c>
save_symtab():
/home/lubuntu/Dokument/GitHub/STM32-Computer/Firmware/STM32-Computer-Firmware/CA7/optee-os-3.19.0-r2/optee-os-stm32mp-3.19.0-stm32mp-r2/ldelf/ta_elf.c:431 (discriminator 2)
    1432:	3301      	adds	r3, #1
    1434:	460d      	mov	r5, r1
    1436:	e744      	b.n	12c2 <save_symtab+0xe>
save_hashtab():
/home/lubuntu/Dokument/GitHub/STM32-Computer/Firmware/STM32-Computer-Firmware/CA7/optee-os-3.19.0-r2/optee-os-stm32mp-3.19.0-stm32mp-r2/ldelf/ta_elf.c:275
    1438:	4d3f      	ldr	r5, [pc, #252]	@ (1538 <save_symtab+0x284>)
    143a:	2228      	movs	r2, #40	@ 0x28
    143c:	fb02 3101 	mla	r1, r2, r1, r3
/home/lubuntu/Dokument/GitHub/STM32-Computer/Firmware/STM32-Computer-Firmware/CA7/optee-os-3.19.0-r2/optee-os-stm32mp-3.19.0-stm32mp-r2/ldelf/ta_elf.c:269
    1440:	4299      	cmp	r1, r3
    1442:	d110      	bne.n	1466 <save_symtab+0x1b2>
/home/lubuntu/Dokument/GitHub/STM32-Computer/Firmware/STM32-Computer-Firmware/CA7/optee-os-3.19.0-r2/optee-os-stm32mp-3.19.0-stm32mp-r2/ldelf/ta_elf.c:296
    1444:	6ca1      	ldr	r1, [r4, #72]	@ 0x48
    1446:	bb19      	cbnz	r1, 1490 <save_symtab+0x1dc>
/home/lubuntu/Dokument/GitHub/STM32-Computer/Firmware/STM32-Computer-Firmware/CA7/optee-os-3.19.0-r2/optee-os-stm32mp-3.19.0-stm32mp-r2/ldelf/ta_elf.c:301
    1448:	6ce3      	ldr	r3, [r4, #76]	@ 0x4c
    144a:	2b00      	cmp	r3, #0
    144c:	d050      	beq.n	14f0 <save_symtab+0x23c>
check_gnu_hashtab():
/home/lubuntu/Dokument/GitHub/STM32-Computer/Firmware/STM32-Computer-Firmware/CA7/optee-os-3.19.0-r2/optee-os-stm32mp-3.19.0-stm32mp-r2/ldelf/ta_elf.c:241
    144e:	079a      	lsls	r2, r3, #30
    1450:	d02a      	beq.n	14a8 <save_symtab+0x1f4>
/home/lubuntu/Dokument/GitHub/STM32-Computer/Firmware/STM32-Computer-Firmware/CA7/optee-os-3.19.0-r2/optee-os-stm32mp-3.19.0-stm32mp-r2/ldelf/ta_elf.c:242
    1452:	9301      	str	r3, [sp, #4]
    1454:	21f2      	movs	r1, #242	@ 0xf2
    1456:	4b4a      	ldr	r3, [pc, #296]	@ (1580 <save_symtab+0x2cc>)
    1458:	484a      	ldr	r0, [pc, #296]	@ (1584 <save_symtab+0x2d0>)
    145a:	447b      	add	r3, pc
    145c:	9300      	str	r3, [sp, #0]
    145e:	2301      	movs	r3, #1
    1460:	4478      	add	r0, pc
    1462:	461a      	mov	r2, r3
    1464:	e775      	b.n	1352 <save_symtab+0x9e>
save_hashtab():
/home/lubuntu/Dokument/GitHub/STM32-Computer/Firmware/STM32-Computer-Firmware/CA7/optee-os-3.19.0-r2/optee-os-stm32mp-3.19.0-stm32mp-r2/ldelf/ta_elf.c:270
    1466:	6860      	ldr	r0, [r4, #4]
    1468:	68da      	ldr	r2, [r3, #12]
    146a:	4402      	add	r2, r0
/home/lubuntu/Dokument/GitHub/STM32-Computer/Firmware/STM32-Computer-Firmware/CA7/optee-os-3.19.0-r2/optee-os-stm32mp-3.19.0-stm32mp-r2/ldelf/ta_elf.c:273
    146c:	6858      	ldr	r0, [r3, #4]
    146e:	2805      	cmp	r0, #5
    1470:	d102      	bne.n	1478 <save_symtab+0x1c4>
/home/lubuntu/Dokument/GitHub/STM32-Computer/Firmware/STM32-Computer-Firmware/CA7/optee-os-3.19.0-r2/optee-os-stm32mp-3.19.0-stm32mp-r2/ldelf/ta_elf.c:274
    1472:	64a2      	str	r2, [r4, #72]	@ 0x48
/home/lubuntu/Dokument/GitHub/STM32-Computer/Firmware/STM32-Computer-Firmware/CA7/optee-os-3.19.0-r2/optee-os-stm32mp-3.19.0-stm32mp-r2/ldelf/ta_elf.c:269
    1474:	3328      	adds	r3, #40	@ 0x28
    1476:	e7e3      	b.n	1440 <save_symtab+0x18c>
/home/lubuntu/Dokument/GitHub/STM32-Computer/Firmware/STM32-Computer-Firmware/CA7/optee-os-3.19.0-r2/optee-os-stm32mp-3.19.0-stm32mp-r2/ldelf/ta_elf.c:275
    1478:	42a8      	cmp	r0, r5
/home/lubuntu/Dokument/GitHub/STM32-Computer/Firmware/STM32-Computer-Firmware/CA7/optee-os-3.19.0-r2/optee-os-stm32mp-3.19.0-stm32mp-r2/ldelf/ta_elf.c:276
    147a:	bf02      	ittt	eq
    147c:	64e2      	streq	r2, [r4, #76]	@ 0x4c
/home/lubuntu/Dokument/GitHub/STM32-Computer/Firmware/STM32-Computer-Firmware/CA7/optee-os-3.19.0-r2/optee-os-stm32mp-3.19.0-stm32mp-r2/ldelf/ta_elf.c:277
    147e:	695a      	ldreq	r2, [r3, #20]
    1480:	6522      	streq	r2, [r4, #80]	@ 0x50
    1482:	e7f7      	b.n	1474 <save_symtab+0x1c0>
/home/lubuntu/Dokument/GitHub/STM32-Computer/Firmware/STM32-Computer-Firmware/CA7/optee-os-3.19.0-r2/optee-os-stm32mp-3.19.0-stm32mp-r2/ldelf/ta_elf.c:289
    1484:	42b5      	cmp	r5, r6
/home/lubuntu/Dokument/GitHub/STM32-Computer/Firmware/STM32-Computer-Firmware/CA7/optee-os-3.19.0-r2/optee-os-stm32mp-3.19.0-stm32mp-r2/ldelf/ta_elf.c:290
    1486:	bf02      	ittt	eq
    1488:	64e0      	streq	r0, [r4, #76]	@ 0x4c
/home/lubuntu/Dokument/GitHub/STM32-Computer/Firmware/STM32-Computer-Firmware/CA7/optee-os-3.19.0-r2/optee-os-stm32mp-3.19.0-stm32mp-r2/ldelf/ta_elf.c:291
    148a:	6a18      	ldreq	r0, [r3, #32]
    148c:	6520      	streq	r0, [r4, #80]	@ 0x50
    148e:	e747      	b.n	1320 <save_symtab+0x6c>
/home/lubuntu/Dokument/GitHub/STM32-Computer/Firmware/STM32-Computer-Firmware/CA7/optee-os-3.19.0-r2/optee-os-stm32mp-3.19.0-stm32mp-r2/ldelf/ta_elf.c:297
    1490:	2300      	movs	r3, #0
    1492:	4620      	mov	r0, r4
    1494:	461a      	mov	r2, r3
    1496:	f7ff f845 	bl	524 <check_hashtab>
/home/lubuntu/Dokument/GitHub/STM32-Computer/Firmware/STM32-Computer-Firmware/CA7/optee-os-3.19.0-r2/optee-os-stm32mp-3.19.0-stm32mp-r2/ldelf/ta_elf.c:298
    149a:	6ca1      	ldr	r1, [r4, #72]	@ 0x48
/home/lubuntu/Dokument/GitHub/STM32-Computer/Firmware/STM32-Computer-Firmware/CA7/optee-os-3.19.0-r2/optee-os-stm32mp-3.19.0-stm32mp-r2/ldelf/ta_elf.c:299
    149c:	4620      	mov	r0, r4
    149e:	e9d1 2300 	ldrd	r2, r3, [r1]
    14a2:	f7ff f83f 	bl	524 <check_hashtab>
    14a6:	e7cf      	b.n	1448 <save_symtab+0x194>
check_gnu_hashtab():
/home/lubuntu/Dokument/GitHub/STM32-Computer/Firmware/STM32-Computer-Firmware/CA7/optee-os-3.19.0-r2/optee-os-stm32mp-3.19.0-stm32mp-r2/ldelf/ta_elf.c:245
    14a8:	6d21      	ldr	r1, [r4, #80]	@ 0x50
    14aa:	290f      	cmp	r1, #15
    14ac:	d808      	bhi.n	14c0 <save_symtab+0x20c>
/home/lubuntu/Dokument/GitHub/STM32-Computer/Firmware/STM32-Computer-Firmware/CA7/optee-os-3.19.0-r2/optee-os-stm32mp-3.19.0-stm32mp-r2/ldelf/ta_elf.c:246
    14ae:	4b36      	ldr	r3, [pc, #216]	@ (1588 <save_symtab+0x2d4>)
    14b0:	21f6      	movs	r1, #246	@ 0xf6
    14b2:	4836      	ldr	r0, [pc, #216]	@ (158c <save_symtab+0x2d8>)
    14b4:	447b      	add	r3, pc
    14b6:	9300      	str	r3, [sp, #0]
    14b8:	2301      	movs	r3, #1
    14ba:	4478      	add	r0, pc
    14bc:	461a      	mov	r2, r3
    14be:	e75d      	b.n	137c <save_symtab+0xc8>
/home/lubuntu/Dokument/GitHub/STM32-Computer/Firmware/STM32-Computer-Firmware/CA7/optee-os-3.19.0-r2/optee-os-stm32mp-3.19.0-stm32mp-r2/ldelf/ta_elf.c:250
    14c0:	7860      	ldrb	r0, [r4, #1]
/home/lubuntu/Dokument/GitHub/STM32-Computer/Firmware/STM32-Computer-Firmware/CA7/optee-os-3.19.0-r2/optee-os-stm32mp-3.19.0-stm32mp-r2/ldelf/ta_elf.c:251
    14c2:	689a      	ldr	r2, [r3, #8]
/home/lubuntu/Dokument/GitHub/STM32-Computer/Firmware/STM32-Computer-Firmware/CA7/optee-os-3.19.0-r2/optee-os-stm32mp-3.19.0-stm32mp-r2/ldelf/ta_elf.c:250
    14c4:	b900      	cbnz	r0, 14c8 <save_symtab+0x214>
/home/lubuntu/Dokument/GitHub/STM32-Computer/Firmware/STM32-Computer-Firmware/CA7/optee-os-3.19.0-r2/optee-os-stm32mp-3.19.0-stm32mp-r2/ldelf/ta_elf.c:253
    14c6:	0052      	lsls	r2, r2, #1
/home/lubuntu/Dokument/GitHub/STM32-Computer/Firmware/STM32-Computer-Firmware/CA7/optee-os-3.19.0-r2/optee-os-stm32mp-3.19.0-stm32mp-r2/ldelf/ta_elf.c:254
    14c8:	681b      	ldr	r3, [r3, #0]
    14ca:	3304      	adds	r3, #4
    14cc:	d206      	bcs.n	14dc <save_symtab+0x228>
/home/lubuntu/Dokument/GitHub/STM32-Computer/Firmware/STM32-Computer-Firmware/CA7/optee-os-3.19.0-r2/optee-os-stm32mp-3.19.0-stm32mp-r2/ldelf/ta_elf.c:255
    14ce:	189b      	adds	r3, r3, r2
    14d0:	d204      	bcs.n	14dc <save_symtab+0x228>
/home/lubuntu/Dokument/GitHub/STM32-Computer/Firmware/STM32-Computer-Firmware/CA7/optee-os-3.19.0-r2/optee-os-stm32mp-3.19.0-stm32mp-r2/ldelf/ta_elf.c:256
    14d2:	009a      	lsls	r2, r3, #2
    14d4:	0f9b      	lsrs	r3, r3, #30
    14d6:	d101      	bne.n	14dc <save_symtab+0x228>
    14d8:	4291      	cmp	r1, r2
    14da:	d209      	bcs.n	14f0 <save_symtab+0x23c>
/home/lubuntu/Dokument/GitHub/STM32-Computer/Firmware/STM32-Computer-Firmware/CA7/optee-os-3.19.0-r2/optee-os-stm32mp-3.19.0-stm32mp-r2/ldelf/ta_elf.c:258
    14dc:	4b2c      	ldr	r3, [pc, #176]	@ (1590 <save_symtab+0x2dc>)
    14de:	f44f 7181 	mov.w	r1, #258	@ 0x102
    14e2:	482c      	ldr	r0, [pc, #176]	@ (1594 <save_symtab+0x2e0>)
    14e4:	447b      	add	r3, pc
    14e6:	9300      	str	r3, [sp, #0]
    14e8:	2301      	movs	r3, #1
    14ea:	4478      	add	r0, pc
    14ec:	461a      	mov	r2, r3
    14ee:	e745      	b.n	137c <save_symtab+0xc8>
save_soname():
/home/lubuntu/Dokument/GitHub/STM32-Computer/Firmware/STM32-Computer-Firmware/CA7/optee-os-3.19.0-r2/optee-os-stm32mp-3.19.0-stm32mp-r2/ldelf/ta_elf.c:346
    14f0:	7866      	ldrb	r6, [r4, #1]
/home/lubuntu/Dokument/GitHub/STM32-Computer/Firmware/STM32-Computer-Firmware/CA7/optee-os-3.19.0-r2/optee-os-stm32mp-3.19.0-stm32mp-r2/ldelf/ta_elf.c:347
    14f2:	6b25      	ldr	r5, [r4, #48]	@ 0x30
/home/lubuntu/Dokument/GitHub/STM32-Computer/Firmware/STM32-Computer-Firmware/CA7/optee-os-3.19.0-r2/optee-os-stm32mp-3.19.0-stm32mp-r2/ldelf/ta_elf.c:346
    14f4:	b1de      	cbz	r6, 152e <save_symtab+0x27a>
/home/lubuntu/Dokument/GitHub/STM32-Computer/Firmware/STM32-Computer-Firmware/CA7/optee-os-3.19.0-r2/optee-os-stm32mp-3.19.0-stm32mp-r2/ldelf/ta_elf.c:349
    14f6:	2600      	movs	r6, #0
    14f8:	6a23      	ldr	r3, [r4, #32]
    14fa:	3520      	adds	r5, #32
    14fc:	429e      	cmp	r6, r3
    14fe:	d301      	bcc.n	1504 <save_symtab+0x250>
save_symtab():
/home/lubuntu/Dokument/GitHub/STM32-Computer/Firmware/STM32-Computer-Firmware/CA7/optee-os-3.19.0-r2/optee-os-stm32mp-3.19.0-stm32mp-r2/ldelf/ta_elf.c:442
    1500:	b003      	add	sp, #12
    1502:	bdf0      	pop	{r4, r5, r6, r7, pc}
save_soname():
/home/lubuntu/Dokument/GitHub/STM32-Computer/Firmware/STM32-Computer-Firmware/CA7/optee-os-3.19.0-r2/optee-os-stm32mp-3.19.0-stm32mp-r2/ldelf/ta_elf.c:350
    1504:	f855 3c0c 	ldr.w	r3, [r5, #-12]
    1508:	4620      	mov	r0, r4
    150a:	f855 2c18 	ldr.w	r2, [r5, #-24]
/home/lubuntu/Dokument/GitHub/STM32-Computer/Firmware/STM32-Computer-Firmware/CA7/optee-os-3.19.0-r2/optee-os-stm32mp-3.19.0-stm32mp-r2/ldelf/ta_elf.c:349
    150e:	3601      	adds	r6, #1
/home/lubuntu/Dokument/GitHub/STM32-Computer/Firmware/STM32-Computer-Firmware/CA7/optee-os-3.19.0-r2/optee-os-stm32mp-3.19.0-stm32mp-r2/ldelf/ta_elf.c:350
    1510:	f855 1c20 	ldr.w	r1, [r5, #-32]
    1514:	f7ff fe7c 	bl	1210 <save_soname_from_segment>
/home/lubuntu/Dokument/GitHub/STM32-Computer/Firmware/STM32-Computer-Firmware/CA7/optee-os-3.19.0-r2/optee-os-stm32mp-3.19.0-stm32mp-r2/ldelf/ta_elf.c:349
    1518:	e7ee      	b.n	14f8 <save_symtab+0x244>
/home/lubuntu/Dokument/GitHub/STM32-Computer/Firmware/STM32-Computer-Firmware/CA7/optee-os-3.19.0-r2/optee-os-stm32mp-3.19.0-stm32mp-r2/ldelf/ta_elf.c:357
    151a:	f855 3c10 	ldr.w	r3, [r5, #-16]
    151e:	4620      	mov	r0, r4
    1520:	f855 2c28 	ldr.w	r2, [r5, #-40]
/home/lubuntu/Dokument/GitHub/STM32-Computer/Firmware/STM32-Computer-Firmware/CA7/optee-os-3.19.0-r2/optee-os-stm32mp-3.19.0-stm32mp-r2/ldelf/ta_elf.c:356
    1524:	3601      	adds	r6, #1
/home/lubuntu/Dokument/GitHub/STM32-Computer/Firmware/STM32-Computer-Firmware/CA7/optee-os-3.19.0-r2/optee-os-stm32mp-3.19.0-stm32mp-r2/ldelf/ta_elf.c:357
    1526:	f855 1c38 	ldr.w	r1, [r5, #-56]
    152a:	f7ff fe71 	bl	1210 <save_soname_from_segment>
/home/lubuntu/Dokument/GitHub/STM32-Computer/Firmware/STM32-Computer-Firmware/CA7/optee-os-3.19.0-r2/optee-os-stm32mp-3.19.0-stm32mp-r2/ldelf/ta_elf.c:356
    152e:	6a23      	ldr	r3, [r4, #32]
    1530:	3538      	adds	r5, #56	@ 0x38
    1532:	429e      	cmp	r6, r3
    1534:	d3f1      	bcc.n	151a <save_symtab+0x266>
    1536:	e7e3      	b.n	1500 <save_symtab+0x24c>
    1538:	6ffffff6 	.word	0x6ffffff6
    153c:	ffff0005 	.word	0xffff0005
    1540:	0000388c 	.word	0x0000388c
    1544:	00003c99 	.word	0x00003c99
    1548:	000037a9 	.word	0x000037a9
    154c:	00003c4b 	.word	0x00003c4b
    1550:	000037af 	.word	0x000037af
    1554:	000037a5 	.word	0x000037a5
    1558:	00003c23 	.word	0x00003c23
    155c:	000037b3 	.word	0x000037b3
    1560:	00003bfd 	.word	0x00003bfd
    1564:	000037bb 	.word	0x000037bb
    1568:	000037c7 	.word	0x000037c7
    156c:	000037b8 	.word	0x000037b8
    1570:	00003b97 	.word	0x00003b97
    1574:	000037d5 	.word	0x000037d5
    1578:	00003b7b 	.word	0x00003b7b
    157c:	000037e5 	.word	0x000037e5
    1580:	000037be 	.word	0x000037be
    1584:	00003b0b 	.word	0x00003b0b
    1588:	00003784 	.word	0x00003784
    158c:	00003ab1 	.word	0x00003ab1
    1590:	0000376a 	.word	0x0000376a
    1594:	00003a81 	.word	0x00003a81

00001598 <get_init_fini_array.constprop.0>:
get_init_fini_array():
/home/lubuntu/Dokument/GitHub/STM32-Computer/Firmware/STM32-Computer-Firmware/CA7/optee-os-3.19.0-r2/optee-os-stm32mp-3.19.0-stm32mp-r2/ldelf/ta_elf.c:1582
    1598:	e92d 4ff0 	stmdb	sp!, {r4, r5, r6, r7, r8, r9, sl, fp, lr}
    159c:	4604      	mov	r4, r0
    159e:	b085      	sub	sp, #20
    15a0:	4699      	mov	r9, r3
/home/lubuntu/Dokument/GitHub/STM32-Computer/Firmware/STM32-Computer-Firmware/CA7/optee-os-3.19.0-r2/optee-os-stm32mp-3.19.0-stm32mp-r2/ldelf/ta_elf.c:1591
    15a2:	2300      	movs	r3, #0
/home/lubuntu/Dokument/GitHub/STM32-Computer/Firmware/STM32-Computer-Firmware/CA7/optee-os-3.19.0-r2/optee-os-stm32mp-3.19.0-stm32mp-r2/ldelf/ta_elf.c:1582
    15a4:	4616      	mov	r6, r2
/home/lubuntu/Dokument/GitHub/STM32-Computer/Firmware/STM32-Computer-Firmware/CA7/optee-os-3.19.0-r2/optee-os-stm32mp-3.19.0-stm32mp-r2/ldelf/ta_elf.c:1592
    15a6:	e9cd 3302 	strd	r3, r3, [sp, #8]
/home/lubuntu/Dokument/GitHub/STM32-Computer/Firmware/STM32-Computer-Firmware/CA7/optee-os-3.19.0-r2/optee-os-stm32mp-3.19.0-stm32mp-r2/ldelf/ta_elf.c:1582
    15aa:	4688      	mov	r8, r1
/home/lubuntu/Dokument/GitHub/STM32-Computer/Firmware/STM32-Computer-Firmware/CA7/optee-os-3.19.0-r2/optee-os-stm32mp-3.19.0-stm32mp-r2/ldelf/ta_elf.c:1596
    15ac:	f7ff f986 	bl	8bc <check_phdr_in_range.constprop.0>
/home/lubuntu/Dokument/GitHub/STM32-Computer/Firmware/STM32-Computer-Firmware/CA7/optee-os-3.19.0-r2/optee-os-stm32mp-3.19.0-stm32mp-r2/ldelf/ta_elf.c:1598
    15b0:	7863      	ldrb	r3, [r4, #1]
/home/lubuntu/Dokument/GitHub/STM32-Computer/Firmware/STM32-Computer-Firmware/CA7/optee-os-3.19.0-r2/optee-os-stm32mp-3.19.0-stm32mp-r2/ldelf/ta_elf.c:1599
    15b2:	2b00      	cmp	r3, #0
    15b4:	bf0b      	itete	eq
    15b6:	2210      	moveq	r2, #16
    15b8:	2208      	movne	r2, #8
    15ba:	f04f 0b08 	moveq.w	fp, #8
    15be:	f04f 0b04 	movne.w	fp, #4
/home/lubuntu/Dokument/GitHub/STM32-Computer/Firmware/STM32-Computer-Firmware/CA7/optee-os-3.19.0-r2/optee-os-stm32mp-3.19.0-stm32mp-r2/ldelf/ta_elf.c:1606
    15c2:	fbb6 faf2 	udiv	sl, r6, r2
    15c6:	fb02 661a 	mls	r6, r2, sl, r6
    15ca:	b13e      	cbz	r6, 15dc <get_init_fini_array.constprop.0+0x44>
    15cc:	4a1a      	ldr	r2, [pc, #104]	@ (1638 <get_init_fini_array.constprop.0+0xa0>)
    15ce:	f240 6146 	movw	r1, #1606	@ 0x646
    15d2:	481a      	ldr	r0, [pc, #104]	@ (163c <get_init_fini_array.constprop.0+0xa4>)
    15d4:	447a      	add	r2, pc
    15d6:	4478      	add	r0, pc
    15d8:	f7ff f9a0 	bl	91c <_assert_trap.constprop.0>
/home/lubuntu/Dokument/GitHub/STM32-Computer/Firmware/STM32-Computer-Firmware/CA7/optee-os-3.19.0-r2/optee-os-stm32mp-3.19.0-stm32mp-r2/ldelf/ta_elf.c:1610
    15dc:	af02      	add	r7, sp, #8
    15de:	ad03      	add	r5, sp, #12
/home/lubuntu/Dokument/GitHub/STM32-Computer/Firmware/STM32-Computer-Firmware/CA7/optee-os-3.19.0-r2/optee-os-stm32mp-3.19.0-stm32mp-r2/ldelf/ta_elf.c:1609
    15e0:	45b2      	cmp	sl, r6
    15e2:	d102      	bne.n	15ea <get_init_fini_array.constprop.0+0x52>
/home/lubuntu/Dokument/GitHub/STM32-Computer/Firmware/STM32-Computer-Firmware/CA7/optee-os-3.19.0-r2/optee-os-stm32mp-3.19.0-stm32mp-r2/ldelf/ta_elf.c:1620
    15e4:	b005      	add	sp, #20
    15e6:	e8bd 8ff0 	ldmia.w	sp!, {r4, r5, r6, r7, r8, r9, sl, fp, pc}
/home/lubuntu/Dokument/GitHub/STM32-Computer/Firmware/STM32-Computer-Firmware/CA7/optee-os-3.19.0-r2/optee-os-stm32mp-3.19.0-stm32mp-r2/ldelf/ta_elf.c:1610
    15ea:	9500      	str	r5, [sp, #0]
    15ec:	4641      	mov	r1, r8
    15ee:	463b      	mov	r3, r7
    15f0:	4632      	mov	r2, r6
    15f2:	4620      	mov	r0, r4
    15f4:	f002 fd3a 	bl	406c <read_dyn>
/home/lubuntu/Dokument/GitHub/STM32-Computer/Firmware/STM32-Computer-Firmware/CA7/optee-os-3.19.0-r2/optee-os-stm32mp-3.19.0-stm32mp-r2/ldelf/ta_elf.c:1611
    15f8:	9902      	ldr	r1, [sp, #8]
    15fa:	2919      	cmp	r1, #25
    15fc:	d106      	bne.n	160c <get_init_fini_array.constprop.0+0x74>
/home/lubuntu/Dokument/GitHub/STM32-Computer/Firmware/STM32-Computer-Firmware/CA7/optee-os-3.19.0-r2/optee-os-stm32mp-3.19.0-stm32mp-r2/ldelf/ta_elf.c:1612
    15fe:	6861      	ldr	r1, [r4, #4]
    1600:	9803      	ldr	r0, [sp, #12]
    1602:	4401      	add	r1, r0
    1604:	f8c9 1000 	str.w	r1, [r9]
/home/lubuntu/Dokument/GitHub/STM32-Computer/Firmware/STM32-Computer-Firmware/CA7/optee-os-3.19.0-r2/optee-os-stm32mp-3.19.0-stm32mp-r2/ldelf/ta_elf.c:1609
    1608:	3601      	adds	r6, #1
    160a:	e7e9      	b.n	15e0 <get_init_fini_array.constprop.0+0x48>
/home/lubuntu/Dokument/GitHub/STM32-Computer/Firmware/STM32-Computer-Firmware/CA7/optee-os-3.19.0-r2/optee-os-stm32mp-3.19.0-stm32mp-r2/ldelf/ta_elf.c:1613
    160c:	291a      	cmp	r1, #26
    160e:	d105      	bne.n	161c <get_init_fini_array.constprop.0+0x84>
/home/lubuntu/Dokument/GitHub/STM32-Computer/Firmware/STM32-Computer-Firmware/CA7/optee-os-3.19.0-r2/optee-os-stm32mp-3.19.0-stm32mp-r2/ldelf/ta_elf.c:1614
    1610:	6861      	ldr	r1, [r4, #4]
    1612:	9803      	ldr	r0, [sp, #12]
    1614:	9b0f      	ldr	r3, [sp, #60]	@ 0x3c
    1616:	4401      	add	r1, r0
/home/lubuntu/Dokument/GitHub/STM32-Computer/Firmware/STM32-Computer-Firmware/CA7/optee-os-3.19.0-r2/optee-os-stm32mp-3.19.0-stm32mp-r2/ldelf/ta_elf.c:1618
    1618:	6019      	str	r1, [r3, #0]
    161a:	e7f5      	b.n	1608 <get_init_fini_array.constprop.0+0x70>
/home/lubuntu/Dokument/GitHub/STM32-Computer/Firmware/STM32-Computer-Firmware/CA7/optee-os-3.19.0-r2/optee-os-stm32mp-3.19.0-stm32mp-r2/ldelf/ta_elf.c:1615
    161c:	291b      	cmp	r1, #27
    161e:	d104      	bne.n	162a <get_init_fini_array.constprop.0+0x92>
/home/lubuntu/Dokument/GitHub/STM32-Computer/Firmware/STM32-Computer-Firmware/CA7/optee-os-3.19.0-r2/optee-os-stm32mp-3.19.0-stm32mp-r2/ldelf/ta_elf.c:1616
    1620:	9903      	ldr	r1, [sp, #12]
    1622:	9b0e      	ldr	r3, [sp, #56]	@ 0x38
    1624:	fbb1 f1fb 	udiv	r1, r1, fp
    1628:	e7f6      	b.n	1618 <get_init_fini_array.constprop.0+0x80>
/home/lubuntu/Dokument/GitHub/STM32-Computer/Firmware/STM32-Computer-Firmware/CA7/optee-os-3.19.0-r2/optee-os-stm32mp-3.19.0-stm32mp-r2/ldelf/ta_elf.c:1617
    162a:	291c      	cmp	r1, #28
    162c:	d1ec      	bne.n	1608 <get_init_fini_array.constprop.0+0x70>
/home/lubuntu/Dokument/GitHub/STM32-Computer/Firmware/STM32-Computer-Firmware/CA7/optee-os-3.19.0-r2/optee-os-stm32mp-3.19.0-stm32mp-r2/ldelf/ta_elf.c:1618
    162e:	9903      	ldr	r1, [sp, #12]
    1630:	9b10      	ldr	r3, [sp, #64]	@ 0x40
    1632:	fbb1 f1fb 	udiv	r1, r1, fp
    1636:	e7ef      	b.n	1618 <get_init_fini_array.constprop.0+0x80>
    1638:	000038ae 	.word	0x000038ae
    163c:	00003502 	.word	0x00003502

00001640 <ta_elf_find_elf>:
ta_elf_find_elf():
/home/lubuntu/Dokument/GitHub/STM32-Computer/Firmware/STM32-Computer-Firmware/CA7/optee-os-3.19.0-r2/optee-os-stm32mp-3.19.0-stm32mp-r2/ldelf/ta_elf.c:91
    1640:	b538      	push	{r3, r4, r5, lr}
    1642:	4605      	mov	r5, r0
/home/lubuntu/Dokument/GitHub/STM32-Computer/Firmware/STM32-Computer-Firmware/CA7/optee-os-3.19.0-r2/optee-os-stm32mp-3.19.0-stm32mp-r2/ldelf/ta_elf.c:94
    1644:	4b08      	ldr	r3, [pc, #32]	@ (1668 <ta_elf_find_elf+0x28>)
    1646:	447b      	add	r3, pc
    1648:	681c      	ldr	r4, [r3, #0]
/home/lubuntu/Dokument/GitHub/STM32-Computer/Firmware/STM32-Computer-Firmware/CA7/optee-os-3.19.0-r2/optee-os-stm32mp-3.19.0-stm32mp-r2/ldelf/ta_elf.c:94 (discriminator 1)
    164a:	b90c      	cbnz	r4, 1650 <ta_elf_find_elf+0x10>
/home/lubuntu/Dokument/GitHub/STM32-Computer/Firmware/STM32-Computer-Firmware/CA7/optee-os-3.19.0-r2/optee-os-stm32mp-3.19.0-stm32mp-r2/ldelf/ta_elf.c:99
    164c:	4620      	mov	r0, r4
    164e:	bd38      	pop	{r3, r4, r5, pc}
/home/lubuntu/Dokument/GitHub/STM32-Computer/Firmware/STM32-Computer-Firmware/CA7/optee-os-3.19.0-r2/optee-os-stm32mp-3.19.0-stm32mp-r2/ldelf/ta_elf.c:95
    1650:	2210      	movs	r2, #16
    1652:	f104 018c 	add.w	r1, r4, #140	@ 0x8c
    1656:	4628      	mov	r0, r5
    1658:	f002 fe64 	bl	4324 <memcmp>
    165c:	2800      	cmp	r0, #0
    165e:	d0f5      	beq.n	164c <ta_elf_find_elf+0xc>
/home/lubuntu/Dokument/GitHub/STM32-Computer/Firmware/STM32-Computer-Firmware/CA7/optee-os-3.19.0-r2/optee-os-stm32mp-3.19.0-stm32mp-r2/ldelf/ta_elf.c:94 (discriminator 2)
    1660:	f8d4 409c 	ldr.w	r4, [r4, #156]	@ 0x9c
    1664:	e7f1      	b.n	164a <ta_elf_find_elf+0xa>
    1666:	bf00      	nop
    1668:	00004a5e 	.word	0x00004a5e

0000166c <queue_elf>:
queue_elf():
/home/lubuntu/Dokument/GitHub/STM32-Computer/Firmware/STM32-Computer-Firmware/CA7/optee-os-3.19.0-r2/optee-os-stm32mp-3.19.0-stm32mp-r2/ldelf/ta_elf.c:77
    166c:	b513      	push	{r0, r1, r4, lr}
    166e:	4604      	mov	r4, r0
/home/lubuntu/Dokument/GitHub/STM32-Computer/Firmware/STM32-Computer-Firmware/CA7/optee-os-3.19.0-r2/optee-os-stm32mp-3.19.0-stm32mp-r2/ldelf/ta_elf.c:78
    1670:	f7ff ffe6 	bl	1640 <ta_elf_find_elf>
/home/lubuntu/Dokument/GitHub/STM32-Computer/Firmware/STM32-Computer-Firmware/CA7/optee-os-3.19.0-r2/optee-os-stm32mp-3.19.0-stm32mp-r2/ldelf/ta_elf.c:80
    1674:	b980      	cbnz	r0, 1698 <queue_elf+0x2c>
/home/lubuntu/Dokument/GitHub/STM32-Computer/Firmware/STM32-Computer-Firmware/CA7/optee-os-3.19.0-r2/optee-os-stm32mp-3.19.0-stm32mp-r2/ldelf/ta_elf.c:83
    1676:	4620      	mov	r0, r4
    1678:	f7fe ff8c 	bl	594 <queue_elf_helper>
/home/lubuntu/Dokument/GitHub/STM32-Computer/Firmware/STM32-Computer-Firmware/CA7/optee-os-3.19.0-r2/optee-os-stm32mp-3.19.0-stm32mp-r2/ldelf/ta_elf.c:84
    167c:	b968      	cbnz	r0, 169a <queue_elf+0x2e>
/home/lubuntu/Dokument/GitHub/STM32-Computer/Firmware/STM32-Computer-Firmware/CA7/optee-os-3.19.0-r2/optee-os-stm32mp-3.19.0-stm32mp-r2/ldelf/ta_elf.c:85
    167e:	4b09      	ldr	r3, [pc, #36]	@ (16a4 <queue_elf+0x38>)
    1680:	2155      	movs	r1, #85	@ 0x55
    1682:	4809      	ldr	r0, [pc, #36]	@ (16a8 <queue_elf+0x3c>)
    1684:	447b      	add	r3, pc
    1686:	9300      	str	r3, [sp, #0]
    1688:	2301      	movs	r3, #1
    168a:	4478      	add	r0, pc
    168c:	461a      	mov	r2, r3
    168e:	f002 ff13 	bl	44b8 <trace_printf>
    1692:	4803      	ldr	r0, [pc, #12]	@ (16a0 <queue_elf+0x34>)
    1694:	f7fe ecf0 	blx	78 <_ldelf_return>
/home/lubuntu/Dokument/GitHub/STM32-Computer/Firmware/STM32-Computer-Firmware/CA7/optee-os-3.19.0-r2/optee-os-stm32mp-3.19.0-stm32mp-r2/ldelf/ta_elf.c:81
    1698:	2000      	movs	r0, #0
/home/lubuntu/Dokument/GitHub/STM32-Computer/Firmware/STM32-Computer-Firmware/CA7/optee-os-3.19.0-r2/optee-os-stm32mp-3.19.0-stm32mp-r2/ldelf/ta_elf.c:88
    169a:	b002      	add	sp, #8
    169c:	bd10      	pop	{r4, pc}
    169e:	bf00      	nop
    16a0:	ffff000c 	.word	0xffff000c
    16a4:	000035df 	.word	0x000035df
    16a8:	00003a27 	.word	0x00003a27

000016ac <add_deps_from_segment>:
add_deps_from_segment():
/home/lubuntu/Dokument/GitHub/STM32-Computer/Firmware/STM32-Computer-Firmware/CA7/optee-os-3.19.0-r2/optee-os-stm32mp-3.19.0-stm32mp-r2/ldelf/ta_elf.c:998
    16ac:	e92d 4ff0 	stmdb	sp!, {r4, r5, r6, r7, r8, r9, sl, fp, lr}
    16b0:	b08b      	sub	sp, #44	@ 0x2c
/home/lubuntu/Dokument/GitHub/STM32-Computer/Firmware/STM32-Computer-Firmware/CA7/optee-os-3.19.0-r2/optee-os-stm32mp-3.19.0-stm32mp-r2/ldelf/ta_elf.c:1004
    16b2:	f10d 0918 	add.w	r9, sp, #24
/home/lubuntu/Dokument/GitHub/STM32-Computer/Firmware/STM32-Computer-Firmware/CA7/optee-os-3.19.0-r2/optee-os-stm32mp-3.19.0-stm32mp-r2/ldelf/ta_elf.c:998
    16b6:	460e      	mov	r6, r1
    16b8:	9202      	str	r2, [sp, #8]
/home/lubuntu/Dokument/GitHub/STM32-Computer/Firmware/STM32-Computer-Firmware/CA7/optee-os-3.19.0-r2/optee-os-stm32mp-3.19.0-stm32mp-r2/ldelf/ta_elf.c:1002
    16ba:	2100      	movs	r1, #0
/home/lubuntu/Dokument/GitHub/STM32-Computer/Firmware/STM32-Computer-Firmware/CA7/optee-os-3.19.0-r2/optee-os-stm32mp-3.19.0-stm32mp-r2/ldelf/ta_elf.c:998
    16bc:	4605      	mov	r5, r0
/home/lubuntu/Dokument/GitHub/STM32-Computer/Firmware/STM32-Computer-Firmware/CA7/optee-os-3.19.0-r2/optee-os-stm32mp-3.19.0-stm32mp-r2/ldelf/ta_elf.c:1004
    16be:	2210      	movs	r2, #16
    16c0:	4648      	mov	r0, r9
/home/lubuntu/Dokument/GitHub/STM32-Computer/Firmware/STM32-Computer-Firmware/CA7/optee-os-3.19.0-r2/optee-os-stm32mp-3.19.0-stm32mp-r2/ldelf/ta_elf.c:998
    16c2:	461c      	mov	r4, r3
/home/lubuntu/Dokument/GitHub/STM32-Computer/Firmware/STM32-Computer-Firmware/CA7/optee-os-3.19.0-r2/optee-os-stm32mp-3.19.0-stm32mp-r2/ldelf/ta_elf.c:1003
    16c4:	e9cd 1104 	strd	r1, r1, [sp, #16]
/home/lubuntu/Dokument/GitHub/STM32-Computer/Firmware/STM32-Computer-Firmware/CA7/optee-os-3.19.0-r2/optee-os-stm32mp-3.19.0-stm32mp-r2/ldelf/ta_elf.c:1004
    16c8:	f002 fe3c 	bl	4344 <memset>
/home/lubuntu/Dokument/GitHub/STM32-Computer/Firmware/STM32-Computer-Firmware/CA7/optee-os-3.19.0-r2/optee-os-stm32mp-3.19.0-stm32mp-r2/ldelf/ta_elf.c:1008
    16cc:	2e02      	cmp	r6, #2
    16ce:	d12d      	bne.n	172c <add_deps_from_segment+0x80>
/home/lubuntu/Dokument/GitHub/STM32-Computer/Firmware/STM32-Computer-Firmware/CA7/optee-os-3.19.0-r2/optee-os-stm32mp-3.19.0-stm32mp-r2/ldelf/ta_elf.c:1011
    16d0:	9902      	ldr	r1, [sp, #8]
    16d2:	4622      	mov	r2, r4
    16d4:	4628      	mov	r0, r5
    16d6:	f7ff f8f1 	bl	8bc <check_phdr_in_range.constprop.0>
/home/lubuntu/Dokument/GitHub/STM32-Computer/Firmware/STM32-Computer-Firmware/CA7/optee-os-3.19.0-r2/optee-os-stm32mp-3.19.0-stm32mp-r2/ldelf/ta_elf.c:1013
    16da:	786b      	ldrb	r3, [r5, #1]
/home/lubuntu/Dokument/GitHub/STM32-Computer/Firmware/STM32-Computer-Firmware/CA7/optee-os-3.19.0-r2/optee-os-stm32mp-3.19.0-stm32mp-r2/ldelf/ta_elf.c:1014
    16dc:	2b00      	cmp	r3, #0
    16de:	bf0c      	ite	eq
    16e0:	2310      	moveq	r3, #16
    16e2:	2308      	movne	r3, #8
/home/lubuntu/Dokument/GitHub/STM32-Computer/Firmware/STM32-Computer-Firmware/CA7/optee-os-3.19.0-r2/optee-os-stm32mp-3.19.0-stm32mp-r2/ldelf/ta_elf.c:1018
    16e4:	fbb4 f8f3 	udiv	r8, r4, r3
    16e8:	fb03 4418 	mls	r4, r3, r8, r4
    16ec:	b13c      	cbz	r4, 16fe <add_deps_from_segment+0x52>
/home/lubuntu/Dokument/GitHub/STM32-Computer/Firmware/STM32-Computer-Firmware/CA7/optee-os-3.19.0-r2/optee-os-stm32mp-3.19.0-stm32mp-r2/ldelf/ta_elf.c:1018 (discriminator 1)
    16ee:	4a2f      	ldr	r2, [pc, #188]	@ (17ac <add_deps_from_segment+0x100>)
    16f0:	f240 31fa 	movw	r1, #1018	@ 0x3fa
    16f4:	482e      	ldr	r0, [pc, #184]	@ (17b0 <add_deps_from_segment+0x104>)
    16f6:	447a      	add	r2, pc
    16f8:	4478      	add	r0, pc
    16fa:	f7ff f90f 	bl	91c <_assert_trap.constprop.0>
/home/lubuntu/Dokument/GitHub/STM32-Computer/Firmware/STM32-Computer-Firmware/CA7/optee-os-3.19.0-r2/optee-os-stm32mp-3.19.0-stm32mp-r2/ldelf/ta_elf.c:1006
    16fe:	4627      	mov	r7, r4
/home/lubuntu/Dokument/GitHub/STM32-Computer/Firmware/STM32-Computer-Firmware/CA7/optee-os-3.19.0-r2/optee-os-stm32mp-3.19.0-stm32mp-r2/ldelf/ta_elf.c:1021
    1700:	46a3      	mov	fp, r4
/home/lubuntu/Dokument/GitHub/STM32-Computer/Firmware/STM32-Computer-Firmware/CA7/optee-os-3.19.0-r2/optee-os-stm32mp-3.19.0-stm32mp-r2/ldelf/ta_elf.c:1005
    1702:	4626      	mov	r6, r4
/home/lubuntu/Dokument/GitHub/STM32-Computer/Firmware/STM32-Computer-Firmware/CA7/optee-os-3.19.0-r2/optee-os-stm32mp-3.19.0-stm32mp-r2/ldelf/ta_elf.c:1022
    1704:	ab04      	add	r3, sp, #16
    1706:	f10d 0a14 	add.w	sl, sp, #20
/home/lubuntu/Dokument/GitHub/STM32-Computer/Firmware/STM32-Computer-Firmware/CA7/optee-os-3.19.0-r2/optee-os-stm32mp-3.19.0-stm32mp-r2/ldelf/ta_elf.c:1021 (discriminator 1)
    170a:	45c3      	cmp	fp, r8
    170c:	d001      	beq.n	1712 <add_deps_from_segment+0x66>
/home/lubuntu/Dokument/GitHub/STM32-Computer/Firmware/STM32-Computer-Firmware/CA7/optee-os-3.19.0-r2/optee-os-stm32mp-3.19.0-stm32mp-r2/ldelf/ta_elf.c:1021 (discriminator 3)
    170e:	b186      	cbz	r6, 1732 <add_deps_from_segment+0x86>
/home/lubuntu/Dokument/GitHub/STM32-Computer/Firmware/STM32-Computer-Firmware/CA7/optee-os-3.19.0-r2/optee-os-stm32mp-3.19.0-stm32mp-r2/ldelf/ta_elf.c:1021 (discriminator 4)
    1710:	b17f      	cbz	r7, 1732 <add_deps_from_segment+0x86>
/home/lubuntu/Dokument/GitHub/STM32-Computer/Firmware/STM32-Computer-Firmware/CA7/optee-os-3.19.0-r2/optee-os-stm32mp-3.19.0-stm32mp-r2/ldelf/ta_elf.c:1028
    1712:	4928      	ldr	r1, [pc, #160]	@ (17b4 <add_deps_from_segment+0x108>)
    1714:	463b      	mov	r3, r7
    1716:	4632      	mov	r2, r6
    1718:	4628      	mov	r0, r5
    171a:	4479      	add	r1, pc
/home/lubuntu/Dokument/GitHub/STM32-Computer/Firmware/STM32-Computer-Firmware/CA7/optee-os-3.19.0-r2/optee-os-stm32mp-3.19.0-stm32mp-r2/ldelf/ta_elf.c:1031
    171c:	f10d 0a10 	add.w	sl, sp, #16
    1720:	f10d 0b14 	add.w	fp, sp, #20
/home/lubuntu/Dokument/GitHub/STM32-Computer/Firmware/STM32-Computer-Firmware/CA7/optee-os-3.19.0-r2/optee-os-stm32mp-3.19.0-stm32mp-r2/ldelf/ta_elf.c:1028
    1724:	f7fe febc 	bl	4a0 <check_range>
/home/lubuntu/Dokument/GitHub/STM32-Computer/Firmware/STM32-Computer-Firmware/CA7/optee-os-3.19.0-r2/optee-os-stm32mp-3.19.0-stm32mp-r2/ldelf/ta_elf.c:1030 (discriminator 1)
    1728:	4544      	cmp	r4, r8
    172a:	d118      	bne.n	175e <add_deps_from_segment+0xb2>
/home/lubuntu/Dokument/GitHub/STM32-Computer/Firmware/STM32-Computer-Firmware/CA7/optee-os-3.19.0-r2/optee-os-stm32mp-3.19.0-stm32mp-r2/ldelf/ta_elf.c:1040
    172c:	b00b      	add	sp, #44	@ 0x2c
    172e:	e8bd 8ff0 	ldmia.w	sp!, {r4, r5, r6, r7, r8, r9, sl, fp, pc}
/home/lubuntu/Dokument/GitHub/STM32-Computer/Firmware/STM32-Computer-Firmware/CA7/optee-os-3.19.0-r2/optee-os-stm32mp-3.19.0-stm32mp-r2/ldelf/ta_elf.c:1022
    1732:	9902      	ldr	r1, [sp, #8]
    1734:	465a      	mov	r2, fp
    1736:	f8cd a000 	str.w	sl, [sp]
    173a:	4628      	mov	r0, r5
    173c:	9303      	str	r3, [sp, #12]
    173e:	f002 fc95 	bl	406c <read_dyn>
/home/lubuntu/Dokument/GitHub/STM32-Computer/Firmware/STM32-Computer-Firmware/CA7/optee-os-3.19.0-r2/optee-os-stm32mp-3.19.0-stm32mp-r2/ldelf/ta_elf.c:1023
    1742:	9a04      	ldr	r2, [sp, #16]
    1744:	9b03      	ldr	r3, [sp, #12]
    1746:	2a05      	cmp	r2, #5
    1748:	d105      	bne.n	1756 <add_deps_from_segment+0xaa>
/home/lubuntu/Dokument/GitHub/STM32-Computer/Firmware/STM32-Computer-Firmware/CA7/optee-os-3.19.0-r2/optee-os-stm32mp-3.19.0-stm32mp-r2/ldelf/ta_elf.c:1024
    174a:	686e      	ldr	r6, [r5, #4]
    174c:	9a05      	ldr	r2, [sp, #20]
    174e:	4416      	add	r6, r2
/home/lubuntu/Dokument/GitHub/STM32-Computer/Firmware/STM32-Computer-Firmware/CA7/optee-os-3.19.0-r2/optee-os-stm32mp-3.19.0-stm32mp-r2/ldelf/ta_elf.c:1021 (discriminator 2)
    1750:	f10b 0b01 	add.w	fp, fp, #1
    1754:	e7d9      	b.n	170a <add_deps_from_segment+0x5e>
/home/lubuntu/Dokument/GitHub/STM32-Computer/Firmware/STM32-Computer-Firmware/CA7/optee-os-3.19.0-r2/optee-os-stm32mp-3.19.0-stm32mp-r2/ldelf/ta_elf.c:1025
    1756:	2a0a      	cmp	r2, #10
/home/lubuntu/Dokument/GitHub/STM32-Computer/Firmware/STM32-Computer-Firmware/CA7/optee-os-3.19.0-r2/optee-os-stm32mp-3.19.0-stm32mp-r2/ldelf/ta_elf.c:1026
    1758:	bf08      	it	eq
    175a:	9f05      	ldreq	r7, [sp, #20]
    175c:	e7f8      	b.n	1750 <add_deps_from_segment+0xa4>
/home/lubuntu/Dokument/GitHub/STM32-Computer/Firmware/STM32-Computer-Firmware/CA7/optee-os-3.19.0-r2/optee-os-stm32mp-3.19.0-stm32mp-r2/ldelf/ta_elf.c:1031
    175e:	9902      	ldr	r1, [sp, #8]
    1760:	4653      	mov	r3, sl
    1762:	f8cd b000 	str.w	fp, [sp]
    1766:	4622      	mov	r2, r4
    1768:	4628      	mov	r0, r5
    176a:	f002 fc7f 	bl	406c <read_dyn>
/home/lubuntu/Dokument/GitHub/STM32-Computer/Firmware/STM32-Computer-Firmware/CA7/optee-os-3.19.0-r2/optee-os-stm32mp-3.19.0-stm32mp-r2/ldelf/ta_elf.c:1032
    176e:	9b04      	ldr	r3, [sp, #16]
    1770:	2b01      	cmp	r3, #1
    1772:	d116      	bne.n	17a2 <add_deps_from_segment+0xf6>
/home/lubuntu/Dokument/GitHub/STM32-Computer/Firmware/STM32-Computer-Firmware/CA7/optee-os-3.19.0-r2/optee-os-stm32mp-3.19.0-stm32mp-r2/ldelf/ta_elf.c:1034
    1774:	9905      	ldr	r1, [sp, #20]
    1776:	42b9      	cmp	r1, r7
    1778:	d30c      	bcc.n	1794 <add_deps_from_segment+0xe8>
/home/lubuntu/Dokument/GitHub/STM32-Computer/Firmware/STM32-Computer-Firmware/CA7/optee-os-3.19.0-r2/optee-os-stm32mp-3.19.0-stm32mp-r2/ldelf/ta_elf.c:1035
    177a:	4a0f      	ldr	r2, [pc, #60]	@ (17b8 <add_deps_from_segment+0x10c>)
    177c:	f240 410b 	movw	r1, #1035	@ 0x40b
    1780:	480e      	ldr	r0, [pc, #56]	@ (17bc <add_deps_from_segment+0x110>)
    1782:	447a      	add	r2, pc
    1784:	4478      	add	r0, pc
    1786:	9200      	str	r2, [sp, #0]
    1788:	461a      	mov	r2, r3
    178a:	f002 fe95 	bl	44b8 <trace_printf>
    178e:	4806      	ldr	r0, [pc, #24]	@ (17a8 <add_deps_from_segment+0xfc>)
    1790:	f7fe ec72 	blx	78 <_ldelf_return>
/home/lubuntu/Dokument/GitHub/STM32-Computer/Firmware/STM32-Computer-Firmware/CA7/optee-os-3.19.0-r2/optee-os-stm32mp-3.19.0-stm32mp-r2/ldelf/ta_elf.c:1037
    1794:	4431      	add	r1, r6
    1796:	4648      	mov	r0, r9
    1798:	f001 fc0c 	bl	2fb4 <tee_uuid_from_str>
/home/lubuntu/Dokument/GitHub/STM32-Computer/Firmware/STM32-Computer-Firmware/CA7/optee-os-3.19.0-r2/optee-os-stm32mp-3.19.0-stm32mp-r2/ldelf/ta_elf.c:1038
    179c:	4648      	mov	r0, r9
    179e:	f7ff ff65 	bl	166c <queue_elf>
/home/lubuntu/Dokument/GitHub/STM32-Computer/Firmware/STM32-Computer-Firmware/CA7/optee-os-3.19.0-r2/optee-os-stm32mp-3.19.0-stm32mp-r2/ldelf/ta_elf.c:1030 (discriminator 2)
    17a2:	3401      	adds	r4, #1
    17a4:	e7c0      	b.n	1728 <add_deps_from_segment+0x7c>
    17a6:	bf00      	nop
    17a8:	ffff0005 	.word	0xffff0005
    17ac:	000038ea 	.word	0x000038ea
    17b0:	000033e0 	.word	0x000033e0
    17b4:	000034ef 	.word	0x000034ef
    17b8:	000034f2 	.word	0x000034f2
    17bc:	0000385c 	.word	0x0000385c

000017c0 <ta_elf_load_main>:
ta_elf_load_main():
/home/lubuntu/Dokument/GitHub/STM32-Computer/Firmware/STM32-Computer-Firmware/CA7/optee-os-3.19.0-r2/optee-os-stm32mp-3.19.0-stm32mp-r2/ldelf/ta_elf.c:1219
    17c0:	e92d 4ff0 	stmdb	sp!, {r4, r5, r6, r7, r8, r9, sl, fp, lr}
    17c4:	b087      	sub	sp, #28
    17c6:	4689      	mov	r9, r1
    17c8:	4617      	mov	r7, r2
    17ca:	9302      	str	r3, [sp, #8]
/home/lubuntu/Dokument/GitHub/STM32-Computer/Firmware/STM32-Computer-Firmware/CA7/optee-os-3.19.0-r2/optee-os-stm32mp-3.19.0-stm32mp-r2/ldelf/ta_elf.c:1220
    17cc:	f7ff ff4e 	bl	166c <queue_elf>
/home/lubuntu/Dokument/GitHub/STM32-Computer/Firmware/STM32-Computer-Firmware/CA7/optee-os-3.19.0-r2/optee-os-stm32mp-3.19.0-stm32mp-r2/ldelf/ta_elf.c:1221
    17d0:	2300      	movs	r3, #0
/home/lubuntu/Dokument/GitHub/STM32-Computer/Firmware/STM32-Computer-Firmware/CA7/optee-os-3.19.0-r2/optee-os-stm32mp-3.19.0-stm32mp-r2/ldelf/ta_elf.c:1224
    17d2:	4604      	mov	r4, r0
/home/lubuntu/Dokument/GitHub/STM32-Computer/Firmware/STM32-Computer-Firmware/CA7/optee-os-3.19.0-r2/optee-os-stm32mp-3.19.0-stm32mp-r2/ldelf/ta_elf.c:1221
    17d4:	9304      	str	r3, [sp, #16]
/home/lubuntu/Dokument/GitHub/STM32-Computer/Firmware/STM32-Computer-Firmware/CA7/optee-os-3.19.0-r2/optee-os-stm32mp-3.19.0-stm32mp-r2/ldelf/ta_elf.c:1224
    17d6:	b938      	cbnz	r0, 17e8 <ta_elf_load_main+0x28>
/home/lubuntu/Dokument/GitHub/STM32-Computer/Firmware/STM32-Computer-Firmware/CA7/optee-os-3.19.0-r2/optee-os-stm32mp-3.19.0-stm32mp-r2/ldelf/ta_elf.c:1224 (discriminator 1)
    17d8:	4ab4      	ldr	r2, [pc, #720]	@ (1aac <ta_elf_load_main+0x2ec>)
    17da:	f44f 6199 	mov.w	r1, #1224	@ 0x4c8
    17de:	48b4      	ldr	r0, [pc, #720]	@ (1ab0 <ta_elf_load_main+0x2f0>)
    17e0:	447a      	add	r2, pc
    17e2:	4478      	add	r0, pc
populate_segments_legacy():
/home/lubuntu/Dokument/GitHub/STM32-Computer/Firmware/STM32-Computer-Firmware/CA7/optee-os-3.19.0-r2/optee-os-stm32mp-3.19.0-stm32mp-r2/ldelf/ta_elf.c:689
    17e4:	f7ff f89a 	bl	91c <_assert_trap.constprop.0>
ta_elf_load_main():
/home/lubuntu/Dokument/GitHub/STM32-Computer/Firmware/STM32-Computer-Firmware/CA7/optee-os-3.19.0-r2/optee-os-stm32mp-3.19.0-stm32mp-r2/ldelf/ta_elf.c:1225
    17e8:	2301      	movs	r3, #1
    17ea:	7003      	strb	r3, [r0, #0]
load_main():
/home/lubuntu/Dokument/GitHub/STM32-Computer/Firmware/STM32-Computer-Firmware/CA7/optee-os-3.19.0-r2/optee-os-stm32mp-3.19.0-stm32mp-r2/ldelf/ta_elf.c:1165
    17ec:	f7fe ff82 	bl	6f4 <init_elf>
/home/lubuntu/Dokument/GitHub/STM32-Computer/Firmware/STM32-Computer-Firmware/CA7/optee-os-3.19.0-r2/optee-os-stm32mp-3.19.0-stm32mp-r2/ldelf/ta_elf.c:1166
    17f0:	4620      	mov	r0, r4
    17f2:	f7ff fb4d 	bl	e90 <map_segments>
/home/lubuntu/Dokument/GitHub/STM32-Computer/Firmware/STM32-Computer-Firmware/CA7/optee-os-3.19.0-r2/optee-os-stm32mp-3.19.0-stm32mp-r2/ldelf/ta_elf.c:1167
    17f6:	4620      	mov	r0, r4
    17f8:	f7ff f984 	bl	b04 <populate_segments>
/home/lubuntu/Dokument/GitHub/STM32-Computer/Firmware/STM32-Computer-Firmware/CA7/optee-os-3.19.0-r2/optee-os-stm32mp-3.19.0-stm32mp-r2/ldelf/ta_elf.c:1168
    17fc:	4620      	mov	r0, r4
    17fe:	f002 fc78 	bl	40f2 <add_dependencies>
/home/lubuntu/Dokument/GitHub/STM32-Computer/Firmware/STM32-Computer-Firmware/CA7/optee-os-3.19.0-r2/optee-os-stm32mp-3.19.0-stm32mp-r2/ldelf/ta_elf.c:1169
    1802:	4620      	mov	r0, r4
    1804:	f7ff f908 	bl	a18 <copy_section_headers>
/home/lubuntu/Dokument/GitHub/STM32-Computer/Firmware/STM32-Computer-Firmware/CA7/optee-os-3.19.0-r2/optee-os-stm32mp-3.19.0-stm32mp-r2/ldelf/ta_elf.c:1170
    1808:	4620      	mov	r0, r4
    180a:	f7ff fd53 	bl	12b4 <save_symtab>
/home/lubuntu/Dokument/GitHub/STM32-Computer/Firmware/STM32-Computer-Firmware/CA7/optee-os-3.19.0-r2/optee-os-stm32mp-3.19.0-stm32mp-r2/ldelf/ta_elf.c:1171
    180e:	4620      	mov	r0, r4
    1810:	f7ff f834 	bl	87c <close_handle>
/home/lubuntu/Dokument/GitHub/STM32-Computer/Firmware/STM32-Computer-Firmware/CA7/optee-os-3.19.0-r2/optee-os-stm32mp-3.19.0-stm32mp-r2/ldelf/ta_elf.c:1174
    1814:	78e3      	ldrb	r3, [r4, #3]
    1816:	b113      	cbz	r3, 181e <ta_elf_load_main+0x5e>
/home/lubuntu/Dokument/GitHub/STM32-Computer/Firmware/STM32-Computer-Firmware/CA7/optee-os-3.19.0-r2/optee-os-stm32mp-3.19.0-stm32mp-r2/ldelf/ta_elf.c:1175
    1818:	4620      	mov	r0, r4
    181a:	f7fe ff45 	bl	6a8 <ta_elf_add_bti>
/home/lubuntu/Dokument/GitHub/STM32-Computer/Firmware/STM32-Computer-Firmware/CA7/optee-os-3.19.0-r2/optee-os-stm32mp-3.19.0-stm32mp-r2/ldelf/ta_elf.c:1177
    181e:	6863      	ldr	r3, [r4, #4]
    1820:	f8c4 3088 	str.w	r3, [r4, #136]	@ 0x88
/home/lubuntu/Dokument/GitHub/STM32-Computer/Firmware/STM32-Computer-Firmware/CA7/optee-os-3.19.0-r2/optee-os-stm32mp-3.19.0-stm32mp-r2/ldelf/ta_elf.c:1178
    1824:	e9d3 2306 	ldrd	r2, r3, [r3, #24]
    1828:	f1b3 3fff 	cmp.w	r3, #4294967295	@ 0xffffffff
    182c:	bf08      	it	eq
    182e:	f1b2 3fff 	cmpeq.w	r2, #4294967295	@ 0xffffffff
    1832:	f000 80f3 	beq.w	1a1c <ta_elf_load_main+0x25c>
/home/lubuntu/Dokument/GitHub/STM32-Computer/Firmware/STM32-Computer-Firmware/CA7/optee-os-3.19.0-r2/optee-os-stm32mp-3.19.0-stm32mp-r2/ldelf/ta_elf.c:1194
    1836:	4b9f      	ldr	r3, [pc, #636]	@ (1ab4 <ta_elf_load_main+0x2f4>)
    1838:	f104 0a8c 	add.w	sl, r4, #140	@ 0x8c
    183c:	489e      	ldr	r0, [pc, #632]	@ (1ab8 <ta_elf_load_main+0x2f8>)
    183e:	2203      	movs	r2, #3
    1840:	447b      	add	r3, pc
    1842:	f240 41aa 	movw	r1, #1194	@ 0x4aa
    1846:	4478      	add	r0, pc
    1848:	9300      	str	r3, [sp, #0]
    184a:	2301      	movs	r3, #1
    184c:	f8cd a004 	str.w	sl, [sp, #4]
    1850:	f002 fe32 	bl	44b8 <trace_printf>
clean_elf_load_main():
/home/lubuntu/Dokument/GitHub/STM32-Computer/Firmware/STM32-Computer-Firmware/CA7/optee-os-3.19.0-r2/optee-os-stm32mp-3.19.0-stm32mp-r2/ldelf/ta_elf.c:1111
    1854:	6920      	ldr	r0, [r4, #16]
    1856:	f44f 5180 	mov.w	r1, #4096	@ 0x1000
    185a:	f002 fbd9 	bl	4010 <sys_unmap>
/home/lubuntu/Dokument/GitHub/STM32-Computer/Firmware/STM32-Computer-Firmware/CA7/optee-os-3.19.0-r2/optee-os-stm32mp-3.19.0-stm32mp-r2/ldelf/ta_elf.c:1112
    185e:	4605      	mov	r5, r0
    1860:	bb00      	cbnz	r0, 18a4 <ta_elf_load_main+0xe4>
rounddown():
/home/lubuntu/Dokument/GitHub/STM32-Computer/Firmware/STM32-Computer-Firmware/CA7/optee-os-3.19.0-r2/optee-os-stm32mp-3.19.0-stm32mp-r2/ldelf/ta_elf.c:497
    1862:	4e8e      	ldr	r6, [pc, #568]	@ (1a9c <ta_elf_load_main+0x2dc>)
clean_elf_load_main():
/home/lubuntu/Dokument/GitHub/STM32-Computer/Firmware/STM32-Computer-Firmware/CA7/optee-os-3.19.0-r2/optee-os-stm32mp-3.19.0-stm32mp-r2/ldelf/ta_elf.c:1115
    1864:	6da5      	ldr	r5, [r4, #88]	@ 0x58
    1866:	bb55      	cbnz	r5, 18be <ta_elf_load_main+0xfe>
/home/lubuntu/Dokument/GitHub/STM32-Computer/Firmware/STM32-Computer-Firmware/CA7/optee-os-3.19.0-r2/optee-os-stm32mp-3.19.0-stm32mp-r2/ldelf/ta_elf.c:1135
    1868:	6b60      	ldr	r0, [r4, #52]	@ 0x34
    186a:	f001 ff23 	bl	36b4 <free>
/home/lubuntu/Dokument/GitHub/STM32-Computer/Firmware/STM32-Computer-Firmware/CA7/optee-os-3.19.0-r2/optee-os-stm32mp-3.19.0-stm32mp-r2/ldelf/ta_elf.c:1136
    186e:	228b      	movs	r2, #139	@ 0x8b
    1870:	4629      	mov	r1, r5
    1872:	1c60      	adds	r0, r4, #1
    1874:	f002 fd66 	bl	4344 <memset>
/home/lubuntu/Dokument/GitHub/STM32-Computer/Firmware/STM32-Computer-Firmware/CA7/optee-os-3.19.0-r2/optee-os-stm32mp-3.19.0-stm32mp-r2/ldelf/ta_elf.c:1139
    1878:	f104 0358 	add.w	r3, r4, #88	@ 0x58
load_main():
/home/lubuntu/Dokument/GitHub/STM32-Computer/Firmware/STM32-Computer-Firmware/CA7/optee-os-3.19.0-r2/optee-os-stm32mp-3.19.0-stm32mp-r2/ldelf/ta_elf.c:1197
    187c:	4620      	mov	r0, r4
clean_elf_load_main():
/home/lubuntu/Dokument/GitHub/STM32-Computer/Firmware/STM32-Computer-Firmware/CA7/optee-os-3.19.0-r2/optee-os-stm32mp-3.19.0-stm32mp-r2/ldelf/ta_elf.c:1139
    187e:	65e3      	str	r3, [r4, #92]	@ 0x5c
load_main():
/home/lubuntu/Dokument/GitHub/STM32-Computer/Firmware/STM32-Computer-Firmware/CA7/optee-os-3.19.0-r2/optee-os-stm32mp-3.19.0-stm32mp-r2/ldelf/ta_elf.c:1196
    1880:	2301      	movs	r3, #1
    1882:	70a3      	strb	r3, [r4, #2]
/home/lubuntu/Dokument/GitHub/STM32-Computer/Firmware/STM32-Computer-Firmware/CA7/optee-os-3.19.0-r2/optee-os-stm32mp-3.19.0-stm32mp-r2/ldelf/ta_elf.c:1197
    1884:	f7fe ff36 	bl	6f4 <init_elf>
