
/home/lubuntu/Dokument/GitHub/STM32-Computer/Firmware/STM32-Computer-Firmware/CA7/optee-os-3.19.0-r2/optee-os-stm32mp-3.19.0-stm32mp-r2/../build/stm32mp135f-dk/ta/stm32mp_nvmem/1a8342cc-81a5-4512-99fe-9e2b3e37d626.elf:     file format elf32-littlearm
/home/lubuntu/Dokument/GitHub/STM32-Computer/Firmware/STM32-Computer-Firmware/CA7/optee-os-3.19.0-r2/optee-os-stm32mp-3.19.0-stm32mp-r2/../build/stm32mp135f-dk/ta/stm32mp_nvmem/1a8342cc-81a5-4512-99fe-9e2b3e37d626.elf
architecture: armv7, flags 0x00000150:
HAS_SYMS, DYNAMIC, D_PAGED
start address 0x000002e0

Program Header:
    LOAD off    0x00001000 vaddr 0x00000000 paddr 0x00000000 align 2**12
         filesz 0x0000af30 memsz 0x0000af30 flags r-x
    LOAD off    0x0000c000 vaddr 0x0000b000 paddr 0x0000b000 align 2**12
         filesz 0x00000388 memsz 0x000073e0 flags rw-
 DYNAMIC off    0x0000c000 vaddr 0x0000b000 paddr 0x0000b000 align 2**2
         filesz 0x00000088 memsz 0x00000088 flags rw-
   STACK off    0x00000000 vaddr 0x00000000 paddr 0x00000000 align 2**4
         filesz 0x00000000 memsz 0x00000000 flags rw-

Dynamic Section:
  HASH                 0x0000af04
  GNU_HASH             0x0000ae48
  STRTAB               0x0000aed4
  SYMTAB               0x0000ae74
  STRSZ                0x0000002e
  SYMENT               0x00000010
  DEBUG                0x00000000
  REL                  0x0000b0dc
  RELSZ                0x00000188
  RELENT               0x00000008
  FLAGS_1              0x08000000
  RELCOUNT             0x0000001f
private flags = 0x5000400: [Version5 EABI] [hard-float ABI]

Sections:
Idx Name          Size      VMA       LMA       File off  Algn
  0 .ta_head      00000020  00000000  00000000  00001000  2**3
                  CONTENTS, ALLOC, LOAD, READONLY, DATA
  1 .text         00009bf0  00000020  00000020  00001020  2**3
                  CONTENTS, ALLOC, LOAD, READONLY, CODE
  2 .rodata       00001237  00009c10  00009c10  0000ac10  2**2
                  CONTENTS, ALLOC, LOAD, READONLY, DATA
  3 .gnu.hash     0000002c  0000ae48  0000ae48  0000be48  2**2
                  CONTENTS, ALLOC, LOAD, READONLY, DATA
  4 .dynsym       00000060  0000ae74  0000ae74  0000be74  2**2
                  CONTENTS, ALLOC, LOAD, READONLY, DATA
  5 .dynstr       0000002e  0000aed4  0000aed4  0000bed4  2**0
                  CONTENTS, ALLOC, LOAD, READONLY, DATA
  6 .hash         0000002c  0000af04  0000af04  0000bf04  2**2
                  CONTENTS, ALLOC, LOAD, READONLY, DATA
  7 .dynamic      00000088  0000b000  0000b000  0000c000  2**2
                  CONTENTS, ALLOC, LOAD, DATA
  8 .got          00000054  0000b088  0000b088  0000c088  2**2
                  CONTENTS, ALLOC, LOAD, DATA
  9 .rel.got      00000090  0000b1d4  0000b1d4  0000c1d4  2**2
                  CONTENTS, ALLOC, LOAD, READONLY, DATA
 10 .data         00000124  0000b264  0000b264  0000c264  2**2
                  CONTENTS, ALLOC, LOAD, DATA
 11 .bss          00007058  0000b388  0000b388  0000c388  2**2
                  ALLOC
 12 .debug_info   00019fb0  00000000  00000000  0000c388  2**0
                  CONTENTS, READONLY, DEBUGGING, OCTETS
 13 .debug_abbrev 000049d2  00000000  00000000  00026338  2**0
                  CONTENTS, READONLY, DEBUGGING, OCTETS
 14 .debug_loclists 0000fb3c  00000000  00000000  0002ad0a  2**0
                  CONTENTS, READONLY, DEBUGGING, OCTETS
 15 .debug_aranges 00000628  00000000  00000000  0003a848  2**3
                  CONTENTS, READONLY, DEBUGGING, OCTETS
 16 .debug_rnglists 00000821  00000000  00000000  0003ae70  2**0
                  CONTENTS, READONLY, DEBUGGING, OCTETS
 17 .debug_macro  0001c831  00000000  00000000  0003b691  2**0
                  CONTENTS, READONLY, DEBUGGING, OCTETS
 18 .debug_line   00013537  00000000  00000000  00057ec2  2**0
                  CONTENTS, READONLY, DEBUGGING, OCTETS
 19 .debug_str    0001b3b9  00000000  00000000  0006b3f9  2**0
                  CONTENTS, READONLY, DEBUGGING, OCTETS
 20 .comment      00000012  00000000  00000000  000867b2  2**0
                  CONTENTS, READONLY
 21 .ARM.attributes 00000033  00000000  00000000  000867c4  2**0
                  CONTENTS, READONLY
 22 .debug_frame  0000291c  00000000  00000000  000867f8  2**2
                  CONTENTS, READONLY, DEBUGGING, OCTETS
 23 .rel.dyn      000000f8  0000b0dc  0000b0dc  0000c0dc  2**2
                  CONTENTS, ALLOC, LOAD, READONLY, DATA
 24 .debug_line_str 000001bd  00000000  00000000  00089114  2**0
                  CONTENTS, READONLY, DEBUGGING, OCTETS
SYMBOL TABLE:
00000000 l    d  .ta_head	00000000 .ta_head
00000020 l    d  .text	00000000 .text
00009c10 l    d  .rodata	00000000 .rodata
0000ae48 l    d  .gnu.hash	00000000 .gnu.hash
0000ae74 l    d  .dynsym	00000000 .dynsym
0000aed4 l    d  .dynstr	00000000 .dynstr
0000af04 l    d  .hash	00000000 .hash
0000b000 l    d  .dynamic	00000000 .dynamic
0000b088 l    d  .got	00000000 .got
0000b1d4 l    d  .rel.got	00000000 .rel.got
0000b264 l    d  .data	00000000 .data
0000b388 l    d  .bss	00000000 .bss
00000000 l    d  .debug_info	00000000 .debug_info
00000000 l    d  .debug_abbrev	00000000 .debug_abbrev
00000000 l    d  .debug_loclists	00000000 .debug_loclists
00000000 l    d  .debug_aranges	00000000 .debug_aranges
00000000 l    d  .debug_rnglists	00000000 .debug_rnglists
00000000 l    d  .debug_macro	00000000 .debug_macro
00000000 l    d  .debug_line	00000000 .debug_line
00000000 l    d  .debug_str	00000000 .debug_str
00000000 l    d  .comment	00000000 .comment
00000000 l    d  .ARM.attributes	00000000 .ARM.attributes
00000000 l    d  .debug_frame	00000000 .debug_frame
0000b0dc l    d  .rel.dyn	00000000 .rel.dyn
00000000 l    d  .debug_line_str	00000000 .debug_line_str
00000000 l    df *ABS*	00000000 user_ta_header.c
00009c40 l     O .rodata	00000004 __compound_literal.4
00009c44 l     O .rodata	00000004 __compound_literal.3
00009c48 l     O .rodata	00000001 __compound_literal.2
00009c49 l     O .rodata	00000001 __compound_literal.1
00009c4a l     O .rodata	00000001 __compound_literal.0
00000000 l    df *ABS*	00000000 ta_stm32mp_nvmem.c
00009c10 l     O .rodata	00000010 uuid.2
00009c20 l     O .rodata	0000001b __func__.1
0000b388 l     O .bss	00000004 session_refcount
0000b38c l     O .bss	00000004 pta_session
00000000 l    df *ABS*	00000000 ta_entry_a32.o
00000000 l    df *ABS*	00000000 trace.c
0000a044 l     O .rodata	00000005 lvl_strs.0
00000000 l    df *ABS*	00000000 snprintk.c
000004c0 l     F .text	000006e0 kprintf.constprop.0
0000a081 l     O .rodata	00000011 hexdigits
0000a092 l     O .rodata	00000011 HEXDIGITS
00000000 l    df *ABS*	00000000 arm32_aeabi_ldivmod_a32.o
00000000 l    df *ABS*	00000000 trace_ext.c
00000000 l    df *ABS*	00000000 tee_api.c
00000c84 l     F .text	00000066 update_out_param
00000d5c l     F .text	00000124 copy_param
0000a0b4 l     O .rodata	0000000b __func__.0
0000b390 l     O .bss	00000004 tee_api_instance_data
00000000 l    df *ABS*	00000000 tee_api_panic.c
0000112c l     F .text	00000020 check_access
00001150 l     F .text	00000006 check_res.part.0
00001156 l     F .text	0000002e __utee_check_outbuf_annotation.localalias
00000000 l    df *ABS*	00000000 tee_api_property.c
000011e8 l     F .text	00000050 propset_get
00001238 l     F .text	00000014 is_propset_pseudo_handle
0000124c l     F .text	00000088 propget_get_ext_prop
000012d4 l     F .text	000000f0 propget_get_property
00009c54 l     O .rodata	00000004 __compound_literal.3
00009c58 l     O .rodata	00000004 __compound_literal.2
00009c5c l     O .rodata	00000004 __compound_literal.1
00009c60 l     O .rodata	00000004 __compound_literal.0
00000000 l    df *ABS*	00000000 tee_system_pta.c
0000184c l     F .text	00000050 invoke_system_pta
00009c64 l     O .rodata	00000010 uuid.2
00009c74 l     O .rodata	0000000a __func__.1
00009c7e l     O .rodata	00000017 __func__.0
0000b394 l     O .bss	00000004 sess.3
00000000 l    df *ABS*	00000000 utee_syscalls_a32.o
00000000 l    df *ABS*	00000000 user_ta_entry.c
00001e58 l     F .text	0000006a _get_fn_array
00001ec2 l     F .text	00000032 _fini_iterate_phdr_cb
00001ef4 l     F .text	0000001c ta_header_get_session
00001f10 l     F .text	0000005a to_utee_params
00001f6a l     F .text	0000003c from_utee_params
00001fa6 l     F .text	00000062 _init_iterate_phdr_cb
000020d8 l     F .text	0000006c ta_header_remove_session
0000a1fa l     O .rodata	00000016 __func__.0
0000b398 l     O .bss	00000004 _num_mod_init
0000b39c l     O .bss	00000001 init_done
0000b2f8 l     O .data	00000008 ta_sessions
0000b300 l     O .data	00000008 __phdr_info_head
00000000 l    df *ABS*	00000000 abort.c
00000000 l    df *ABS*	00000000 base64.c
0000a217 l     O .rodata	00000041 base64_table
00000000 l    df *ABS*	00000000 tee_api_arith_mpi.c
000024b0 l     F .text	00000020 api_panic
000024d0 l     F .text	00000020 mpi_panic
000024f0 l     F .text	00000050 get_mpi
00002540 l     F .text	00000040 copy_mpi_to_bigint
00002580 l     F .text	000000a8 bigint_binary
00002628 l     F .text	00000010 mpi_is_odd
00002638 l     F .text	00000016 rng_read
0000264e l     F .text	0000045e mpi_egcd
0000b3d0 l     O .bss	00003000 data.17
00002ce4 l     F .text	00000110 bigint_binary_mod
0000a30f l     O .rodata	00000008 __func__.14
0000a317 l     O .rodata	0000000e __func__.10
0000a325 l     O .rodata	00000009 __func__.2
0000a32e l     O .rodata	00000012 __func__.16
0000a340 l     O .rodata	0000000f __func__.15
0000a34f l     O .rodata	0000001f __func__.13
0000a36e l     O .rodata	00000019 __func__.12
0000a387 l     O .rodata	00000012 __func__.6
0000a399 l     O .rodata	00000015 __func__.11
0000a3ae l     O .rodata	0000000e __func__.9
0000a3bc l     O .rodata	0000000e __func__.8
0000a3ca l     O .rodata	0000000e __func__.7
0000a3d8 l     O .rodata	00000011 __func__.5
0000a3e9 l     O .rodata	00000018 __func__.4
0000a401 l     O .rodata	0000001d __func__.3
0000a41e l     O .rodata	00000019 __func__.1
0000a437 l     O .rodata	00000015 __func__.0
00000000 l    df *ABS*	00000000 tcb.c
0000a4e2 l     O .rodata	00000010 __func__.1
0000a4f2 l     O .rodata	00000010 __func__.0
0000e3d0 l     O .bss	00000004 _tls_size
0000e3d4 l     O .bss	00000004 _tcb
00000000 l    df *ABS*	00000000 assert.c
00000000 l    df *ABS*	00000000 bignum.c
00003910 l     F .text	00000036 mpi_get_digit
00003946 l     F .text	00000364 mpi_mul_hlp
00003caa l     F .text	000000e6 mpi_montmul
00003d90 l     F .text	00000022 mpi_montred
00003db2 l     F .text	00000026 mpi_montg_init.isra.0
00003dd8 l     F .text	00000052 mpi_bigendian_to_host.part.0
00003e2a l     F .text	00000064 mpi_fill_random_internal
00003fa0 l     F .text	00000036 mbedtls_mpi_resize_clear
0000506c l     F .text	00000050 mpi_check_small_factors
00005648 l     F .text	00000192 mpi_miller_rabin
00009c98 l     O .rodata	000002a0 small_prime
00009f38 l     O .rodata	00000024 gcd_pairs
00000000 l    df *ABS*	00000000 platform_util.c
0000b308 l     O .data	00000004 memset_func
00000000 l    df *ABS*	00000000 bget_malloc.c
00006178 l     F .text	00000020 myrand
00006198 l     F .text	0000000a _assert_trap
000061a2 l     F .text	00000022 bget_buf_size.part.0
000067b8 l     F .text	00000044 stats.constprop.0
00006c00 l     F .text	00000080 gen_malloc_add_pool
0000ad28 l     O .rodata	0000000e __func__.2
0000ad36 l     O .rodata	00000005 __func__.9
0000ad3b l     O .rodata	00000006 __func__.8
0000ad41 l     O .rodata	00000005 __func__.6
0000ad46 l     O .rodata	00000006 __func__.7
0000ad4c l     O .rodata	00000006 __func__.5
0000ad52 l     O .rodata	00000007 __func__.4
0000ad59 l     O .rodata	0000000f __func__.3
0000ad68 l     O .rodata	00000003 CSWTCH.113
0000ad6b l     O .rodata	00000014 __func__.1
0000ad7f l     O .rodata	00000013 __func__.0
0000b30c l     O .data	00000004 next
0000e3dc l     O .bss	00000004 bchain
0000b310 l     O .data	0000001c mypoolset
0000b32c l     O .data	0000005c malloc_ctx
00000000 l    df *ABS*	00000000 memcpy.c
00000000 l    df *ABS*	00000000 mempool.c
0000ae1b l     O .rodata	00000013 __func__.2
0000ae2e l     O .rodata	0000000b __func__.1
0000ae39 l     O .rodata	0000000e __func__.0
00000000 l    df *ABS*	00000000 tee_api_operations.c
00007034 l     F .text	00000040 __tee_alg_get_main_alg
00007074 l     F .text	00000158 tee_buffer_update
00000000 l    df *ABS*	00000000 tee_api_objects.c
00000000 l    df *ABS*	00000000 memset.c
00000000 l    df *ABS*	00000000 memchr.c
00000000 l    df *ABS*	00000000 strlen.c
00000000 l    df *ABS*	00000000 arm32_aeabi_ldivmod.c
00009562 l     F .text	0000008a ul_div_qr
00000000 l    df *ABS*	00000000 constant_time.c
00009696 l     F .text	00000010 mbedtls_ct_uchar_mask_of_range
00000000 l    df *ABS*	00000000 snprintf.c
00000000 l    df *ABS*	00000000 memmove.c
00000000 l    df *ABS*	00000000 strcmp.c
00000000 l    df *ABS*	00000000 strlcpy.c
00000000 l    df *ABS*	00000000 consttime_memcmp.c
00000000 l    df *ABS*	00000000 
0000b000 l     O *ABS*	00000000 _DYNAMIC
0000b088 l     O *ABS*	00000000 _GLOBAL_OFFSET_TABLE_
00009bd0 l     F .text	00000010 ___utee_panic_from_thumb
00009be0 l     F .text	00000010 ___utee_check_access_rights_from_thumb
00009bf0 l     F .text	00000010 ___utee_log_from_thumb
00009c00 l     F .text	00000010 ___utee_cache_operation_from_thumb
00000c60 g     F .text	00000022 putchar
00008fb8 g     F .text	00000078 TEE_PopulateTransientObject
00003572 g     F .text	00000004 TEE_BigIntConvertToFMM
00003250 g     F .text	00000008 TEE_BigIntSquareMod
00002df4 g     F .text	00000110 TEE_BigIntShiftRight
00006d3e g     F .text	00000002 raw_malloc_add_pool
00001920 g     F .text	00000088 tee_invoke_supp_plugin
00003f04 g     F .text	0000009c mbedtls_mpi_grow
00009626 g     F .text	00000070 __l_divmod
00007d94 g     F .text	00000030 TEE_DigestUpdate
000010fa g     F .text	00000020 TEE_Realloc
00007bec g     F .text	000000f4 TEE_SetOperationKey2
000011d0 g     F .text	00000016 __utee_check_inout_annotation
00006ae4 g     F .text	00000008 raw_free
00000c02 g     F .text	0000003a printf
00009030 g     F .text	00000022 TEE_InitRefAttribute
000019d0 g     F .text	00000014 _utee_log
00000f10 g     F .text	000000bc TEE_InvokeTACommand
00001156 g     F .text	0000002e __utee_check_outbuf_annotation
00003e9a g     F .text	00000026 mbedtls_mpi_init_mempool
00001c6c g     F .text	00000014 _utee_cryp_random_number_generate
0000433a g     F .text	0000006a mbedtls_mpi_write_binary
00008444 g     F .text	00000114 TEE_AEEncryptFinal
00000498 g     F .text	0000000e vsnprintk
00004830 g     F .text	0000002e mbedtls_mpi_sub_int
00009b12 g     F .text	00000034 memmove
00009ae6 g     F .text	0000001e snprintf
00002cbe g     F .text	00000026 TEE_BigIntCmpS32
00009960 g     F .text	00000186 mbedtls_ct_rsaes_pkcs1_v15_unpadding
00009052 g     F .text	00000022 TEE_InitValueAttribute
00003fd6 g     F .text	000000b6 mbedtls_mpi_shrink
00002f50 g     F .text	00000020 TEE_BigIntAdd
00001bcc g     F .text	00000014 _utee_cryp_obj_restrict_usage
00009c4c g     O .rodata	00000004 ta_heap_size
00008f88 g     F .text	00000030 TEE_ResetTransientObject
00001cf4 g     F .text	00000018 _utee_asymm_operate
00002314 g     F .text	0000000e _base64_enc_len
000049a4 g     F .text	0000011c mbedtls_mpi_read_string
00007e4c g     F .text	00000074 TEE_CipherInit
00002f90 g     F .text	00000074 TEE_BigIntNeg
00001d90 g     F .text	00000014 _utee_storage_free_enum
00000020 g       .text	00000000 __text_start
000017e4 g     F .text	00000068 TEE_GetNextProperty
00009328 g     F .text	0000002c TEE_StartPersistentObjectEnumerator
00004448 g     F .text	0000007a mbedtls_mpi_shift_r
00006e14 g     F .text	00000054 malloc_buffer_overlaps_heap
00001b34 g     F .text	00000014 _utee_hash_init
00003218 g     F .text	0000001c TEE_BigIntSubMod
00005c16 g     F .text	00000212 mbedtls_mpi_gen_prime
000015e0 g     F .text	00000068 TEE_GetPropertyAsBinaryBlock
0000415c g     F .text	00000020 mbedtls_mpi_get_bit
0000428c g     F .text	00000042 mbedtls_mpi_read_binary
000082ac g     F .text	00000070 TEE_AEInit
0000044c g     F .text	00000018 trace_printf
000050c2 g     F .text	00000004 mbedtls_mpi_montmul
00001e44 g     F .text	00000014 _utee_cache_operation
00006e68 g     F .text	000000dc memcpy
00003576 g     F .text	00000066 TEE_BigIntConvertFromFMM
0000114c g     F .text	00000004 TEE_Panic
00000bd0 g     F .text	00000018 __aeabi_uldivmod
00007ce0 g     F .text	000000b4 TEE_CopyOperation
00000c3c g     F .text	00000024 puts
000035dc g     F .text	000000c0 TEE_BigIntComputeFMM
00006a60 g     F .text	0000001c malloc_get_stats
00001088 g     F .text	00000016 TEE_GetREETime
00006d40 g     F .text	00000018 raw_malloc_get_stats
000092cc g     F .text	00000034 TEE_AllocatePersistentObjectEnumerator
0000b268 g     O .data	00000054 ta_props
00008658 g     F .text	000000c0 TEE_AsymmetricEncrypt
00001184 g     F .text	0000001c __utee_check_instring_annotation
00006c80 g     F .text	00000014 malloc
00009518 g     F .text	0000000a __ta_entry_c
00001740 g     F .text	00000004 TEE_FreePropertyEnumerator
000096d6 g     F .text	00000008 mbedtls_ct_mpi_uint_mask
0000910c g     F .text	00000054 TEE_GenerateKey
00009b04 g     F .text	0000000e vsnprintf
0000b264 g     O .data	00000004 trace_level
00002c88 g     F .text	00000036 TEE_BigIntCmp
00009c3c g     O .rodata	00000004 ta_num_props
00006640 g     F .text	00000080 bgetr
00001d24 g     F .text	00000018 _utee_storage_obj_open
00007026 g     F .text	0000000c mempool_free
00007ec0 g     F .text	000000ec TEE_CipherUpdate
00001b48 g     F .text	00000014 _utee_hash_update
00002b84 g     F .text	00000058 TEE_BigIntConvertToOctetString
00007a40 g     F .text	000000d4 TEE_GetOperationInfoMultiple
00004202 g     F .text	0000003a mbedtls_mpi_bitlen
00002f04 g     F .text	0000002a TEE_BigIntGetBit
00009c50 g     O .rodata	00000003 trace_ext_prefix
00001dcc g     F .text	00000014 _utee_storage_next_enum
00006ad2 g     F .text	00000012 raw_malloc
000063e0 g     F .text	0000005c bgetz
000096de g     F .text	0000000c mbedtls_ct_size_bool_eq
00000fd8 g     F .text	0000000c TEE_GetInstanceData
00001006 g     F .text	0000001e TEE_Wait
0000485e g     F .text	000000ea mbedtls_mpi_mul_mpi
00001120 g     F .text	00000006 TEE_CacheFlush
00000314 g     F .text	00000138 trace_vprintf
00000024 g     F .text	00000002 TA_DestroyEntryPoint
00003e8e g     F .text	0000000c mbedtls_mpi_init
00001d54 g     F .text	00000014 _utee_storage_obj_del
000041ca g     F .text	00000038 mbedtls_mpi_lsb
000038d8 g     F .text	00000028 _assert_log
00001b0c g     F .text	00000014 _utee_cryp_state_copy
0000356e g     F .text	00000004 TEE_BigIntFMMContextSizeInU32
000018d2 g     F .text	0000004e tee_unmap
00008228 g     F .text	00000084 TEE_MACCompareFinal
000096f8 g     F .text	00000012 mbedtls_ct_uint_if
00009292 g     F .text	0000003a TEE_RenamePersistentObject
00007dc4 g     F .text	00000088 TEE_DigestDoFinal
00002aac g     F .text	00000044 _TEE_MathAPI_Init
0000369c g     F .text	0000017c __utee_tcb_init
00004768 g     F .text	0000004c mbedtls_mpi_add_mpi
000022fc g     F .text	00000018 abort
000057da g     F .text	000000e6 mbedtls_mpi_random
000011a2 g     F .text	00000016 __utee_check_out_annotation
0000e3e0 g     O .bss	00004000 ta_heap
00003258 g     F .text	000000c0 TEE_BigIntInvMod
00002008 g     F .text	000000c0 __utee_call_elf_init_fn
000000bc g     F .text	00000018 TA_CloseSessionEntryPoint
00001a3c g     F .text	00000014 _utee_close_ta_session
00008718 g     F .text	000000c0 TEE_AsymmetricDecrypt
00009160 g     F .text	00000070 TEE_OpenPersistentObject
000047b4 g     F .text	0000004e mbedtls_mpi_sub_mpi
00009b86 g     F .text	00000048 consttime_memcmp
000019bc g     F .text	00000014 _utee_return
000019e4 g     F .text	00000014 __utee_panic
000096a6 g     F .text	00000028 mbedtls_ct_memcmp
00003818 g     F .text	00000018 __tls_get_addr
000000d4 g     F .text	0000020c TA_InvokeCommandEntryPoint
000020c8 g     F .text	00000010 __utee_call_elf_fini_fn
00006d18 g     F .text	00000010 free_wipe
00006fc8 g     F .text	0000003c mempool_alloc
000019a8 g     F .text	00000014 _utee_panic
00006d2c g     F .text	00000012 raw_malloc_init_ctx
00007004 g     F .text	00000022 mempool_calloc
00001e30 g     F .text	00000014 _utee_cryp_obj_generate_key
000090dc g     F .text	00000030 TEE_CopyObjectAttributes
00001e08 g     F .text	00000014 _utee_storage_obj_trunc
0000b2bc g     O .data	0000003c tee_props
00001a90 g     F .text	00000014 _utee_unmask_cancellation
00001710 g     F .text	00000008 TEE_ResetPropertyEnumerator
00006c94 g     F .text	00000020 calloc
0000109e g     F .text	00000052 TEE_Malloc
00000d52 g     F .text	0000000a TEE_CheckMemoryAccessRights
00001648 g     F .text	00000064 TEE_GetPropertyAsUUID
000095ec g     F .text	0000003a __ul_divmod
000019f8 g     F .text	00000018 _utee_get_property
00004124 g     F .text	00000038 mbedtls_mpi_lset
000093d0 g     F .text	00000054 TEE_ReadObjectData
00008ddc g     F .text	00000078 TEE_GetObjectBufferAttribute
00000026 g     F .text	00000096 TA_OpenSessionEntryPoint
000071cc g     F .text	00000026 TEE_FreeOperation
00003830 g     F .text	000000a8 dl_iterate_phdr
000123e0 g       .bss	00000000 __ftrace_buf_end
0000b3cc g     O .bss	00000004 ta_param_types
00004e10 g     F .text	0000002e mbedtls_mpi_div_int
00008d1c g     F .text	0000002a __utee_from_attr
00005ba6 g     F .text	00000066 mbedtls_mpi_is_prime_ext
00003530 g     F .text	00000030 TEE_BigIntIsProbablePrime
00004948 g     F .text	0000005c mbedtls_mpi_mul_int
00009258 g     F .text	00000024 TEE_CloseAndDeletePersistentObject1
000050ca g     F .text	0000044a mbedtls_mpi_exp_mod
000097e4 g     F .text	00000062 mbedtls_mpi_safe_cond_assign
000013c4 g     F .text	00000158 TEE_GetPropertyAsString
000098ce g     F .text	00000092 mbedtls_mpi_lt_mpi_ct
00008558 g     F .text	00000100 TEE_AEDecryptFinal
00002af0 g     F .text	00000038 TEE_BigIntInit
000011a0 g     F .text	00000002 __utee_check_outstring_annotation
00000fe4 g     F .text	00000004 TEE_MemMove
00006164 g     F .text	00000014 mbedtls_platform_zeroize
00002b28 g     F .text	0000005c TEE_BigIntConvertFromOctetString
00001cdc g     F .text	00000018 _utee_authenc_dec_final
000044c2 g     F .text	00000062 mbedtls_mpi_cmp_abs
00001de0 g     F .text	00000014 _utee_storage_obj_read
00008108 g     F .text	00000056 TEE_MACInit
000087d8 g     F .text	000000bc TEE_AsymmetricSignDigest
00009536 g     F .text	0000001c memchr
00000d1a g     F .text	0000001c TEE_UnmaskCancellation
00008d46 g     F .text	0000002a TEE_GetObjectInfo
00005e28 g     F .text	0000033c mbedtls_mpi_self_test
00001e1c g     F .text	00000014 _utee_storage_obj_seek
00008362 g     F .text	000000e2 TEE_AEUpdate
00008f58 g     F .text	00000030 TEE_FreeTransientObject
00001a7c g     F .text	00000014 _utee_check_access_rights
000045aa g     F .text	0000002e mbedtls_mpi_cmp_int
000023e4 g     F .text	000000cc _base64_dec
00001da4 g     F .text	00000014 _utee_storage_reset_enum
00009786 g     F .text	0000005e mbedtls_ct_base64_dec_value
000067fc g     F .text	00000250 bget_main_test
00008a2e g     F .text	00000018 rand
000011b8 g     F .text	00000018 __utee_check_attr_in_annotation
00001cac g     F .text	00000018 _utee_authenc_update_payload
00007a10 g     F .text	00000030 TEE_GetOperationInfo
000031ac g     F .text	00000050 TEE_BigIntMod
00004ea2 g     F .text	0000006c mbedtls_mpi_mod_int
00004248 g     F .text	00000044 mbedtls_mpi_read_binary_le
000030b2 g     F .text	000000fa TEE_BigIntDiv
00001bf4 g     F .text	00000014 _utee_cryp_obj_alloc
000123e0 g       .bss	00000000 __ftrace_buf_start
00009b5c g     F .text	0000002a strlcpy
0000972e g     F .text	00000058 mbedtls_ct_base64_enc_char
0000408c g     F .text	0000006a mbedtls_mpi_copy
00008a46 g     F .text	000002d6 TEE_IsAlgorithmSupported
00006a4c g     F .text	00000014 malloc_reset_stats
000016ac g     F .text	00000064 TEE_GetPropertyAsIdentity
00000ba0 g     F .text	00000016 __vsprintf
00001ae0 g     F .text	00000014 _utee_set_ta_time
00001a50 g     F .text	00000018 _utee_invoke_ta_command
00008d90 g     F .text	00000020 TEE_RestrictObjectUsage1
00006cb4 g     F .text	00000020 realloc
000040f6 g     F .text	0000002e mbedtls_mpi_swap
00006f44 g     F .text	00000084 mempool_alloc_pool
00003004 g     F .text	000000a8 TEE_BigIntMul
00007b14 g     F .text	00000040 TEE_ResetOperation
00006d28 g     F .text	00000004 raw_malloc_get_ctx_size
000043a4 g     F .text	000000a4 mbedtls_mpi_shift_l
00004524 g     F .text	00000086 mbedtls_mpi_cmp_mpi
00000fec g     F .text	00000004 TEE_MemFill
00006d58 g     F .text	00000010 malloc_add_pool
0000815e g     F .text	0000004e TEE_MACUpdate
00000300 g     F .text	00000014 trace_get_level
000045d8 g     F .text	000000ae mbedtls_mpi_add_abs
00008db0 g     F .text	0000002c TEE_RestrictObjectUsage
00003566 g     F .text	00000008 TEE_BigIntFMMSizeInU32
0000151c g     F .text	00000060 TEE_GetPropertyAsBool
00006b4a g     F .text	000000b6 raw_realloc
00003560 g     F .text	00000004 TEE_BigIntInitFMM
00008f04 g     F .text	00000014 TEE_CloseObject
00001b74 g     F .text	00000014 _utee_cipher_init
00002144 g     F .text	000001b8 __utee_entry
0000157c g     F .text	00000064 TEE_GetPropertyAsU32
00009c10 g       .text	00000000 __text_end
00003318 g     F .text	0000007c TEE_BigIntRelativePrime
00004e3e g     F .text	00000064 mbedtls_mpi_mod_mpi
00001bb8 g     F .text	00000014 _utee_cryp_obj_get_info
000066c0 g     F .text	00000098 bpool
00001718 g     F .text	00000028 TEE_AllocatePropertyEnumerator
00001af4 g     F .text	00000018 _utee_cryp_state_alloc
00000cfe g     F .text	0000001c TEE_GetCancellationFlag
00005514 g     F .text	00000100 mbedtls_mpi_gcd
00001060 g     F .text	00000028 TEE_SetTAPersistentTime
000042ce g     F .text	0000006c mbedtls_mpi_write_binary_le
00009526 g     F .text	00000010 memset
00006a7c g     F .text	00000056 raw_memalign
00001024 g     F .text	0000003c TEE_GetTAPersistentTime
00000464 g     F .text	00000002 dhex_dump
000091d0 g     F .text	00000088 TEE_CreatePersistentObject
00000d36 g     F .text	0000001c TEE_MaskCancellation
0000831c g     F .text	00000046 TEE_AEUpdateAAD
00009464 g     F .text	00000038 TEE_TruncateObjectData
00001be0 g     F .text	00000014 _utee_cryp_obj_get_attr
00008d70 g     F .text	00000020 TEE_GetObjectInfo1
00001ba0 g     F .text	00000018 _utee_cipher_final
000002e4 g     F .text	0000001c trace_set_level
00008e54 g     F .text	000000b0 TEE_GetObjectValueAttribute
00007b54 g     F .text	00000098 TEE_SetOperationKey
000096ea g     F .text	0000000e mbedtls_ct_mpi_uint_lt
00001b20 g     F .text	00000014 _utee_cryp_state_free
00009b46 g     F .text	00000016 strcmp
00001a24 g     F .text	00000018 _utee_open_ta_session
00002c2c g     F .text	0000005c TEE_BigIntConvertToS32
00002f70 g     F .text	00000020 TEE_BigIntSub
00009522 g     F .text	00000004 tahead_get_trace_level
00001db8 g     F .text	00000014 _utee_storage_start_enum
0000949c g     F .text	0000007c TEE_SeekObjectData
0000189c g     F .text	00000036 tee_map_zi
000050c6 g     F .text	00000004 mbedtls_mpi_montred
00006cd4 g     F .text	00000020 memalign
000096ce g     F .text	00000008 mbedtls_ct_uint_mask
00007fac g     F .text	0000015c TEE_CipherDoFinal
00002bdc g     F .text	00000050 TEE_BigIntConvertFromS32
00004802 g     F .text	0000002e mbedtls_mpi_add_int
00001cc4 g     F .text	00000018 _utee_authenc_enc_final
00006d68 g     F .text	000000ac malloc_buffer_is_within_alloced
00001c08 g     F .text	00000014 _utee_cryp_obj_close
00003564 g     F .text	00000002 TEE_BigIntInitFMMContext
00001aa4 g     F .text	00000014 _utee_mask_cancellation
00001d68 g     F .text	00000014 _utee_storage_obj_rename
00009424 g     F .text	00000040 TEE_WriteObjectData
00009314 g     F .text	00000014 TEE_ResetPersistentObjectEnumerator
000030ac g     F .text	00000006 TEE_BigIntSquare
00001df4 g     F .text	00000014 _utee_storage_obj_write
00000020 g     F .text	00000004 TA_CreateEntryPoint
000002e0 g     F .text	00000004 __ta_entry
00001c98 g     F .text	00000014 _utee_authenc_update_aad
000050bc g     F .text	00000006 mbedtls_mpi_montg_init
000004a6 g     F .text	0000001a snprintk
00002f2e g     F .text	00000022 TEE_BigIntGetBitCount
00001c44 g     F .text	00000014 _utee_cryp_obj_copy
00003234 g     F .text	0000001c TEE_BigIntMulMod
000058c0 g     F .text	000002e6 mbedtls_mpi_inv_mod
0000893c g     F .text	000000e0 TEE_DeriveKey
0000b3ac g     O .bss	00000020 ta_params
00004ac0 g     F .text	00000350 mbedtls_mpi_div_mpi
0000423c g     F .text	0000000c mbedtls_mpi_size
000061c4 g     F .text	0000021c bget
00008f18 g     F .text	00000040 TEE_AllocateTransientObject
00001744 g     F .text	0000000a TEE_StartPropertyEnumerator
00001ab8 g     F .text	00000014 _utee_wait
0000417c g     F .text	0000004e mbedtls_mpi_set_bit
000010f0 g     F .text	0000000a TEE_Free
00005c0c g     F .text	0000000a mbedtls_mpi_is_prime
00001126 g     F .text	00000006 TEE_CacheInvalidate
00003900 g     F .text	00000010 _assert_break
000031fc g     F .text	0000001c TEE_BigIntAddMod
0000970a g     F .text	00000024 mbedtls_ct_mpi_uint_cond_assign
00001acc g     F .text	00000014 _utee_get_time
0000174e g     F .text	00000096 TEE_GetPropertyName
000071f2 g     F .text	0000081e TEE_AllocateOperation
00001c30 g     F .text	00000014 _utee_cryp_obj_populate
00008a1c g     F .text	00000012 TEE_GenerateRandom
00000fe8 g     F .text	00000004 TEE_MemCompare
00001b88 g     F .text	00000018 _utee_cipher_update
00000468 g     F .text	00000030 __vsnprintf
0000b3a0 g     O .bss	0000000c __elf_phdr_info
00009300 g     F .text	00000014 TEE_FreePersistentObjectEnumerator
00000e80 g     F .text	00000090 TEE_OpenTASession
00000be8 g     F .text	00000014 trace_ext_puts
00000bfc g     F .text	00000006 trace_ext_get_thread_id
0000927c g     F .text	00000016 TEE_CloseAndDeletePersistentObject
00001c58 g     F .text	00000014 _utee_cryp_derive_key
00003ec0 g     F .text	00000044 mbedtls_mpi_free
00001c1c g     F .text	00000014 _utee_cryp_obj_reset
0000111a g     F .text	00000006 TEE_CacheClean
00001a10 g     F .text	00000014 _utee_get_property_name_to_index
00006aec g     F .text	0000005e raw_calloc
00002322 g     F .text	000000c2 _base64_enc
00009846 g     F .text	00000088 mbedtls_mpi_safe_cond_swap
00001c80 g     F .text	00000018 _utee_authenc_init
00009074 g     F .text	00000068 TEE_CopyObjectAttributes1
00009552 g     F .text	00000010 strlen
00003394 g     F .text	0000019c TEE_BigIntComputeExtendedGcd
00001d7c g     F .text	00000014 _utee_storage_alloc_enum
00000ff0 g     F .text	00000016 TEE_GetSystemTime
00001d0c g     F .text	00000018 _utee_asymm_verify
00000000 g     O .ta_head	00000020 ta_head
0000643c g     F .text	00000204 brel
00004686 g     F .text	000000e2 mbedtls_mpi_sub_abs
00005614 g     F .text	00000034 mbedtls_mpi_fill_random
00000fcc g     F .text	0000000c TEE_SetInstanceData
00001a68 g     F .text	00000014 _utee_get_cancellation_flag
00000bb8 g     F .text	00000018 __aeabi_ldivmod
00004f0e g     F .text	0000015e mbedtls_mpi_write_string
00006cf4 g     F .text	00000012 aligned_alloc
00009354 g     F .text	0000007c TEE_GetNextPersistentObject
00000cea g     F .text	00000014 TEE_CloseTASession
00008894 g     F .text	000000a8 TEE_AsymmetricVerifyDigest
00001d3c g     F .text	00000018 _utee_storage_obj_create
00006d06 g     F .text	00000012 free
00006758 g     F .text	00000060 bstats
000081ac g     F .text	0000007c TEE_MACComputeFinal
0000e3d8 g     O .bss	00000004 mbedtls_mpi_mempool
00001b5c g     F .text	00000018 _utee_hash_final



Disassembly of section .text:

00000020 <TA_CreateEntryPoint>:
TA_CreateEntryPoint():
/home/lubuntu/Dokument/GitHub/STM32-Computer/Firmware/STM32-Computer-Firmware/CA7/optee-os-3.19.0-r2/optee-os-stm32mp-3.19.0-stm32mp-r2/ta/stm32mp_nvmem/ta_stm32mp_nvmem.c:195
      20:	2000      	movs	r0, #0
      22:	4770      	bx	lr

00000024 <TA_DestroyEntryPoint>:
TA_DestroyEntryPoint():
/home/lubuntu/Dokument/GitHub/STM32-Computer/Firmware/STM32-Computer-Firmware/CA7/optee-os-3.19.0-r2/optee-os-stm32mp-3.19.0-stm32mp-r2/ta/stm32mp_nvmem/ta_stm32mp_nvmem.c:199
      24:	4770      	bx	lr

00000026 <TA_OpenSessionEntryPoint>:
TA_OpenSessionEntryPoint():
/home/lubuntu/Dokument/GitHub/STM32-Computer/Firmware/STM32-Computer-Firmware/CA7/optee-os-3.19.0-r2/optee-os-stm32mp-3.19.0-stm32mp-r2/ta/stm32mp_nvmem/ta_stm32mp_nvmem.c:208
      26:	efc0 0010 	vmov.i32	d16, #0	@ 0x00000000
/home/lubuntu/Dokument/GitHub/STM32-Computer/Firmware/STM32-Computer-Firmware/CA7/optee-os-3.19.0-r2/optee-os-stm32mp-3.19.0-stm32mp-r2/ta/stm32mp_nvmem/ta_stm32mp_nvmem.c:204
      2a:	b510      	push	{r4, lr}
      2c:	b088      	sub	sp, #32
/home/lubuntu/Dokument/GitHub/STM32-Computer/Firmware/STM32-Computer-Firmware/CA7/optee-os-3.19.0-r2/optee-os-stm32mp-3.19.0-stm32mp-r2/ta/stm32mp_nvmem/ta_stm32mp_nvmem.c:207
      2e:	2300      	movs	r3, #0
/home/lubuntu/Dokument/GitHub/STM32-Computer/Firmware/STM32-Computer-Firmware/CA7/optee-os-3.19.0-r2/optee-os-stm32mp-3.19.0-stm32mp-r2/ta/stm32mp_nvmem/ta_stm32mp_nvmem.c:210
      30:	a802      	add	r0, sp, #8
/home/lubuntu/Dokument/GitHub/STM32-Computer/Firmware/STM32-Computer-Firmware/CA7/optee-os-3.19.0-r2/optee-os-stm32mp-3.19.0-stm32mp-r2/ta/stm32mp_nvmem/ta_stm32mp_nvmem.c:208
      32:	edcd 0b05 	vstr	d16, [sp, #20]
      36:	edcd 0b03 	vstr	d16, [sp, #12]
      3a:	edcd 0b06 	vstr	d16, [sp, #24]
/home/lubuntu/Dokument/GitHub/STM32-Computer/Firmware/STM32-Computer-Firmware/CA7/optee-os-3.19.0-r2/optee-os-stm32mp-3.19.0-stm32mp-r2/ta/stm32mp_nvmem/ta_stm32mp_nvmem.c:207
      3e:	9302      	str	r3, [sp, #8]
/home/lubuntu/Dokument/GitHub/STM32-Computer/Firmware/STM32-Computer-Firmware/CA7/optee-os-3.19.0-r2/optee-os-stm32mp-3.19.0-stm32mp-r2/ta/stm32mp_nvmem/ta_stm32mp_nvmem.c:210
      40:	f001 fb6a 	bl	1718 <TEE_AllocatePropertyEnumerator>
/home/lubuntu/Dokument/GitHub/STM32-Computer/Firmware/STM32-Computer-Firmware/CA7/optee-os-3.19.0-r2/optee-os-stm32mp-3.19.0-stm32mp-r2/ta/stm32mp_nvmem/ta_stm32mp_nvmem.c:211
      44:	4604      	mov	r4, r0
      46:	b9c0      	cbnz	r0, 7a <TA_OpenSessionEntryPoint+0x54>
/home/lubuntu/Dokument/GitHub/STM32-Computer/Firmware/STM32-Computer-Firmware/CA7/optee-os-3.19.0-r2/optee-os-stm32mp-3.19.0-stm32mp-r2/ta/stm32mp_nvmem/ta_stm32mp_nvmem.c:214
      48:	f06f 0101 	mvn.w	r1, #1
      4c:	9802      	ldr	r0, [sp, #8]
      4e:	f001 fb79 	bl	1744 <TEE_StartPropertyEnumerator>
/home/lubuntu/Dokument/GitHub/STM32-Computer/Firmware/STM32-Computer-Firmware/CA7/optee-os-3.19.0-r2/optee-os-stm32mp-3.19.0-stm32mp-r2/ta/stm32mp_nvmem/ta_stm32mp_nvmem.c:216
      52:	9802      	ldr	r0, [sp, #8]
      54:	4621      	mov	r1, r4
      56:	aa03      	add	r2, sp, #12
      58:	f001 fb28 	bl	16ac <TEE_GetPropertyAsIdentity>
/home/lubuntu/Dokument/GitHub/STM32-Computer/Firmware/STM32-Computer-Firmware/CA7/optee-os-3.19.0-r2/optee-os-stm32mp-3.19.0-stm32mp-r2/ta/stm32mp_nvmem/ta_stm32mp_nvmem.c:217
      5c:	4604      	mov	r4, r0
      5e:	b960      	cbnz	r0, 7a <TA_OpenSessionEntryPoint+0x54>
/home/lubuntu/Dokument/GitHub/STM32-Computer/Firmware/STM32-Computer-Firmware/CA7/optee-os-3.19.0-r2/optee-os-stm32mp-3.19.0-stm32mp-r2/ta/stm32mp_nvmem/ta_stm32mp_nvmem.c:220
      60:	9b03      	ldr	r3, [sp, #12]
      62:	f1b3 4f00 	cmp.w	r3, #2147483648	@ 0x80000000
      66:	d01e      	beq.n	a6 <TA_OpenSessionEntryPoint+0x80>
/home/lubuntu/Dokument/GitHub/STM32-Computer/Firmware/STM32-Computer-Firmware/CA7/optee-os-3.19.0-r2/optee-os-stm32mp-3.19.0-stm32mp-r2/ta/stm32mp_nvmem/ta_stm32mp_nvmem.c:225
      68:	4b11      	ldr	r3, [pc, #68]	@ (b0 <TA_OpenSessionEntryPoint+0x8a>)
      6a:	447b      	add	r3, pc
      6c:	681a      	ldr	r2, [r3, #0]
      6e:	b15a      	cbz	r2, 88 <TA_OpenSessionEntryPoint+0x62>
/home/lubuntu/Dokument/GitHub/STM32-Computer/Firmware/STM32-Computer-Firmware/CA7/optee-os-3.19.0-r2/optee-os-stm32mp-3.19.0-stm32mp-r2/ta/stm32mp_nvmem/ta_stm32mp_nvmem.c:232
      70:	4a10      	ldr	r2, [pc, #64]	@ (b4 <TA_OpenSessionEntryPoint+0x8e>)
      72:	447a      	add	r2, pc
      74:	6813      	ldr	r3, [r2, #0]
      76:	3301      	adds	r3, #1
      78:	6013      	str	r3, [r2, #0]
/home/lubuntu/Dokument/GitHub/STM32-Computer/Firmware/STM32-Computer-Firmware/CA7/optee-os-3.19.0-r2/optee-os-stm32mp-3.19.0-stm32mp-r2/ta/stm32mp_nvmem/ta_stm32mp_nvmem.c:235
      7a:	9802      	ldr	r0, [sp, #8]
      7c:	b108      	cbz	r0, 82 <TA_OpenSessionEntryPoint+0x5c>
/home/lubuntu/Dokument/GitHub/STM32-Computer/Firmware/STM32-Computer-Firmware/CA7/optee-os-3.19.0-r2/optee-os-stm32mp-3.19.0-stm32mp-r2/ta/stm32mp_nvmem/ta_stm32mp_nvmem.c:236
      7e:	f001 fb5f 	bl	1740 <TEE_FreePropertyEnumerator>
/home/lubuntu/Dokument/GitHub/STM32-Computer/Firmware/STM32-Computer-Firmware/CA7/optee-os-3.19.0-r2/optee-os-stm32mp-3.19.0-stm32mp-r2/ta/stm32mp_nvmem/ta_stm32mp_nvmem.c:239
      82:	4620      	mov	r0, r4
      84:	b008      	add	sp, #32
      86:	bd10      	pop	{r4, pc}
/home/lubuntu/Dokument/GitHub/STM32-Computer/Firmware/STM32-Computer-Firmware/CA7/optee-os-3.19.0-r2/optee-os-stm32mp-3.19.0-stm32mp-r2/ta/stm32mp_nvmem/ta_stm32mp_nvmem.c:226
      88:	9001      	str	r0, [sp, #4]
      8a:	3304      	adds	r3, #4
      8c:	9300      	str	r3, [sp, #0]
      8e:	4602      	mov	r2, r0
      90:	4603      	mov	r3, r0
      92:	f04f 31ff 	mov.w	r1, #4294967295	@ 0xffffffff
      96:	4808      	ldr	r0, [pc, #32]	@ (b8 <TA_OpenSessionEntryPoint+0x92>)
      98:	4478      	add	r0, pc
      9a:	f000 fef1 	bl	e80 <TEE_OpenTASession>
/home/lubuntu/Dokument/GitHub/STM32-Computer/Firmware/STM32-Computer-Firmware/CA7/optee-os-3.19.0-r2/optee-os-stm32mp-3.19.0-stm32mp-r2/ta/stm32mp_nvmem/ta_stm32mp_nvmem.c:228
      9e:	2800      	cmp	r0, #0
      a0:	d0e6      	beq.n	70 <TA_OpenSessionEntryPoint+0x4a>
      a2:	4604      	mov	r4, r0
      a4:	e7e9      	b.n	7a <TA_OpenSessionEntryPoint+0x54>
/home/lubuntu/Dokument/GitHub/STM32-Computer/Firmware/STM32-Computer-Firmware/CA7/optee-os-3.19.0-r2/optee-os-stm32mp-3.19.0-stm32mp-r2/ta/stm32mp_nvmem/ta_stm32mp_nvmem.c:221
      a6:	4c01      	ldr	r4, [pc, #4]	@ (ac <TA_OpenSessionEntryPoint+0x86>)
      a8:	e7e7      	b.n	7a <TA_OpenSessionEntryPoint+0x54>
      aa:	bf00      	nop
      ac:	ffff0001 	.word	0xffff0001
      b0:	0000b31a 	.word	0x0000b31a
      b4:	0000b312 	.word	0x0000b312
      b8:	00009b74 	.word	0x00009b74

000000bc <TA_CloseSessionEntryPoint>:
TA_CloseSessionEntryPoint():
/home/lubuntu/Dokument/GitHub/STM32-Computer/Firmware/STM32-Computer-Firmware/CA7/optee-os-3.19.0-r2/optee-os-stm32mp-3.19.0-stm32mp-r2/ta/stm32mp_nvmem/ta_stm32mp_nvmem.c:243
      bc:	4a04      	ldr	r2, [pc, #16]	@ (d0 <TA_CloseSessionEntryPoint+0x14>)
      be:	447a      	add	r2, pc
      c0:	6813      	ldr	r3, [r2, #0]
      c2:	3b01      	subs	r3, #1
      c4:	6013      	str	r3, [r2, #0]
/home/lubuntu/Dokument/GitHub/STM32-Computer/Firmware/STM32-Computer-Firmware/CA7/optee-os-3.19.0-r2/optee-os-stm32mp-3.19.0-stm32mp-r2/ta/stm32mp_nvmem/ta_stm32mp_nvmem.c:245
      c6:	b913      	cbnz	r3, ce <TA_CloseSessionEntryPoint+0x12>
/home/lubuntu/Dokument/GitHub/STM32-Computer/Firmware/STM32-Computer-Firmware/CA7/optee-os-3.19.0-r2/optee-os-stm32mp-3.19.0-stm32mp-r2/ta/stm32mp_nvmem/ta_stm32mp_nvmem.c:246
      c8:	6850      	ldr	r0, [r2, #4]
      ca:	f000 be0e 	b.w	cea <TEE_CloseTASession>
/home/lubuntu/Dokument/GitHub/STM32-Computer/Firmware/STM32-Computer-Firmware/CA7/optee-os-3.19.0-r2/optee-os-stm32mp-3.19.0-stm32mp-r2/ta/stm32mp_nvmem/ta_stm32mp_nvmem.c:247
      ce:	4770      	bx	lr
      d0:	0000b2c6 	.word	0x0000b2c6

000000d4 <TA_InvokeCommandEntryPoint>:
TA_InvokeCommandEntryPoint():
/home/lubuntu/Dokument/GitHub/STM32-Computer/Firmware/STM32-Computer-Firmware/CA7/optee-os-3.19.0-r2/optee-os-stm32mp-3.19.0-stm32mp-r2/ta/stm32mp_nvmem/ta_stm32mp_nvmem.c:252
      d4:	e92d 4ff0 	stmdb	sp!, {r4, r5, r6, r7, r8, r9, sl, fp, lr}
      d8:	ed2d 8b02 	vpush	{d8}
      dc:	b08d      	sub	sp, #52	@ 0x34
/home/lubuntu/Dokument/GitHub/STM32-Computer/Firmware/STM32-Computer-Firmware/CA7/optee-os-3.19.0-r2/optee-os-stm32mp-3.19.0-stm32mp-r2/ta/stm32mp_nvmem/ta_stm32mp_nvmem.c:253
      de:	b189      	cbz	r1, 104 <TA_InvokeCommandEntryPoint+0x30>
      e0:	2901      	cmp	r1, #1
      e2:	f000 8087 	beq.w	1f4 <TA_InvokeCommandEntryPoint+0x120>
/home/lubuntu/Dokument/GitHub/STM32-Computer/Firmware/STM32-Computer-Firmware/CA7/optee-os-3.19.0-r2/optee-os-stm32mp-3.19.0-stm32mp-r2/ta/stm32mp_nvmem/ta_stm32mp_nvmem.c:259
      e6:	4b79      	ldr	r3, [pc, #484]	@ (2cc <TA_InvokeCommandEntryPoint+0x1f8>)
      e8:	4879      	ldr	r0, [pc, #484]	@ (2d0 <TA_InvokeCommandEntryPoint+0x1fc>)
      ea:	447b      	add	r3, pc
      ec:	9300      	str	r3, [sp, #0]
      ee:	2301      	movs	r3, #1
      f0:	4478      	add	r0, pc
      f2:	461a      	mov	r2, r3
      f4:	9101      	str	r1, [sp, #4]
      f6:	3010      	adds	r0, #16
/home/lubuntu/Dokument/GitHub/STM32-Computer/Firmware/STM32-Computer-Firmware/CA7/optee-os-3.19.0-r2/optee-os-stm32mp-3.19.0-stm32mp-r2/ta/stm32mp_nvmem/ta_stm32mp_nvmem.c:260
      f8:	4c72      	ldr	r4, [pc, #456]	@ (2c4 <TA_InvokeCommandEntryPoint+0x1f0>)
/home/lubuntu/Dokument/GitHub/STM32-Computer/Firmware/STM32-Computer-Firmware/CA7/optee-os-3.19.0-r2/optee-os-stm32mp-3.19.0-stm32mp-r2/ta/stm32mp_nvmem/ta_stm32mp_nvmem.c:259
      fa:	f240 1103 	movw	r1, #259	@ 0x103
      fe:	f000 f9a5 	bl	44c <trace_printf>
/home/lubuntu/Dokument/GitHub/STM32-Computer/Firmware/STM32-Computer-Firmware/CA7/optee-os-3.19.0-r2/optee-os-stm32mp-3.19.0-stm32mp-r2/ta/stm32mp_nvmem/ta_stm32mp_nvmem.c:260
     102:	e071      	b.n	1e8 <TA_InvokeCommandEntryPoint+0x114>
nvmem_read():
/home/lubuntu/Dokument/GitHub/STM32-Computer/Firmware/STM32-Computer-Firmware/CA7/optee-os-3.19.0-r2/optee-os-stm32mp-3.19.0-stm32mp-r2/ta/stm32mp_nvmem/ta_stm32mp_nvmem.c:67
     104:	2a61      	cmp	r2, #97	@ 0x61
     106:	f040 80db 	bne.w	2c0 <TA_InvokeCommandEntryPoint+0x1ec>
/home/lubuntu/Dokument/GitHub/STM32-Computer/Firmware/STM32-Computer-Firmware/CA7/optee-os-3.19.0-r2/optee-os-stm32mp-3.19.0-stm32mp-r2/ta/stm32mp_nvmem/ta_stm32mp_nvmem.c:61
     10a:	689e      	ldr	r6, [r3, #8]
/home/lubuntu/Dokument/GitHub/STM32-Computer/Firmware/STM32-Computer-Firmware/CA7/optee-os-3.19.0-r2/optee-os-stm32mp-3.19.0-stm32mp-r2/ta/stm32mp_nvmem/ta_stm32mp_nvmem.c:67
     10c:	2e00      	cmp	r6, #0
     10e:	f000 80d7 	beq.w	2c0 <TA_InvokeCommandEntryPoint+0x1ec>
/home/lubuntu/Dokument/GitHub/STM32-Computer/Firmware/STM32-Computer-Firmware/CA7/optee-os-3.19.0-r2/optee-os-stm32mp-3.19.0-stm32mp-r2/ta/stm32mp_nvmem/ta_stm32mp_nvmem.c:62
     112:	68dd      	ldr	r5, [r3, #12]
/home/lubuntu/Dokument/GitHub/STM32-Computer/Firmware/STM32-Computer-Firmware/CA7/optee-os-3.19.0-r2/optee-os-stm32mp-3.19.0-stm32mp-r2/ta/stm32mp_nvmem/ta_stm32mp_nvmem.c:67
     114:	2d0f      	cmp	r5, #15
     116:	f240 80d3 	bls.w	2c0 <TA_InvokeCommandEntryPoint+0x1ec>
/home/lubuntu/Dokument/GitHub/STM32-Computer/Firmware/STM32-Computer-Firmware/CA7/optee-os-3.19.0-r2/optee-os-stm32mp-3.19.0-stm32mp-r2/ta/stm32mp_nvmem/ta_stm32mp_nvmem.c:72
     11a:	6818      	ldr	r0, [r3, #0]
     11c:	f005 0207 	and.w	r2, r5, #7
     120:	4613      	mov	r3, r2
/home/lubuntu/Dokument/GitHub/STM32-Computer/Firmware/STM32-Computer-Firmware/CA7/optee-os-3.19.0-r2/optee-os-stm32mp-3.19.0-stm32mp-r2/ta/stm32mp_nvmem/ta_stm32mp_nvmem.c:73
     122:	f006 0203 	and.w	r2, r6, #3
/home/lubuntu/Dokument/GitHub/STM32-Computer/Firmware/STM32-Computer-Firmware/CA7/optee-os-3.19.0-r2/optee-os-stm32mp-3.19.0-stm32mp-r2/ta/stm32mp_nvmem/ta_stm32mp_nvmem.c:72
     126:	4303      	orrs	r3, r0
     128:	ea53 0402 	orrs.w	r4, r3, r2
     12c:	f040 80c8 	bne.w	2c0 <TA_InvokeCommandEntryPoint+0x1ec>
nvmem_get_state():
/home/lubuntu/Dokument/GitHub/STM32-Computer/Firmware/STM32-Computer-Firmware/CA7/optee-os-3.19.0-r2/optee-os-stm32mp-3.19.0-stm32mp-r2/ta/stm32mp_nvmem/ta_stm32mp_nvmem.c:46
     130:	f8df 81a0 	ldr.w	r8, [pc, #416]	@ 2d4 <TA_InvokeCommandEntryPoint+0x200>
nvmem_read():
/home/lubuntu/Dokument/GitHub/STM32-Computer/Firmware/STM32-Computer-Firmware/CA7/optee-os-3.19.0-r2/optee-os-stm32mp-3.19.0-stm32mp-r2/ta/stm32mp_nvmem/ta_stm32mp_nvmem.c:77
     134:	f04f 0902 	mov.w	r9, #2
     138:	f8c6 9000 	str.w	r9, [r6]
nvmem_get_state():
/home/lubuntu/Dokument/GitHub/STM32-Computer/Firmware/STM32-Computer-Firmware/CA7/optee-os-3.19.0-r2/optee-os-stm32mp-3.19.0-stm32mp-r2/ta/stm32mp_nvmem/ta_stm32mp_nvmem.c:38
     13c:	af04      	add	r7, sp, #16
/home/lubuntu/Dokument/GitHub/STM32-Computer/Firmware/STM32-Computer-Firmware/CA7/optee-os-3.19.0-r2/optee-os-stm32mp-3.19.0-stm32mp-r2/ta/stm32mp_nvmem/ta_stm32mp_nvmem.c:46
     13e:	44f8      	add	r8, pc
/home/lubuntu/Dokument/GitHub/STM32-Computer/Firmware/STM32-Computer-Firmware/CA7/optee-os-3.19.0-r2/optee-os-stm32mp-3.19.0-stm32mp-r2/ta/stm32mp_nvmem/ta_stm32mp_nvmem.c:38
     140:	2220      	movs	r2, #32
     142:	4638      	mov	r0, r7
     144:	f009 f9ef 	bl	9526 <memset>
/home/lubuntu/Dokument/GitHub/STM32-Computer/Firmware/STM32-Computer-Firmware/CA7/optee-os-3.19.0-r2/optee-os-stm32mp-3.19.0-stm32mp-r2/ta/stm32mp_nvmem/ta_stm32mp_nvmem.c:46
     148:	9401      	str	r4, [sp, #4]
     14a:	464b      	mov	r3, r9
     14c:	9700      	str	r7, [sp, #0]
     14e:	2203      	movs	r2, #3
     150:	f8d8 0004 	ldr.w	r0, [r8, #4]
     154:	f04f 31ff 	mov.w	r1, #4294967295	@ 0xffffffff
     158:	f000 feda 	bl	f10 <TEE_InvokeTACommand>
/home/lubuntu/Dokument/GitHub/STM32-Computer/Firmware/STM32-Computer-Firmware/CA7/optee-os-3.19.0-r2/optee-os-stm32mp-3.19.0-stm32mp-r2/ta/stm32mp_nvmem/ta_stm32mp_nvmem.c:49
     15c:	4604      	mov	r4, r0
     15e:	2800      	cmp	r0, #0
     160:	d142      	bne.n	1e8 <TA_InvokeCommandEntryPoint+0x114>
/home/lubuntu/Dokument/GitHub/STM32-Computer/Firmware/STM32-Computer-Firmware/CA7/optee-os-3.19.0-r2/optee-os-stm32mp-3.19.0-stm32mp-r2/ta/stm32mp_nvmem/ta_stm32mp_nvmem.c:50
     162:	9b04      	ldr	r3, [sp, #16]
nvmem_read():
/home/lubuntu/Dokument/GitHub/STM32-Computer/Firmware/STM32-Computer-Firmware/CA7/optee-os-3.19.0-r2/optee-os-stm32mp-3.19.0-stm32mp-r2/ta/stm32mp_nvmem/ta_stm32mp_nvmem.c:80
     164:	f106 0908 	add.w	r9, r6, #8
/home/lubuntu/Dokument/GitHub/STM32-Computer/Firmware/STM32-Computer-Firmware/CA7/optee-os-3.19.0-r2/optee-os-stm32mp-3.19.0-stm32mp-r2/ta/stm32mp_nvmem/ta_stm32mp_nvmem.c:86
     168:	ef80 8010 	vmov.i32	d8, #0	@ 0x00000000
nvmem_get_state():
/home/lubuntu/Dokument/GitHub/STM32-Computer/Firmware/STM32-Computer-Firmware/CA7/optee-os-3.19.0-r2/optee-os-stm32mp-3.19.0-stm32mp-r2/ta/stm32mp_nvmem/ta_stm32mp_nvmem.c:50
     16c:	6073      	str	r3, [r6, #4]
nvmem_read():
/home/lubuntu/Dokument/GitHub/STM32-Computer/Firmware/STM32-Computer-Firmware/CA7/optee-os-3.19.0-r2/optee-os-stm32mp-3.19.0-stm32mp-r2/ta/stm32mp_nvmem/ta_stm32mp_nvmem.c:90
     16e:	2601      	movs	r6, #1
/home/lubuntu/Dokument/GitHub/STM32-Computer/Firmware/STM32-Computer-Firmware/CA7/optee-os-3.19.0-r2/optee-os-stm32mp-3.19.0-stm32mp-r2/ta/stm32mp_nvmem/ta_stm32mp_nvmem.c:84
     170:	08ab      	lsrs	r3, r5, #2
     172:	3b02      	subs	r3, #2
     174:	085d      	lsrs	r5, r3, #1
/home/lubuntu/Dokument/GitHub/STM32-Computer/Firmware/STM32-Computer-Firmware/CA7/optee-os-3.19.0-r2/optee-os-stm32mp-3.19.0-stm32mp-r2/ta/stm32mp_nvmem/ta_stm32mp_nvmem.c:94
     176:	9700      	str	r7, [sp, #0]
     178:	2200      	movs	r2, #0
     17a:	ea4f 0b84 	mov.w	fp, r4, lsl #2
/home/lubuntu/Dokument/GitHub/STM32-Computer/Firmware/STM32-Computer-Firmware/CA7/optee-os-3.19.0-r2/optee-os-stm32mp-3.19.0-stm32mp-r2/ta/stm32mp_nvmem/ta_stm32mp_nvmem.c:92
     17e:	f04f 0a04 	mov.w	sl, #4
/home/lubuntu/Dokument/GitHub/STM32-Computer/Firmware/STM32-Computer-Firmware/CA7/optee-os-3.19.0-r2/optee-os-stm32mp-3.19.0-stm32mp-r2/ta/stm32mp_nvmem/ta_stm32mp_nvmem.c:94
     182:	9201      	str	r2, [sp, #4]
     184:	2361      	movs	r3, #97	@ 0x61
     186:	f8d8 0004 	ldr.w	r0, [r8, #4]
     18a:	f04f 31ff 	mov.w	r1, #4294967295	@ 0xffffffff
/home/lubuntu/Dokument/GitHub/STM32-Computer/Firmware/STM32-Computer-Firmware/CA7/optee-os-3.19.0-r2/optee-os-stm32mp-3.19.0-stm32mp-r2/ta/stm32mp_nvmem/ta_stm32mp_nvmem.c:86
     18e:	ed8d 8b08 	vstr	d8, [sp, #32]
     192:	ed8d 8b0a 	vstr	d8, [sp, #40]	@ 0x28
/home/lubuntu/Dokument/GitHub/STM32-Computer/Firmware/STM32-Computer-Firmware/CA7/optee-os-3.19.0-r2/optee-os-stm32mp-3.19.0-stm32mp-r2/ta/stm32mp_nvmem/ta_stm32mp_nvmem.c:90
     196:	e9cd b604 	strd	fp, r6, [sp, #16]
/home/lubuntu/Dokument/GitHub/STM32-Computer/Firmware/STM32-Computer-Firmware/CA7/optee-os-3.19.0-r2/optee-os-stm32mp-3.19.0-stm32mp-r2/ta/stm32mp_nvmem/ta_stm32mp_nvmem.c:91
     19a:	f8cd 9018 	str.w	r9, [sp, #24]
/home/lubuntu/Dokument/GitHub/STM32-Computer/Firmware/STM32-Computer-Firmware/CA7/optee-os-3.19.0-r2/optee-os-stm32mp-3.19.0-stm32mp-r2/ta/stm32mp_nvmem/ta_stm32mp_nvmem.c:92
     19e:	f8cd a01c 	str.w	sl, [sp, #28]
/home/lubuntu/Dokument/GitHub/STM32-Computer/Firmware/STM32-Computer-Firmware/CA7/optee-os-3.19.0-r2/optee-os-stm32mp-3.19.0-stm32mp-r2/ta/stm32mp_nvmem/ta_stm32mp_nvmem.c:94
     1a2:	f000 feb5 	bl	f10 <TEE_InvokeTACommand>
/home/lubuntu/Dokument/GitHub/STM32-Computer/Firmware/STM32-Computer-Firmware/CA7/optee-os-3.19.0-r2/optee-os-stm32mp-3.19.0-stm32mp-r2/ta/stm32mp_nvmem/ta_stm32mp_nvmem.c:97
     1a6:	b128      	cbz	r0, 1b4 <TA_InvokeCommandEntryPoint+0xe0>
/home/lubuntu/Dokument/GitHub/STM32-Computer/Firmware/STM32-Computer-Firmware/CA7/optee-os-3.19.0-r2/optee-os-stm32mp-3.19.0-stm32mp-r2/ta/stm32mp_nvmem/ta_stm32mp_nvmem.c:98
     1a8:	2200      	movs	r2, #0
     1aa:	f8c9 2000 	str.w	r2, [r9]
/home/lubuntu/Dokument/GitHub/STM32-Computer/Firmware/STM32-Computer-Firmware/CA7/optee-os-3.19.0-r2/optee-os-stm32mp-3.19.0-stm32mp-r2/ta/stm32mp_nvmem/ta_stm32mp_nvmem.c:114
     1ae:	f8c9 6004 	str.w	r6, [r9, #4]
     1b2:	e013      	b.n	1dc <TA_InvokeCommandEntryPoint+0x108>
/home/lubuntu/Dokument/GitHub/STM32-Computer/Firmware/STM32-Computer-Firmware/CA7/optee-os-3.19.0-r2/optee-os-stm32mp-3.19.0-stm32mp-r2/ta/stm32mp_nvmem/ta_stm32mp_nvmem.c:110
     1b4:	9001      	str	r0, [sp, #4]
/home/lubuntu/Dokument/GitHub/STM32-Computer/Firmware/STM32-Computer-Firmware/CA7/optee-os-3.19.0-r2/optee-os-stm32mp-3.19.0-stm32mp-r2/ta/stm32mp_nvmem/ta_stm32mp_nvmem.c:107
     1b6:	2302      	movs	r3, #2
     1b8:	9305      	str	r3, [sp, #20]
/home/lubuntu/Dokument/GitHub/STM32-Computer/Firmware/STM32-Computer-Firmware/CA7/optee-os-3.19.0-r2/optee-os-stm32mp-3.19.0-stm32mp-r2/ta/stm32mp_nvmem/ta_stm32mp_nvmem.c:98
     1ba:	f109 0304 	add.w	r3, r9, #4
/home/lubuntu/Dokument/GitHub/STM32-Computer/Firmware/STM32-Computer-Firmware/CA7/optee-os-3.19.0-r2/optee-os-stm32mp-3.19.0-stm32mp-r2/ta/stm32mp_nvmem/ta_stm32mp_nvmem.c:110
     1be:	9700      	str	r7, [sp, #0]
     1c0:	4602      	mov	r2, r0
/home/lubuntu/Dokument/GitHub/STM32-Computer/Firmware/STM32-Computer-Firmware/CA7/optee-os-3.19.0-r2/optee-os-stm32mp-3.19.0-stm32mp-r2/ta/stm32mp_nvmem/ta_stm32mp_nvmem.c:109
     1c2:	e9cd 3a06 	strd	r3, sl, [sp, #24]
/home/lubuntu/Dokument/GitHub/STM32-Computer/Firmware/STM32-Computer-Firmware/CA7/optee-os-3.19.0-r2/optee-os-stm32mp-3.19.0-stm32mp-r2/ta/stm32mp_nvmem/ta_stm32mp_nvmem.c:110
     1c6:	f8d8 0004 	ldr.w	r0, [r8, #4]
     1ca:	2361      	movs	r3, #97	@ 0x61
/home/lubuntu/Dokument/GitHub/STM32-Computer/Firmware/STM32-Computer-Firmware/CA7/optee-os-3.19.0-r2/optee-os-stm32mp-3.19.0-stm32mp-r2/ta/stm32mp_nvmem/ta_stm32mp_nvmem.c:106
     1cc:	f8cd b010 	str.w	fp, [sp, #16]
/home/lubuntu/Dokument/GitHub/STM32-Computer/Firmware/STM32-Computer-Firmware/CA7/optee-os-3.19.0-r2/optee-os-stm32mp-3.19.0-stm32mp-r2/ta/stm32mp_nvmem/ta_stm32mp_nvmem.c:110
     1d0:	f04f 31ff 	mov.w	r1, #4294967295	@ 0xffffffff
     1d4:	f000 fe9c 	bl	f10 <TEE_InvokeTACommand>
/home/lubuntu/Dokument/GitHub/STM32-Computer/Firmware/STM32-Computer-Firmware/CA7/optee-os-3.19.0-r2/optee-os-stm32mp-3.19.0-stm32mp-r2/ta/stm32mp_nvmem/ta_stm32mp_nvmem.c:113
     1d8:	2800      	cmp	r0, #0
     1da:	d1e8      	bne.n	1ae <TA_InvokeCommandEntryPoint+0xda>
/home/lubuntu/Dokument/GitHub/STM32-Computer/Firmware/STM32-Computer-Firmware/CA7/optee-os-3.19.0-r2/optee-os-stm32mp-3.19.0-stm32mp-r2/ta/stm32mp_nvmem/ta_stm32mp_nvmem.c:85
     1dc:	3401      	adds	r4, #1
     1de:	f109 0908 	add.w	r9, r9, #8
     1e2:	42ac      	cmp	r4, r5
     1e4:	d1c7      	bne.n	176 <TA_InvokeCommandEntryPoint+0xa2>
/home/lubuntu/Dokument/GitHub/STM32-Computer/Firmware/STM32-Computer-Firmware/CA7/optee-os-3.19.0-r2/optee-os-stm32mp-3.19.0-stm32mp-r2/ta/stm32mp_nvmem/ta_stm32mp_nvmem.c:117
     1e6:	2400      	movs	r4, #0
TA_InvokeCommandEntryPoint():
/home/lubuntu/Dokument/GitHub/STM32-Computer/Firmware/STM32-Computer-Firmware/CA7/optee-os-3.19.0-r2/optee-os-stm32mp-3.19.0-stm32mp-r2/ta/stm32mp_nvmem/ta_stm32mp_nvmem.c:262
     1e8:	4620      	mov	r0, r4
     1ea:	b00d      	add	sp, #52	@ 0x34
     1ec:	ecbd 8b02 	vpop	{d8}
     1f0:	e8bd 8ff0 	ldmia.w	sp!, {r4, r5, r6, r7, r8, r9, sl, fp, pc}
nvmem_write():
/home/lubuntu/Dokument/GitHub/STM32-Computer/Firmware/STM32-Computer-Firmware/CA7/optee-os-3.19.0-r2/optee-os-stm32mp-3.19.0-stm32mp-r2/ta/stm32mp_nvmem/ta_stm32mp_nvmem.c:131
     1f4:	2a51      	cmp	r2, #81	@ 0x51
     1f6:	d163      	bne.n	2c0 <TA_InvokeCommandEntryPoint+0x1ec>
/home/lubuntu/Dokument/GitHub/STM32-Computer/Firmware/STM32-Computer-Firmware/CA7/optee-os-3.19.0-r2/optee-os-stm32mp-3.19.0-stm32mp-r2/ta/stm32mp_nvmem/ta_stm32mp_nvmem.c:126
     1f8:	689f      	ldr	r7, [r3, #8]
/home/lubuntu/Dokument/GitHub/STM32-Computer/Firmware/STM32-Computer-Firmware/CA7/optee-os-3.19.0-r2/optee-os-stm32mp-3.19.0-stm32mp-r2/ta/stm32mp_nvmem/ta_stm32mp_nvmem.c:131
     1fa:	2f00      	cmp	r7, #0
     1fc:	d060      	beq.n	2c0 <TA_InvokeCommandEntryPoint+0x1ec>
/home/lubuntu/Dokument/GitHub/STM32-Computer/Firmware/STM32-Computer-Firmware/CA7/optee-os-3.19.0-r2/optee-os-stm32mp-3.19.0-stm32mp-r2/ta/stm32mp_nvmem/ta_stm32mp_nvmem.c:127
     1fe:	68de      	ldr	r6, [r3, #12]
/home/lubuntu/Dokument/GitHub/STM32-Computer/Firmware/STM32-Computer-Firmware/CA7/optee-os-3.19.0-r2/optee-os-stm32mp-3.19.0-stm32mp-r2/ta/stm32mp_nvmem/ta_stm32mp_nvmem.c:131
     200:	2e0f      	cmp	r6, #15
     202:	d95d      	bls.n	2c0 <TA_InvokeCommandEntryPoint+0x1ec>
/home/lubuntu/Dokument/GitHub/STM32-Computer/Firmware/STM32-Computer-Firmware/CA7/optee-os-3.19.0-r2/optee-os-stm32mp-3.19.0-stm32mp-r2/ta/stm32mp_nvmem/ta_stm32mp_nvmem.c:137
     204:	681b      	ldr	r3, [r3, #0]
/home/lubuntu/Dokument/GitHub/STM32-Computer/Firmware/STM32-Computer-Firmware/CA7/optee-os-3.19.0-r2/optee-os-stm32mp-3.19.0-stm32mp-r2/ta/stm32mp_nvmem/ta_stm32mp_nvmem.c:136
     206:	f006 0507 	and.w	r5, r6, #7
     20a:	431d      	orrs	r5, r3
/home/lubuntu/Dokument/GitHub/STM32-Computer/Firmware/STM32-Computer-Firmware/CA7/optee-os-3.19.0-r2/optee-os-stm32mp-3.19.0-stm32mp-r2/ta/stm32mp_nvmem/ta_stm32mp_nvmem.c:137
     20c:	f007 0303 	and.w	r3, r7, #3
/home/lubuntu/Dokument/GitHub/STM32-Computer/Firmware/STM32-Computer-Firmware/CA7/optee-os-3.19.0-r2/optee-os-stm32mp-3.19.0-stm32mp-r2/ta/stm32mp_nvmem/ta_stm32mp_nvmem.c:136
     210:	431d      	orrs	r5, r3
     212:	d155      	bne.n	2c0 <TA_InvokeCommandEntryPoint+0x1ec>
/home/lubuntu/Dokument/GitHub/STM32-Computer/Firmware/STM32-Computer-Firmware/CA7/optee-os-3.19.0-r2/optee-os-stm32mp-3.19.0-stm32mp-r2/ta/stm32mp_nvmem/ta_stm32mp_nvmem.c:141
     214:	683b      	ldr	r3, [r7, #0]
     216:	2b02      	cmp	r3, #2
     218:	d152      	bne.n	2c0 <TA_InvokeCommandEntryPoint+0x1ec>
/home/lubuntu/Dokument/GitHub/STM32-Computer/Firmware/STM32-Computer-Firmware/CA7/optee-os-3.19.0-r2/optee-os-stm32mp-3.19.0-stm32mp-r2/ta/stm32mp_nvmem/ta_stm32mp_nvmem.c:147
     21a:	08b6      	lsrs	r6, r6, #2
     21c:	3710      	adds	r7, #16
/home/lubuntu/Dokument/GitHub/STM32-Computer/Firmware/STM32-Computer-Firmware/CA7/optee-os-3.19.0-r2/optee-os-stm32mp-3.19.0-stm32mp-r2/ta/stm32mp_nvmem/ta_stm32mp_nvmem.c:163
     21e:	f8df b0b8 	ldr.w	fp, [pc, #184]	@ 2d8 <TA_InvokeCommandEntryPoint+0x204>
/home/lubuntu/Dokument/GitHub/STM32-Computer/Firmware/STM32-Computer-Firmware/CA7/optee-os-3.19.0-r2/optee-os-stm32mp-3.19.0-stm32mp-r2/ta/stm32mp_nvmem/ta_stm32mp_nvmem.c:147
     222:	3e02      	subs	r6, #2
/home/lubuntu/Dokument/GitHub/STM32-Computer/Firmware/STM32-Computer-Firmware/CA7/optee-os-3.19.0-r2/optee-os-stm32mp-3.19.0-stm32mp-r2/ta/stm32mp_nvmem/ta_stm32mp_nvmem.c:180
     224:	f8df a0b4 	ldr.w	sl, [pc, #180]	@ 2dc <TA_InvokeCommandEntryPoint+0x208>
/home/lubuntu/Dokument/GitHub/STM32-Computer/Firmware/STM32-Computer-Firmware/CA7/optee-os-3.19.0-r2/optee-os-stm32mp-3.19.0-stm32mp-r2/ta/stm32mp_nvmem/ta_stm32mp_nvmem.c:149
     228:	f10d 0810 	add.w	r8, sp, #16
/home/lubuntu/Dokument/GitHub/STM32-Computer/Firmware/STM32-Computer-Firmware/CA7/optee-os-3.19.0-r2/optee-os-stm32mp-3.19.0-stm32mp-r2/ta/stm32mp_nvmem/ta_stm32mp_nvmem.c:147
     22c:	0876      	lsrs	r6, r6, #1
/home/lubuntu/Dokument/GitHub/STM32-Computer/Firmware/STM32-Computer-Firmware/CA7/optee-os-3.19.0-r2/optee-os-stm32mp-3.19.0-stm32mp-r2/ta/stm32mp_nvmem/ta_stm32mp_nvmem.c:163
     22e:	44fb      	add	fp, pc
     230:	00b6      	lsls	r6, r6, #2
/home/lubuntu/Dokument/GitHub/STM32-Computer/Firmware/STM32-Computer-Firmware/CA7/optee-os-3.19.0-r2/optee-os-stm32mp-3.19.0-stm32mp-r2/ta/stm32mp_nvmem/ta_stm32mp_nvmem.c:180
     232:	44fa      	add	sl, pc
/home/lubuntu/Dokument/GitHub/STM32-Computer/Firmware/STM32-Computer-Firmware/CA7/optee-os-3.19.0-r2/optee-os-stm32mp-3.19.0-stm32mp-r2/ta/stm32mp_nvmem/ta_stm32mp_nvmem.c:149
     234:	2220      	movs	r2, #32
     236:	2100      	movs	r1, #0
     238:	4640      	mov	r0, r8
     23a:	f009 f974 	bl	9526 <memset>
/home/lubuntu/Dokument/GitHub/STM32-Computer/Firmware/STM32-Computer-Firmware/CA7/optee-os-3.19.0-r2/optee-os-stm32mp-3.19.0-stm32mp-r2/ta/stm32mp_nvmem/ta_stm32mp_nvmem.c:150
     23e:	f857 3c08 	ldr.w	r3, [r7, #-8]
     242:	9302      	str	r3, [sp, #8]
/home/lubuntu/Dokument/GitHub/STM32-Computer/Firmware/STM32-Computer-Firmware/CA7/optee-os-3.19.0-r2/optee-os-stm32mp-3.19.0-stm32mp-r2/ta/stm32mp_nvmem/ta_stm32mp_nvmem.c:151
     244:	f857 9c04 	ldr.w	r9, [r7, #-4]
/home/lubuntu/Dokument/GitHub/STM32-Computer/Firmware/STM32-Computer-Firmware/CA7/optee-os-3.19.0-r2/optee-os-stm32mp-3.19.0-stm32mp-r2/ta/stm32mp_nvmem/ta_stm32mp_nvmem.c:154
     248:	f1b9 0f00 	cmp.w	r9, #0
     24c:	db04      	blt.n	258 <TA_InvokeCommandEntryPoint+0x184>
/home/lubuntu/Dokument/GitHub/STM32-Computer/Firmware/STM32-Computer-Firmware/CA7/optee-os-3.19.0-r2/optee-os-stm32mp-3.19.0-stm32mp-r2/ta/stm32mp_nvmem/ta_stm32mp_nvmem.c:148
     24e:	3504      	adds	r5, #4
     250:	3708      	adds	r7, #8
     252:	42b5      	cmp	r5, r6
     254:	d1ee      	bne.n	234 <TA_InvokeCommandEntryPoint+0x160>
     256:	e7c6      	b.n	1e6 <TA_InvokeCommandEntryPoint+0x112>
/home/lubuntu/Dokument/GitHub/STM32-Computer/Firmware/STM32-Computer-Firmware/CA7/optee-os-3.19.0-r2/optee-os-stm32mp-3.19.0-stm32mp-r2/ta/stm32mp_nvmem/ta_stm32mp_nvmem.c:158
     258:	b9e3      	cbnz	r3, 294 <TA_InvokeCommandEntryPoint+0x1c0>
/home/lubuntu/Dokument/GitHub/STM32-Computer/Firmware/STM32-Computer-Firmware/CA7/optee-os-3.19.0-r2/optee-os-stm32mp-3.19.0-stm32mp-r2/ta/stm32mp_nvmem/ta_stm32mp_nvmem.c:172
     25a:	f019 4f80 	tst.w	r9, #1073741824	@ 0x40000000
     25e:	d0f6      	beq.n	24e <TA_InvokeCommandEntryPoint+0x17a>
/home/lubuntu/Dokument/GitHub/STM32-Computer/Firmware/STM32-Computer-Firmware/CA7/optee-os-3.19.0-r2/optee-os-stm32mp-3.19.0-stm32mp-r2/ta/stm32mp_nvmem/ta_stm32mp_nvmem.c:180
     260:	f8cd 8000 	str.w	r8, [sp]
/home/lubuntu/Dokument/GitHub/STM32-Computer/Firmware/STM32-Computer-Firmware/CA7/optee-os-3.19.0-r2/optee-os-stm32mp-3.19.0-stm32mp-r2/ta/stm32mp_nvmem/ta_stm32mp_nvmem.c:173
     264:	f04f 4380 	mov.w	r3, #1073741824	@ 0x40000000
     268:	9303      	str	r3, [sp, #12]
/home/lubuntu/Dokument/GitHub/STM32-Computer/Firmware/STM32-Computer-Firmware/CA7/optee-os-3.19.0-r2/optee-os-stm32mp-3.19.0-stm32mp-r2/ta/stm32mp_nvmem/ta_stm32mp_nvmem.c:177
     26a:	2302      	movs	r3, #2
     26c:	9305      	str	r3, [sp, #20]
/home/lubuntu/Dokument/GitHub/STM32-Computer/Firmware/STM32-Computer-Firmware/CA7/optee-os-3.19.0-r2/optee-os-stm32mp-3.19.0-stm32mp-r2/ta/stm32mp_nvmem/ta_stm32mp_nvmem.c:178
     26e:	ab03      	add	r3, sp, #12
     270:	9306      	str	r3, [sp, #24]
/home/lubuntu/Dokument/GitHub/STM32-Computer/Firmware/STM32-Computer-Firmware/CA7/optee-os-3.19.0-r2/optee-os-stm32mp-3.19.0-stm32mp-r2/ta/stm32mp_nvmem/ta_stm32mp_nvmem.c:179
     272:	2304      	movs	r3, #4
     274:	9307      	str	r3, [sp, #28]
/home/lubuntu/Dokument/GitHub/STM32-Computer/Firmware/STM32-Computer-Firmware/CA7/optee-os-3.19.0-r2/optee-os-stm32mp-3.19.0-stm32mp-r2/ta/stm32mp_nvmem/ta_stm32mp_nvmem.c:180
     276:	2300      	movs	r3, #0
     278:	9301      	str	r3, [sp, #4]
     27a:	2201      	movs	r2, #1
     27c:	f8da 0004 	ldr.w	r0, [sl, #4]
     280:	2351      	movs	r3, #81	@ 0x51
/home/lubuntu/Dokument/GitHub/STM32-Computer/Firmware/STM32-Computer-Firmware/CA7/optee-os-3.19.0-r2/optee-os-stm32mp-3.19.0-stm32mp-r2/ta/stm32mp_nvmem/ta_stm32mp_nvmem.c:176
     282:	9504      	str	r5, [sp, #16]
/home/lubuntu/Dokument/GitHub/STM32-Computer/Firmware/STM32-Computer-Firmware/CA7/optee-os-3.19.0-r2/optee-os-stm32mp-3.19.0-stm32mp-r2/ta/stm32mp_nvmem/ta_stm32mp_nvmem.c:180
     284:	f04f 31ff 	mov.w	r1, #4294967295	@ 0xffffffff
     288:	f000 fe42 	bl	f10 <TEE_InvokeTACommand>
/home/lubuntu/Dokument/GitHub/STM32-Computer/Firmware/STM32-Computer-Firmware/CA7/optee-os-3.19.0-r2/optee-os-stm32mp-3.19.0-stm32mp-r2/ta/stm32mp_nvmem/ta_stm32mp_nvmem.c:184
     28c:	4604      	mov	r4, r0
     28e:	2800      	cmp	r0, #0
     290:	d0dd      	beq.n	24e <TA_InvokeCommandEntryPoint+0x17a>
     292:	e7a9      	b.n	1e8 <TA_InvokeCommandEntryPoint+0x114>
/home/lubuntu/Dokument/GitHub/STM32-Computer/Firmware/STM32-Computer-Firmware/CA7/optee-os-3.19.0-r2/optee-os-stm32mp-3.19.0-stm32mp-r2/ta/stm32mp_nvmem/ta_stm32mp_nvmem.c:163
     294:	f8cd 8000 	str.w	r8, [sp]
/home/lubuntu/Dokument/GitHub/STM32-Computer/Firmware/STM32-Computer-Firmware/CA7/optee-os-3.19.0-r2/optee-os-stm32mp-3.19.0-stm32mp-r2/ta/stm32mp_nvmem/ta_stm32mp_nvmem.c:161
     298:	ab02      	add	r3, sp, #8
     29a:	9306      	str	r3, [sp, #24]
/home/lubuntu/Dokument/GitHub/STM32-Computer/Firmware/STM32-Computer-Firmware/CA7/optee-os-3.19.0-r2/optee-os-stm32mp-3.19.0-stm32mp-r2/ta/stm32mp_nvmem/ta_stm32mp_nvmem.c:162
     29c:	2304      	movs	r3, #4
     29e:	9307      	str	r3, [sp, #28]
/home/lubuntu/Dokument/GitHub/STM32-Computer/Firmware/STM32-Computer-Firmware/CA7/optee-os-3.19.0-r2/optee-os-stm32mp-3.19.0-stm32mp-r2/ta/stm32mp_nvmem/ta_stm32mp_nvmem.c:163
     2a0:	2300      	movs	r3, #0
     2a2:	9301      	str	r3, [sp, #4]
/home/lubuntu/Dokument/GitHub/STM32-Computer/Firmware/STM32-Computer-Firmware/CA7/optee-os-3.19.0-r2/optee-os-stm32mp-3.19.0-stm32mp-r2/ta/stm32mp_nvmem/ta_stm32mp_nvmem.c:160
     2a4:	2201      	movs	r2, #1
/home/lubuntu/Dokument/GitHub/STM32-Computer/Firmware/STM32-Computer-Firmware/CA7/optee-os-3.19.0-r2/optee-os-stm32mp-3.19.0-stm32mp-r2/ta/stm32mp_nvmem/ta_stm32mp_nvmem.c:163
     2a6:	f8db 0004 	ldr.w	r0, [fp, #4]
     2aa:	2351      	movs	r3, #81	@ 0x51
/home/lubuntu/Dokument/GitHub/STM32-Computer/Firmware/STM32-Computer-Firmware/CA7/optee-os-3.19.0-r2/optee-os-stm32mp-3.19.0-stm32mp-r2/ta/stm32mp_nvmem/ta_stm32mp_nvmem.c:159
     2ac:	9504      	str	r5, [sp, #16]
/home/lubuntu/Dokument/GitHub/STM32-Computer/Firmware/STM32-Computer-Firmware/CA7/optee-os-3.19.0-r2/optee-os-stm32mp-3.19.0-stm32mp-r2/ta/stm32mp_nvmem/ta_stm32mp_nvmem.c:163
     2ae:	f04f 31ff 	mov.w	r1, #4294967295	@ 0xffffffff
/home/lubuntu/Dokument/GitHub/STM32-Computer/Firmware/STM32-Computer-Firmware/CA7/optee-os-3.19.0-r2/optee-os-stm32mp-3.19.0-stm32mp-r2/ta/stm32mp_nvmem/ta_stm32mp_nvmem.c:160
     2b2:	9205      	str	r2, [sp, #20]
/home/lubuntu/Dokument/GitHub/STM32-Computer/Firmware/STM32-Computer-Firmware/CA7/optee-os-3.19.0-r2/optee-os-stm32mp-3.19.0-stm32mp-r2/ta/stm32mp_nvmem/ta_stm32mp_nvmem.c:163
     2b4:	f000 fe2c 	bl	f10 <TEE_InvokeTACommand>
/home/lubuntu/Dokument/GitHub/STM32-Computer/Firmware/STM32-Computer-Firmware/CA7/optee-os-3.19.0-r2/optee-os-stm32mp-3.19.0-stm32mp-r2/ta/stm32mp_nvmem/ta_stm32mp_nvmem.c:167
     2b8:	4604      	mov	r4, r0
     2ba:	2800      	cmp	r0, #0
     2bc:	d0cd      	beq.n	25a <TA_InvokeCommandEntryPoint+0x186>
     2be:	e793      	b.n	1e8 <TA_InvokeCommandEntryPoint+0x114>
nvmem_read():
/home/lubuntu/Dokument/GitHub/STM32-Computer/Firmware/STM32-Computer-Firmware/CA7/optee-os-3.19.0-r2/optee-os-stm32mp-3.19.0-stm32mp-r2/ta/stm32mp_nvmem/ta_stm32mp_nvmem.c:68
     2c0:	4c01      	ldr	r4, [pc, #4]	@ (2c8 <TA_InvokeCommandEntryPoint+0x1f4>)
     2c2:	e791      	b.n	1e8 <TA_InvokeCommandEntryPoint+0x114>
     2c4:	ffff000a 	.word	0xffff000a
     2c8:	ffff0006 	.word	0xffff0006
     2cc:	00009e6e 	.word	0x00009e6e
     2d0:	00009b1c 	.word	0x00009b1c
     2d4:	0000b246 	.word	0x0000b246
     2d8:	0000b156 	.word	0x0000b156
     2dc:	0000b152 	.word	0x0000b152

000002e0 <__ta_entry>:
__ta_entry():
/home/lubuntu/Dokument/GitHub/STM32-Computer/Firmware/STM32-Computer-Firmware/CA7/optee-os-3.19.0-r2/optee-os-stm32mp-3.19.0-stm32mp-r2/../build/stm32mp135f-dk/export-ta_arm32/src/ta_entry_a32.S:22
     2e0:	fa00248c 	blx	9518 <__ta_entry_c>

000002e4 <trace_set_level>:
trace_set_level():
/home/lubuntu/Dokument/GitHub/STM32-Computer/Firmware/STM32-Computer-Firmware/CA7/optee-os-3.19.0-r2/optee-os-stm32mp-3.19.0-stm32mp-r2/lib/libutils/ext/trace.c:24
     2e4:	4b04      	ldr	r3, [pc, #16]	@ (2f8 <trace_set_level+0x14>)
/home/lubuntu/Dokument/GitHub/STM32-Computer/Firmware/STM32-Computer-Firmware/CA7/optee-os-3.19.0-r2/optee-os-stm32mp-3.19.0-stm32mp-r2/lib/libutils/ext/trace.c:28
     2e6:	2805      	cmp	r0, #5
     2e8:	4a04      	ldr	r2, [pc, #16]	@ (2fc <trace_set_level+0x18>)
     2ea:	bf28      	it	cs
     2ec:	2004      	movcs	r0, #4
/home/lubuntu/Dokument/GitHub/STM32-Computer/Firmware/STM32-Computer-Firmware/CA7/optee-os-3.19.0-r2/optee-os-stm32mp-3.19.0-stm32mp-r2/lib/libutils/ext/trace.c:24
     2ee:	447b      	add	r3, pc
     2f0:	589b      	ldr	r3, [r3, r2]
     2f2:	6018      	str	r0, [r3, #0]
/home/lubuntu/Dokument/GitHub/STM32-Computer/Firmware/STM32-Computer-Firmware/CA7/optee-os-3.19.0-r2/optee-os-stm32mp-3.19.0-stm32mp-r2/lib/libutils/ext/trace.c:29
     2f4:	4770      	bx	lr
     2f6:	bf00      	nop
     2f8:	0000ad96 	.word	0x0000ad96
     2fc:	00000014 	.word	0x00000014

00000300 <trace_get_level>:
trace_get_level():
/home/lubuntu/Dokument/GitHub/STM32-Computer/Firmware/STM32-Computer-Firmware/CA7/optee-os-3.19.0-r2/optee-os-stm32mp-3.19.0-stm32mp-r2/lib/libutils/ext/trace.c:32
     300:	4b02      	ldr	r3, [pc, #8]	@ (30c <trace_get_level+0xc>)
/home/lubuntu/Dokument/GitHub/STM32-Computer/Firmware/STM32-Computer-Firmware/CA7/optee-os-3.19.0-r2/optee-os-stm32mp-3.19.0-stm32mp-r2/lib/libutils/ext/trace.c:33
     302:	4a03      	ldr	r2, [pc, #12]	@ (310 <trace_get_level+0x10>)
/home/lubuntu/Dokument/GitHub/STM32-Computer/Firmware/STM32-Computer-Firmware/CA7/optee-os-3.19.0-r2/optee-os-stm32mp-3.19.0-stm32mp-r2/lib/libutils/ext/trace.c:32
     304:	447b      	add	r3, pc
/home/lubuntu/Dokument/GitHub/STM32-Computer/Firmware/STM32-Computer-Firmware/CA7/optee-os-3.19.0-r2/optee-os-stm32mp-3.19.0-stm32mp-r2/lib/libutils/ext/trace.c:33
     306:	589b      	ldr	r3, [r3, r2]
/home/lubuntu/Dokument/GitHub/STM32-Computer/Firmware/STM32-Computer-Firmware/CA7/optee-os-3.19.0-r2/optee-os-stm32mp-3.19.0-stm32mp-r2/lib/libutils/ext/trace.c:34
     308:	6818      	ldr	r0, [r3, #0]
     30a:	4770      	bx	lr
     30c:	0000ad80 	.word	0x0000ad80
     310:	00000014 	.word	0x00000014

00000314 <trace_vprintf>:
trace_vprintf():
/home/lubuntu/Dokument/GitHub/STM32-Computer/Firmware/STM32-Computer-Firmware/CA7/optee-os-3.19.0-r2/optee-os-stm32mp-3.19.0-stm32mp-r2/lib/libutils/ext/trace.c:113
     314:	e92d 47f0 	stmdb	sp!, {r4, r5, r6, r7, r8, r9, sl, lr}
     318:	4607      	mov	r7, r0
     31a:	4e42      	ldr	r6, [pc, #264]	@ (424 <trace_vprintf+0x110>)
     31c:	b0c4      	sub	sp, #272	@ 0x110
     31e:	4688      	mov	r8, r1
     320:	4614      	mov	r4, r2
     322:	447e      	add	r6, pc
/home/lubuntu/Dokument/GitHub/STM32-Computer/Firmware/STM32-Computer-Firmware/CA7/optee-os-3.19.0-r2/optee-os-stm32mp-3.19.0-stm32mp-r2/lib/libutils/ext/trace.c:118
     324:	469a      	mov	sl, r3
     326:	2b00      	cmp	r3, #0
     328:	d069      	beq.n	3fe <trace_vprintf+0xea>
/home/lubuntu/Dokument/GitHub/STM32-Computer/Firmware/STM32-Computer-Firmware/CA7/optee-os-3.19.0-r2/optee-os-stm32mp-3.19.0-stm32mp-r2/lib/libutils/ext/trace.c:118 (discriminator 1)
     32a:	4b3f      	ldr	r3, [pc, #252]	@ (428 <trace_vprintf+0x114>)
     32c:	58f3      	ldr	r3, [r6, r3]
     32e:	681b      	ldr	r3, [r3, #0]
     330:	4293      	cmp	r3, r2
     332:	db61      	blt.n	3f8 <trace_vprintf+0xe4>
trace_level_to_string():
/home/lubuntu/Dokument/GitHub/STM32-Computer/Firmware/STM32-Computer-Firmware/CA7/optee-os-3.19.0-r2/optee-os-stm32mp-3.19.0-stm32mp-r2/lib/libutils/ext/trace.c:51
     334:	2a04      	cmp	r2, #4
     336:	bf94      	ite	ls
     338:	4613      	movls	r3, r2
     33a:	2300      	movhi	r3, #0
/home/lubuntu/Dokument/GitHub/STM32-Computer/Firmware/STM32-Computer-Firmware/CA7/optee-os-3.19.0-r2/optee-os-stm32mp-3.19.0-stm32mp-r2/lib/libutils/ext/trace.c:54
     33c:	4a3b      	ldr	r2, [pc, #236]	@ (42c <trace_vprintf+0x118>)
     33e:	447a      	add	r2, pc
     340:	5cd3      	ldrb	r3, [r2, r3]
trace_vprintf():
/home/lubuntu/Dokument/GitHub/STM32-Computer/Firmware/STM32-Computer-Firmware/CA7/optee-os-3.19.0-r2/optee-os-stm32mp-3.19.0-stm32mp-r2/lib/libutils/ext/trace.c:122
     342:	4a3b      	ldr	r2, [pc, #236]	@ (430 <trace_vprintf+0x11c>)
     344:	ad04      	add	r5, sp, #16
     346:	f44f 7180 	mov.w	r1, #256	@ 0x100
     34a:	4628      	mov	r0, r5
     34c:	447a      	add	r2, pc
     34e:	f000 f8aa 	bl	4a6 <snprintk>
/home/lubuntu/Dokument/GitHub/STM32-Computer/Firmware/STM32-Computer-Firmware/CA7/optee-os-3.19.0-r2/optee-os-stm32mp-3.19.0-stm32mp-r2/lib/libutils/ext/trace.c:124
     352:	f1b0 0900 	subs.w	r9, r0, #0
     356:	db4f      	blt.n	3f8 <trace_vprintf+0xe4>
/home/lubuntu/Dokument/GitHub/STM32-Computer/Firmware/STM32-Computer-Firmware/CA7/optee-os-3.19.0-r2/optee-os-stm32mp-3.19.0-stm32mp-r2/lib/libutils/ext/trace.c:129
     358:	4b36      	ldr	r3, [pc, #216]	@ (434 <trace_vprintf+0x120>)
     35a:	f5c9 7180 	rsb	r1, r9, #256	@ 0x100
     35e:	4a36      	ldr	r2, [pc, #216]	@ (438 <trace_vprintf+0x124>)
     360:	58f3      	ldr	r3, [r6, r3]
     362:	447a      	add	r2, pc
     364:	eb05 0009 	add.w	r0, r5, r9
     368:	9303      	str	r3, [sp, #12]
     36a:	f000 f89c 	bl	4a6 <snprintk>
/home/lubuntu/Dokument/GitHub/STM32-Computer/Firmware/STM32-Computer-Firmware/CA7/optee-os-3.19.0-r2/optee-os-stm32mp-3.19.0-stm32mp-r2/lib/libutils/ext/trace.c:131
     36e:	2800      	cmp	r0, #0
     370:	db42      	blt.n	3f8 <trace_vprintf+0xe4>
/home/lubuntu/Dokument/GitHub/STM32-Computer/Firmware/STM32-Computer-Firmware/CA7/optee-os-3.19.0-r2/optee-os-stm32mp-3.19.0-stm32mp-r2/lib/libutils/ext/trace.c:133
     372:	eb00 0609 	add.w	r6, r0, r9
/home/lubuntu/Dokument/GitHub/STM32-Computer/Firmware/STM32-Computer-Firmware/CA7/optee-os-3.19.0-r2/optee-os-stm32mp-3.19.0-stm32mp-r2/lib/libutils/ext/trace.c:135
     376:	f1ba 0f00 	cmp.w	sl, #0
     37a:	d049      	beq.n	410 <trace_vprintf+0xfc>
/home/lubuntu/Dokument/GitHub/STM32-Computer/Firmware/STM32-Computer-Firmware/CA7/optee-os-3.19.0-r2/optee-os-stm32mp-3.19.0-stm32mp-r2/lib/libutils/ext/trace.c:135 (discriminator 1)
     37c:	231a      	movs	r3, #26
     37e:	40e3      	lsrs	r3, r4
     380:	07db      	lsls	r3, r3, #31
     382:	d545      	bpl.n	410 <trace_vprintf+0xfc>
/home/lubuntu/Dokument/GitHub/STM32-Computer/Firmware/STM32-Computer-Firmware/CA7/optee-os-3.19.0-r2/optee-os-stm32mp-3.19.0-stm32mp-r2/lib/libutils/ext/trace.c:137
     384:	19ac      	adds	r4, r5, r6
print_thread_id():
/home/lubuntu/Dokument/GitHub/STM32-Computer/Firmware/STM32-Computer-Firmware/CA7/optee-os-3.19.0-r2/optee-os-stm32mp-3.19.0-stm32mp-r2/lib/libutils/ext/trace.c:66
     386:	f000 fc39 	bl	bfc <trace_ext_get_thread_id>
/home/lubuntu/Dokument/GitHub/STM32-Computer/Firmware/STM32-Computer-Firmware/CA7/optee-os-3.19.0-r2/optee-os-stm32mp-3.19.0-stm32mp-r2/lib/libutils/ext/trace.c:68
     38a:	2800      	cmp	r0, #0
trace_vprintf():
/home/lubuntu/Dokument/GitHub/STM32-Computer/Firmware/STM32-Computer-Firmware/CA7/optee-os-3.19.0-r2/optee-os-stm32mp-3.19.0-stm32mp-r2/lib/libutils/ext/trace.c:137
     38c:	f5c6 7980 	rsb	r9, r6, #256	@ 0x100
print_thread_id():
/home/lubuntu/Dokument/GitHub/STM32-Computer/Firmware/STM32-Computer-Firmware/CA7/optee-os-3.19.0-r2/optee-os-stm32mp-3.19.0-stm32mp-r2/lib/libutils/ext/trace.c:68
     390:	db37      	blt.n	402 <trace_vprintf+0xee>
/home/lubuntu/Dokument/GitHub/STM32-Computer/Firmware/STM32-Computer-Firmware/CA7/optee-os-3.19.0-r2/optee-os-stm32mp-3.19.0-stm32mp-r2/lib/libutils/ext/trace.c:69
     392:	4a2a      	ldr	r2, [pc, #168]	@ (43c <trace_vprintf+0x128>)
     394:	2301      	movs	r3, #1
     396:	9000      	str	r0, [sp, #0]
     398:	447a      	add	r2, pc
/home/lubuntu/Dokument/GitHub/STM32-Computer/Firmware/STM32-Computer-Firmware/CA7/optee-os-3.19.0-r2/optee-os-stm32mp-3.19.0-stm32mp-r2/lib/libutils/ext/trace.c:71
     39a:	4649      	mov	r1, r9
     39c:	4620      	mov	r0, r4
     39e:	f000 f882 	bl	4a6 <snprintk>
trace_vprintf():
/home/lubuntu/Dokument/GitHub/STM32-Computer/Firmware/STM32-Computer-Firmware/CA7/optee-os-3.19.0-r2/optee-os-stm32mp-3.19.0-stm32mp-r2/lib/libutils/ext/trace.c:144
     3a2:	2800      	cmp	r0, #0
     3a4:	db28      	blt.n	3f8 <trace_vprintf+0xe4>
/home/lubuntu/Dokument/GitHub/STM32-Computer/Firmware/STM32-Computer-Firmware/CA7/optee-os-3.19.0-r2/optee-os-stm32mp-3.19.0-stm32mp-r2/lib/libutils/ext/trace.c:146
     3a6:	1984      	adds	r4, r0, r6
/home/lubuntu/Dokument/GitHub/STM32-Computer/Firmware/STM32-Computer-Firmware/CA7/optee-os-3.19.0-r2/optee-os-stm32mp-3.19.0-stm32mp-r2/lib/libutils/ext/trace.c:148
     3a8:	b167      	cbz	r7, 3c4 <trace_vprintf+0xb0>
/home/lubuntu/Dokument/GitHub/STM32-Computer/Firmware/STM32-Computer-Firmware/CA7/optee-os-3.19.0-r2/optee-os-stm32mp-3.19.0-stm32mp-r2/lib/libutils/ext/trace.c:149
     3aa:	4a25      	ldr	r2, [pc, #148]	@ (440 <trace_vprintf+0x12c>)
     3ac:	463b      	mov	r3, r7
     3ae:	1928      	adds	r0, r5, r4
     3b0:	f5c4 7180 	rsb	r1, r4, #256	@ 0x100
     3b4:	447a      	add	r2, pc
     3b6:	f8cd 8000 	str.w	r8, [sp]
     3ba:	f000 f874 	bl	4a6 <snprintk>
/home/lubuntu/Dokument/GitHub/STM32-Computer/Firmware/STM32-Computer-Firmware/CA7/optee-os-3.19.0-r2/optee-os-stm32mp-3.19.0-stm32mp-r2/lib/libutils/ext/trace.c:151
     3be:	2800      	cmp	r0, #0
     3c0:	db1a      	blt.n	3f8 <trace_vprintf+0xe4>
/home/lubuntu/Dokument/GitHub/STM32-Computer/Firmware/STM32-Computer-Firmware/CA7/optee-os-3.19.0-r2/optee-os-stm32mp-3.19.0-stm32mp-r2/lib/libutils/ext/trace.c:153
     3c2:	4404      	add	r4, r0
/home/lubuntu/Dokument/GitHub/STM32-Computer/Firmware/STM32-Computer-Firmware/CA7/optee-os-3.19.0-r2/optee-os-stm32mp-3.19.0-stm32mp-r2/lib/libutils/ext/trace.c:163
     3c4:	1928      	adds	r0, r5, r4
     3c6:	f5c4 7180 	rsb	r1, r4, #256	@ 0x100
     3ca:	e9dd 234c 	ldrd	r2, r3, [sp, #304]	@ 0x130
     3ce:	f000 f863 	bl	498 <vsnprintk>
/home/lubuntu/Dokument/GitHub/STM32-Computer/Firmware/STM32-Computer-Firmware/CA7/optee-os-3.19.0-r2/optee-os-stm32mp-3.19.0-stm32mp-r2/lib/libutils/ext/trace.c:164
     3d2:	2800      	cmp	r0, #0
/home/lubuntu/Dokument/GitHub/STM32-Computer/Firmware/STM32-Computer-Firmware/CA7/optee-os-3.19.0-r2/optee-os-stm32mp-3.19.0-stm32mp-r2/lib/libutils/ext/trace.c:170
     3d4:	f04f 030a 	mov.w	r3, #10
/home/lubuntu/Dokument/GitHub/STM32-Computer/Firmware/STM32-Computer-Firmware/CA7/optee-os-3.19.0-r2/optee-os-stm32mp-3.19.0-stm32mp-r2/lib/libutils/ext/trace.c:165
     3d8:	bfc8      	it	gt
     3da:	1824      	addgt	r4, r4, r0
/home/lubuntu/Dokument/GitHub/STM32-Computer/Firmware/STM32-Computer-Firmware/CA7/optee-os-3.19.0-r2/optee-os-stm32mp-3.19.0-stm32mp-r2/lib/libutils/ext/trace.c:167
     3dc:	2cfe      	cmp	r4, #254	@ 0xfe
     3de:	bf28      	it	cs
     3e0:	24fe      	movcs	r4, #254	@ 0xfe
/home/lubuntu/Dokument/GitHub/STM32-Computer/Firmware/STM32-Computer-Firmware/CA7/optee-os-3.19.0-r2/optee-os-stm32mp-3.19.0-stm32mp-r2/lib/libutils/ext/trace.c:170
     3e2:	552b      	strb	r3, [r5, r4]
/home/lubuntu/Dokument/GitHub/STM32-Computer/Firmware/STM32-Computer-Firmware/CA7/optee-os-3.19.0-r2/optee-os-stm32mp-3.19.0-stm32mp-r2/lib/libutils/ext/trace.c:171
     3e4:	b114      	cbz	r4, 3ec <trace_vprintf+0xd8>
/home/lubuntu/Dokument/GitHub/STM32-Computer/Firmware/STM32-Computer-Firmware/CA7/optee-os-3.19.0-r2/optee-os-stm32mp-3.19.0-stm32mp-r2/lib/libutils/ext/trace.c:171 (discriminator 1)
     3e6:	5d2b      	ldrb	r3, [r5, r4]
     3e8:	2b0a      	cmp	r3, #10
     3ea:	d019      	beq.n	420 <trace_vprintf+0x10c>
/home/lubuntu/Dokument/GitHub/STM32-Computer/Firmware/STM32-Computer-Firmware/CA7/optee-os-3.19.0-r2/optee-os-stm32mp-3.19.0-stm32mp-r2/lib/libutils/ext/trace.c:174
     3ec:	442c      	add	r4, r5
     3ee:	2300      	movs	r3, #0
/home/lubuntu/Dokument/GitHub/STM32-Computer/Firmware/STM32-Computer-Firmware/CA7/optee-os-3.19.0-r2/optee-os-stm32mp-3.19.0-stm32mp-r2/lib/libutils/ext/trace.c:176
     3f0:	4628      	mov	r0, r5
/home/lubuntu/Dokument/GitHub/STM32-Computer/Firmware/STM32-Computer-Firmware/CA7/optee-os-3.19.0-r2/optee-os-stm32mp-3.19.0-stm32mp-r2/lib/libutils/ext/trace.c:174
     3f2:	70a3      	strb	r3, [r4, #2]
/home/lubuntu/Dokument/GitHub/STM32-Computer/Firmware/STM32-Computer-Firmware/CA7/optee-os-3.19.0-r2/optee-os-stm32mp-3.19.0-stm32mp-r2/lib/libutils/ext/trace.c:176
     3f4:	f000 fbf8 	bl	be8 <trace_ext_puts>
/home/lubuntu/Dokument/GitHub/STM32-Computer/Firmware/STM32-Computer-Firmware/CA7/optee-os-3.19.0-r2/optee-os-stm32mp-3.19.0-stm32mp-r2/lib/libutils/ext/trace.c:177
     3f8:	b044      	add	sp, #272	@ 0x110
     3fa:	e8bd 87f0 	ldmia.w	sp!, {r4, r5, r6, r7, r8, r9, sl, pc}
trace_level_to_string():
/home/lubuntu/Dokument/GitHub/STM32-Computer/Firmware/STM32-Computer-Firmware/CA7/optee-os-3.19.0-r2/optee-os-stm32mp-3.19.0-stm32mp-r2/lib/libutils/ext/trace.c:49
     3fe:	234d      	movs	r3, #77	@ 0x4d
     400:	e79f      	b.n	342 <trace_vprintf+0x2e>
print_thread_id():
/home/lubuntu/Dokument/GitHub/STM32-Computer/Firmware/STM32-Computer-Firmware/CA7/optee-os-3.19.0-r2/optee-os-stm32mp-3.19.0-stm32mp-r2/lib/libutils/ext/trace.c:71
     402:	4b10      	ldr	r3, [pc, #64]	@ (444 <trace_vprintf+0x130>)
     404:	4a10      	ldr	r2, [pc, #64]	@ (448 <trace_vprintf+0x134>)
     406:	447b      	add	r3, pc
     408:	9300      	str	r3, [sp, #0]
     40a:	2301      	movs	r3, #1
     40c:	447a      	add	r2, pc
     40e:	e7c4      	b.n	39a <trace_vprintf+0x86>
trace_vprintf():
/home/lubuntu/Dokument/GitHub/STM32-Computer/Firmware/STM32-Computer-Firmware/CA7/optee-os-3.19.0-r2/optee-os-stm32mp-3.19.0-stm32mp-r2/lib/libutils/ext/trace.c:157
     410:	2efe      	cmp	r6, #254	@ 0xfe
     412:	d8f1      	bhi.n	3f8 <trace_vprintf+0xe4>
/home/lubuntu/Dokument/GitHub/STM32-Computer/Firmware/STM32-Computer-Firmware/CA7/optee-os-3.19.0-r2/optee-os-stm32mp-3.19.0-stm32mp-r2/lib/libutils/ext/trace.c:159
     414:	2320      	movs	r3, #32
     416:	1c74      	adds	r4, r6, #1
     418:	55ab      	strb	r3, [r5, r6]
/home/lubuntu/Dokument/GitHub/STM32-Computer/Firmware/STM32-Computer-Firmware/CA7/optee-os-3.19.0-r2/optee-os-stm32mp-3.19.0-stm32mp-r2/lib/libutils/ext/trace.c:160
     41a:	2300      	movs	r3, #0
     41c:	552b      	strb	r3, [r5, r4]
     41e:	e7d1      	b.n	3c4 <trace_vprintf+0xb0>
/home/lubuntu/Dokument/GitHub/STM32-Computer/Firmware/STM32-Computer-Firmware/CA7/optee-os-3.19.0-r2/optee-os-stm32mp-3.19.0-stm32mp-r2/lib/libutils/ext/trace.c:172
     420:	3c01      	subs	r4, #1
     422:	e7df      	b.n	3e4 <trace_vprintf+0xd0>
     424:	0000ad62 	.word	0x0000ad62
     428:	00000014 	.word	0x00000014
     42c:	00009d02 	.word	0x00009d02
     430:	00009cda 	.word	0x00009cda
     434:	0000001c 	.word	0x0000001c
     438:	00009cc8 	.word	0x00009cc8
     43c:	00009c96 	.word	0x00009c96
     440:	00009c85 	.word	0x00009c85
     444:	0000a574 	.word	0x0000a574
     448:	00009c28 	.word	0x00009c28

0000044c <trace_printf>:
trace_printf():
/home/lubuntu/Dokument/GitHub/STM32-Computer/Firmware/STM32-Computer-Firmware/CA7/optee-os-3.19.0-r2/optee-os-stm32mp-3.19.0-stm32mp-r2/lib/libutils/ext/trace.c:104
     44c:	b530      	push	{r4, r5, lr}
     44e:	b085      	sub	sp, #20
     450:	ac08      	add	r4, sp, #32
     452:	f854 5b04 	ldr.w	r5, [r4], #4
/home/lubuntu/Dokument/GitHub/STM32-Computer/Firmware/STM32-Computer-Firmware/CA7/optee-os-3.19.0-r2/optee-os-stm32mp-3.19.0-stm32mp-r2/lib/libutils/ext/trace.c:108
     456:	9401      	str	r4, [sp, #4]
     458:	9500      	str	r5, [sp, #0]
/home/lubuntu/Dokument/GitHub/STM32-Computer/Firmware/STM32-Computer-Firmware/CA7/optee-os-3.19.0-r2/optee-os-stm32mp-3.19.0-stm32mp-r2/lib/libutils/ext/trace.c:107
     45a:	9403      	str	r4, [sp, #12]
/home/lubuntu/Dokument/GitHub/STM32-Computer/Firmware/STM32-Computer-Firmware/CA7/optee-os-3.19.0-r2/optee-os-stm32mp-3.19.0-stm32mp-r2/lib/libutils/ext/trace.c:108
     45c:	f7ff ff5a 	bl	314 <trace_vprintf>
/home/lubuntu/Dokument/GitHub/STM32-Computer/Firmware/STM32-Computer-Firmware/CA7/optee-os-3.19.0-r2/optee-os-stm32mp-3.19.0-stm32mp-r2/lib/libutils/ext/trace.c:110
     460:	b005      	add	sp, #20
     462:	bd30      	pop	{r4, r5, pc}

00000464 <dhex_dump>:
dhex_dump():
/home/lubuntu/Dokument/GitHub/STM32-Computer/Firmware/STM32-Computer-Firmware/CA7/optee-os-3.19.0-r2/optee-os-stm32mp-3.19.0-stm32mp-r2/lib/libutils/ext/trace.c:287
     464:	4770      	bx	lr
     466:	bf00      	nop

00000468 <__vsnprintf>:
__vsnprintf():
/home/lubuntu/Dokument/GitHub/STM32-Computer/Firmware/STM32-Computer-Firmware/CA7/optee-os-3.19.0-r2/optee-os-stm32mp-3.19.0-stm32mp-r2/lib/libutils/ext/snprintk.c:138
     468:	b57f      	push	{r0, r1, r2, r3, r4, r5, r6, lr}
     46a:	4604      	mov	r4, r0
/home/lubuntu/Dokument/GitHub/STM32-Computer/Firmware/STM32-Computer-Firmware/CA7/optee-os-3.19.0-r2/optee-os-stm32mp-3.19.0-stm32mp-r2/lib/libutils/ext/snprintk.c:142
     46c:	1866      	adds	r6, r4, r1
/home/lubuntu/Dokument/GitHub/STM32-Computer/Firmware/STM32-Computer-Firmware/CA7/optee-os-3.19.0-r2/optee-os-stm32mp-3.19.0-stm32mp-r2/lib/libutils/ext/snprintk.c:138
     46e:	4610      	mov	r0, r2
/home/lubuntu/Dokument/GitHub/STM32-Computer/Firmware/STM32-Computer-Firmware/CA7/optee-os-3.19.0-r2/optee-os-stm32mp-3.19.0-stm32mp-r2/lib/libutils/ext/snprintk.c:143
     470:	f89d 2020 	ldrb.w	r2, [sp, #32]
/home/lubuntu/Dokument/GitHub/STM32-Computer/Firmware/STM32-Computer-Firmware/CA7/optee-os-3.19.0-r2/optee-os-stm32mp-3.19.0-stm32mp-r2/lib/libutils/ext/snprintk.c:138
     474:	460d      	mov	r5, r1
/home/lubuntu/Dokument/GitHub/STM32-Computer/Firmware/STM32-Computer-Firmware/CA7/optee-os-3.19.0-r2/optee-os-stm32mp-3.19.0-stm32mp-r2/lib/libutils/ext/snprintk.c:142
     476:	9603      	str	r6, [sp, #12]
/home/lubuntu/Dokument/GitHub/STM32-Computer/Firmware/STM32-Computer-Firmware/CA7/optee-os-3.19.0-r2/optee-os-stm32mp-3.19.0-stm32mp-r2/lib/libutils/ext/snprintk.c:143
     478:	a903      	add	r1, sp, #12
     47a:	9200      	str	r2, [sp, #0]
     47c:	4622      	mov	r2, r4
     47e:	f000 f81f 	bl	4c0 <kprintf.constprop.0>
/home/lubuntu/Dokument/GitHub/STM32-Computer/Firmware/STM32-Computer-Firmware/CA7/optee-os-3.19.0-r2/optee-os-stm32mp-3.19.0-stm32mp-r2/lib/libutils/ext/snprintk.c:144
     482:	b13c      	cbz	r4, 494 <__vsnprintf+0x2c>
/home/lubuntu/Dokument/GitHub/STM32-Computer/Firmware/STM32-Computer-Firmware/CA7/optee-os-3.19.0-r2/optee-os-stm32mp-3.19.0-stm32mp-r2/lib/libutils/ext/snprintk.c:144 (discriminator 1)
     484:	b135      	cbz	r5, 494 <__vsnprintf+0x2c>
/home/lubuntu/Dokument/GitHub/STM32-Computer/Firmware/STM32-Computer-Firmware/CA7/optee-os-3.19.0-r2/optee-os-stm32mp-3.19.0-stm32mp-r2/lib/libutils/ext/snprintk.c:146
     486:	42a8      	cmp	r0, r5
     488:	f04f 0300 	mov.w	r3, #0
/home/lubuntu/Dokument/GitHub/STM32-Computer/Firmware/STM32-Computer-Firmware/CA7/optee-os-3.19.0-r2/optee-os-stm32mp-3.19.0-stm32mp-r2/lib/libutils/ext/snprintk.c:147
     48c:	bf2c      	ite	cs
     48e:	f806 3c01 	strbcs.w	r3, [r6, #-1]
/home/lubuntu/Dokument/GitHub/STM32-Computer/Firmware/STM32-Computer-Firmware/CA7/optee-os-3.19.0-r2/optee-os-stm32mp-3.19.0-stm32mp-r2/lib/libutils/ext/snprintk.c:149
     492:	5423      	strbcc	r3, [r4, r0]
/home/lubuntu/Dokument/GitHub/STM32-Computer/Firmware/STM32-Computer-Firmware/CA7/optee-os-3.19.0-r2/optee-os-stm32mp-3.19.0-stm32mp-r2/lib/libutils/ext/snprintk.c:152
     494:	b004      	add	sp, #16
     496:	bd70      	pop	{r4, r5, r6, pc}

00000498 <vsnprintk>:
vsnprintk():
/home/lubuntu/Dokument/GitHub/STM32-Computer/Firmware/STM32-Computer-Firmware/CA7/optee-os-3.19.0-r2/optee-os-stm32mp-3.19.0-stm32mp-r2/lib/libutils/ext/snprintk.c:130
     498:	b513      	push	{r0, r1, r4, lr}
/home/lubuntu/Dokument/GitHub/STM32-Computer/Firmware/STM32-Computer-Firmware/CA7/optee-os-3.19.0-r2/optee-os-stm32mp-3.19.0-stm32mp-r2/lib/libutils/ext/snprintk.c:131
     49a:	2401      	movs	r4, #1
     49c:	9400      	str	r4, [sp, #0]
     49e:	f7ff ffe3 	bl	468 <__vsnprintf>
/home/lubuntu/Dokument/GitHub/STM32-Computer/Firmware/STM32-Computer-Firmware/CA7/optee-os-3.19.0-r2/optee-os-stm32mp-3.19.0-stm32mp-r2/lib/libutils/ext/snprintk.c:132
     4a2:	b002      	add	sp, #8
     4a4:	bd10      	pop	{r4, pc}

000004a6 <snprintk>:
snprintk():
/home/lubuntu/Dokument/GitHub/STM32-Computer/Firmware/STM32-Computer-Firmware/CA7/optee-os-3.19.0-r2/optee-os-stm32mp-3.19.0-stm32mp-r2/lib/libutils/ext/snprintk.c:113
     4a6:	b40c      	push	{r2, r3}
     4a8:	b507      	push	{r0, r1, r2, lr}
     4aa:	ab04      	add	r3, sp, #16
     4ac:	f853 2b04 	ldr.w	r2, [r3], #4
/home/lubuntu/Dokument/GitHub/STM32-Computer/Firmware/STM32-Computer-Firmware/CA7/optee-os-3.19.0-r2/optee-os-stm32mp-3.19.0-stm32mp-r2/lib/libutils/ext/snprintk.c:117
     4b0:	9301      	str	r3, [sp, #4]
/home/lubuntu/Dokument/GitHub/STM32-Computer/Firmware/STM32-Computer-Firmware/CA7/optee-os-3.19.0-r2/optee-os-stm32mp-3.19.0-stm32mp-r2/lib/libutils/ext/snprintk.c:118
     4b2:	f7ff fff1 	bl	498 <vsnprintk>
/home/lubuntu/Dokument/GitHub/STM32-Computer/Firmware/STM32-Computer-Firmware/CA7/optee-os-3.19.0-r2/optee-os-stm32mp-3.19.0-stm32mp-r2/lib/libutils/ext/snprintk.c:122
     4b6:	b003      	add	sp, #12
     4b8:	f85d eb04 	ldr.w	lr, [sp], #4
     4bc:	b002      	add	sp, #8
     4be:	4770      	bx	lr

000004c0 <kprintf.constprop.0>:
kprintf():
/home/lubuntu/Dokument/GitHub/STM32-Computer/Firmware/STM32-Computer-Firmware/CA7/optee-os-3.19.0-r2/optee-os-stm32mp-3.19.0-stm32mp-r2/lib/libutils/ext/snprintk.c:242
     4c0:	e92d 4ff0 	stmdb	sp!, {r4, r5, r6, r7, r8, r9, sl, fp, lr}
     4c4:	b09d      	sub	sp, #116	@ 0x74
     4c6:	4614      	mov	r4, r2
     4c8:	4680      	mov	r8, r0
     4ca:	f89d 2098 	ldrb.w	r2, [sp, #152]	@ 0x98
     4ce:	461e      	mov	r6, r3
/home/lubuntu/Dokument/GitHub/STM32-Computer/Firmware/STM32-Computer-Firmware/CA7/optee-os-3.19.0-r2/optee-os-stm32mp-3.19.0-stm32mp-r2/lib/libutils/ext/snprintk.c:264
     4d0:	910d      	str	r1, [sp, #52]	@ 0x34
/home/lubuntu/Dokument/GitHub/STM32-Computer/Firmware/STM32-Computer-Firmware/CA7/optee-os-3.19.0-r2/optee-os-stm32mp-3.19.0-stm32mp-r2/lib/libutils/ext/snprintk.c:242
     4d2:	9211      	str	r2, [sp, #68]	@ 0x44
/home/lubuntu/Dokument/GitHub/STM32-Computer/Firmware/STM32-Computer-Firmware/CA7/optee-os-3.19.0-r2/optee-os-stm32mp-3.19.0-stm32mp-r2/lib/libutils/ext/snprintk.c:264
     4d4:	b181      	cbz	r1, 4f8 <kprintf.constprop.0+0x38>
/home/lubuntu/Dokument/GitHub/STM32-Computer/Firmware/STM32-Computer-Firmware/CA7/optee-os-3.19.0-r2/optee-os-stm32mp-3.19.0-stm32mp-r2/lib/libutils/ext/snprintk.c:265
     4d6:	680b      	ldr	r3, [r1, #0]
/home/lubuntu/Dokument/GitHub/STM32-Computer/Firmware/STM32-Computer-Firmware/CA7/optee-os-3.19.0-r2/optee-os-stm32mp-3.19.0-stm32mp-r2/lib/libutils/ext/snprintk.c:267
     4d8:	930e      	str	r3, [sp, #56]	@ 0x38
/home/lubuntu/Dokument/GitHub/STM32-Computer/Firmware/STM32-Computer-Firmware/CA7/optee-os-3.19.0-r2/optee-os-stm32mp-3.19.0-stm32mp-r2/lib/libutils/ext/snprintk.c:275
     4da:	2300      	movs	r3, #0
     4dc:	930f      	str	r3, [sp, #60]	@ 0x3c
/home/lubuntu/Dokument/GitHub/STM32-Computer/Firmware/STM32-Computer-Firmware/CA7/optee-os-3.19.0-r2/optee-os-stm32mp-3.19.0-stm32mp-r2/lib/libutils/ext/snprintk.c:273
     4de:	469b      	mov	fp, r3
/home/lubuntu/Dokument/GitHub/STM32-Computer/Firmware/STM32-Computer-Firmware/CA7/optee-os-3.19.0-r2/optee-os-stm32mp-3.19.0-stm32mp-r2/lib/libutils/ext/snprintk.c:281
     4e0:	f898 3000 	ldrb.w	r3, [r8]
     4e4:	2b25      	cmp	r3, #37	@ 0x25
     4e6:	d016      	beq.n	516 <kprintf.constprop.0+0x56>
     4e8:	b943      	cbnz	r3, 4fc <kprintf.constprop.0+0x3c>
/home/lubuntu/Dokument/GitHub/STM32-Computer/Firmware/STM32-Computer-Firmware/CA7/optee-os-3.19.0-r2/optee-os-stm32mp-3.19.0-stm32mp-r2/lib/libutils/ext/snprintk.c:619
     4ea:	9b0d      	ldr	r3, [sp, #52]	@ 0x34
     4ec:	b103      	cbz	r3, 4f0 <kprintf.constprop.0+0x30>
/home/lubuntu/Dokument/GitHub/STM32-Computer/Firmware/STM32-Computer-Firmware/CA7/optee-os-3.19.0-r2/optee-os-stm32mp-3.19.0-stm32mp-r2/lib/libutils/ext/snprintk.c:620
     4ee:	601c      	str	r4, [r3, #0]
/home/lubuntu/Dokument/GitHub/STM32-Computer/Firmware/STM32-Computer-Firmware/CA7/optee-os-3.19.0-r2/optee-os-stm32mp-3.19.0-stm32mp-r2/lib/libutils/ext/snprintk.c:622
     4f0:	4658      	mov	r0, fp
     4f2:	b01d      	add	sp, #116	@ 0x74
     4f4:	e8bd 8ff0 	ldmia.w	sp!, {r4, r5, r6, r7, r8, r9, sl, fp, pc}
/home/lubuntu/Dokument/GitHub/STM32-Computer/Firmware/STM32-Computer-Firmware/CA7/optee-os-3.19.0-r2/optee-os-stm32mp-3.19.0-stm32mp-r2/lib/libutils/ext/snprintk.c:267
     4f8:	9b0d      	ldr	r3, [sp, #52]	@ 0x34
     4fa:	e7ed      	b.n	4d8 <kprintf.constprop.0+0x18>
/home/lubuntu/Dokument/GitHub/STM32-Computer/Firmware/STM32-Computer-Firmware/CA7/optee-os-3.19.0-r2/optee-os-stm32mp-3.19.0-stm32mp-r2/lib/libutils/ext/snprintk.c:282
     4fc:	f10b 0b01 	add.w	fp, fp, #1
/home/lubuntu/Dokument/GitHub/STM32-Computer/Firmware/STM32-Computer-Firmware/CA7/optee-os-3.19.0-r2/optee-os-stm32mp-3.19.0-stm32mp-r2/lib/libutils/ext/snprintk.c:283
     500:	b134      	cbz	r4, 510 <kprintf.constprop.0+0x50>
     502:	9a0d      	ldr	r2, [sp, #52]	@ 0x34
     504:	b112      	cbz	r2, 50c <kprintf.constprop.0+0x4c>
     506:	9a0e      	ldr	r2, [sp, #56]	@ 0x38
     508:	4294      	cmp	r4, r2
     50a:	d201      	bcs.n	510 <kprintf.constprop.0+0x50>
     50c:	f804 3b01 	strb.w	r3, [r4], #1
/home/lubuntu/Dokument/GitHub/STM32-Computer/Firmware/STM32-Computer-Firmware/CA7/optee-os-3.19.0-r2/optee-os-stm32mp-3.19.0-stm32mp-r2/lib/libutils/ext/snprintk.c:281
     510:	f108 0801 	add.w	r8, r8, #1
     514:	e7e4      	b.n	4e0 <kprintf.constprop.0+0x20>
/home/lubuntu/Dokument/GitHub/STM32-Computer/Firmware/STM32-Computer-Firmware/CA7/optee-os-3.19.0-r2/optee-os-stm32mp-3.19.0-stm32mp-r2/lib/libutils/ext/snprintk.c:294
     516:	2700      	movs	r7, #0
/home/lubuntu/Dokument/GitHub/STM32-Computer/Firmware/STM32-Computer-Firmware/CA7/optee-os-3.19.0-r2/optee-os-stm32mp-3.19.0-stm32mp-r2/lib/libutils/ext/snprintk.c:288
     518:	f108 0801 	add.w	r8, r8, #1
/home/lubuntu/Dokument/GitHub/STM32-Computer/Firmware/STM32-Computer-Firmware/CA7/optee-os-3.19.0-r2/optee-os-stm32mp-3.19.0-stm32mp-r2/lib/libutils/ext/snprintk.c:292
     51c:	970c      	str	r7, [sp, #48]	@ 0x30
/home/lubuntu/Dokument/GitHub/STM32-Computer/Firmware/STM32-Computer-Firmware/CA7/optee-os-3.19.0-r2/optee-os-stm32mp-3.19.0-stm32mp-r2/lib/libutils/ext/snprintk.c:288
     51e:	4633      	mov	r3, r6
/home/lubuntu/Dokument/GitHub/STM32-Computer/Firmware/STM32-Computer-Firmware/CA7/optee-os-3.19.0-r2/optee-os-stm32mp-3.19.0-stm32mp-r2/lib/libutils/ext/snprintk.c:293
     520:	f04f 3aff 	mov.w	sl, #4294967295	@ 0xffffffff
/home/lubuntu/Dokument/GitHub/STM32-Computer/Firmware/STM32-Computer-Firmware/CA7/optee-os-3.19.0-r2/optee-os-stm32mp-3.19.0-stm32mp-r2/lib/libutils/ext/snprintk.c:290
     524:	463d      	mov	r5, r7
/home/lubuntu/Dokument/GitHub/STM32-Computer/Firmware/STM32-Computer-Firmware/CA7/optee-os-3.19.0-r2/optee-os-stm32mp-3.19.0-stm32mp-r2/lib/libutils/ext/snprintk.c:296
     526:	f818 2b01 	ldrb.w	r2, [r8], #1
     52a:	920b      	str	r2, [sp, #44]	@ 0x2c
/home/lubuntu/Dokument/GitHub/STM32-Computer/Firmware/STM32-Computer-Firmware/CA7/optee-os-3.19.0-r2/optee-os-stm32mp-3.19.0-stm32mp-r2/lib/libutils/ext/snprintk.c:297
     52c:	9a0b      	ldr	r2, [sp, #44]	@ 0x2c
     52e:	2a39      	cmp	r2, #57	@ 0x39
     530:	dc71      	bgt.n	616 <kprintf.constprop.0+0x156>
     532:	2a1f      	cmp	r2, #31
     534:	f340 828d 	ble.w	a52 <kprintf.constprop.0+0x592>
     538:	9a0b      	ldr	r2, [sp, #44]	@ 0x2c
     53a:	3a20      	subs	r2, #32
     53c:	2a19      	cmp	r2, #25
     53e:	f200 8288 	bhi.w	a52 <kprintf.constprop.0+0x592>
     542:	e8df f012 	tbh	[pc, r2, lsl #1]
     546:	0071      	.short	0x0071
     548:	02860286 	.word	0x02860286
     54c:	02860075 	.word	0x02860075
     550:	02860286 	.word	0x02860286
     554:	02860286 	.word	0x02860286
     558:	00780286 	.word	0x00780286
     55c:	0286001a 	.word	0x0286001a
     560:	00830080 	.word	0x00830080
     564:	009b0286 	.word	0x009b0286
     568:	009e009e 	.word	0x009e009e
     56c:	009e009e 	.word	0x009e009e
     570:	009e009e 	.word	0x009e009e
     574:	009e009e 	.word	0x009e009e
     578:	009e      	.short	0x009e
     57a:	272b      	movs	r7, #43	@ 0x2b
     57c:	e7d3      	b.n	526 <kprintf.constprop.0+0x66>
     57e:	2a36      	cmp	r2, #54	@ 0x36
     580:	f200 8267 	bhi.w	a52 <kprintf.constprop.0+0x592>
     584:	e8df f012 	tbh	[pc, r2, lsl #1]
     588:	026500b1 	.word	0x026500b1
     58c:	02650265 	.word	0x02650265
     590:	02650265 	.word	0x02650265
     594:	02650265 	.word	0x02650265
     598:	02650265 	.word	0x02650265
     59c:	013d0265 	.word	0x013d0265
     5a0:	02650265 	.word	0x02650265
     5a4:	02650265 	.word	0x02650265
     5a8:	01d80265 	.word	0x01d80265
     5ac:	02650265 	.word	0x02650265
     5b0:	0265021d 	.word	0x0265021d
     5b4:	02650265 	.word	0x02650265
     5b8:	02650265 	.word	0x02650265
     5bc:	02650265 	.word	0x02650265
     5c0:	02650265 	.word	0x02650265
     5c4:	00a50265 	.word	0x00a50265
     5c8:	026500b3 	.word	0x026500b3
     5cc:	02650265 	.word	0x02650265
     5d0:	00b3008d 	.word	0x00b3008d
     5d4:	02650090 	.word	0x02650090
     5d8:	02650093 	.word	0x02650093
     5dc:	013f0122 	.word	0x013f0122
     5e0:	0099016e 	.word	0x0099016e
     5e4:	01ba0265 	.word	0x01ba0265
     5e8:	01da009f 	.word	0x01da009f
     5ec:	02650265 	.word	0x02650265
     5f0:	02650037 	.word	0x02650037
     5f4:	00a2      	.short	0x00a2
/home/lubuntu/Dokument/GitHub/STM32-Computer/Firmware/STM32-Computer-Firmware/CA7/optee-os-3.19.0-r2/optee-os-stm32mp-3.19.0-stm32mp-r2/lib/libutils/ext/snprintk.c:480
     5f6:	f8df 2594 	ldr.w	r2, [pc, #1428]	@ b8c <kprintf.constprop.0+0x6cc>
     5fa:	447a      	add	r2, pc
/home/lubuntu/Dokument/GitHub/STM32-Computer/Firmware/STM32-Computer-Firmware/CA7/optee-os-3.19.0-r2/optee-os-stm32mp-3.19.0-stm32mp-r2/lib/libutils/ext/snprintk.c:297
     5fc:	920f      	str	r2, [sp, #60]	@ 0x3c
/home/lubuntu/Dokument/GitHub/STM32-Computer/Firmware/STM32-Computer-Firmware/CA7/optee-os-3.19.0-r2/optee-os-stm32mp-3.19.0-stm32mp-r2/lib/libutils/ext/snprintk.c:481
     5fe:	f015 0280 	ands.w	r2, r5, #128	@ 0x80
     602:	f000 81e2 	beq.w	9ca <kprintf.constprop.0+0x50a>
     606:	3307      	adds	r3, #7
     608:	f023 0307 	bic.w	r3, r3, #7
     60c:	461e      	mov	r6, r3
     60e:	6859      	ldr	r1, [r3, #4]
     610:	f856 0b08 	ldr.w	r0, [r6], #8
     614:	e1e0      	b.n	9d8 <kprintf.constprop.0+0x518>
/home/lubuntu/Dokument/GitHub/STM32-Computer/Firmware/STM32-Computer-Firmware/CA7/optee-os-3.19.0-r2/optee-os-stm32mp-3.19.0-stm32mp-r2/lib/libutils/ext/snprintk.c:297
     616:	9a0b      	ldr	r2, [sp, #44]	@ 0x2c
     618:	3a44      	subs	r2, #68	@ 0x44
     61a:	2a36      	cmp	r2, #54	@ 0x36
     61c:	d9af      	bls.n	57e <kprintf.constprop.0+0xbe>
/home/lubuntu/Dokument/GitHub/STM32-Computer/Firmware/STM32-Computer-Firmware/CA7/optee-os-3.19.0-r2/optee-os-stm32mp-3.19.0-stm32mp-r2/lib/libutils/ext/snprintk.c:551
     61e:	9a0b      	ldr	r2, [sp, #44]	@ 0x2c
/home/lubuntu/Dokument/GitHub/STM32-Computer/Firmware/STM32-Computer-Firmware/CA7/optee-os-3.19.0-r2/optee-os-stm32mp-3.19.0-stm32mp-r2/lib/libutils/ext/snprintk.c:554
     620:	461e      	mov	r6, r3
/home/lubuntu/Dokument/GitHub/STM32-Computer/Firmware/STM32-Computer-Firmware/CA7/optee-os-3.19.0-r2/optee-os-stm32mp-3.19.0-stm32mp-r2/lib/libutils/ext/snprintk.c:551
     622:	f88d 2048 	strb.w	r2, [sp, #72]	@ 0x48
/home/lubuntu/Dokument/GitHub/STM32-Computer/Firmware/STM32-Computer-Firmware/CA7/optee-os-3.19.0-r2/optee-os-stm32mp-3.19.0-stm32mp-r2/lib/libutils/ext/snprintk.c:554
     626:	e059      	b.n	6dc <kprintf.constprop.0+0x21c>
/home/lubuntu/Dokument/GitHub/STM32-Computer/Firmware/STM32-Computer-Firmware/CA7/optee-os-3.19.0-r2/optee-os-stm32mp-3.19.0-stm32mp-r2/lib/libutils/ext/snprintk.c:305
     628:	2f00      	cmp	r7, #0
     62a:	bf08      	it	eq
     62c:	2720      	moveq	r7, #32
     62e:	e77a      	b.n	526 <kprintf.constprop.0+0x66>
/home/lubuntu/Dokument/GitHub/STM32-Computer/Firmware/STM32-Computer-Firmware/CA7/optee-os-3.19.0-r2/optee-os-stm32mp-3.19.0-stm32mp-r2/lib/libutils/ext/snprintk.c:308
     630:	f045 0501 	orr.w	r5, r5, #1
/home/lubuntu/Dokument/GitHub/STM32-Computer/Firmware/STM32-Computer-Firmware/CA7/optee-os-3.19.0-r2/optee-os-stm32mp-3.19.0-stm32mp-r2/lib/libutils/ext/snprintk.c:309
     634:	e777      	b.n	526 <kprintf.constprop.0+0x66>
/home/lubuntu/Dokument/GitHub/STM32-Computer/Firmware/STM32-Computer-Firmware/CA7/optee-os-3.19.0-r2/optee-os-stm32mp-3.19.0-stm32mp-r2/lib/libutils/ext/snprintk.c:317
     636:	f853 2b04 	ldr.w	r2, [r3], #4
     63a:	920c      	str	r2, [sp, #48]	@ 0x30
     63c:	2a00      	cmp	r2, #0
     63e:	f6bf af72 	bge.w	526 <kprintf.constprop.0+0x66>
/home/lubuntu/Dokument/GitHub/STM32-Computer/Firmware/STM32-Computer-Firmware/CA7/optee-os-3.19.0-r2/optee-os-stm32mp-3.19.0-stm32mp-r2/lib/libutils/ext/snprintk.c:319
     642:	4252      	negs	r2, r2
     644:	920c      	str	r2, [sp, #48]	@ 0x30
/home/lubuntu/Dokument/GitHub/STM32-Computer/Firmware/STM32-Computer-Firmware/CA7/optee-os-3.19.0-r2/optee-os-stm32mp-3.19.0-stm32mp-r2/lib/libutils/ext/snprintk.c:322
     646:	f045 0504 	orr.w	r5, r5, #4
/home/lubuntu/Dokument/GitHub/STM32-Computer/Firmware/STM32-Computer-Firmware/CA7/optee-os-3.19.0-r2/optee-os-stm32mp-3.19.0-stm32mp-r2/lib/libutils/ext/snprintk.c:323
     64a:	e76c      	b.n	526 <kprintf.constprop.0+0x66>
/home/lubuntu/Dokument/GitHub/STM32-Computer/Firmware/STM32-Computer-Firmware/CA7/optee-os-3.19.0-r2/optee-os-stm32mp-3.19.0-stm32mp-r2/lib/libutils/ext/snprintk.c:328
     64c:	f818 2b01 	ldrb.w	r2, [r8], #1
     650:	920b      	str	r2, [sp, #44]	@ 0x2c
     652:	2a2a      	cmp	r2, #42	@ 0x2a
     654:	d10e      	bne.n	674 <kprintf.constprop.0+0x1b4>
/home/lubuntu/Dokument/GitHub/STM32-Computer/Firmware/STM32-Computer-Firmware/CA7/optee-os-3.19.0-r2/optee-os-stm32mp-3.19.0-stm32mp-r2/lib/libutils/ext/snprintk.c:330
     656:	f853 2b04 	ldr.w	r2, [r3], #4
     65a:	ea42 7ae2 	orr.w	sl, r2, r2, asr #31
/home/lubuntu/Dokument/GitHub/STM32-Computer/Firmware/STM32-Computer-Firmware/CA7/optee-os-3.19.0-r2/optee-os-stm32mp-3.19.0-stm32mp-r2/lib/libutils/ext/snprintk.c:331
     65e:	e762      	b.n	526 <kprintf.constprop.0+0x66>
/home/lubuntu/Dokument/GitHub/STM32-Computer/Firmware/STM32-Computer-Firmware/CA7/optee-os-3.19.0-r2/optee-os-stm32mp-3.19.0-stm32mp-r2/lib/libutils/ext/snprintk.c:335
     660:	fb01 2a0a 	mla	sl, r1, sl, r2
/home/lubuntu/Dokument/GitHub/STM32-Computer/Firmware/STM32-Computer-Firmware/CA7/optee-os-3.19.0-r2/optee-os-stm32mp-3.19.0-stm32mp-r2/lib/libutils/ext/snprintk.c:336
     664:	f818 2b01 	ldrb.w	r2, [r8], #1
     668:	920b      	str	r2, [sp, #44]	@ 0x2c
/home/lubuntu/Dokument/GitHub/STM32-Computer/Firmware/STM32-Computer-Firmware/CA7/optee-os-3.19.0-r2/optee-os-stm32mp-3.19.0-stm32mp-r2/lib/libutils/ext/snprintk.c:334
     66a:	9a0b      	ldr	r2, [sp, #44]	@ 0x2c
     66c:	3a30      	subs	r2, #48	@ 0x30
     66e:	2a09      	cmp	r2, #9
     670:	d9f6      	bls.n	660 <kprintf.constprop.0+0x1a0>
     672:	e75b      	b.n	52c <kprintf.constprop.0+0x6c>
/home/lubuntu/Dokument/GitHub/STM32-Computer/Firmware/STM32-Computer-Firmware/CA7/optee-os-3.19.0-r2/optee-os-stm32mp-3.19.0-stm32mp-r2/lib/libutils/ext/snprintk.c:333
     674:	f04f 0a00 	mov.w	sl, #0
/home/lubuntu/Dokument/GitHub/STM32-Computer/Firmware/STM32-Computer-Firmware/CA7/optee-os-3.19.0-r2/optee-os-stm32mp-3.19.0-stm32mp-r2/lib/libutils/ext/snprintk.c:335
     678:	210a      	movs	r1, #10
     67a:	e7f6      	b.n	66a <kprintf.constprop.0+0x1aa>
/home/lubuntu/Dokument/GitHub/STM32-Computer/Firmware/STM32-Computer-Firmware/CA7/optee-os-3.19.0-r2/optee-os-stm32mp-3.19.0-stm32mp-r2/lib/libutils/ext/snprintk.c:346
     67c:	f445 6580 	orr.w	r5, r5, #1024	@ 0x400
/home/lubuntu/Dokument/GitHub/STM32-Computer/Firmware/STM32-Computer-Firmware/CA7/optee-os-3.19.0-r2/optee-os-stm32mp-3.19.0-stm32mp-r2/lib/libutils/ext/snprintk.c:347
     680:	e751      	b.n	526 <kprintf.constprop.0+0x66>
/home/lubuntu/Dokument/GitHub/STM32-Computer/Firmware/STM32-Computer-Firmware/CA7/optee-os-3.19.0-r2/optee-os-stm32mp-3.19.0-stm32mp-r2/lib/libutils/ext/snprintk.c:352
     682:	210a      	movs	r1, #10
/home/lubuntu/Dokument/GitHub/STM32-Computer/Firmware/STM32-Computer-Firmware/CA7/optee-os-3.19.0-r2/optee-os-stm32mp-3.19.0-stm32mp-r2/lib/libutils/ext/snprintk.c:297
     684:	2200      	movs	r2, #0
     686:	920c      	str	r2, [sp, #48]	@ 0x30
/home/lubuntu/Dokument/GitHub/STM32-Computer/Firmware/STM32-Computer-Firmware/CA7/optee-os-3.19.0-r2/optee-os-stm32mp-3.19.0-stm32mp-r2/lib/libutils/ext/snprintk.c:352
     688:	9a0b      	ldr	r2, [sp, #44]	@ 0x2c
     68a:	980c      	ldr	r0, [sp, #48]	@ 0x30
     68c:	3a30      	subs	r2, #48	@ 0x30
     68e:	fb01 2200 	mla	r2, r1, r0, r2
     692:	920c      	str	r2, [sp, #48]	@ 0x30
/home/lubuntu/Dokument/GitHub/STM32-Computer/Firmware/STM32-Computer-Firmware/CA7/optee-os-3.19.0-r2/optee-os-stm32mp-3.19.0-stm32mp-r2/lib/libutils/ext/snprintk.c:353
     694:	f818 2b01 	ldrb.w	r2, [r8], #1
     698:	920b      	str	r2, [sp, #44]	@ 0x2c
/home/lubuntu/Dokument/GitHub/STM32-Computer/Firmware/STM32-Computer-Firmware/CA7/optee-os-3.19.0-r2/optee-os-stm32mp-3.19.0-stm32mp-r2/lib/libutils/ext/snprintk.c:354
     69a:	3a30      	subs	r2, #48	@ 0x30
     69c:	2a09      	cmp	r2, #9
     69e:	d9f3      	bls.n	688 <kprintf.constprop.0+0x1c8>
     6a0:	e744      	b.n	52c <kprintf.constprop.0+0x6c>
/home/lubuntu/Dokument/GitHub/STM32-Computer/Firmware/STM32-Computer-Firmware/CA7/optee-os-3.19.0-r2/optee-os-stm32mp-3.19.0-stm32mp-r2/lib/libutils/ext/snprintk.c:358
     6a2:	f045 0540 	orr.w	r5, r5, #64	@ 0x40
/home/lubuntu/Dokument/GitHub/STM32-Computer/Firmware/STM32-Computer-Firmware/CA7/optee-os-3.19.0-r2/optee-os-stm32mp-3.19.0-stm32mp-r2/lib/libutils/ext/snprintk.c:359
     6a6:	e73e      	b.n	526 <kprintf.constprop.0+0x66>
/home/lubuntu/Dokument/GitHub/STM32-Computer/Firmware/STM32-Computer-Firmware/CA7/optee-os-3.19.0-r2/optee-os-stm32mp-3.19.0-stm32mp-r2/lib/libutils/ext/snprintk.c:361
     6a8:	f045 0580 	orr.w	r5, r5, #128	@ 0x80
/home/lubuntu/Dokument/GitHub/STM32-Computer/Firmware/STM32-Computer-Firmware/CA7/optee-os-3.19.0-r2/optee-os-stm32mp-3.19.0-stm32mp-r2/lib/libutils/ext/snprintk.c:362
     6ac:	e73b      	b.n	526 <kprintf.constprop.0+0x66>
/home/lubuntu/Dokument/GitHub/STM32-Computer/Firmware/STM32-Computer-Firmware/CA7/optee-os-3.19.0-r2/optee-os-stm32mp-3.19.0-stm32mp-r2/lib/libutils/ext/snprintk.c:364
     6ae:	f898 2000 	ldrb.w	r2, [r8]
     6b2:	2a6c      	cmp	r2, #108	@ 0x6c
     6b4:	d104      	bne.n	6c0 <kprintf.constprop.0+0x200>
/home/lubuntu/Dokument/GitHub/STM32-Computer/Firmware/STM32-Computer-Firmware/CA7/optee-os-3.19.0-r2/optee-os-stm32mp-3.19.0-stm32mp-r2/lib/libutils/ext/snprintk.c:328
     6b6:	f108 0801 	add.w	r8, r8, #1
/home/lubuntu/Dokument/GitHub/STM32-Computer/Firmware/STM32-Computer-Firmware/CA7/optee-os-3.19.0-r2/optee-os-stm32mp-3.19.0-stm32mp-r2/lib/libutils/ext/snprintk.c:372
     6ba:	f045 0520 	orr.w	r5, r5, #32
/home/lubuntu/Dokument/GitHub/STM32-Computer/Firmware/STM32-Computer-Firmware/CA7/optee-os-3.19.0-r2/optee-os-stm32mp-3.19.0-stm32mp-r2/lib/libutils/ext/snprintk.c:373
     6be:	e732      	b.n	526 <kprintf.constprop.0+0x66>
/home/lubuntu/Dokument/GitHub/STM32-Computer/Firmware/STM32-Computer-Firmware/CA7/optee-os-3.19.0-r2/optee-os-stm32mp-3.19.0-stm32mp-r2/lib/libutils/ext/snprintk.c:368
     6c0:	f045 0510 	orr.w	r5, r5, #16
     6c4:	e72f      	b.n	526 <kprintf.constprop.0+0x66>
/home/lubuntu/Dokument/GitHub/STM32-Computer/Firmware/STM32-Computer-Firmware/CA7/optee-os-3.19.0-r2/optee-os-stm32mp-3.19.0-stm32mp-r2/lib/libutils/ext/snprintk.c:375
     6c6:	f445 7580 	orr.w	r5, r5, #256	@ 0x100
/home/lubuntu/Dokument/GitHub/STM32-Computer/Firmware/STM32-Computer-Firmware/CA7/optee-os-3.19.0-r2/optee-os-stm32mp-3.19.0-stm32mp-r2/lib/libutils/ext/snprintk.c:376
     6ca:	e72c      	b.n	526 <kprintf.constprop.0+0x66>
/home/lubuntu/Dokument/GitHub/STM32-Computer/Firmware/STM32-Computer-Firmware/CA7/optee-os-3.19.0-r2/optee-os-stm32mp-3.19.0-stm32mp-r2/lib/libutils/ext/snprintk.c:378
     6cc:	f445 7500 	orr.w	r5, r5, #512	@ 0x200
/home/lubuntu/Dokument/GitHub/STM32-Computer/Firmware/STM32-Computer-Firmware/CA7/optee-os-3.19.0-r2/optee-os-stm32mp-3.19.0-stm32mp-r2/lib/libutils/ext/snprintk.c:379
     6d0:	e729      	b.n	526 <kprintf.constprop.0+0x66>
/home/lubuntu/Dokument/GitHub/STM32-Computer/Firmware/STM32-Computer-Firmware/CA7/optee-os-3.19.0-r2/optee-os-stm32mp-3.19.0-stm32mp-r2/lib/libutils/ext/snprintk.c:381
     6d2:	461e      	mov	r6, r3
     6d4:	f856 3b04 	ldr.w	r3, [r6], #4
     6d8:	f88d 3048 	strb.w	r3, [sp, #72]	@ 0x48
/home/lubuntu/Dokument/GitHub/STM32-Computer/Firmware/STM32-Computer-Firmware/CA7/optee-os-3.19.0-r2/optee-os-stm32mp-3.19.0-stm32mp-r2/lib/libutils/ext/snprintk.c:291
     6dc:	2000      	movs	r0, #0
/home/lubuntu/Dokument/GitHub/STM32-Computer/Firmware/STM32-Computer-Firmware/CA7/optee-os-3.19.0-r2/optee-os-stm32mp-3.19.0-stm32mp-r2/lib/libutils/ext/snprintk.c:552
     6de:	f04f 0a01 	mov.w	sl, #1
/home/lubuntu/Dokument/GitHub/STM32-Computer/Firmware/STM32-Computer-Firmware/CA7/optee-os-3.19.0-r2/optee-os-stm32mp-3.19.0-stm32mp-r2/lib/libutils/ext/snprintk.c:553
     6e2:	4607      	mov	r7, r0
/home/lubuntu/Dokument/GitHub/STM32-Computer/Firmware/STM32-Computer-Firmware/CA7/optee-os-3.19.0-r2/optee-os-stm32mp-3.19.0-stm32mp-r2/lib/libutils/ext/snprintk.c:550
     6e4:	f10d 0948 	add.w	r9, sp, #72	@ 0x48
/home/lubuntu/Dokument/GitHub/STM32-Computer/Firmware/STM32-Computer-Firmware/CA7/optee-os-3.19.0-r2/optee-os-stm32mp-3.19.0-stm32mp-r2/lib/libutils/ext/snprintk.c:554
     6e8:	e03a      	b.n	760 <kprintf.constprop.0+0x2a0>
/home/lubuntu/Dokument/GitHub/STM32-Computer/Firmware/STM32-Computer-Firmware/CA7/optee-os-3.19.0-r2/optee-os-stm32mp-3.19.0-stm32mp-r2/lib/libutils/ext/snprintk.c:386
     6ea:	f045 0510 	orr.w	r5, r5, #16
/home/lubuntu/Dokument/GitHub/STM32-Computer/Firmware/STM32-Computer-Firmware/CA7/optee-os-3.19.0-r2/optee-os-stm32mp-3.19.0-stm32mp-r2/lib/libutils/ext/snprintk.c:390
     6ee:	062a      	lsls	r2, r5, #24
     6f0:	d554      	bpl.n	79c <kprintf.constprop.0+0x2dc>
     6f2:	3307      	adds	r3, #7
     6f4:	f023 0307 	bic.w	r3, r3, #7
     6f8:	461e      	mov	r6, r3
     6fa:	6859      	ldr	r1, [r3, #4]
     6fc:	f856 0b08 	ldr.w	r0, [r6], #8
/home/lubuntu/Dokument/GitHub/STM32-Computer/Firmware/STM32-Computer-Firmware/CA7/optee-os-3.19.0-r2/optee-os-stm32mp-3.19.0-stm32mp-r2/lib/libutils/ext/snprintk.c:391
     700:	2900      	cmp	r1, #0
     702:	f280 8126 	bge.w	952 <kprintf.constprop.0+0x492>
/home/lubuntu/Dokument/GitHub/STM32-Computer/Firmware/STM32-Computer-Firmware/CA7/optee-os-3.19.0-r2/optee-os-stm32mp-3.19.0-stm32mp-r2/lib/libutils/ext/snprintk.c:392
     706:	4240      	negs	r0, r0
/home/lubuntu/Dokument/GitHub/STM32-Computer/Firmware/STM32-Computer-Firmware/CA7/optee-os-3.19.0-r2/optee-os-stm32mp-3.19.0-stm32mp-r2/lib/libutils/ext/snprintk.c:395
     708:	f04f 0301 	mov.w	r3, #1
/home/lubuntu/Dokument/GitHub/STM32-Computer/Firmware/STM32-Computer-Firmware/CA7/optee-os-3.19.0-r2/optee-os-stm32mp-3.19.0-stm32mp-r2/lib/libutils/ext/snprintk.c:392
     70c:	eb61 0141 	sbc.w	r1, r1, r1, lsl #1
/home/lubuntu/Dokument/GitHub/STM32-Computer/Firmware/STM32-Computer-Firmware/CA7/optee-os-3.19.0-r2/optee-os-stm32mp-3.19.0-stm32mp-r2/lib/libutils/ext/snprintk.c:393
     710:	272d      	movs	r7, #45	@ 0x2d
/home/lubuntu/Dokument/GitHub/STM32-Computer/Firmware/STM32-Computer-Firmware/CA7/optee-os-3.19.0-r2/optee-os-stm32mp-3.19.0-stm32mp-r2/lib/libutils/ext/snprintk.c:494
     712:	f1ba 3fff 	cmp.w	sl, #4294967295	@ 0xffffffff
     716:	f040 8182 	bne.w	a1e <kprintf.constprop.0+0x55e>
/home/lubuntu/Dokument/GitHub/STM32-Computer/Firmware/STM32-Computer-Firmware/CA7/optee-os-3.19.0-r2/optee-os-stm32mp-3.19.0-stm32mp-r2/lib/libutils/ext/snprintk.c:509
     71a:	2b01      	cmp	r3, #1
     71c:	f000 811c 	beq.w	958 <kprintf.constprop.0+0x498>
     720:	2b02      	cmp	r3, #2
     722:	f000 80db 	beq.w	8dc <kprintf.constprop.0+0x41c>
/home/lubuntu/Dokument/GitHub/STM32-Computer/Firmware/STM32-Computer-Firmware/CA7/optee-os-3.19.0-r2/optee-os-stm32mp-3.19.0-stm32mp-r2/lib/libutils/ext/snprintk.c:502
     726:	f10d 096d 	add.w	r9, sp, #109	@ 0x6d
/home/lubuntu/Dokument/GitHub/STM32-Computer/Firmware/STM32-Computer-Firmware/CA7/optee-os-3.19.0-r2/optee-os-stm32mp-3.19.0-stm32mp-r2/lib/libutils/ext/snprintk.c:512
     72a:	f000 0307 	and.w	r3, r0, #7
     72e:	464a      	mov	r2, r9
/home/lubuntu/Dokument/GitHub/STM32-Computer/Firmware/STM32-Computer-Firmware/CA7/optee-os-3.19.0-r2/optee-os-stm32mp-3.19.0-stm32mp-r2/lib/libutils/ext/snprintk.c:513
     730:	08c0      	lsrs	r0, r0, #3
/home/lubuntu/Dokument/GitHub/STM32-Computer/Firmware/STM32-Computer-Firmware/CA7/optee-os-3.19.0-r2/optee-os-stm32mp-3.19.0-stm32mp-r2/lib/libutils/ext/snprintk.c:512
     732:	3330      	adds	r3, #48	@ 0x30
/home/lubuntu/Dokument/GitHub/STM32-Computer/Firmware/STM32-Computer-Firmware/CA7/optee-os-3.19.0-r2/optee-os-stm32mp-3.19.0-stm32mp-r2/lib/libutils/ext/snprintk.c:513
     734:	ea40 7041 	orr.w	r0, r0, r1, lsl #29
     738:	08c9      	lsrs	r1, r1, #3
/home/lubuntu/Dokument/GitHub/STM32-Computer/Firmware/STM32-Computer-Firmware/CA7/optee-os-3.19.0-r2/optee-os-stm32mp-3.19.0-stm32mp-r2/lib/libutils/ext/snprintk.c:514
     73a:	ea50 0c01 	orrs.w	ip, r0, r1
/home/lubuntu/Dokument/GitHub/STM32-Computer/Firmware/STM32-Computer-Firmware/CA7/optee-os-3.19.0-r2/optee-os-stm32mp-3.19.0-stm32mp-r2/lib/libutils/ext/snprintk.c:512
     73e:	f809 3d01 	strb.w	r3, [r9, #-1]!
/home/lubuntu/Dokument/GitHub/STM32-Computer/Firmware/STM32-Computer-Firmware/CA7/optee-os-3.19.0-r2/optee-os-stm32mp-3.19.0-stm32mp-r2/lib/libutils/ext/snprintk.c:514
     742:	d1f2      	bne.n	72a <kprintf.constprop.0+0x26a>
/home/lubuntu/Dokument/GitHub/STM32-Computer/Firmware/STM32-Computer-Firmware/CA7/optee-os-3.19.0-r2/optee-os-stm32mp-3.19.0-stm32mp-r2/lib/libutils/ext/snprintk.c:516
     744:	07e8      	lsls	r0, r5, #31
     746:	d506      	bpl.n	756 <kprintf.constprop.0+0x296>
     748:	2b30      	cmp	r3, #48	@ 0x30
     74a:	d004      	beq.n	756 <kprintf.constprop.0+0x296>
/home/lubuntu/Dokument/GitHub/STM32-Computer/Firmware/STM32-Computer-Firmware/CA7/optee-os-3.19.0-r2/optee-os-stm32mp-3.19.0-stm32mp-r2/lib/libutils/ext/snprintk.c:517
     74c:	2330      	movs	r3, #48	@ 0x30
     74e:	f809 3c01 	strb.w	r3, [r9, #-1]
     752:	f1a2 0902 	sub.w	r9, r2, #2
/home/lubuntu/Dokument/GitHub/STM32-Computer/Firmware/STM32-Computer-Firmware/CA7/optee-os-3.19.0-r2/optee-os-stm32mp-3.19.0-stm32mp-r2/lib/libutils/ext/snprintk.c:543
     756:	4650      	mov	r0, sl
     758:	f10d 0a6d 	add.w	sl, sp, #109	@ 0x6d
     75c:	ebaa 0a09 	sub.w	sl, sl, r9
/home/lubuntu/Dokument/GitHub/STM32-Computer/Firmware/STM32-Computer-Firmware/CA7/optee-os-3.19.0-r2/optee-os-stm32mp-3.19.0-stm32mp-r2/lib/libutils/ext/snprintk.c:571
     760:	4550      	cmp	r0, sl
/home/lubuntu/Dokument/GitHub/STM32-Computer/Firmware/STM32-Computer-Firmware/CA7/optee-os-3.19.0-r2/optee-os-stm32mp-3.19.0-stm32mp-r2/lib/libutils/ext/snprintk.c:581
     762:	f240 4304 	movw	r3, #1028	@ 0x404
     766:	ea05 0303 	and.w	r3, r5, r3
/home/lubuntu/Dokument/GitHub/STM32-Computer/Firmware/STM32-Computer-Firmware/CA7/optee-os-3.19.0-r2/optee-os-stm32mp-3.19.0-stm32mp-r2/lib/libutils/ext/snprintk.c:571
     76a:	4602      	mov	r2, r0
     76c:	bfb8      	it	lt
     76e:	4652      	movlt	r2, sl
/home/lubuntu/Dokument/GitHub/STM32-Computer/Firmware/STM32-Computer-Firmware/CA7/optee-os-3.19.0-r2/optee-os-stm32mp-3.19.0-stm32mp-r2/lib/libutils/ext/snprintk.c:572
     770:	2f00      	cmp	r7, #0
     772:	f000 8173 	beq.w	a5c <kprintf.constprop.0+0x59c>
/home/lubuntu/Dokument/GitHub/STM32-Computer/Firmware/STM32-Computer-Firmware/CA7/optee-os-3.19.0-r2/optee-os-stm32mp-3.19.0-stm32mp-r2/lib/libutils/ext/snprintk.c:578
     776:	990c      	ldr	r1, [sp, #48]	@ 0x30
/home/lubuntu/Dokument/GitHub/STM32-Computer/Firmware/STM32-Computer-Firmware/CA7/optee-os-3.19.0-r2/optee-os-stm32mp-3.19.0-stm32mp-r2/lib/libutils/ext/snprintk.c:573
     778:	3201      	adds	r2, #1
/home/lubuntu/Dokument/GitHub/STM32-Computer/Firmware/STM32-Computer-Firmware/CA7/optee-os-3.19.0-r2/optee-os-stm32mp-3.19.0-stm32mp-r2/lib/libutils/ext/snprintk.c:578
     77a:	428a      	cmp	r2, r1
     77c:	bfac      	ite	ge
     77e:	4493      	addge	fp, r2
     780:	448b      	addlt	fp, r1
/home/lubuntu/Dokument/GitHub/STM32-Computer/Firmware/STM32-Computer-Firmware/CA7/optee-os-3.19.0-r2/optee-os-stm32mp-3.19.0-stm32mp-r2/lib/libutils/ext/snprintk.c:581
     782:	2b00      	cmp	r3, #0
     784:	f040 81d3 	bne.w	b2e <kprintf.constprop.0+0x66e>
/home/lubuntu/Dokument/GitHub/STM32-Computer/Firmware/STM32-Computer-Firmware/CA7/optee-os-3.19.0-r2/optee-os-stm32mp-3.19.0-stm32mp-r2/lib/libutils/ext/snprintk.c:582
     788:	9b0c      	ldr	r3, [sp, #48]	@ 0x30
     78a:	1a9b      	subs	r3, r3, r2
/home/lubuntu/Dokument/GitHub/STM32-Computer/Firmware/STM32-Computer-Firmware/CA7/optee-os-3.19.0-r2/optee-os-stm32mp-3.19.0-stm32mp-r2/lib/libutils/ext/snprintk.c:583
     78c:	2b00      	cmp	r3, #0
     78e:	f300 8184 	bgt.w	a9a <kprintf.constprop.0+0x5da>
/home/lubuntu/Dokument/GitHub/STM32-Computer/Firmware/STM32-Computer-Firmware/CA7/optee-os-3.19.0-r2/optee-os-stm32mp-3.19.0-stm32mp-r2/lib/libutils/ext/snprintk.c:588
     792:	2f00      	cmp	r7, #0
     794:	f040 81ee 	bne.w	b74 <kprintf.constprop.0+0x6b4>
     798:	463b      	mov	r3, r7
     79a:	e16a      	b.n	a72 <kprintf.constprop.0+0x5b2>
/home/lubuntu/Dokument/GitHub/STM32-Computer/Firmware/STM32-Computer-Firmware/CA7/optee-os-3.19.0-r2/optee-os-stm32mp-3.19.0-stm32mp-r2/lib/libutils/ext/snprintk.c:390
     79c:	05ee      	lsls	r6, r5, #23
     79e:	d504      	bpl.n	7aa <kprintf.constprop.0+0x2ea>
     7a0:	461e      	mov	r6, r3
     7a2:	f856 0b04 	ldr.w	r0, [r6], #4
     7a6:	17c1      	asrs	r1, r0, #31
     7a8:	e7aa      	b.n	700 <kprintf.constprop.0+0x240>
     7aa:	05a8      	lsls	r0, r5, #22
     7ac:	d4f8      	bmi.n	7a0 <kprintf.constprop.0+0x2e0>
     7ae:	06a9      	lsls	r1, r5, #26
     7b0:	d49f      	bmi.n	6f2 <kprintf.constprop.0+0x232>
     7b2:	06ea      	lsls	r2, r5, #27
/home/lubuntu/Dokument/GitHub/STM32-Computer/Firmware/STM32-Computer-Firmware/CA7/optee-os-3.19.0-r2/optee-os-stm32mp-3.19.0-stm32mp-r2/lib/libutils/ext/snprintk.c:317
     7b4:	461e      	mov	r6, r3
     7b6:	f856 1b04 	ldr.w	r1, [r6], #4
/home/lubuntu/Dokument/GitHub/STM32-Computer/Firmware/STM32-Computer-Firmware/CA7/optee-os-3.19.0-r2/optee-os-stm32mp-3.19.0-stm32mp-r2/lib/libutils/ext/snprintk.c:390
     7ba:	d501      	bpl.n	7c0 <kprintf.constprop.0+0x300>
     7bc:	4608      	mov	r0, r1
     7be:	e7f2      	b.n	7a6 <kprintf.constprop.0+0x2e6>
     7c0:	066b      	lsls	r3, r5, #25
     7c2:	d5fb      	bpl.n	7bc <kprintf.constprop.0+0x2fc>
     7c4:	b208      	sxth	r0, r1
     7c6:	f341 31c0 	sbfx	r1, r1, #15, #1
     7ca:	e799      	b.n	700 <kprintf.constprop.0+0x240>
/home/lubuntu/Dokument/GitHub/STM32-Computer/Firmware/STM32-Computer-Firmware/CA7/optee-os-3.19.0-r2/optee-os-stm32mp-3.19.0-stm32mp-r2/lib/libutils/ext/snprintk.c:398
     7cc:	0628      	lsls	r0, r5, #24
     7ce:	d505      	bpl.n	7dc <kprintf.constprop.0+0x31c>
/home/lubuntu/Dokument/GitHub/STM32-Computer/Firmware/STM32-Computer-Firmware/CA7/optee-os-3.19.0-r2/optee-os-stm32mp-3.19.0-stm32mp-r2/lib/libutils/ext/snprintk.c:405
     7d0:	681a      	ldr	r2, [r3, #0]
     7d2:	ea4f 71eb 	mov.w	r1, fp, asr #31
     7d6:	e9c2 b100 	strd	fp, r1, [r2]
     7da:	e004      	b.n	7e6 <kprintf.constprop.0+0x326>
/home/lubuntu/Dokument/GitHub/STM32-Computer/Firmware/STM32-Computer-Firmware/CA7/optee-os-3.19.0-r2/optee-os-stm32mp-3.19.0-stm32mp-r2/lib/libutils/ext/snprintk.c:400
     7dc:	05e9      	lsls	r1, r5, #23
     7de:	d504      	bpl.n	7ea <kprintf.constprop.0+0x32a>
/home/lubuntu/Dokument/GitHub/STM32-Computer/Firmware/STM32-Computer-Firmware/CA7/optee-os-3.19.0-r2/optee-os-stm32mp-3.19.0-stm32mp-r2/lib/libutils/ext/snprintk.c:401
     7e0:	681a      	ldr	r2, [r3, #0]
     7e2:	f8c2 b000 	str.w	fp, [r2]
/home/lubuntu/Dokument/GitHub/STM32-Computer/Firmware/STM32-Computer-Firmware/CA7/optee-os-3.19.0-r2/optee-os-stm32mp-3.19.0-stm32mp-r2/lib/libutils/ext/snprintk.c:317
     7e6:	1d1e      	adds	r6, r3, #4
     7e8:	e67a      	b.n	4e0 <kprintf.constprop.0+0x20>
/home/lubuntu/Dokument/GitHub/STM32-Computer/Firmware/STM32-Computer-Firmware/CA7/optee-os-3.19.0-r2/optee-os-stm32mp-3.19.0-stm32mp-r2/lib/libutils/ext/snprintk.c:402
     7ea:	05aa      	lsls	r2, r5, #22
     7ec:	d4f8      	bmi.n	7e0 <kprintf.constprop.0+0x320>
/home/lubuntu/Dokument/GitHub/STM32-Computer/Firmware/STM32-Computer-Firmware/CA7/optee-os-3.19.0-r2/optee-os-stm32mp-3.19.0-stm32mp-r2/lib/libutils/ext/snprintk.c:404
     7ee:	06af      	lsls	r7, r5, #26
     7f0:	d4ee      	bmi.n	7d0 <kprintf.constprop.0+0x310>
/home/lubuntu/Dokument/GitHub/STM32-Computer/Firmware/STM32-Computer-Firmware/CA7/optee-os-3.19.0-r2/optee-os-stm32mp-3.19.0-stm32mp-r2/lib/libutils/ext/snprintk.c:406
     7f2:	06ee      	lsls	r6, r5, #27
     7f4:	d4f4      	bmi.n	7e0 <kprintf.constprop.0+0x320>
/home/lubuntu/Dokument/GitHub/STM32-Computer/Firmware/STM32-Computer-Firmware/CA7/optee-os-3.19.0-r2/optee-os-stm32mp-3.19.0-stm32mp-r2/lib/libutils/ext/snprintk.c:408
     7f6:	066d      	lsls	r5, r5, #25
     7f8:	d5f2      	bpl.n	7e0 <kprintf.constprop.0+0x320>
/home/lubuntu/Dokument/GitHub/STM32-Computer/Firmware/STM32-Computer-Firmware/CA7/optee-os-3.19.0-r2/optee-os-stm32mp-3.19.0-stm32mp-r2/lib/libutils/ext/snprintk.c:409
     7fa:	681a      	ldr	r2, [r3, #0]
     7fc:	f8a2 b000 	strh.w	fp, [r2]
     800:	e7f1      	b.n	7e6 <kprintf.constprop.0+0x326>
/home/lubuntu/Dokument/GitHub/STM32-Computer/Firmware/STM32-Computer-Firmware/CA7/optee-os-3.19.0-r2/optee-os-stm32mp-3.19.0-stm32mp-r2/lib/libutils/ext/snprintk.c:414
     802:	f045 0510 	orr.w	r5, r5, #16
/home/lubuntu/Dokument/GitHub/STM32-Computer/Firmware/STM32-Computer-Firmware/CA7/optee-os-3.19.0-r2/optee-os-stm32mp-3.19.0-stm32mp-r2/lib/libutils/ext/snprintk.c:417
     806:	f015 0280 	ands.w	r2, r5, #128	@ 0x80
     80a:	d007      	beq.n	81c <kprintf.constprop.0+0x35c>
     80c:	3307      	adds	r3, #7
     80e:	f023 0307 	bic.w	r3, r3, #7
     812:	461e      	mov	r6, r3
     814:	6859      	ldr	r1, [r3, #4]
     816:	f856 0b08 	ldr.w	r0, [r6], #8
     81a:	e006      	b.n	82a <kprintf.constprop.0+0x36a>
     81c:	f415 7180 	ands.w	r1, r5, #256	@ 0x100
     820:	d00b      	beq.n	83a <kprintf.constprop.0+0x37a>
     822:	461e      	mov	r6, r3
     824:	4611      	mov	r1, r2
     826:	f856 0b04 	ldr.w	r0, [r6], #4
/home/lubuntu/Dokument/GitHub/STM32-Computer/Firmware/STM32-Computer-Firmware/CA7/optee-os-3.19.0-r2/optee-os-stm32mp-3.19.0-stm32mp-r2/lib/libutils/ext/snprintk.c:494
     82a:	f1ba 3fff 	cmp.w	sl, #4294967295	@ 0xffffffff
     82e:	f04f 0700 	mov.w	r7, #0
     832:	f43f af78 	beq.w	726 <kprintf.constprop.0+0x266>
     836:	463b      	mov	r3, r7
     838:	e0f1      	b.n	a1e <kprintf.constprop.0+0x55e>
/home/lubuntu/Dokument/GitHub/STM32-Computer/Firmware/STM32-Computer-Firmware/CA7/optee-os-3.19.0-r2/optee-os-stm32mp-3.19.0-stm32mp-r2/lib/libutils/ext/snprintk.c:417
     83a:	05a8      	lsls	r0, r5, #22
     83c:	d503      	bpl.n	846 <kprintf.constprop.0+0x386>
     83e:	461e      	mov	r6, r3
     840:	f856 0b04 	ldr.w	r0, [r6], #4
     844:	e7f1      	b.n	82a <kprintf.constprop.0+0x36a>
     846:	f015 0120 	ands.w	r1, r5, #32
     84a:	d1df      	bne.n	80c <kprintf.constprop.0+0x34c>
/home/lubuntu/Dokument/GitHub/STM32-Computer/Firmware/STM32-Computer-Firmware/CA7/optee-os-3.19.0-r2/optee-os-stm32mp-3.19.0-stm32mp-r2/lib/libutils/ext/snprintk.c:317
     84c:	461e      	mov	r6, r3
/home/lubuntu/Dokument/GitHub/STM32-Computer/Firmware/STM32-Computer-Firmware/CA7/optee-os-3.19.0-r2/optee-os-stm32mp-3.19.0-stm32mp-r2/lib/libutils/ext/snprintk.c:417
     84e:	f015 0310 	ands.w	r3, r5, #16
/home/lubuntu/Dokument/GitHub/STM32-Computer/Firmware/STM32-Computer-Firmware/CA7/optee-os-3.19.0-r2/optee-os-stm32mp-3.19.0-stm32mp-r2/lib/libutils/ext/snprintk.c:317
     852:	f856 0b04 	ldr.w	r0, [r6], #4
/home/lubuntu/Dokument/GitHub/STM32-Computer/Firmware/STM32-Computer-Firmware/CA7/optee-os-3.19.0-r2/optee-os-stm32mp-3.19.0-stm32mp-r2/lib/libutils/ext/snprintk.c:417
     856:	d1e8      	bne.n	82a <kprintf.constprop.0+0x36a>
     858:	f015 0140 	ands.w	r1, r5, #64	@ 0x40
     85c:	d0e5      	beq.n	82a <kprintf.constprop.0+0x36a>
     85e:	b280      	uxth	r0, r0
     860:	4619      	mov	r1, r3
     862:	e7e2      	b.n	82a <kprintf.constprop.0+0x36a>
/home/lubuntu/Dokument/GitHub/STM32-Computer/Firmware/STM32-Computer-Firmware/CA7/optee-os-3.19.0-r2/optee-os-stm32mp-3.19.0-stm32mp-r2/lib/libutils/ext/snprintk.c:317
     864:	461e      	mov	r6, r3
/home/lubuntu/Dokument/GitHub/STM32-Computer/Firmware/STM32-Computer-Firmware/CA7/optee-os-3.19.0-r2/optee-os-stm32mp-3.19.0-stm32mp-r2/lib/libutils/ext/snprintk.c:421
     866:	9b11      	ldr	r3, [sp, #68]	@ 0x44
     868:	f856 0b04 	ldr.w	r0, [r6], #4
     86c:	b343      	cbz	r3, 8c0 <kprintf.constprop.0+0x400>
     86e:	f898 3000 	ldrb.w	r3, [r8]
     872:	2b55      	cmp	r3, #85	@ 0x55
     874:	d124      	bne.n	8c0 <kprintf.constprop.0+0x400>
     876:	f898 3001 	ldrb.w	r3, [r8, #1]
     87a:	2b6c      	cmp	r3, #108	@ 0x6c
     87c:	d120      	bne.n	8c0 <kprintf.constprop.0+0x400>
uuid2str():
/home/lubuntu/Dokument/GitHub/STM32-Computer/Firmware/STM32-Computer-Firmware/CA7/optee-os-3.19.0-r2/optee-os-stm32mp-3.19.0-stm32mp-r2/lib/libutils/ext/snprintk.c:229
     87e:	7bc3      	ldrb	r3, [r0, #15]
     880:	f10d 0948 	add.w	r9, sp, #72	@ 0x48
     884:	4ac2      	ldr	r2, [pc, #776]	@ (b90 <kprintf.constprop.0+0x6d0>)
     886:	2125      	movs	r1, #37	@ 0x25
     888:	9309      	str	r3, [sp, #36]	@ 0x24
kprintf():
/home/lubuntu/Dokument/GitHub/STM32-Computer/Firmware/STM32-Computer-Firmware/CA7/optee-os-3.19.0-r2/optee-os-stm32mp-3.19.0-stm32mp-r2/lib/libutils/ext/snprintk.c:426
     88a:	f108 0802 	add.w	r8, r8, #2
uuid2str():
/home/lubuntu/Dokument/GitHub/STM32-Computer/Firmware/STM32-Computer-Firmware/CA7/optee-os-3.19.0-r2/optee-os-stm32mp-3.19.0-stm32mp-r2/lib/libutils/ext/snprintk.c:229
     88e:	7b83      	ldrb	r3, [r0, #14]
     890:	447a      	add	r2, pc
     892:	9308      	str	r3, [sp, #32]
     894:	7b43      	ldrb	r3, [r0, #13]
     896:	9307      	str	r3, [sp, #28]
     898:	7b03      	ldrb	r3, [r0, #12]
     89a:	9306      	str	r3, [sp, #24]
     89c:	7ac3      	ldrb	r3, [r0, #11]
     89e:	9305      	str	r3, [sp, #20]
     8a0:	7a83      	ldrb	r3, [r0, #10]
     8a2:	9304      	str	r3, [sp, #16]
     8a4:	7a43      	ldrb	r3, [r0, #9]
     8a6:	9303      	str	r3, [sp, #12]
     8a8:	7a03      	ldrb	r3, [r0, #8]
     8aa:	9302      	str	r3, [sp, #8]
     8ac:	88c3      	ldrh	r3, [r0, #6]
     8ae:	9301      	str	r3, [sp, #4]
     8b0:	8883      	ldrh	r3, [r0, #4]
     8b2:	9300      	str	r3, [sp, #0]
     8b4:	6803      	ldr	r3, [r0, #0]
     8b6:	4648      	mov	r0, r9
     8b8:	f7ff fdf5 	bl	4a6 <snprintk>
kprintf():
/home/lubuntu/Dokument/GitHub/STM32-Computer/Firmware/STM32-Computer-Firmware/CA7/optee-os-3.19.0-r2/optee-os-stm32mp-3.19.0-stm32mp-r2/lib/libutils/ext/snprintk.c:466
     8bc:	4682      	mov	sl, r0
     8be:	e034      	b.n	92a <kprintf.constprop.0+0x46a>
/home/lubuntu/Dokument/GitHub/STM32-Computer/Firmware/STM32-Computer-Firmware/CA7/optee-os-3.19.0-r2/optee-os-stm32mp-3.19.0-stm32mp-r2/lib/libutils/ext/snprintk.c:443
     8c0:	4bb4      	ldr	r3, [pc, #720]	@ (b94 <kprintf.constprop.0+0x6d4>)
/home/lubuntu/Dokument/GitHub/STM32-Computer/Firmware/STM32-Computer-Firmware/CA7/optee-os-3.19.0-r2/optee-os-stm32mp-3.19.0-stm32mp-r2/lib/libutils/ext/snprintk.c:441
     8c2:	2100      	movs	r1, #0
/home/lubuntu/Dokument/GitHub/STM32-Computer/Firmware/STM32-Computer-Firmware/CA7/optee-os-3.19.0-r2/optee-os-stm32mp-3.19.0-stm32mp-r2/lib/libutils/ext/snprintk.c:444
     8c4:	f045 0502 	orr.w	r5, r5, #2
/home/lubuntu/Dokument/GitHub/STM32-Computer/Firmware/STM32-Computer-Firmware/CA7/optee-os-3.19.0-r2/optee-os-stm32mp-3.19.0-stm32mp-r2/lib/libutils/ext/snprintk.c:443
     8c8:	447b      	add	r3, pc
     8ca:	930f      	str	r3, [sp, #60]	@ 0x3c
/home/lubuntu/Dokument/GitHub/STM32-Computer/Firmware/STM32-Computer-Firmware/CA7/optee-os-3.19.0-r2/optee-os-stm32mp-3.19.0-stm32mp-r2/lib/libutils/ext/snprintk.c:445
     8cc:	2378      	movs	r3, #120	@ 0x78
     8ce:	930b      	str	r3, [sp, #44]	@ 0x2c
/home/lubuntu/Dokument/GitHub/STM32-Computer/Firmware/STM32-Computer-Firmware/CA7/optee-os-3.19.0-r2/optee-os-stm32mp-3.19.0-stm32mp-r2/lib/libutils/ext/snprintk.c:494
     8d0:	f1ba 3fff 	cmp.w	sl, #4294967295	@ 0xffffffff
     8d4:	f04f 0700 	mov.w	r7, #0
     8d8:	f040 80a0 	bne.w	a1c <kprintf.constprop.0+0x55c>
/home/lubuntu/Dokument/GitHub/STM32-Computer/Firmware/STM32-Computer-Firmware/CA7/optee-os-3.19.0-r2/optee-os-stm32mp-3.19.0-stm32mp-r2/lib/libutils/ext/snprintk.c:502
     8dc:	f10d 096d 	add.w	r9, sp, #109	@ 0x6d
/home/lubuntu/Dokument/GitHub/STM32-Computer/Firmware/STM32-Computer-Firmware/CA7/optee-os-3.19.0-r2/optee-os-stm32mp-3.19.0-stm32mp-r2/lib/libutils/ext/snprintk.c:531
     8e0:	9a0f      	ldr	r2, [sp, #60]	@ 0x3c
     8e2:	f000 030f 	and.w	r3, r0, #15
/home/lubuntu/Dokument/GitHub/STM32-Computer/Firmware/STM32-Computer-Firmware/CA7/optee-os-3.19.0-r2/optee-os-stm32mp-3.19.0-stm32mp-r2/lib/libutils/ext/snprintk.c:532
     8e6:	0900      	lsrs	r0, r0, #4
/home/lubuntu/Dokument/GitHub/STM32-Computer/Firmware/STM32-Computer-Firmware/CA7/optee-os-3.19.0-r2/optee-os-stm32mp-3.19.0-stm32mp-r2/lib/libutils/ext/snprintk.c:531
     8e8:	5cd3      	ldrb	r3, [r2, r3]
/home/lubuntu/Dokument/GitHub/STM32-Computer/Firmware/STM32-Computer-Firmware/CA7/optee-os-3.19.0-r2/optee-os-stm32mp-3.19.0-stm32mp-r2/lib/libutils/ext/snprintk.c:532
     8ea:	ea40 7001 	orr.w	r0, r0, r1, lsl #28
     8ee:	0909      	lsrs	r1, r1, #4
/home/lubuntu/Dokument/GitHub/STM32-Computer/Firmware/STM32-Computer-Firmware/CA7/optee-os-3.19.0-r2/optee-os-stm32mp-3.19.0-stm32mp-r2/lib/libutils/ext/snprintk.c:531
     8f0:	f809 3d01 	strb.w	r3, [r9, #-1]!
/home/lubuntu/Dokument/GitHub/STM32-Computer/Firmware/STM32-Computer-Firmware/CA7/optee-os-3.19.0-r2/optee-os-stm32mp-3.19.0-stm32mp-r2/lib/libutils/ext/snprintk.c:533
     8f4:	ea50 0301 	orrs.w	r3, r0, r1
     8f8:	d1f2      	bne.n	8e0 <kprintf.constprop.0+0x420>
     8fa:	e72c      	b.n	756 <kprintf.constprop.0+0x296>
/home/lubuntu/Dokument/GitHub/STM32-Computer/Firmware/STM32-Computer-Firmware/CA7/optee-os-3.19.0-r2/optee-os-stm32mp-3.19.0-stm32mp-r2/lib/libutils/ext/snprintk.c:448
     8fc:	461e      	mov	r6, r3
     8fe:	f856 9b04 	ldr.w	r9, [r6], #4
     902:	f1b9 0f00 	cmp.w	r9, #0
     906:	d102      	bne.n	90e <kprintf.constprop.0+0x44e>
/home/lubuntu/Dokument/GitHub/STM32-Computer/Firmware/STM32-Computer-Firmware/CA7/optee-os-3.19.0-r2/optee-os-stm32mp-3.19.0-stm32mp-r2/lib/libutils/ext/snprintk.c:450
     908:	f8df 928c 	ldr.w	r9, [pc, #652]	@ b98 <kprintf.constprop.0+0x6d8>
     90c:	44f9      	add	r9, pc
/home/lubuntu/Dokument/GitHub/STM32-Computer/Firmware/STM32-Computer-Firmware/CA7/optee-os-3.19.0-r2/optee-os-stm32mp-3.19.0-stm32mp-r2/lib/libutils/ext/snprintk.c:451
     90e:	f1ba 3fff 	cmp.w	sl, #4294967295	@ 0xffffffff
     912:	d00d      	beq.n	930 <kprintf.constprop.0+0x470>
/home/lubuntu/Dokument/GitHub/STM32-Computer/Firmware/STM32-Computer-Firmware/CA7/optee-os-3.19.0-r2/optee-os-stm32mp-3.19.0-stm32mp-r2/lib/libutils/ext/snprintk.c:457
     914:	4652      	mov	r2, sl
     916:	2100      	movs	r1, #0
     918:	4648      	mov	r0, r9
     91a:	f008 fe0c 	bl	9536 <memchr>
/home/lubuntu/Dokument/GitHub/STM32-Computer/Firmware/STM32-Computer-Firmware/CA7/optee-os-3.19.0-r2/optee-os-stm32mp-3.19.0-stm32mp-r2/lib/libutils/ext/snprintk.c:459
     91e:	b128      	cbz	r0, 92c <kprintf.constprop.0+0x46c>
/home/lubuntu/Dokument/GitHub/STM32-Computer/Firmware/STM32-Computer-Firmware/CA7/optee-os-3.19.0-r2/optee-os-stm32mp-3.19.0-stm32mp-r2/lib/libutils/ext/snprintk.c:460
     920:	eba0 0009 	sub.w	r0, r0, r9
     924:	4582      	cmp	sl, r0
     926:	bfa8      	it	ge
     928:	4682      	movge	sl, r0
/home/lubuntu/Dokument/GitHub/STM32-Computer/Firmware/STM32-Computer-Firmware/CA7/optee-os-3.19.0-r2/optee-os-stm32mp-3.19.0-stm32mp-r2/lib/libutils/ext/snprintk.c:291
     92a:	2000      	movs	r0, #0
/home/lubuntu/Dokument/GitHub/STM32-Computer/Firmware/STM32-Computer-Firmware/CA7/optee-os-3.19.0-r2/optee-os-stm32mp-3.19.0-stm32mp-r2/lib/libutils/ext/snprintk.c:467
     92c:	4607      	mov	r7, r0
     92e:	e717      	b.n	760 <kprintf.constprop.0+0x2a0>
/home/lubuntu/Dokument/GitHub/STM32-Computer/Firmware/STM32-Computer-Firmware/CA7/optee-os-3.19.0-r2/optee-os-stm32mp-3.19.0-stm32mp-r2/lib/libutils/ext/snprintk.c:466
     930:	4648      	mov	r0, r9
     932:	f008 fe0e 	bl	9552 <strlen>
     936:	e7c1      	b.n	8bc <kprintf.constprop.0+0x3fc>
/home/lubuntu/Dokument/GitHub/STM32-Computer/Firmware/STM32-Computer-Firmware/CA7/optee-os-3.19.0-r2/optee-os-stm32mp-3.19.0-stm32mp-r2/lib/libutils/ext/snprintk.c:470
     938:	f045 0510 	orr.w	r5, r5, #16
/home/lubuntu/Dokument/GitHub/STM32-Computer/Firmware/STM32-Computer-Firmware/CA7/optee-os-3.19.0-r2/optee-os-stm32mp-3.19.0-stm32mp-r2/lib/libutils/ext/snprintk.c:473
     93c:	f015 0280 	ands.w	r2, r5, #128	@ 0x80
     940:	d019      	beq.n	976 <kprintf.constprop.0+0x4b6>
     942:	3307      	adds	r3, #7
     944:	f023 0307 	bic.w	r3, r3, #7
     948:	461e      	mov	r6, r3
     94a:	6859      	ldr	r1, [r3, #4]
     94c:	f856 0b08 	ldr.w	r0, [r6], #8
/home/lubuntu/Dokument/GitHub/STM32-Computer/Firmware/STM32-Computer-Firmware/CA7/optee-os-3.19.0-r2/optee-os-stm32mp-3.19.0-stm32mp-r2/lib/libutils/ext/snprintk.c:488
     950:	2700      	movs	r7, #0
/home/lubuntu/Dokument/GitHub/STM32-Computer/Firmware/STM32-Computer-Firmware/CA7/optee-os-3.19.0-r2/optee-os-stm32mp-3.19.0-stm32mp-r2/lib/libutils/ext/snprintk.c:494
     952:	f1ba 3fff 	cmp.w	sl, #4294967295	@ 0xffffffff
     956:	d16f      	bne.n	a38 <kprintf.constprop.0+0x578>
/home/lubuntu/Dokument/GitHub/STM32-Computer/Firmware/STM32-Computer-Firmware/CA7/optee-os-3.19.0-r2/optee-os-stm32mp-3.19.0-stm32mp-r2/lib/libutils/ext/snprintk.c:502
     958:	f10d 036d 	add.w	r3, sp, #109	@ 0x6d
     95c:	9310      	str	r3, [sp, #64]	@ 0x40
/home/lubuntu/Dokument/GitHub/STM32-Computer/Firmware/STM32-Computer-Firmware/CA7/optee-os-3.19.0-r2/optee-os-stm32mp-3.19.0-stm32mp-r2/lib/libutils/ext/snprintk.c:523
     95e:	9b10      	ldr	r3, [sp, #64]	@ 0x40
/home/lubuntu/Dokument/GitHub/STM32-Computer/Firmware/STM32-Computer-Firmware/CA7/optee-os-3.19.0-r2/optee-os-stm32mp-3.19.0-stm32mp-r2/lib/libutils/ext/snprintk.c:522
     960:	280a      	cmp	r0, #10
/home/lubuntu/Dokument/GitHub/STM32-Computer/Firmware/STM32-Computer-Firmware/CA7/optee-os-3.19.0-r2/optee-os-stm32mp-3.19.0-stm32mp-r2/lib/libutils/ext/snprintk.c:523
     962:	f103 39ff 	add.w	r9, r3, #4294967295	@ 0xffffffff
/home/lubuntu/Dokument/GitHub/STM32-Computer/Firmware/STM32-Computer-Firmware/CA7/optee-os-3.19.0-r2/optee-os-stm32mp-3.19.0-stm32mp-r2/lib/libutils/ext/snprintk.c:522
     966:	f171 0300 	sbcs.w	r3, r1, #0
     96a:	d267      	bcs.n	a3c <kprintf.constprop.0+0x57c>
/home/lubuntu/Dokument/GitHub/STM32-Computer/Firmware/STM32-Computer-Firmware/CA7/optee-os-3.19.0-r2/optee-os-stm32mp-3.19.0-stm32mp-r2/lib/libutils/ext/snprintk.c:526
     96c:	9b10      	ldr	r3, [sp, #64]	@ 0x40
     96e:	3030      	adds	r0, #48	@ 0x30
     970:	f803 0c01 	strb.w	r0, [r3, #-1]
/home/lubuntu/Dokument/GitHub/STM32-Computer/Firmware/STM32-Computer-Firmware/CA7/optee-os-3.19.0-r2/optee-os-stm32mp-3.19.0-stm32mp-r2/lib/libutils/ext/snprintk.c:527
     974:	e6ef      	b.n	756 <kprintf.constprop.0+0x296>
/home/lubuntu/Dokument/GitHub/STM32-Computer/Firmware/STM32-Computer-Firmware/CA7/optee-os-3.19.0-r2/optee-os-stm32mp-3.19.0-stm32mp-r2/lib/libutils/ext/snprintk.c:473
     976:	f415 7180 	ands.w	r1, r5, #256	@ 0x100
     97a:	d004      	beq.n	986 <kprintf.constprop.0+0x4c6>
     97c:	461e      	mov	r6, r3
     97e:	4611      	mov	r1, r2
     980:	f856 0b04 	ldr.w	r0, [r6], #4
     984:	e7e4      	b.n	950 <kprintf.constprop.0+0x490>
     986:	f415 7700 	ands.w	r7, r5, #512	@ 0x200
     98a:	d003      	beq.n	994 <kprintf.constprop.0+0x4d4>
     98c:	461e      	mov	r6, r3
     98e:	f856 0b04 	ldr.w	r0, [r6], #4
     992:	e7dd      	b.n	950 <kprintf.constprop.0+0x490>
     994:	f015 0120 	ands.w	r1, r5, #32
     998:	d007      	beq.n	9aa <kprintf.constprop.0+0x4ea>
     99a:	3307      	adds	r3, #7
     99c:	f023 0307 	bic.w	r3, r3, #7
     9a0:	461e      	mov	r6, r3
     9a2:	6859      	ldr	r1, [r3, #4]
     9a4:	f856 0b08 	ldr.w	r0, [r6], #8
     9a8:	e7d3      	b.n	952 <kprintf.constprop.0+0x492>
/home/lubuntu/Dokument/GitHub/STM32-Computer/Firmware/STM32-Computer-Firmware/CA7/optee-os-3.19.0-r2/optee-os-stm32mp-3.19.0-stm32mp-r2/lib/libutils/ext/snprintk.c:317
     9aa:	461e      	mov	r6, r3
/home/lubuntu/Dokument/GitHub/STM32-Computer/Firmware/STM32-Computer-Firmware/CA7/optee-os-3.19.0-r2/optee-os-stm32mp-3.19.0-stm32mp-r2/lib/libutils/ext/snprintk.c:473
     9ac:	f015 0310 	ands.w	r3, r5, #16
/home/lubuntu/Dokument/GitHub/STM32-Computer/Firmware/STM32-Computer-Firmware/CA7/optee-os-3.19.0-r2/optee-os-stm32mp-3.19.0-stm32mp-r2/lib/libutils/ext/snprintk.c:317
     9b0:	f856 0b04 	ldr.w	r0, [r6], #4
/home/lubuntu/Dokument/GitHub/STM32-Computer/Firmware/STM32-Computer-Firmware/CA7/optee-os-3.19.0-r2/optee-os-stm32mp-3.19.0-stm32mp-r2/lib/libutils/ext/snprintk.c:473
     9b4:	d1cc      	bne.n	950 <kprintf.constprop.0+0x490>
     9b6:	f015 0140 	ands.w	r1, r5, #64	@ 0x40
     9ba:	d0c9      	beq.n	950 <kprintf.constprop.0+0x490>
     9bc:	b280      	uxth	r0, r0
     9be:	4619      	mov	r1, r3
     9c0:	e7c6      	b.n	950 <kprintf.constprop.0+0x490>
/home/lubuntu/Dokument/GitHub/STM32-Computer/Firmware/STM32-Computer-Firmware/CA7/optee-os-3.19.0-r2/optee-os-stm32mp-3.19.0-stm32mp-r2/lib/libutils/ext/snprintk.c:297
     9c2:	4a76      	ldr	r2, [pc, #472]	@ (b9c <kprintf.constprop.0+0x6dc>)
     9c4:	447a      	add	r2, pc
     9c6:	3211      	adds	r2, #17
     9c8:	e618      	b.n	5fc <kprintf.constprop.0+0x13c>
/home/lubuntu/Dokument/GitHub/STM32-Computer/Firmware/STM32-Computer-Firmware/CA7/optee-os-3.19.0-r2/optee-os-stm32mp-3.19.0-stm32mp-r2/lib/libutils/ext/snprintk.c:481
     9ca:	f415 7180 	ands.w	r1, r5, #256	@ 0x100
     9ce:	d00f      	beq.n	9f0 <kprintf.constprop.0+0x530>
     9d0:	461e      	mov	r6, r3
     9d2:	4611      	mov	r1, r2
     9d4:	f856 0b04 	ldr.w	r0, [r6], #4
/home/lubuntu/Dokument/GitHub/STM32-Computer/Firmware/STM32-Computer-Firmware/CA7/optee-os-3.19.0-r2/optee-os-stm32mp-3.19.0-stm32mp-r2/lib/libutils/ext/snprintk.c:484
     9d8:	07ef      	lsls	r7, r5, #31
     9da:	f57f af79 	bpl.w	8d0 <kprintf.constprop.0+0x410>
     9de:	ea50 0301 	orrs.w	r3, r0, r1
/home/lubuntu/Dokument/GitHub/STM32-Computer/Firmware/STM32-Computer-Firmware/CA7/optee-os-3.19.0-r2/optee-os-stm32mp-3.19.0-stm32mp-r2/lib/libutils/ext/snprintk.c:488
     9e2:	f04f 0700 	mov.w	r7, #0
/home/lubuntu/Dokument/GitHub/STM32-Computer/Firmware/STM32-Computer-Firmware/CA7/optee-os-3.19.0-r2/optee-os-stm32mp-3.19.0-stm32mp-r2/lib/libutils/ext/snprintk.c:485
     9e6:	bf18      	it	ne
     9e8:	f045 0502 	orrne.w	r5, r5, #2
/home/lubuntu/Dokument/GitHub/STM32-Computer/Firmware/STM32-Computer-Firmware/CA7/optee-os-3.19.0-r2/optee-os-stm32mp-3.19.0-stm32mp-r2/lib/libutils/ext/snprintk.c:482
     9ec:	2302      	movs	r3, #2
     9ee:	e690      	b.n	712 <kprintf.constprop.0+0x252>
/home/lubuntu/Dokument/GitHub/STM32-Computer/Firmware/STM32-Computer-Firmware/CA7/optee-os-3.19.0-r2/optee-os-stm32mp-3.19.0-stm32mp-r2/lib/libutils/ext/snprintk.c:481
     9f0:	05aa      	lsls	r2, r5, #22
     9f2:	d503      	bpl.n	9fc <kprintf.constprop.0+0x53c>
     9f4:	461e      	mov	r6, r3
     9f6:	f856 0b04 	ldr.w	r0, [r6], #4
     9fa:	e7ed      	b.n	9d8 <kprintf.constprop.0+0x518>
     9fc:	f015 0120 	ands.w	r1, r5, #32
     a00:	f47f ae01 	bne.w	606 <kprintf.constprop.0+0x146>
/home/lubuntu/Dokument/GitHub/STM32-Computer/Firmware/STM32-Computer-Firmware/CA7/optee-os-3.19.0-r2/optee-os-stm32mp-3.19.0-stm32mp-r2/lib/libutils/ext/snprintk.c:317
     a04:	461e      	mov	r6, r3
/home/lubuntu/Dokument/GitHub/STM32-Computer/Firmware/STM32-Computer-Firmware/CA7/optee-os-3.19.0-r2/optee-os-stm32mp-3.19.0-stm32mp-r2/lib/libutils/ext/snprintk.c:481
     a06:	f015 0310 	ands.w	r3, r5, #16
/home/lubuntu/Dokument/GitHub/STM32-Computer/Firmware/STM32-Computer-Firmware/CA7/optee-os-3.19.0-r2/optee-os-stm32mp-3.19.0-stm32mp-r2/lib/libutils/ext/snprintk.c:317
     a0a:	f856 0b04 	ldr.w	r0, [r6], #4
/home/lubuntu/Dokument/GitHub/STM32-Computer/Firmware/STM32-Computer-Firmware/CA7/optee-os-3.19.0-r2/optee-os-stm32mp-3.19.0-stm32mp-r2/lib/libutils/ext/snprintk.c:481
     a0e:	d1e3      	bne.n	9d8 <kprintf.constprop.0+0x518>
     a10:	f015 0140 	ands.w	r1, r5, #64	@ 0x40
     a14:	bf1c      	itt	ne
     a16:	b280      	uxthne	r0, r0
     a18:	4619      	movne	r1, r3
     a1a:	e7dd      	b.n	9d8 <kprintf.constprop.0+0x518>
/home/lubuntu/Dokument/GitHub/STM32-Computer/Firmware/STM32-Computer-Firmware/CA7/optee-os-3.19.0-r2/optee-os-stm32mp-3.19.0-stm32mp-r2/lib/libutils/ext/snprintk.c:494
     a1c:	2302      	movs	r3, #2
/home/lubuntu/Dokument/GitHub/STM32-Computer/Firmware/STM32-Computer-Firmware/CA7/optee-os-3.19.0-r2/optee-os-stm32mp-3.19.0-stm32mp-r2/lib/libutils/ext/snprintk.c:503
     a1e:	ea50 0201 	orrs.w	r2, r0, r1
/home/lubuntu/Dokument/GitHub/STM32-Computer/Firmware/STM32-Computer-Firmware/CA7/optee-os-3.19.0-r2/optee-os-stm32mp-3.19.0-stm32mp-r2/lib/libutils/ext/snprintk.c:495
     a22:	f425 6580 	bic.w	r5, r5, #1024	@ 0x400
/home/lubuntu/Dokument/GitHub/STM32-Computer/Firmware/STM32-Computer-Firmware/CA7/optee-os-3.19.0-r2/optee-os-stm32mp-3.19.0-stm32mp-r2/lib/libutils/ext/snprintk.c:503
     a26:	f47f ae78 	bne.w	71a <kprintf.constprop.0+0x25a>
     a2a:	f1ba 0f00 	cmp.w	sl, #0
     a2e:	f47f ae74 	bne.w	71a <kprintf.constprop.0+0x25a>
/home/lubuntu/Dokument/GitHub/STM32-Computer/Firmware/STM32-Computer-Firmware/CA7/optee-os-3.19.0-r2/optee-os-stm32mp-3.19.0-stm32mp-r2/lib/libutils/ext/snprintk.c:502
     a32:	f10d 096d 	add.w	r9, sp, #109	@ 0x6d
     a36:	e68e      	b.n	756 <kprintf.constprop.0+0x296>
/home/lubuntu/Dokument/GitHub/STM32-Computer/Firmware/STM32-Computer-Firmware/CA7/optee-os-3.19.0-r2/optee-os-stm32mp-3.19.0-stm32mp-r2/lib/libutils/ext/snprintk.c:494
     a38:	2301      	movs	r3, #1
     a3a:	e7f0      	b.n	a1e <kprintf.constprop.0+0x55e>
/home/lubuntu/Dokument/GitHub/STM32-Computer/Firmware/STM32-Computer-Firmware/CA7/optee-os-3.19.0-r2/optee-os-stm32mp-3.19.0-stm32mp-r2/lib/libutils/ext/snprintk.c:523
     a3c:	220a      	movs	r2, #10
     a3e:	2300      	movs	r3, #0
     a40:	f000 e8c6 	blx	bd0 <__aeabi_uldivmod>
     a44:	9b10      	ldr	r3, [sp, #64]	@ 0x40
     a46:	3230      	adds	r2, #48	@ 0x30
     a48:	f8cd 9040 	str.w	r9, [sp, #64]	@ 0x40
     a4c:	f803 2c01 	strb.w	r2, [r3, #-1]
/home/lubuntu/Dokument/GitHub/STM32-Computer/Firmware/STM32-Computer-Firmware/CA7/optee-os-3.19.0-r2/optee-os-stm32mp-3.19.0-stm32mp-r2/lib/libutils/ext/snprintk.c:524
     a50:	e785      	b.n	95e <kprintf.constprop.0+0x49e>
/home/lubuntu/Dokument/GitHub/STM32-Computer/Firmware/STM32-Computer-Firmware/CA7/optee-os-3.19.0-r2/optee-os-stm32mp-3.19.0-stm32mp-r2/lib/libutils/ext/snprintk.c:547
     a52:	9a0b      	ldr	r2, [sp, #44]	@ 0x2c
     a54:	2a00      	cmp	r2, #0
     a56:	f47f ade2 	bne.w	61e <kprintf.constprop.0+0x15e>
     a5a:	e546      	b.n	4ea <kprintf.constprop.0+0x2a>
/home/lubuntu/Dokument/GitHub/STM32-Computer/Firmware/STM32-Computer-Firmware/CA7/optee-os-3.19.0-r2/optee-os-stm32mp-3.19.0-stm32mp-r2/lib/libutils/ext/snprintk.c:574
     a5c:	07a9      	lsls	r1, r5, #30
/home/lubuntu/Dokument/GitHub/STM32-Computer/Firmware/STM32-Computer-Firmware/CA7/optee-os-3.19.0-r2/optee-os-stm32mp-3.19.0-stm32mp-r2/lib/libutils/ext/snprintk.c:578
     a5e:	990c      	ldr	r1, [sp, #48]	@ 0x30
/home/lubuntu/Dokument/GitHub/STM32-Computer/Firmware/STM32-Computer-Firmware/CA7/optee-os-3.19.0-r2/optee-os-stm32mp-3.19.0-stm32mp-r2/lib/libutils/ext/snprintk.c:575
     a60:	bf48      	it	mi
     a62:	3202      	addmi	r2, #2
/home/lubuntu/Dokument/GitHub/STM32-Computer/Firmware/STM32-Computer-Firmware/CA7/optee-os-3.19.0-r2/optee-os-stm32mp-3.19.0-stm32mp-r2/lib/libutils/ext/snprintk.c:578
     a64:	428a      	cmp	r2, r1
     a66:	bfac      	ite	ge
     a68:	4493      	addge	fp, r2
     a6a:	448b      	addlt	fp, r1
/home/lubuntu/Dokument/GitHub/STM32-Computer/Firmware/STM32-Computer-Firmware/CA7/optee-os-3.19.0-r2/optee-os-stm32mp-3.19.0-stm32mp-r2/lib/libutils/ext/snprintk.c:581
     a6c:	2b00      	cmp	r3, #0
     a6e:	f43f ae8b 	beq.w	788 <kprintf.constprop.0+0x2c8>
/home/lubuntu/Dokument/GitHub/STM32-Computer/Firmware/STM32-Computer-Firmware/CA7/optee-os-3.19.0-r2/optee-os-stm32mp-3.19.0-stm32mp-r2/lib/libutils/ext/snprintk.c:590
     a72:	07a9      	lsls	r1, r5, #30
     a74:	d55c      	bpl.n	b30 <kprintf.constprop.0+0x670>
/home/lubuntu/Dokument/GitHub/STM32-Computer/Firmware/STM32-Computer-Firmware/CA7/optee-os-3.19.0-r2/optee-os-stm32mp-3.19.0-stm32mp-r2/lib/libutils/ext/snprintk.c:591
     a76:	2c00      	cmp	r4, #0
     a78:	d05a      	beq.n	b30 <kprintf.constprop.0+0x670>
     a7a:	990d      	ldr	r1, [sp, #52]	@ 0x34
     a7c:	2900      	cmp	r1, #0
     a7e:	d06c      	beq.n	b5a <kprintf.constprop.0+0x69a>
     a80:	990e      	ldr	r1, [sp, #56]	@ 0x38
     a82:	42a1      	cmp	r1, r4
     a84:	d954      	bls.n	b30 <kprintf.constprop.0+0x670>
     a86:	2130      	movs	r1, #48	@ 0x30
     a88:	f804 1b01 	strb.w	r1, [r4], #1
/home/lubuntu/Dokument/GitHub/STM32-Computer/Firmware/STM32-Computer-Firmware/CA7/optee-os-3.19.0-r2/optee-os-stm32mp-3.19.0-stm32mp-r2/lib/libutils/ext/snprintk.c:592
     a8c:	990e      	ldr	r1, [sp, #56]	@ 0x38
     a8e:	42a1      	cmp	r1, r4
     a90:	d94e      	bls.n	b30 <kprintf.constprop.0+0x670>
     a92:	990b      	ldr	r1, [sp, #44]	@ 0x2c
     a94:	f804 1b01 	strb.w	r1, [r4], #1
     a98:	e04a      	b.n	b30 <kprintf.constprop.0+0x670>
/home/lubuntu/Dokument/GitHub/STM32-Computer/Firmware/STM32-Computer-Firmware/CA7/optee-os-3.19.0-r2/optee-os-stm32mp-3.19.0-stm32mp-r2/lib/libutils/ext/snprintk.c:584
     a9a:	2c00      	cmp	r4, #0
     a9c:	d045      	beq.n	b2a <kprintf.constprop.0+0x66a>
     a9e:	990d      	ldr	r1, [sp, #52]	@ 0x34
     aa0:	b111      	cbz	r1, aa8 <kprintf.constprop.0+0x5e8>
     aa2:	990e      	ldr	r1, [sp, #56]	@ 0x38
     aa4:	42a1      	cmp	r1, r4
     aa6:	d940      	bls.n	b2a <kprintf.constprop.0+0x66a>
/home/lubuntu/Dokument/GitHub/STM32-Computer/Firmware/STM32-Computer-Firmware/CA7/optee-os-3.19.0-r2/optee-os-stm32mp-3.19.0-stm32mp-r2/lib/libutils/ext/snprintk.c:583
     aa8:	3b01      	subs	r3, #1
/home/lubuntu/Dokument/GitHub/STM32-Computer/Firmware/STM32-Computer-Firmware/CA7/optee-os-3.19.0-r2/optee-os-stm32mp-3.19.0-stm32mp-r2/lib/libutils/ext/snprintk.c:584
     aaa:	f04f 0120 	mov.w	r1, #32
     aae:	f804 1b01 	strb.w	r1, [r4], #1
/home/lubuntu/Dokument/GitHub/STM32-Computer/Firmware/STM32-Computer-Firmware/CA7/optee-os-3.19.0-r2/optee-os-stm32mp-3.19.0-stm32mp-r2/lib/libutils/ext/snprintk.c:583
     ab2:	d1f4      	bne.n	a9e <kprintf.constprop.0+0x5de>
/home/lubuntu/Dokument/GitHub/STM32-Computer/Firmware/STM32-Computer-Firmware/CA7/optee-os-3.19.0-r2/optee-os-stm32mp-3.19.0-stm32mp-r2/lib/libutils/ext/snprintk.c:588
     ab4:	2f00      	cmp	r7, #0
     ab6:	d160      	bne.n	b7a <kprintf.constprop.0+0x6ba>
/home/lubuntu/Dokument/GitHub/STM32-Computer/Firmware/STM32-Computer-Firmware/CA7/optee-os-3.19.0-r2/optee-os-stm32mp-3.19.0-stm32mp-r2/lib/libutils/ext/snprintk.c:590
     ab8:	07ab      	lsls	r3, r5, #30
     aba:	d44c      	bmi.n	b56 <kprintf.constprop.0+0x696>
/home/lubuntu/Dokument/GitHub/STM32-Computer/Firmware/STM32-Computer-Firmware/CA7/optee-os-3.19.0-r2/optee-os-stm32mp-3.19.0-stm32mp-r2/lib/libutils/ext/snprintk.c:603
     abc:	eba0 000a 	sub.w	r0, r0, sl
/home/lubuntu/Dokument/GitHub/STM32-Computer/Firmware/STM32-Computer-Firmware/CA7/optee-os-3.19.0-r2/optee-os-stm32mp-3.19.0-stm32mp-r2/lib/libutils/ext/snprintk.c:604
     ac0:	2800      	cmp	r0, #0
     ac2:	dd0b      	ble.n	adc <kprintf.constprop.0+0x61c>
/home/lubuntu/Dokument/GitHub/STM32-Computer/Firmware/STM32-Computer-Firmware/CA7/optee-os-3.19.0-r2/optee-os-stm32mp-3.19.0-stm32mp-r2/lib/libutils/ext/snprintk.c:605
     ac4:	2c00      	cmp	r4, #0
     ac6:	d04e      	beq.n	b66 <kprintf.constprop.0+0x6a6>
     ac8:	2330      	movs	r3, #48	@ 0x30
     aca:	990d      	ldr	r1, [sp, #52]	@ 0x34
     acc:	b111      	cbz	r1, ad4 <kprintf.constprop.0+0x614>
     ace:	990e      	ldr	r1, [sp, #56]	@ 0x38
     ad0:	42a1      	cmp	r1, r4
     ad2:	d948      	bls.n	b66 <kprintf.constprop.0+0x6a6>
     ad4:	f804 3b01 	strb.w	r3, [r4], #1
/home/lubuntu/Dokument/GitHub/STM32-Computer/Firmware/STM32-Computer-Firmware/CA7/optee-os-3.19.0-r2/optee-os-stm32mp-3.19.0-stm32mp-r2/lib/libutils/ext/snprintk.c:604
     ad8:	3801      	subs	r0, #1
     ada:	d1f6      	bne.n	aca <kprintf.constprop.0+0x60a>
     adc:	44ca      	add	sl, r9
/home/lubuntu/Dokument/GitHub/STM32-Computer/Firmware/STM32-Computer-Firmware/CA7/optee-os-3.19.0-r2/optee-os-stm32mp-3.19.0-stm32mp-r2/lib/libutils/ext/snprintk.c:608
     ade:	45d1      	cmp	r9, sl
     ae0:	d00c      	beq.n	afc <kprintf.constprop.0+0x63c>
/home/lubuntu/Dokument/GitHub/STM32-Computer/Firmware/STM32-Computer-Firmware/CA7/optee-os-3.19.0-r2/optee-os-stm32mp-3.19.0-stm32mp-r2/lib/libutils/ext/snprintk.c:609
     ae2:	2c00      	cmp	r4, #0
     ae4:	d041      	beq.n	b6a <kprintf.constprop.0+0x6aa>
     ae6:	9b0d      	ldr	r3, [sp, #52]	@ 0x34
     ae8:	b113      	cbz	r3, af0 <kprintf.constprop.0+0x630>
     aea:	9b0e      	ldr	r3, [sp, #56]	@ 0x38
     aec:	42a3      	cmp	r3, r4
     aee:	d93c      	bls.n	b6a <kprintf.constprop.0+0x6aa>
     af0:	f819 3b01 	ldrb.w	r3, [r9], #1
/home/lubuntu/Dokument/GitHub/STM32-Computer/Firmware/STM32-Computer-Firmware/CA7/optee-os-3.19.0-r2/optee-os-stm32mp-3.19.0-stm32mp-r2/lib/libutils/ext/snprintk.c:608
     af4:	45d1      	cmp	r9, sl
/home/lubuntu/Dokument/GitHub/STM32-Computer/Firmware/STM32-Computer-Firmware/CA7/optee-os-3.19.0-r2/optee-os-stm32mp-3.19.0-stm32mp-r2/lib/libutils/ext/snprintk.c:609
     af6:	f804 3b01 	strb.w	r3, [r4], #1
/home/lubuntu/Dokument/GitHub/STM32-Computer/Firmware/STM32-Computer-Firmware/CA7/optee-os-3.19.0-r2/optee-os-stm32mp-3.19.0-stm32mp-r2/lib/libutils/ext/snprintk.c:608
     afa:	d1f4      	bne.n	ae6 <kprintf.constprop.0+0x626>
/home/lubuntu/Dokument/GitHub/STM32-Computer/Firmware/STM32-Computer-Firmware/CA7/optee-os-3.19.0-r2/optee-os-stm32mp-3.19.0-stm32mp-r2/lib/libutils/ext/snprintk.c:611
     afc:	076b      	lsls	r3, r5, #29
     afe:	f57f acef 	bpl.w	4e0 <kprintf.constprop.0+0x20>
/home/lubuntu/Dokument/GitHub/STM32-Computer/Firmware/STM32-Computer-Firmware/CA7/optee-os-3.19.0-r2/optee-os-stm32mp-3.19.0-stm32mp-r2/lib/libutils/ext/snprintk.c:612
     b02:	9b0c      	ldr	r3, [sp, #48]	@ 0x30
     b04:	1a9b      	subs	r3, r3, r2
/home/lubuntu/Dokument/GitHub/STM32-Computer/Firmware/STM32-Computer-Firmware/CA7/optee-os-3.19.0-r2/optee-os-stm32mp-3.19.0-stm32mp-r2/lib/libutils/ext/snprintk.c:613
     b06:	2b00      	cmp	r3, #0
     b08:	f77f acea 	ble.w	4e0 <kprintf.constprop.0+0x20>
/home/lubuntu/Dokument/GitHub/STM32-Computer/Firmware/STM32-Computer-Firmware/CA7/optee-os-3.19.0-r2/optee-os-stm32mp-3.19.0-stm32mp-r2/lib/libutils/ext/snprintk.c:614
     b0c:	b384      	cbz	r4, b70 <kprintf.constprop.0+0x6b0>
     b0e:	990d      	ldr	r1, [sp, #52]	@ 0x34
     b10:	4622      	mov	r2, r4
     b12:	b111      	cbz	r1, b1a <kprintf.constprop.0+0x65a>
     b14:	990e      	ldr	r1, [sp, #56]	@ 0x38
     b16:	42a1      	cmp	r1, r4
     b18:	d92a      	bls.n	b70 <kprintf.constprop.0+0x6b0>
/home/lubuntu/Dokument/GitHub/STM32-Computer/Firmware/STM32-Computer-Firmware/CA7/optee-os-3.19.0-r2/optee-os-stm32mp-3.19.0-stm32mp-r2/lib/libutils/ext/snprintk.c:613
     b1a:	3b01      	subs	r3, #1
/home/lubuntu/Dokument/GitHub/STM32-Computer/Firmware/STM32-Computer-Firmware/CA7/optee-os-3.19.0-r2/optee-os-stm32mp-3.19.0-stm32mp-r2/lib/libutils/ext/snprintk.c:614
     b1c:	f04f 0120 	mov.w	r1, #32
     b20:	7011      	strb	r1, [r2, #0]
     b22:	f104 0401 	add.w	r4, r4, #1
/home/lubuntu/Dokument/GitHub/STM32-Computer/Firmware/STM32-Computer-Firmware/CA7/optee-os-3.19.0-r2/optee-os-stm32mp-3.19.0-stm32mp-r2/lib/libutils/ext/snprintk.c:613
     b26:	d1f2      	bne.n	b0e <kprintf.constprop.0+0x64e>
     b28:	e4da      	b.n	4e0 <kprintf.constprop.0+0x20>
     b2a:	3b01      	subs	r3, #1
     b2c:	e62e      	b.n	78c <kprintf.constprop.0+0x2cc>
/home/lubuntu/Dokument/GitHub/STM32-Computer/Firmware/STM32-Computer-Firmware/CA7/optee-os-3.19.0-r2/optee-os-stm32mp-3.19.0-stm32mp-r2/lib/libutils/ext/snprintk.c:589
     b2e:	bb24      	cbnz	r4, b7a <kprintf.constprop.0+0x6ba>
/home/lubuntu/Dokument/GitHub/STM32-Computer/Firmware/STM32-Computer-Firmware/CA7/optee-os-3.19.0-r2/optee-os-stm32mp-3.19.0-stm32mp-r2/lib/libutils/ext/snprintk.c:596
     b30:	f5b3 6f80 	cmp.w	r3, #1024	@ 0x400
     b34:	d1c2      	bne.n	abc <kprintf.constprop.0+0x5fc>
/home/lubuntu/Dokument/GitHub/STM32-Computer/Firmware/STM32-Computer-Firmware/CA7/optee-os-3.19.0-r2/optee-os-stm32mp-3.19.0-stm32mp-r2/lib/libutils/ext/snprintk.c:597
     b36:	9b0c      	ldr	r3, [sp, #48]	@ 0x30
     b38:	1a9b      	subs	r3, r3, r2
/home/lubuntu/Dokument/GitHub/STM32-Computer/Firmware/STM32-Computer-Firmware/CA7/optee-os-3.19.0-r2/optee-os-stm32mp-3.19.0-stm32mp-r2/lib/libutils/ext/snprintk.c:598
     b3a:	2b00      	cmp	r3, #0
     b3c:	ddbe      	ble.n	abc <kprintf.constprop.0+0x5fc>
/home/lubuntu/Dokument/GitHub/STM32-Computer/Firmware/STM32-Computer-Firmware/CA7/optee-os-3.19.0-r2/optee-os-stm32mp-3.19.0-stm32mp-r2/lib/libutils/ext/snprintk.c:599
     b3e:	b184      	cbz	r4, b62 <kprintf.constprop.0+0x6a2>
     b40:	2130      	movs	r1, #48	@ 0x30
     b42:	9f0d      	ldr	r7, [sp, #52]	@ 0x34
     b44:	b117      	cbz	r7, b4c <kprintf.constprop.0+0x68c>
     b46:	9f0e      	ldr	r7, [sp, #56]	@ 0x38
     b48:	42a7      	cmp	r7, r4
     b4a:	d90a      	bls.n	b62 <kprintf.constprop.0+0x6a2>
     b4c:	f804 1b01 	strb.w	r1, [r4], #1
/home/lubuntu/Dokument/GitHub/STM32-Computer/Firmware/STM32-Computer-Firmware/CA7/optee-os-3.19.0-r2/optee-os-stm32mp-3.19.0-stm32mp-r2/lib/libutils/ext/snprintk.c:598
     b50:	3b01      	subs	r3, #1
     b52:	d1f6      	bne.n	b42 <kprintf.constprop.0+0x682>
     b54:	e7b2      	b.n	abc <kprintf.constprop.0+0x5fc>
/home/lubuntu/Dokument/GitHub/STM32-Computer/Firmware/STM32-Computer-Firmware/CA7/optee-os-3.19.0-r2/optee-os-stm32mp-3.19.0-stm32mp-r2/lib/libutils/ext/snprintk.c:590
     b56:	463b      	mov	r3, r7
     b58:	e78f      	b.n	a7a <kprintf.constprop.0+0x5ba>
/home/lubuntu/Dokument/GitHub/STM32-Computer/Firmware/STM32-Computer-Firmware/CA7/optee-os-3.19.0-r2/optee-os-stm32mp-3.19.0-stm32mp-r2/lib/libutils/ext/snprintk.c:591
     b5a:	2130      	movs	r1, #48	@ 0x30
     b5c:	f804 1b01 	strb.w	r1, [r4], #1
/home/lubuntu/Dokument/GitHub/STM32-Computer/Firmware/STM32-Computer-Firmware/CA7/optee-os-3.19.0-r2/optee-os-stm32mp-3.19.0-stm32mp-r2/lib/libutils/ext/snprintk.c:592
     b60:	e797      	b.n	a92 <kprintf.constprop.0+0x5d2>
     b62:	3b01      	subs	r3, #1
     b64:	e7e9      	b.n	b3a <kprintf.constprop.0+0x67a>
     b66:	3801      	subs	r0, #1
     b68:	e7aa      	b.n	ac0 <kprintf.constprop.0+0x600>
/home/lubuntu/Dokument/GitHub/STM32-Computer/Firmware/STM32-Computer-Firmware/CA7/optee-os-3.19.0-r2/optee-os-stm32mp-3.19.0-stm32mp-r2/lib/libutils/ext/snprintk.c:608
     b6a:	f109 0901 	add.w	r9, r9, #1
     b6e:	e7b6      	b.n	ade <kprintf.constprop.0+0x61e>
     b70:	3b01      	subs	r3, #1
     b72:	e7c8      	b.n	b06 <kprintf.constprop.0+0x646>
/home/lubuntu/Dokument/GitHub/STM32-Computer/Firmware/STM32-Computer-Firmware/CA7/optee-os-3.19.0-r2/optee-os-stm32mp-3.19.0-stm32mp-r2/lib/libutils/ext/snprintk.c:589
     b74:	2c00      	cmp	r4, #0
     b76:	d0a1      	beq.n	abc <kprintf.constprop.0+0x5fc>
     b78:	2300      	movs	r3, #0
     b7a:	990d      	ldr	r1, [sp, #52]	@ 0x34
     b7c:	b111      	cbz	r1, b84 <kprintf.constprop.0+0x6c4>
     b7e:	990e      	ldr	r1, [sp, #56]	@ 0x38
     b80:	42a1      	cmp	r1, r4
     b82:	d9d5      	bls.n	b30 <kprintf.constprop.0+0x670>
     b84:	f804 7b01 	strb.w	r7, [r4], #1
     b88:	e7d2      	b.n	b30 <kprintf.constprop.0+0x670>
     b8a:	bf00      	nop
     b8c:	00009a83 	.word	0x00009a83
     b90:	000097bc 	.word	0x000097bc
     b94:	000097b5 	.word	0x000097b5
     b98:	00009739 	.word	0x00009739
     b9c:	000096b9 	.word	0x000096b9

00000ba0 <__vsprintf>:
__vsprintf():
/home/lubuntu/Dokument/GitHub/STM32-Computer/Firmware/STM32-Computer-Firmware/CA7/optee-os-3.19.0-r2/optee-os-stm32mp-3.19.0-stm32mp-r2/lib/libutils/ext/snprintk.c:155
     ba0:	b513      	push	{r0, r1, r4, lr}
     ba2:	4604      	mov	r4, r0
     ba4:	4608      	mov	r0, r1
/home/lubuntu/Dokument/GitHub/STM32-Computer/Firmware/STM32-Computer-Firmware/CA7/optee-os-3.19.0-r2/optee-os-stm32mp-3.19.0-stm32mp-r2/lib/libutils/ext/snprintk.c:156
     ba6:	2100      	movs	r1, #0
     ba8:	9100      	str	r1, [sp, #0]
/home/lubuntu/Dokument/GitHub/STM32-Computer/Firmware/STM32-Computer-Firmware/CA7/optee-os-3.19.0-r2/optee-os-stm32mp-3.19.0-stm32mp-r2/lib/libutils/ext/snprintk.c:155
     baa:	4613      	mov	r3, r2
/home/lubuntu/Dokument/GitHub/STM32-Computer/Firmware/STM32-Computer-Firmware/CA7/optee-os-3.19.0-r2/optee-os-stm32mp-3.19.0-stm32mp-r2/lib/libutils/ext/snprintk.c:156
     bac:	4622      	mov	r2, r4
     bae:	f7ff fc87 	bl	4c0 <kprintf.constprop.0>
/home/lubuntu/Dokument/GitHub/STM32-Computer/Firmware/STM32-Computer-Firmware/CA7/optee-os-3.19.0-r2/optee-os-stm32mp-3.19.0-stm32mp-r2/lib/libutils/ext/snprintk.c:157
     bb2:	b002      	add	sp, #8
     bb4:	bd10      	pop	{r4, pc}
     bb6:	bf00      	nop

00000bb8 <__aeabi_ldivmod>:
__aeabi_ldivmod():
/home/lubuntu/Dokument/GitHub/STM32-Computer/Firmware/STM32-Computer-Firmware/CA7/optee-os-3.19.0-r2/optee-os-stm32mp-3.19.0-stm32mp-r2/lib/libutils/isoc/arch/arm/arm32_aeabi_ldivmod_a32.S:14
     bb8:	e92d5000 	push	{ip, lr}
/home/lubuntu/Dokument/GitHub/STM32-Computer/Firmware/STM32-Computer-Firmware/CA7/optee-os-3.19.0-r2/optee-os-stm32mp-3.19.0-stm32mp-r2/lib/libutils/isoc/arch/arm/arm32_aeabi_ldivmod_a32.S:16
     bbc:	e92d000f 	push	{r0, r1, r2, r3}
/home/lubuntu/Dokument/GitHub/STM32-Computer/Firmware/STM32-Computer-Firmware/CA7/optee-os-3.19.0-r2/optee-os-stm32mp-3.19.0-stm32mp-r2/lib/libutils/isoc/arch/arm/arm32_aeabi_ldivmod_a32.S:18
     bc0:	e1a0000d 	mov	r0, sp
/home/lubuntu/Dokument/GitHub/STM32-Computer/Firmware/STM32-Computer-Firmware/CA7/optee-os-3.19.0-r2/optee-os-stm32mp-3.19.0-stm32mp-r2/lib/libutils/isoc/arch/arm/arm32_aeabi_ldivmod_a32.S:19
     bc4:	fb002296 	blx	9626 <__l_divmod>
/home/lubuntu/Dokument/GitHub/STM32-Computer/Firmware/STM32-Computer-Firmware/CA7/optee-os-3.19.0-r2/optee-os-stm32mp-3.19.0-stm32mp-r2/lib/libutils/isoc/arch/arm/arm32_aeabi_ldivmod_a32.S:20
     bc8:	e8bd000f 	pop	{r0, r1, r2, r3}
/home/lubuntu/Dokument/GitHub/STM32-Computer/Firmware/STM32-Computer-Firmware/CA7/optee-os-3.19.0-r2/optee-os-stm32mp-3.19.0-stm32mp-r2/lib/libutils/isoc/arch/arm/arm32_aeabi_ldivmod_a32.S:21
     bcc:	e8bd9000 	pop	{ip, pc}

00000bd0 <__aeabi_uldivmod>:
__aeabi_uldivmod():
/home/lubuntu/Dokument/GitHub/STM32-Computer/Firmware/STM32-Computer-Firmware/CA7/optee-os-3.19.0-r2/optee-os-stm32mp-3.19.0-stm32mp-r2/lib/libutils/isoc/arch/arm/arm32_aeabi_ldivmod_a32.S:29
     bd0:	e92d5000 	push	{ip, lr}
/home/lubuntu/Dokument/GitHub/STM32-Computer/Firmware/STM32-Computer-Firmware/CA7/optee-os-3.19.0-r2/optee-os-stm32mp-3.19.0-stm32mp-r2/lib/libutils/isoc/arch/arm/arm32_aeabi_ldivmod_a32.S:31
     bd4:	e92d000f 	push	{r0, r1, r2, r3}
/home/lubuntu/Dokument/GitHub/STM32-Computer/Firmware/STM32-Computer-Firmware/CA7/optee-os-3.19.0-r2/optee-os-stm32mp-3.19.0-stm32mp-r2/lib/libutils/isoc/arch/arm/arm32_aeabi_ldivmod_a32.S:33
     bd8:	e1a0000d 	mov	r0, sp
/home/lubuntu/Dokument/GitHub/STM32-Computer/Firmware/STM32-Computer-Firmware/CA7/optee-os-3.19.0-r2/optee-os-stm32mp-3.19.0-stm32mp-r2/lib/libutils/isoc/arch/arm/arm32_aeabi_ldivmod_a32.S:34
     bdc:	fa002282 	blx	95ec <__ul_divmod>
/home/lubuntu/Dokument/GitHub/STM32-Computer/Firmware/STM32-Computer-Firmware/CA7/optee-os-3.19.0-r2/optee-os-stm32mp-3.19.0-stm32mp-r2/lib/libutils/isoc/arch/arm/arm32_aeabi_ldivmod_a32.S:35
     be0:	e8bd000f 	pop	{r0, r1, r2, r3}
/home/lubuntu/Dokument/GitHub/STM32-Computer/Firmware/STM32-Computer-Firmware/CA7/optee-os-3.19.0-r2/optee-os-stm32mp-3.19.0-stm32mp-r2/lib/libutils/isoc/arch/arm/arm32_aeabi_ldivmod_a32.S:36
     be4:	e8bd9000 	pop	{ip, pc}

00000be8 <trace_ext_puts>:
trace_ext_puts():
/home/lubuntu/Dokument/GitHub/STM32-Computer/Firmware/STM32-Computer-Firmware/CA7/optee-os-3.19.0-r2/optee-os-stm32mp-3.19.0-stm32mp-r2/lib/libutee/trace_ext.c:22
     be8:	b510      	push	{r4, lr}
     bea:	4604      	mov	r4, r0
/home/lubuntu/Dokument/GitHub/STM32-Computer/Firmware/STM32-Computer-Firmware/CA7/optee-os-3.19.0-r2/optee-os-stm32mp-3.19.0-stm32mp-r2/lib/libutee/trace_ext.c:26
     bec:	f008 fcb1 	bl	9552 <strlen>
     bf0:	4601      	mov	r1, r0
     bf2:	4620      	mov	r0, r4
/home/lubuntu/Dokument/GitHub/STM32-Computer/Firmware/STM32-Computer-Firmware/CA7/optee-os-3.19.0-r2/optee-os-stm32mp-3.19.0-stm32mp-r2/lib/libutee/trace_ext.c:28
     bf4:	e8bd 4010 	ldmia.w	sp!, {r4, lr}
/home/lubuntu/Dokument/GitHub/STM32-Computer/Firmware/STM32-Computer-Firmware/CA7/optee-os-3.19.0-r2/optee-os-stm32mp-3.19.0-stm32mp-r2/lib/libutee/trace_ext.c:26
     bf8:	f008 bffa 	b.w	9bf0 <___utee_log_from_thumb>

00000bfc <trace_ext_get_thread_id>:
trace_ext_get_thread_id():
/home/lubuntu/Dokument/GitHub/STM32-Computer/Firmware/STM32-Computer-Firmware/CA7/optee-os-3.19.0-r2/optee-os-stm32mp-3.19.0-stm32mp-r2/lib/libutee/trace_ext.c:33
     bfc:	f04f 30ff 	mov.w	r0, #4294967295	@ 0xffffffff
     c00:	4770      	bx	lr

00000c02 <printf>:
printf():
/home/lubuntu/Dokument/GitHub/STM32-Computer/Firmware/STM32-Computer-Firmware/CA7/optee-os-3.19.0-r2/optee-os-stm32mp-3.19.0-stm32mp-r2/lib/libutee/trace_ext.c:41
     c02:	b40f      	push	{r0, r1, r2, r3}
     c04:	b530      	push	{r4, r5, lr}
     c06:	b0c3      	sub	sp, #268	@ 0x10c
/home/lubuntu/Dokument/GitHub/STM32-Computer/Firmware/STM32-Computer-Firmware/CA7/optee-os-3.19.0-r2/optee-os-stm32mp-3.19.0-stm32mp-r2/lib/libutee/trace_ext.c:46
     c08:	f7ff fb7a 	bl	300 <trace_get_level>
     c0c:	2800      	cmp	r0, #0
     c0e:	dd13      	ble.n	c38 <printf+0x36>
/home/lubuntu/Dokument/GitHub/STM32-Computer/Firmware/STM32-Computer-Firmware/CA7/optee-os-3.19.0-r2/optee-os-stm32mp-3.19.0-stm32mp-r2/lib/libutee/trace_ext.c:50
     c10:	9a46      	ldr	r2, [sp, #280]	@ 0x118
     c12:	ad02      	add	r5, sp, #8
/home/lubuntu/Dokument/GitHub/STM32-Computer/Firmware/STM32-Computer-Firmware/CA7/optee-os-3.19.0-r2/optee-os-stm32mp-3.19.0-stm32mp-r2/lib/libutee/trace_ext.c:49
     c14:	ab47      	add	r3, sp, #284	@ 0x11c
/home/lubuntu/Dokument/GitHub/STM32-Computer/Firmware/STM32-Computer-Firmware/CA7/optee-os-3.19.0-r2/optee-os-stm32mp-3.19.0-stm32mp-r2/lib/libutee/trace_ext.c:50
     c16:	f44f 7180 	mov.w	r1, #256	@ 0x100
/home/lubuntu/Dokument/GitHub/STM32-Computer/Firmware/STM32-Computer-Firmware/CA7/optee-os-3.19.0-r2/optee-os-stm32mp-3.19.0-stm32mp-r2/lib/libutee/trace_ext.c:49
     c1a:	9301      	str	r3, [sp, #4]
/home/lubuntu/Dokument/GitHub/STM32-Computer/Firmware/STM32-Computer-Firmware/CA7/optee-os-3.19.0-r2/optee-os-stm32mp-3.19.0-stm32mp-r2/lib/libutee/trace_ext.c:50
     c1c:	4628      	mov	r0, r5
     c1e:	f008 ff71 	bl	9b04 <vsnprintf>
/home/lubuntu/Dokument/GitHub/STM32-Computer/Firmware/STM32-Computer-Firmware/CA7/optee-os-3.19.0-r2/optee-os-stm32mp-3.19.0-stm32mp-r2/lib/libutee/trace_ext.c:53
     c22:	1e04      	subs	r4, r0, #0
     c24:	db02      	blt.n	c2c <printf+0x2a>
/home/lubuntu/Dokument/GitHub/STM32-Computer/Firmware/STM32-Computer-Firmware/CA7/optee-os-3.19.0-r2/optee-os-stm32mp-3.19.0-stm32mp-r2/lib/libutee/trace_ext.c:56
     c26:	4628      	mov	r0, r5
     c28:	f7ff ffde 	bl	be8 <trace_ext_puts>
/home/lubuntu/Dokument/GitHub/STM32-Computer/Firmware/STM32-Computer-Firmware/CA7/optee-os-3.19.0-r2/optee-os-stm32mp-3.19.0-stm32mp-r2/lib/libutee/trace_ext.c:59
     c2c:	4620      	mov	r0, r4
     c2e:	b043      	add	sp, #268	@ 0x10c
     c30:	e8bd 4030 	ldmia.w	sp!, {r4, r5, lr}
     c34:	b004      	add	sp, #16
     c36:	4770      	bx	lr
/home/lubuntu/Dokument/GitHub/STM32-Computer/Firmware/STM32-Computer-Firmware/CA7/optee-os-3.19.0-r2/optee-os-stm32mp-3.19.0-stm32mp-r2/lib/libutee/trace_ext.c:47
     c38:	2400      	movs	r4, #0
     c3a:	e7f7      	b.n	c2c <printf+0x2a>

00000c3c <puts>:
puts():
/home/lubuntu/Dokument/GitHub/STM32-Computer/Firmware/STM32-Computer-Firmware/CA7/optee-os-3.19.0-r2/optee-os-stm32mp-3.19.0-stm32mp-r2/lib/libutee/trace_ext.c:62
     c3c:	b510      	push	{r4, lr}
     c3e:	4604      	mov	r4, r0
/home/lubuntu/Dokument/GitHub/STM32-Computer/Firmware/STM32-Computer-Firmware/CA7/optee-os-3.19.0-r2/optee-os-stm32mp-3.19.0-stm32mp-r2/lib/libutee/trace_ext.c:63
     c40:	f7ff fb5e 	bl	300 <trace_get_level>
     c44:	2800      	cmp	r0, #0
     c46:	dd06      	ble.n	c56 <puts+0x1a>
/home/lubuntu/Dokument/GitHub/STM32-Computer/Firmware/STM32-Computer-Firmware/CA7/optee-os-3.19.0-r2/optee-os-stm32mp-3.19.0-stm32mp-r2/lib/libutee/trace_ext.c:64
     c48:	4620      	mov	r0, r4
     c4a:	f7ff ffcd 	bl	be8 <trace_ext_puts>
/home/lubuntu/Dokument/GitHub/STM32-Computer/Firmware/STM32-Computer-Firmware/CA7/optee-os-3.19.0-r2/optee-os-stm32mp-3.19.0-stm32mp-r2/lib/libutee/trace_ext.c:65
     c4e:	4803      	ldr	r0, [pc, #12]	@ (c5c <puts+0x20>)
     c50:	4478      	add	r0, pc
     c52:	f7ff ffc9 	bl	be8 <trace_ext_puts>
/home/lubuntu/Dokument/GitHub/STM32-Computer/Firmware/STM32-Computer-Firmware/CA7/optee-os-3.19.0-r2/optee-os-stm32mp-3.19.0-stm32mp-r2/lib/libutee/trace_ext.c:68
     c56:	2001      	movs	r0, #1
     c58:	bd10      	pop	{r4, pc}
     c5a:	bf00      	nop
     c5c:	00009d29 	.word	0x00009d29

00000c60 <putchar>:
putchar():
/home/lubuntu/Dokument/GitHub/STM32-Computer/Firmware/STM32-Computer-Firmware/CA7/optee-os-3.19.0-r2/optee-os-stm32mp-3.19.0-stm32mp-r2/lib/libutee/trace_ext.c:71
     c60:	b513      	push	{r0, r1, r4, lr}
/home/lubuntu/Dokument/GitHub/STM32-Computer/Firmware/STM32-Computer-Firmware/CA7/optee-os-3.19.0-r2/optee-os-stm32mp-3.19.0-stm32mp-r2/lib/libutee/trace_ext.c:72
     c62:	2300      	movs	r3, #0
     c64:	f88d 0004 	strb.w	r0, [sp, #4]
/home/lubuntu/Dokument/GitHub/STM32-Computer/Firmware/STM32-Computer-Firmware/CA7/optee-os-3.19.0-r2/optee-os-stm32mp-3.19.0-stm32mp-r2/lib/libutee/trace_ext.c:71
     c68:	4604      	mov	r4, r0
/home/lubuntu/Dokument/GitHub/STM32-Computer/Firmware/STM32-Computer-Firmware/CA7/optee-os-3.19.0-r2/optee-os-stm32mp-3.19.0-stm32mp-r2/lib/libutee/trace_ext.c:72
     c6a:	f88d 3005 	strb.w	r3, [sp, #5]
/home/lubuntu/Dokument/GitHub/STM32-Computer/Firmware/STM32-Computer-Firmware/CA7/optee-os-3.19.0-r2/optee-os-stm32mp-3.19.0-stm32mp-r2/lib/libutee/trace_ext.c:74
     c6e:	f7ff fb47 	bl	300 <trace_get_level>
     c72:	2800      	cmp	r0, #0
     c74:	dd02      	ble.n	c7c <putchar+0x1c>
/home/lubuntu/Dokument/GitHub/STM32-Computer/Firmware/STM32-Computer-Firmware/CA7/optee-os-3.19.0-r2/optee-os-stm32mp-3.19.0-stm32mp-r2/lib/libutee/trace_ext.c:75
     c76:	a801      	add	r0, sp, #4
     c78:	f7ff ffb6 	bl	be8 <trace_ext_puts>
/home/lubuntu/Dokument/GitHub/STM32-Computer/Firmware/STM32-Computer-Firmware/CA7/optee-os-3.19.0-r2/optee-os-stm32mp-3.19.0-stm32mp-r2/lib/libutee/trace_ext.c:82
     c7c:	b2e0      	uxtb	r0, r4
     c7e:	b002      	add	sp, #8
     c80:	bd10      	pop	{r4, pc}
     c82:	bf00      	nop

00000c84 <update_out_param>:
update_out_param():
/home/lubuntu/Dokument/GitHub/STM32-Computer/Firmware/STM32-Computer-Firmware/CA7/optee-os-3.19.0-r2/optee-os-stm32mp-3.19.0-stm32mp-r2/lib/libutee/tee_api.c:121
     c84:	e92d 47f0 	stmdb	sp!, {r4, r5, r6, r7, r8, r9, sl, lr}
     c88:	4607      	mov	r7, r0
/home/lubuntu/Dokument/GitHub/STM32-Computer/Firmware/STM32-Computer-Firmware/CA7/optee-os-3.19.0-r2/optee-os-stm32mp-3.19.0-stm32mp-r2/lib/libutee/tee_api.c:123
     c8a:	f8d2 a000 	ldr.w	sl, [r2]
/home/lubuntu/Dokument/GitHub/STM32-Computer/Firmware/STM32-Computer-Firmware/CA7/optee-os-3.19.0-r2/optee-os-stm32mp-3.19.0-stm32mp-r2/lib/libutee/tee_api.c:121
     c8e:	4688      	mov	r8, r1
     c90:	4614      	mov	r4, r2
     c92:	4606      	mov	r6, r0
/home/lubuntu/Dokument/GitHub/STM32-Computer/Firmware/STM32-Computer-Firmware/CA7/optee-os-3.19.0-r2/optee-os-stm32mp-3.19.0-stm32mp-r2/lib/libutee/tee_api.c:123
     c94:	2500      	movs	r5, #0
/home/lubuntu/Dokument/GitHub/STM32-Computer/Firmware/STM32-Computer-Firmware/CA7/optee-os-3.19.0-r2/optee-os-stm32mp-3.19.0-stm32mp-r2/lib/libutee/tee_api.c:129
     c96:	fa2a f205 	lsr.w	r2, sl, r5
/home/lubuntu/Dokument/GitHub/STM32-Computer/Firmware/STM32-Computer-Firmware/CA7/optee-os-3.19.0-r2/optee-os-stm32mp-3.19.0-stm32mp-r2/lib/libutee/tee_api.c:126
     c9a:	68a1      	ldr	r1, [r4, #8]
/home/lubuntu/Dokument/GitHub/STM32-Computer/Firmware/STM32-Computer-Firmware/CA7/optee-os-3.19.0-r2/optee-os-stm32mp-3.19.0-stm32mp-r2/lib/libutee/tee_api.c:129
     c9c:	f012 0f0c 	tst.w	r2, #12
/home/lubuntu/Dokument/GitHub/STM32-Computer/Firmware/STM32-Computer-Firmware/CA7/optee-os-3.19.0-r2/optee-os-stm32mp-3.19.0-stm32mp-r2/lib/libutee/tee_api.c:127
     ca0:	f8d4 9010 	ldr.w	r9, [r4, #16]
/home/lubuntu/Dokument/GitHub/STM32-Computer/Firmware/STM32-Computer-Firmware/CA7/optee-os-3.19.0-r2/optee-os-stm32mp-3.19.0-stm32mp-r2/lib/libutee/tee_api.c:129
     ca4:	f002 030f 	and.w	r3, r2, #15
     ca8:	d107      	bne.n	cba <update_out_param+0x36>
     caa:	f012 0f0e 	tst.w	r2, #14
     cae:	d007      	beq.n	cc0 <update_out_param+0x3c>
/home/lubuntu/Dokument/GitHub/STM32-Computer/Firmware/STM32-Computer-Firmware/CA7/optee-os-3.19.0-r2/optee-os-stm32mp-3.19.0-stm32mp-r2/lib/libutee/tee_api.c:126
     cb0:	f847 1015 	str.w	r1, [r7, r5, lsl #1]
/home/lubuntu/Dokument/GitHub/STM32-Computer/Firmware/STM32-Computer-Firmware/CA7/optee-os-3.19.0-r2/optee-os-stm32mp-3.19.0-stm32mp-r2/lib/libutee/tee_api.c:140
     cb4:	f8c6 9004 	str.w	r9, [r6, #4]
/home/lubuntu/Dokument/GitHub/STM32-Computer/Firmware/STM32-Computer-Firmware/CA7/optee-os-3.19.0-r2/optee-os-stm32mp-3.19.0-stm32mp-r2/lib/libutee/tee_api.c:141
     cb8:	e002      	b.n	cc0 <update_out_param+0x3c>
/home/lubuntu/Dokument/GitHub/STM32-Computer/Firmware/STM32-Computer-Firmware/CA7/optee-os-3.19.0-r2/optee-os-stm32mp-3.19.0-stm32mp-r2/lib/libutee/tee_api.c:129
     cba:	3b06      	subs	r3, #6
     cbc:	2b01      	cmp	r3, #1
     cbe:	d907      	bls.n	cd0 <update_out_param+0x4c>
/home/lubuntu/Dokument/GitHub/STM32-Computer/Firmware/STM32-Computer-Firmware/CA7/optee-os-3.19.0-r2/optee-os-stm32mp-3.19.0-stm32mp-r2/lib/libutee/tee_api.c:125 (discriminator 2)
     cc0:	3504      	adds	r5, #4
     cc2:	3410      	adds	r4, #16
     cc4:	2d10      	cmp	r5, #16
     cc6:	f106 0608 	add.w	r6, r6, #8
     cca:	d1e4      	bne.n	c96 <update_out_param+0x12>
/home/lubuntu/Dokument/GitHub/STM32-Computer/Firmware/STM32-Computer-Firmware/CA7/optee-os-3.19.0-r2/optee-os-stm32mp-3.19.0-stm32mp-r2/lib/libutee/tee_api.c:146
     ccc:	e8bd 87f0 	ldmia.w	sp!, {r4, r5, r6, r7, r8, r9, sl, pc}
/home/lubuntu/Dokument/GitHub/STM32-Computer/Firmware/STM32-Computer-Firmware/CA7/optee-os-3.19.0-r2/optee-os-stm32mp-3.19.0-stm32mp-r2/lib/libutee/tee_api.c:137
     cd0:	f858 1005 	ldr.w	r1, [r8, r5]
     cd4:	2900      	cmp	r1, #0
     cd6:	d0ed      	beq.n	cb4 <update_out_param+0x30>
/home/lubuntu/Dokument/GitHub/STM32-Computer/Firmware/STM32-Computer-Firmware/CA7/optee-os-3.19.0-r2/optee-os-stm32mp-3.19.0-stm32mp-r2/lib/libutee/tee_api.c:139
     cd8:	6872      	ldr	r2, [r6, #4]
/home/lubuntu/Dokument/GitHub/STM32-Computer/Firmware/STM32-Computer-Firmware/CA7/optee-os-3.19.0-r2/optee-os-stm32mp-3.19.0-stm32mp-r2/lib/libutee/tee_api.c:138
     cda:	f857 0015 	ldr.w	r0, [r7, r5, lsl #1]
     cde:	454a      	cmp	r2, r9
     ce0:	bf28      	it	cs
     ce2:	464a      	movcs	r2, r9
     ce4:	f006 f8c0 	bl	6e68 <memcpy>
     ce8:	e7e4      	b.n	cb4 <update_out_param+0x30>

00000cea <TEE_CloseTASession>:
TEE_CloseTASession():
/home/lubuntu/Dokument/GitHub/STM32-Computer/Firmware/STM32-Computer-Firmware/CA7/optee-os-3.19.0-r2/optee-os-stm32mp-3.19.0-stm32mp-r2/lib/libutee/tee_api.c:195
     cea:	b508      	push	{r3, lr}
/home/lubuntu/Dokument/GitHub/STM32-Computer/Firmware/STM32-Computer-Firmware/CA7/optee-os-3.19.0-r2/optee-os-stm32mp-3.19.0-stm32mp-r2/lib/libutee/tee_api.c:196
     cec:	b130      	cbz	r0, cfc <TEE_CloseTASession+0x12>
/home/lubuntu/Dokument/GitHub/STM32-Computer/Firmware/STM32-Computer-Firmware/CA7/optee-os-3.19.0-r2/optee-os-stm32mp-3.19.0-stm32mp-r2/lib/libutee/tee_api.c:197
     cee:	f000 eea6 	blx	1a3c <_utee_close_ta_session>
/home/lubuntu/Dokument/GitHub/STM32-Computer/Firmware/STM32-Computer-Firmware/CA7/optee-os-3.19.0-r2/optee-os-stm32mp-3.19.0-stm32mp-r2/lib/libutee/tee_api.c:199
     cf2:	b118      	cbz	r0, cfc <TEE_CloseTASession+0x12>
/home/lubuntu/Dokument/GitHub/STM32-Computer/Firmware/STM32-Computer-Firmware/CA7/optee-os-3.19.0-r2/optee-os-stm32mp-3.19.0-stm32mp-r2/lib/libutee/tee_api.c:202
     cf4:	e8bd 4008 	ldmia.w	sp!, {r3, lr}
/home/lubuntu/Dokument/GitHub/STM32-Computer/Firmware/STM32-Computer-Firmware/CA7/optee-os-3.19.0-r2/optee-os-stm32mp-3.19.0-stm32mp-r2/lib/libutee/tee_api.c:200
     cf8:	f000 ba28 	b.w	114c <TEE_Panic>
/home/lubuntu/Dokument/GitHub/STM32-Computer/Firmware/STM32-Computer-Firmware/CA7/optee-os-3.19.0-r2/optee-os-stm32mp-3.19.0-stm32mp-r2/lib/libutee/tee_api.c:202
     cfc:	bd08      	pop	{r3, pc}

00000cfe <TEE_GetCancellationFlag>:
TEE_GetCancellationFlag():
/home/lubuntu/Dokument/GitHub/STM32-Computer/Firmware/STM32-Computer-Firmware/CA7/optee-os-3.19.0-r2/optee-os-stm32mp-3.19.0-stm32mp-r2/lib/libutee/tee_api.c:257
     cfe:	b507      	push	{r0, r1, r2, lr}
/home/lubuntu/Dokument/GitHub/STM32-Computer/Firmware/STM32-Computer-Firmware/CA7/optee-os-3.19.0-r2/optee-os-stm32mp-3.19.0-stm32mp-r2/lib/libutee/tee_api.c:259
     d00:	a801      	add	r0, sp, #4
     d02:	f000 eeb2 	blx	1a68 <_utee_get_cancellation_flag>
/home/lubuntu/Dokument/GitHub/STM32-Computer/Firmware/STM32-Computer-Firmware/CA7/optee-os-3.19.0-r2/optee-os-stm32mp-3.19.0-stm32mp-r2/lib/libutee/tee_api.c:261
     d06:	b108      	cbz	r0, d0c <TEE_GetCancellationFlag+0xe>
/home/lubuntu/Dokument/GitHub/STM32-Computer/Firmware/STM32-Computer-Firmware/CA7/optee-os-3.19.0-r2/optee-os-stm32mp-3.19.0-stm32mp-r2/lib/libutee/tee_api.c:262
     d08:	2300      	movs	r3, #0
     d0a:	9301      	str	r3, [sp, #4]
/home/lubuntu/Dokument/GitHub/STM32-Computer/Firmware/STM32-Computer-Firmware/CA7/optee-os-3.19.0-r2/optee-os-stm32mp-3.19.0-stm32mp-r2/lib/libutee/tee_api.c:264
     d0c:	9801      	ldr	r0, [sp, #4]
     d0e:	3800      	subs	r0, #0
     d10:	bf18      	it	ne
     d12:	2001      	movne	r0, #1
     d14:	b003      	add	sp, #12
     d16:	f85d fb04 	ldr.w	pc, [sp], #4

00000d1a <TEE_UnmaskCancellation>:
TEE_UnmaskCancellation():
/home/lubuntu/Dokument/GitHub/STM32-Computer/Firmware/STM32-Computer-Firmware/CA7/optee-os-3.19.0-r2/optee-os-stm32mp-3.19.0-stm32mp-r2/lib/libutee/tee_api.c:267
     d1a:	b507      	push	{r0, r1, r2, lr}
/home/lubuntu/Dokument/GitHub/STM32-Computer/Firmware/STM32-Computer-Firmware/CA7/optee-os-3.19.0-r2/optee-os-stm32mp-3.19.0-stm32mp-r2/lib/libutee/tee_api.c:269
     d1c:	a801      	add	r0, sp, #4
     d1e:	f000 eeb8 	blx	1a90 <_utee_unmask_cancellation>
/home/lubuntu/Dokument/GitHub/STM32-Computer/Firmware/STM32-Computer-Firmware/CA7/optee-os-3.19.0-r2/optee-os-stm32mp-3.19.0-stm32mp-r2/lib/libutee/tee_api.c:271
     d22:	b108      	cbz	r0, d28 <TEE_UnmaskCancellation+0xe>
/home/lubuntu/Dokument/GitHub/STM32-Computer/Firmware/STM32-Computer-Firmware/CA7/optee-os-3.19.0-r2/optee-os-stm32mp-3.19.0-stm32mp-r2/lib/libutee/tee_api.c:272
     d24:	f000 fa12 	bl	114c <TEE_Panic>
/home/lubuntu/Dokument/GitHub/STM32-Computer/Firmware/STM32-Computer-Firmware/CA7/optee-os-3.19.0-r2/optee-os-stm32mp-3.19.0-stm32mp-r2/lib/libutee/tee_api.c:274
     d28:	9801      	ldr	r0, [sp, #4]
     d2a:	3800      	subs	r0, #0
     d2c:	bf18      	it	ne
     d2e:	2001      	movne	r0, #1
     d30:	b003      	add	sp, #12
     d32:	f85d fb04 	ldr.w	pc, [sp], #4

00000d36 <TEE_MaskCancellation>:
TEE_MaskCancellation():
/home/lubuntu/Dokument/GitHub/STM32-Computer/Firmware/STM32-Computer-Firmware/CA7/optee-os-3.19.0-r2/optee-os-stm32mp-3.19.0-stm32mp-r2/lib/libutee/tee_api.c:277
     d36:	b507      	push	{r0, r1, r2, lr}
/home/lubuntu/Dokument/GitHub/STM32-Computer/Firmware/STM32-Computer-Firmware/CA7/optee-os-3.19.0-r2/optee-os-stm32mp-3.19.0-stm32mp-r2/lib/libutee/tee_api.c:279
     d38:	a801      	add	r0, sp, #4
     d3a:	f000 eeb4 	blx	1aa4 <_utee_mask_cancellation>
/home/lubuntu/Dokument/GitHub/STM32-Computer/Firmware/STM32-Computer-Firmware/CA7/optee-os-3.19.0-r2/optee-os-stm32mp-3.19.0-stm32mp-r2/lib/libutee/tee_api.c:281
     d3e:	b108      	cbz	r0, d44 <TEE_MaskCancellation+0xe>
/home/lubuntu/Dokument/GitHub/STM32-Computer/Firmware/STM32-Computer-Firmware/CA7/optee-os-3.19.0-r2/optee-os-stm32mp-3.19.0-stm32mp-r2/lib/libutee/tee_api.c:282
     d40:	f000 fa04 	bl	114c <TEE_Panic>
/home/lubuntu/Dokument/GitHub/STM32-Computer/Firmware/STM32-Computer-Firmware/CA7/optee-os-3.19.0-r2/optee-os-stm32mp-3.19.0-stm32mp-r2/lib/libutee/tee_api.c:284
     d44:	9801      	ldr	r0, [sp, #4]
     d46:	3800      	subs	r0, #0
     d48:	bf18      	it	ne
     d4a:	2001      	movne	r0, #1
     d4c:	b003      	add	sp, #12
     d4e:	f85d fb04 	ldr.w	pc, [sp], #4

00000d52 <TEE_CheckMemoryAccessRights>:
TEE_CheckMemoryAccessRights():
/home/lubuntu/Dokument/GitHub/STM32-Computer/Firmware/STM32-Computer-Firmware/CA7/optee-os-3.19.0-r2/optee-os-stm32mp-3.19.0-stm32mp-r2/lib/libutee/tee_api.c:293
     d52:	b10a      	cbz	r2, d58 <TEE_CheckMemoryAccessRights+0x6>
/home/lubuntu/Dokument/GitHub/STM32-Computer/Firmware/STM32-Computer-Firmware/CA7/optee-os-3.19.0-r2/optee-os-stm32mp-3.19.0-stm32mp-r2/lib/libutee/tee_api.c:297
     d54:	f008 bf44 	b.w	9be0 <___utee_check_access_rights_from_thumb>
/home/lubuntu/Dokument/GitHub/STM32-Computer/Firmware/STM32-Computer-Firmware/CA7/optee-os-3.19.0-r2/optee-os-stm32mp-3.19.0-stm32mp-r2/lib/libutee/tee_api.c:309
     d58:	4610      	mov	r0, r2
     d5a:	4770      	bx	lr

00000d5c <copy_param>:
copy_param():
/home/lubuntu/Dokument/GitHub/STM32-Computer/Firmware/STM32-Computer-Firmware/CA7/optee-os-3.19.0-r2/optee-os-stm32mp-3.19.0-stm32mp-r2/lib/libutee/tee_api.c:29
     d5c:	e92d 4ff0 	stmdb	sp!, {r4, r5, r6, r7, r8, r9, sl, fp, lr}
/home/lubuntu/Dokument/GitHub/STM32-Computer/Firmware/STM32-Computer-Firmware/CA7/optee-os-3.19.0-r2/optee-os-stm32mp-3.19.0-stm32mp-r2/lib/libutee/tee_api.c:34
     d60:	2500      	movs	r5, #0
/home/lubuntu/Dokument/GitHub/STM32-Computer/Firmware/STM32-Computer-Firmware/CA7/optee-os-3.19.0-r2/optee-os-stm32mp-3.19.0-stm32mp-r2/lib/libutee/tee_api.c:29
     d62:	ed2d 8b02 	vpush	{d8}
/home/lubuntu/Dokument/GitHub/STM32-Computer/Firmware/STM32-Computer-Firmware/CA7/optee-os-3.19.0-r2/optee-os-stm32mp-3.19.0-stm32mp-r2/lib/libutee/tee_api.c:45
     d66:	601d      	str	r5, [r3, #0]
/home/lubuntu/Dokument/GitHub/STM32-Computer/Firmware/STM32-Computer-Firmware/CA7/optee-os-3.19.0-r2/optee-os-stm32mp-3.19.0-stm32mp-r2/lib/libutee/tee_api.c:29
     d68:	b085      	sub	sp, #20
     d6a:	4699      	mov	r9, r3
     d6c:	4604      	mov	r4, r0
/home/lubuntu/Dokument/GitHub/STM32-Computer/Firmware/STM32-Computer-Firmware/CA7/optee-os-3.19.0-r2/optee-os-stm32mp-3.19.0-stm32mp-r2/lib/libutee/tee_api.c:46
     d6e:	9b10      	ldr	r3, [sp, #64]	@ 0x40
/home/lubuntu/Dokument/GitHub/STM32-Computer/Firmware/STM32-Computer-Firmware/CA7/optee-os-3.19.0-r2/optee-os-stm32mp-3.19.0-stm32mp-r2/lib/libutee/tee_api.c:29
     d70:	4688      	mov	r8, r1
/home/lubuntu/Dokument/GitHub/STM32-Computer/Firmware/STM32-Computer-Firmware/CA7/optee-os-3.19.0-r2/optee-os-stm32mp-3.19.0-stm32mp-r2/lib/libutee/tee_api.c:34
     d72:	9503      	str	r5, [sp, #12]
/home/lubuntu/Dokument/GitHub/STM32-Computer/Firmware/STM32-Computer-Firmware/CA7/optee-os-3.19.0-r2/optee-os-stm32mp-3.19.0-stm32mp-r2/lib/libutee/tee_api.c:29
     d74:	4617      	mov	r7, r2
/home/lubuntu/Dokument/GitHub/STM32-Computer/Firmware/STM32-Computer-Firmware/CA7/optee-os-3.19.0-r2/optee-os-stm32mp-3.19.0-stm32mp-r2/lib/libutee/tee_api.c:46
     d76:	601d      	str	r5, [r3, #0]
/home/lubuntu/Dokument/GitHub/STM32-Computer/Firmware/STM32-Computer-Firmware/CA7/optee-os-3.19.0-r2/optee-os-stm32mp-3.19.0-stm32mp-r2/lib/libutee/tee_api.c:47
     d78:	462e      	mov	r6, r5
/home/lubuntu/Dokument/GitHub/STM32-Computer/Firmware/STM32-Computer-Firmware/CA7/optee-os-3.19.0-r2/optee-os-stm32mp-3.19.0-stm32mp-r2/lib/libutee/tee_api.c:48
     d7a:	46ab      	mov	fp, r5
/home/lubuntu/Dokument/GitHub/STM32-Computer/Firmware/STM32-Computer-Firmware/CA7/optee-os-3.19.0-r2/optee-os-stm32mp-3.19.0-stm32mp-r2/lib/libutee/tee_api.c:54
     d7c:	f102 0a04 	add.w	sl, r2, #4
/home/lubuntu/Dokument/GitHub/STM32-Computer/Firmware/STM32-Computer-Firmware/CA7/optee-os-3.19.0-r2/optee-os-stm32mp-3.19.0-stm32mp-r2/lib/libutee/tee_api.c:49
     d80:	00b2      	lsls	r2, r6, #2
/home/lubuntu/Dokument/GitHub/STM32-Computer/Firmware/STM32-Computer-Firmware/CA7/optee-os-3.19.0-r2/optee-os-stm32mp-3.19.0-stm32mp-r2/lib/libutee/tee_api.c:48
     d82:	9b11      	ldr	r3, [sp, #68]	@ 0x44
/home/lubuntu/Dokument/GitHub/STM32-Computer/Firmware/STM32-Computer-Firmware/CA7/optee-os-3.19.0-r2/optee-os-stm32mp-3.19.0-stm32mp-r2/lib/libutee/tee_api.c:49
     d84:	fa28 f202 	lsr.w	r2, r8, r2
/home/lubuntu/Dokument/GitHub/STM32-Computer/Firmware/STM32-Computer-Firmware/CA7/optee-os-3.19.0-r2/optee-os-stm32mp-3.19.0-stm32mp-r2/lib/libutee/tee_api.c:48
     d88:	f843 b026 	str.w	fp, [r3, r6, lsl #2]
/home/lubuntu/Dokument/GitHub/STM32-Computer/Firmware/STM32-Computer-Firmware/CA7/optee-os-3.19.0-r2/optee-os-stm32mp-3.19.0-stm32mp-r2/lib/libutee/tee_api.c:49
     d8c:	f002 020f 	and.w	r2, r2, #15
     d90:	3a05      	subs	r2, #5
     d92:	2a02      	cmp	r2, #2
     d94:	d812      	bhi.n	dbc <copy_param+0x60>
/home/lubuntu/Dokument/GitHub/STM32-Computer/Firmware/STM32-Computer-Firmware/CA7/optee-os-3.19.0-r2/optee-os-stm32mp-3.19.0-stm32mp-r2/lib/libutee/tee_api.c:53
     d96:	f857 1036 	ldr.w	r1, [r7, r6, lsl #3]
/home/lubuntu/Dokument/GitHub/STM32-Computer/Firmware/STM32-Computer-Firmware/CA7/optee-os-3.19.0-r2/optee-os-stm32mp-3.19.0-stm32mp-r2/lib/libutee/tee_api.c:64
     d9a:	b179      	cbz	r1, dbc <copy_param+0x60>
/home/lubuntu/Dokument/GitHub/STM32-Computer/Firmware/STM32-Computer-Firmware/CA7/optee-os-3.19.0-r2/optee-os-stm32mp-3.19.0-stm32mp-r2/lib/libutee/tee_api.c:54 (discriminator 1)
     d9c:	f85a 2036 	ldr.w	r2, [sl, r6, lsl #3]
/home/lubuntu/Dokument/GitHub/STM32-Computer/Firmware/STM32-Computer-Firmware/CA7/optee-os-3.19.0-r2/optee-os-stm32mp-3.19.0-stm32mp-r2/lib/libutee/tee_api.c:64 (discriminator 1)
     da0:	b162      	cbz	r2, dbc <copy_param+0x60>
/home/lubuntu/Dokument/GitHub/STM32-Computer/Firmware/STM32-Computer-Firmware/CA7/optee-os-3.19.0-r2/optee-os-stm32mp-3.19.0-stm32mp-r2/lib/libutee/tee_api.c:65 (discriminator 2)
     da2:	9201      	str	r2, [sp, #4]
     da4:	2001      	movs	r0, #1
     da6:	f7ff ffd4 	bl	d52 <TEE_CheckMemoryAccessRights>
/home/lubuntu/Dokument/GitHub/STM32-Computer/Firmware/STM32-Computer-Firmware/CA7/optee-os-3.19.0-r2/optee-os-stm32mp-3.19.0-stm32mp-r2/lib/libutee/tee_api.c:64 (discriminator 2)
     daa:	b938      	cbnz	r0, dbc <copy_param+0x60>
/home/lubuntu/Dokument/GitHub/STM32-Computer/Firmware/STM32-Computer-Firmware/CA7/optee-os-3.19.0-r2/optee-os-stm32mp-3.19.0-stm32mp-r2/lib/libutee/tee_api.c:67
     dac:	9a01      	ldr	r2, [sp, #4]
/home/lubuntu/Dokument/GitHub/STM32-Computer/Firmware/STM32-Computer-Firmware/CA7/optee-os-3.19.0-r2/optee-os-stm32mp-3.19.0-stm32mp-r2/lib/libutee/tee_api.c:66
     dae:	a903      	add	r1, sp, #12
     db0:	2001      	movs	r0, #1
     db2:	5470      	strb	r0, [r6, r1]
/home/lubuntu/Dokument/GitHub/STM32-Computer/Firmware/STM32-Computer-Firmware/CA7/optee-os-3.19.0-r2/optee-os-stm32mp-3.19.0-stm32mp-r2/lib/libutee/tee_api.c:67
     db4:	3207      	adds	r2, #7
     db6:	f022 0207 	bic.w	r2, r2, #7
     dba:	4415      	add	r5, r2
/home/lubuntu/Dokument/GitHub/STM32-Computer/Firmware/STM32-Computer-Firmware/CA7/optee-os-3.19.0-r2/optee-os-stm32mp-3.19.0-stm32mp-r2/lib/libutee/tee_api.c:47 (discriminator 2)
     dbc:	3601      	adds	r6, #1
     dbe:	2e04      	cmp	r6, #4
     dc0:	d1de      	bne.n	d80 <copy_param+0x24>
/home/lubuntu/Dokument/GitHub/STM32-Computer/Firmware/STM32-Computer-Firmware/CA7/optee-os-3.19.0-r2/optee-os-stm32mp-3.19.0-stm32mp-r2/lib/libutee/tee_api.c:75
     dc2:	b315      	cbz	r5, e0a <copy_param+0xae>
/home/lubuntu/Dokument/GitHub/STM32-Computer/Firmware/STM32-Computer-Firmware/CA7/optee-os-3.19.0-r2/optee-os-stm32mp-3.19.0-stm32mp-r2/lib/libutee/tee_api.c:76
     dc4:	4631      	mov	r1, r6
     dc6:	4628      	mov	r0, r5
     dc8:	f000 fd68 	bl	189c <tee_map_zi>
/home/lubuntu/Dokument/GitHub/STM32-Computer/Firmware/STM32-Computer-Firmware/CA7/optee-os-3.19.0-r2/optee-os-stm32mp-3.19.0-stm32mp-r2/lib/libutee/tee_api.c:77
     dcc:	4603      	mov	r3, r0
     dce:	2800      	cmp	r0, #0
     dd0:	d052      	beq.n	e78 <copy_param+0x11c>
/home/lubuntu/Dokument/GitHub/STM32-Computer/Firmware/STM32-Computer-Firmware/CA7/optee-os-3.19.0-r2/optee-os-stm32mp-3.19.0-stm32mp-r2/lib/libutee/tee_api.c:80
     dd2:	9a10      	ldr	r2, [sp, #64]	@ 0x40
/home/lubuntu/Dokument/GitHub/STM32-Computer/Firmware/STM32-Computer-Firmware/CA7/optee-os-3.19.0-r2/optee-os-stm32mp-3.19.0-stm32mp-r2/lib/libutee/tee_api.c:79
     dd4:	f8c9 0000 	str.w	r0, [r9]
/home/lubuntu/Dokument/GitHub/STM32-Computer/Firmware/STM32-Computer-Firmware/CA7/optee-os-3.19.0-r2/optee-os-stm32mp-3.19.0-stm32mp-r2/lib/libutee/tee_api.c:80
     dd8:	6015      	str	r5, [r2, #0]
/home/lubuntu/Dokument/GitHub/STM32-Computer/Firmware/STM32-Computer-Firmware/CA7/optee-os-3.19.0-r2/optee-os-stm32mp-3.19.0-stm32mp-r2/lib/libutee/tee_api.c:109
     dda:	ef80 8010 	vmov.i32	d8, #0	@ 0x00000000
/home/lubuntu/Dokument/GitHub/STM32-Computer/Firmware/STM32-Computer-Firmware/CA7/optee-os-3.19.0-r2/optee-os-stm32mp-3.19.0-stm32mp-r2/lib/libutee/tee_api.c:83
     dde:	2500      	movs	r5, #0
     de0:	463e      	mov	r6, r7
/home/lubuntu/Dokument/GitHub/STM32-Computer/Firmware/STM32-Computer-Firmware/CA7/optee-os-3.19.0-r2/optee-os-stm32mp-3.19.0-stm32mp-r2/lib/libutee/tee_api.c:88
     de2:	46a9      	mov	r9, r5
/home/lubuntu/Dokument/GitHub/STM32-Computer/Firmware/STM32-Computer-Firmware/CA7/optee-os-3.19.0-r2/optee-os-stm32mp-3.19.0-stm32mp-r2/lib/libutee/tee_api.c:89
     de4:	46aa      	mov	sl, r5
/home/lubuntu/Dokument/GitHub/STM32-Computer/Firmware/STM32-Computer-Firmware/CA7/optee-os-3.19.0-r2/optee-os-stm32mp-3.19.0-stm32mp-r2/lib/libutee/tee_api.c:83
     de6:	e9c4 8500 	strd	r8, r5, [r4]
/home/lubuntu/Dokument/GitHub/STM32-Computer/Firmware/STM32-Computer-Firmware/CA7/optee-os-3.19.0-r2/optee-os-stm32mp-3.19.0-stm32mp-r2/lib/libutee/tee_api.c:85
     dea:	00a9      	lsls	r1, r5, #2
     dec:	fa28 f101 	lsr.w	r1, r8, r1
     df0:	f001 020f 	and.w	r2, r1, #15
     df4:	2a03      	cmp	r2, #3
     df6:	d021      	beq.n	e3c <copy_param+0xe0>
     df8:	f011 0f0c 	tst.w	r1, #12
     dfc:	d107      	bne.n	e0e <copy_param+0xb2>
     dfe:	2a01      	cmp	r2, #1
     e00:	d01c      	beq.n	e3c <copy_param+0xe0>
/home/lubuntu/Dokument/GitHub/STM32-Computer/Firmware/STM32-Computer-Firmware/CA7/optee-os-3.19.0-r2/optee-os-stm32mp-3.19.0-stm32mp-r2/lib/libutee/tee_api.c:111
     e02:	2200      	movs	r2, #0
/home/lubuntu/Dokument/GitHub/STM32-Computer/Firmware/STM32-Computer-Firmware/CA7/optee-os-3.19.0-r2/optee-os-stm32mp-3.19.0-stm32mp-r2/lib/libutee/tee_api.c:109
     e04:	ed84 8b02 	vstr	d8, [r4, #8]
/home/lubuntu/Dokument/GitHub/STM32-Computer/Firmware/STM32-Computer-Firmware/CA7/optee-os-3.19.0-r2/optee-os-stm32mp-3.19.0-stm32mp-r2/lib/libutee/tee_api.c:111
     e08:	e01d      	b.n	e46 <copy_param+0xea>
/home/lubuntu/Dokument/GitHub/STM32-Computer/Firmware/STM32-Computer-Firmware/CA7/optee-os-3.19.0-r2/optee-os-stm32mp-3.19.0-stm32mp-r2/lib/libutee/tee_api.c:31
     e0a:	462b      	mov	r3, r5
     e0c:	e7e5      	b.n	dda <copy_param+0x7e>
/home/lubuntu/Dokument/GitHub/STM32-Computer/Firmware/STM32-Computer-Firmware/CA7/optee-os-3.19.0-r2/optee-os-stm32mp-3.19.0-stm32mp-r2/lib/libutee/tee_api.c:85
     e0e:	1f51      	subs	r1, r2, #5
     e10:	2902      	cmp	r1, #2
     e12:	d8f6      	bhi.n	e02 <copy_param+0xa6>
/home/lubuntu/Dokument/GitHub/STM32-Computer/Firmware/STM32-Computer-Firmware/CA7/optee-os-3.19.0-r2/optee-os-stm32mp-3.19.0-stm32mp-r2/lib/libutee/tee_api.c:94
     e14:	f8d6 b004 	ldr.w	fp, [r6, #4]
/home/lubuntu/Dokument/GitHub/STM32-Computer/Firmware/STM32-Computer-Firmware/CA7/optee-os-3.19.0-r2/optee-os-stm32mp-3.19.0-stm32mp-r2/lib/libutee/tee_api.c:95
     e18:	a903      	add	r1, sp, #12
     e1a:	5c69      	ldrb	r1, [r5, r1]
     e1c:	b349      	cbz	r1, e72 <copy_param+0x116>
/home/lubuntu/Dokument/GitHub/STM32-Computer/Firmware/STM32-Computer-Firmware/CA7/optee-os-3.19.0-r2/optee-os-stm32mp-3.19.0-stm32mp-r2/lib/libutee/tee_api.c:97
     e1e:	9911      	ldr	r1, [sp, #68]	@ 0x44
/home/lubuntu/Dokument/GitHub/STM32-Computer/Firmware/STM32-Computer-Firmware/CA7/optee-os-3.19.0-r2/optee-os-stm32mp-3.19.0-stm32mp-r2/lib/libutee/tee_api.c:99
     e20:	2a06      	cmp	r2, #6
/home/lubuntu/Dokument/GitHub/STM32-Computer/Firmware/STM32-Computer-Firmware/CA7/optee-os-3.19.0-r2/optee-os-stm32mp-3.19.0-stm32mp-r2/lib/libutee/tee_api.c:97
     e22:	f841 3025 	str.w	r3, [r1, r5, lsl #2]
/home/lubuntu/Dokument/GitHub/STM32-Computer/Firmware/STM32-Computer-Firmware/CA7/optee-os-3.19.0-r2/optee-os-stm32mp-3.19.0-stm32mp-r2/lib/libutee/tee_api.c:99
     e26:	d11c      	bne.n	e62 <copy_param+0x106>
/home/lubuntu/Dokument/GitHub/STM32-Computer/Firmware/STM32-Computer-Firmware/CA7/optee-os-3.19.0-r2/optee-os-stm32mp-3.19.0-stm32mp-r2/lib/libutee/tee_api.c:98
     e28:	f10b 0207 	add.w	r2, fp, #7
     e2c:	4619      	mov	r1, r3
     e2e:	f022 0207 	bic.w	r2, r2, #7
     e32:	4413      	add	r3, r2
/home/lubuntu/Dokument/GitHub/STM32-Computer/Firmware/STM32-Computer-Firmware/CA7/optee-os-3.19.0-r2/optee-os-stm32mp-3.19.0-stm32mp-r2/lib/libutee/tee_api.c:106
     e34:	465a      	mov	r2, fp
/home/lubuntu/Dokument/GitHub/STM32-Computer/Firmware/STM32-Computer-Firmware/CA7/optee-os-3.19.0-r2/optee-os-stm32mp-3.19.0-stm32mp-r2/lib/libutee/tee_api.c:105
     e36:	e9c4 1902 	strd	r1, r9, [r4, #8]
/home/lubuntu/Dokument/GitHub/STM32-Computer/Firmware/STM32-Computer-Firmware/CA7/optee-os-3.19.0-r2/optee-os-stm32mp-3.19.0-stm32mp-r2/lib/libutee/tee_api.c:107
     e3a:	e004      	b.n	e46 <copy_param+0xea>
/home/lubuntu/Dokument/GitHub/STM32-Computer/Firmware/STM32-Computer-Firmware/CA7/optee-os-3.19.0-r2/optee-os-stm32mp-3.19.0-stm32mp-r2/lib/libutee/tee_api.c:88
     e3c:	f857 2035 	ldr.w	r2, [r7, r5, lsl #3]
     e40:	e9c4 2902 	strd	r2, r9, [r4, #8]
/home/lubuntu/Dokument/GitHub/STM32-Computer/Firmware/STM32-Computer-Firmware/CA7/optee-os-3.19.0-r2/optee-os-stm32mp-3.19.0-stm32mp-r2/lib/libutee/tee_api.c:89
     e44:	6872      	ldr	r2, [r6, #4]
/home/lubuntu/Dokument/GitHub/STM32-Computer/Firmware/STM32-Computer-Firmware/CA7/optee-os-3.19.0-r2/optee-os-stm32mp-3.19.0-stm32mp-r2/lib/libutee/tee_api.c:84 (discriminator 2)
     e46:	3501      	adds	r5, #1
     e48:	3608      	adds	r6, #8
     e4a:	2d04      	cmp	r5, #4
/home/lubuntu/Dokument/GitHub/STM32-Computer/Firmware/STM32-Computer-Firmware/CA7/optee-os-3.19.0-r2/optee-os-stm32mp-3.19.0-stm32mp-r2/lib/libutee/tee_api.c:110 (discriminator 2)
     e4c:	e9c4 2a04 	strd	r2, sl, [r4, #16]
/home/lubuntu/Dokument/GitHub/STM32-Computer/Firmware/STM32-Computer-Firmware/CA7/optee-os-3.19.0-r2/optee-os-stm32mp-3.19.0-stm32mp-r2/lib/libutee/tee_api.c:84 (discriminator 2)
     e50:	f104 0410 	add.w	r4, r4, #16
     e54:	d1c9      	bne.n	dea <copy_param+0x8e>
/home/lubuntu/Dokument/GitHub/STM32-Computer/Firmware/STM32-Computer-Firmware/CA7/optee-os-3.19.0-r2/optee-os-stm32mp-3.19.0-stm32mp-r2/lib/libutee/tee_api.c:115
     e56:	2000      	movs	r0, #0
/home/lubuntu/Dokument/GitHub/STM32-Computer/Firmware/STM32-Computer-Firmware/CA7/optee-os-3.19.0-r2/optee-os-stm32mp-3.19.0-stm32mp-r2/lib/libutee/tee_api.c:116
     e58:	b005      	add	sp, #20
     e5a:	ecbd 8b02 	vpop	{d8}
     e5e:	e8bd 8ff0 	ldmia.w	sp!, {r4, r5, r6, r7, r8, r9, sl, fp, pc}
/home/lubuntu/Dokument/GitHub/STM32-Computer/Firmware/STM32-Computer-Firmware/CA7/optee-os-3.19.0-r2/optee-os-stm32mp-3.19.0-stm32mp-r2/lib/libutee/tee_api.c:101
     e62:	f857 1035 	ldr.w	r1, [r7, r5, lsl #3]
     e66:	4618      	mov	r0, r3
     e68:	465a      	mov	r2, fp
     e6a:	f005 fffd 	bl	6e68 <memcpy>
     e6e:	4603      	mov	r3, r0
     e70:	e7da      	b.n	e28 <copy_param+0xcc>
/home/lubuntu/Dokument/GitHub/STM32-Computer/Firmware/STM32-Computer-Firmware/CA7/optee-os-3.19.0-r2/optee-os-stm32mp-3.19.0-stm32mp-r2/lib/libutee/tee_api.c:103
     e72:	f857 1035 	ldr.w	r1, [r7, r5, lsl #3]
     e76:	e7dd      	b.n	e34 <copy_param+0xd8>
/home/lubuntu/Dokument/GitHub/STM32-Computer/Firmware/STM32-Computer-Firmware/CA7/optee-os-3.19.0-r2/optee-os-stm32mp-3.19.0-stm32mp-r2/lib/libutee/tee_api.c:78
     e78:	4800      	ldr	r0, [pc, #0]	@ (e7c <copy_param+0x120>)
     e7a:	e7ed      	b.n	e58 <copy_param+0xfc>
     e7c:	ffff000c 	.word	0xffff000c

00000e80 <TEE_OpenTASession>:
TEE_OpenTASession():
/home/lubuntu/Dokument/GitHub/STM32-Computer/Firmware/STM32-Computer-Firmware/CA7/optee-os-3.19.0-r2/optee-os-stm32mp-3.19.0-stm32mp-r2/lib/libutee/tee_api.c:160
     e80:	efc0 0010 	vmov.i32	d16, #0	@ 0x00000000
/home/lubuntu/Dokument/GitHub/STM32-Computer/Firmware/STM32-Computer-Firmware/CA7/optee-os-3.19.0-r2/optee-os-stm32mp-3.19.0-stm32mp-r2/lib/libutee/tee_api.c:154
     e84:	e92d 47f0 	stmdb	sp!, {r4, r5, r6, r7, r8, r9, sl, lr}
     e88:	b09c      	sub	sp, #112	@ 0x70
     e8a:	461d      	mov	r5, r3
/home/lubuntu/Dokument/GitHub/STM32-Computer/Firmware/STM32-Computer-Firmware/CA7/optee-os-3.19.0-r2/optee-os-stm32mp-3.19.0-stm32mp-r2/lib/libutee/tee_api.c:157
     e8c:	2300      	movs	r3, #0
/home/lubuntu/Dokument/GitHub/STM32-Computer/Firmware/STM32-Computer-Firmware/CA7/optee-os-3.19.0-r2/optee-os-stm32mp-3.19.0-stm32mp-r2/lib/libutee/tee_api.c:154
     e8e:	f8dd 9090 	ldr.w	r9, [sp, #144]	@ 0x90
/home/lubuntu/Dokument/GitHub/STM32-Computer/Firmware/STM32-Computer-Firmware/CA7/optee-os-3.19.0-r2/optee-os-stm32mp-3.19.0-stm32mp-r2/lib/libutee/tee_api.c:160
     e92:	ae06      	add	r6, sp, #24
     e94:	edcd 0b06 	vstr	d16, [sp, #24]
/home/lubuntu/Dokument/GitHub/STM32-Computer/Firmware/STM32-Computer-Firmware/CA7/optee-os-3.19.0-r2/optee-os-stm32mp-3.19.0-stm32mp-r2/lib/libutee/tee_api.c:157
     e98:	9303      	str	r3, [sp, #12]
/home/lubuntu/Dokument/GitHub/STM32-Computer/Firmware/STM32-Computer-Firmware/CA7/optee-os-3.19.0-r2/optee-os-stm32mp-3.19.0-stm32mp-r2/lib/libutee/tee_api.c:154
     e9a:	4607      	mov	r7, r0
     e9c:	4688      	mov	r8, r1
/home/lubuntu/Dokument/GitHub/STM32-Computer/Firmware/STM32-Computer-Firmware/CA7/optee-os-3.19.0-r2/optee-os-stm32mp-3.19.0-stm32mp-r2/lib/libutee/tee_api.c:162
     e9e:	4614      	mov	r4, r2
/home/lubuntu/Dokument/GitHub/STM32-Computer/Firmware/STM32-Computer-Firmware/CA7/optee-os-3.19.0-r2/optee-os-stm32mp-3.19.0-stm32mp-r2/lib/libutee/tee_api.c:160
     ea0:	edc6 0b02 	vstr	d16, [r6, #8]
/home/lubuntu/Dokument/GitHub/STM32-Computer/Firmware/STM32-Computer-Firmware/CA7/optee-os-3.19.0-r2/optee-os-stm32mp-3.19.0-stm32mp-r2/lib/libutee/tee_api.c:162
     ea4:	b11a      	cbz	r2, eae <TEE_OpenTASession+0x2e>
/home/lubuntu/Dokument/GitHub/STM32-Computer/Firmware/STM32-Computer-Firmware/CA7/optee-os-3.19.0-r2/optee-os-stm32mp-3.19.0-stm32mp-r2/lib/libutee/tee_api.c:163
     ea6:	2120      	movs	r1, #32
     ea8:	4628      	mov	r0, r5
     eaa:	f000 f991 	bl	11d0 <__utee_check_inout_annotation>
/home/lubuntu/Dokument/GitHub/STM32-Computer/Firmware/STM32-Computer-Firmware/CA7/optee-os-3.19.0-r2/optee-os-stm32mp-3.19.0-stm32mp-r2/lib/libutee/tee_api.c:166
     eae:	2104      	movs	r1, #4
     eb0:	4648      	mov	r0, r9
/home/lubuntu/Dokument/GitHub/STM32-Computer/Firmware/STM32-Computer-Firmware/CA7/optee-os-3.19.0-r2/optee-os-stm32mp-3.19.0-stm32mp-r2/lib/libutee/tee_api.c:168
     eb2:	f10d 0a28 	add.w	sl, sp, #40	@ 0x28
/home/lubuntu/Dokument/GitHub/STM32-Computer/Firmware/STM32-Computer-Firmware/CA7/optee-os-3.19.0-r2/optee-os-stm32mp-3.19.0-stm32mp-r2/lib/libutee/tee_api.c:166
     eb6:	f000 f974 	bl	11a2 <__utee_check_out_annotation>
/home/lubuntu/Dokument/GitHub/STM32-Computer/Firmware/STM32-Computer-Firmware/CA7/optee-os-3.19.0-r2/optee-os-stm32mp-3.19.0-stm32mp-r2/lib/libutee/tee_api.c:168
     eba:	9601      	str	r6, [sp, #4]
     ebc:	ab05      	add	r3, sp, #20
     ebe:	9300      	str	r3, [sp, #0]
     ec0:	4621      	mov	r1, r4
     ec2:	ab04      	add	r3, sp, #16
     ec4:	462a      	mov	r2, r5
     ec6:	4650      	mov	r0, sl
     ec8:	f7ff ff48 	bl	d5c <copy_param>
/home/lubuntu/Dokument/GitHub/STM32-Computer/Firmware/STM32-Computer-Firmware/CA7/optee-os-3.19.0-r2/optee-os-stm32mp-3.19.0-stm32mp-r2/lib/libutee/tee_api.c:169
     ecc:	4604      	mov	r4, r0
     ece:	b9b0      	cbnz	r0, efe <TEE_OpenTASession+0x7e>
/home/lubuntu/Dokument/GitHub/STM32-Computer/Firmware/STM32-Computer-Firmware/CA7/optee-os-3.19.0-r2/optee-os-stm32mp-3.19.0-stm32mp-r2/lib/libutee/tee_api.c:171
     ed0:	9b25      	ldr	r3, [sp, #148]	@ 0x94
     ed2:	4652      	mov	r2, sl
     ed4:	4641      	mov	r1, r8
     ed6:	4638      	mov	r0, r7
     ed8:	9300      	str	r3, [sp, #0]
     eda:	ab03      	add	r3, sp, #12
     edc:	f000 eda2 	blx	1a24 <_utee_open_ta_session>
     ee0:	4604      	mov	r4, r0
/home/lubuntu/Dokument/GitHub/STM32-Computer/Firmware/STM32-Computer-Firmware/CA7/optee-os-3.19.0-r2/optee-os-stm32mp-3.19.0-stm32mp-r2/lib/libutee/tee_api.c:173
     ee2:	4652      	mov	r2, sl
     ee4:	4628      	mov	r0, r5
     ee6:	4631      	mov	r1, r6
     ee8:	f7ff fecc 	bl	c84 <update_out_param>
/home/lubuntu/Dokument/GitHub/STM32-Computer/Firmware/STM32-Computer-Firmware/CA7/optee-os-3.19.0-r2/optee-os-stm32mp-3.19.0-stm32mp-r2/lib/libutee/tee_api.c:174
     eec:	9804      	ldr	r0, [sp, #16]
     eee:	b128      	cbz	r0, efc <TEE_OpenTASession+0x7c>
/home/lubuntu/Dokument/GitHub/STM32-Computer/Firmware/STM32-Computer-Firmware/CA7/optee-os-3.19.0-r2/optee-os-stm32mp-3.19.0-stm32mp-r2/lib/libutee/tee_api.c:175
     ef0:	9905      	ldr	r1, [sp, #20]
     ef2:	f000 fcee 	bl	18d2 <tee_unmap>
/home/lubuntu/Dokument/GitHub/STM32-Computer/Firmware/STM32-Computer-Firmware/CA7/optee-os-3.19.0-r2/optee-os-stm32mp-3.19.0-stm32mp-r2/lib/libutee/tee_api.c:177
     ef6:	b108      	cbz	r0, efc <TEE_OpenTASession+0x7c>
/home/lubuntu/Dokument/GitHub/STM32-Computer/Firmware/STM32-Computer-Firmware/CA7/optee-os-3.19.0-r2/optee-os-stm32mp-3.19.0-stm32mp-r2/lib/libutee/tee_api.c:178
     ef8:	f000 f928 	bl	114c <TEE_Panic>
/home/lubuntu/Dokument/GitHub/STM32-Computer/Firmware/STM32-Computer-Firmware/CA7/optee-os-3.19.0-r2/optee-os-stm32mp-3.19.0-stm32mp-r2/lib/libutee/tee_api.c:187
     efc:	b10c      	cbz	r4, f02 <TEE_OpenTASession+0x82>
/home/lubuntu/Dokument/GitHub/STM32-Computer/Firmware/STM32-Computer-Firmware/CA7/optee-os-3.19.0-r2/optee-os-stm32mp-3.19.0-stm32mp-r2/lib/libutee/tee_api.c:188
     efe:	2300      	movs	r3, #0
     f00:	9303      	str	r3, [sp, #12]
/home/lubuntu/Dokument/GitHub/STM32-Computer/Firmware/STM32-Computer-Firmware/CA7/optee-os-3.19.0-r2/optee-os-stm32mp-3.19.0-stm32mp-r2/lib/libutee/tee_api.c:190
     f02:	9b03      	ldr	r3, [sp, #12]
/home/lubuntu/Dokument/GitHub/STM32-Computer/Firmware/STM32-Computer-Firmware/CA7/optee-os-3.19.0-r2/optee-os-stm32mp-3.19.0-stm32mp-r2/lib/libutee/tee_api.c:192
     f04:	4620      	mov	r0, r4
/home/lubuntu/Dokument/GitHub/STM32-Computer/Firmware/STM32-Computer-Firmware/CA7/optee-os-3.19.0-r2/optee-os-stm32mp-3.19.0-stm32mp-r2/lib/libutee/tee_api.c:190
     f06:	f8c9 3000 	str.w	r3, [r9]
/home/lubuntu/Dokument/GitHub/STM32-Computer/Firmware/STM32-Computer-Firmware/CA7/optee-os-3.19.0-r2/optee-os-stm32mp-3.19.0-stm32mp-r2/lib/libutee/tee_api.c:192
     f0a:	b01c      	add	sp, #112	@ 0x70
     f0c:	e8bd 87f0 	ldmia.w	sp!, {r4, r5, r6, r7, r8, r9, sl, pc}

00000f10 <TEE_InvokeTACommand>:
TEE_InvokeTACommand():
/home/lubuntu/Dokument/GitHub/STM32-Computer/Firmware/STM32-Computer-Firmware/CA7/optee-os-3.19.0-r2/optee-os-stm32mp-3.19.0-stm32mp-r2/lib/libutee/tee_api.c:215
     f10:	efc0 0010 	vmov.i32	d16, #0	@ 0x00000000
/home/lubuntu/Dokument/GitHub/STM32-Computer/Firmware/STM32-Computer-Firmware/CA7/optee-os-3.19.0-r2/optee-os-stm32mp-3.19.0-stm32mp-r2/lib/libutee/tee_api.c:209
     f14:	e92d 4ff0 	stmdb	sp!, {r4, r5, r6, r7, r8, r9, sl, fp, lr}
     f18:	b09d      	sub	sp, #116	@ 0x74
     f1a:	4693      	mov	fp, r2
/home/lubuntu/Dokument/GitHub/STM32-Computer/Firmware/STM32-Computer-Firmware/CA7/optee-os-3.19.0-r2/optee-os-stm32mp-3.19.0-stm32mp-r2/lib/libutee/tee_api.c:211
     f1c:	2203      	movs	r2, #3
     f1e:	9203      	str	r2, [sp, #12]
/home/lubuntu/Dokument/GitHub/STM32-Computer/Firmware/STM32-Computer-Firmware/CA7/optee-os-3.19.0-r2/optee-os-stm32mp-3.19.0-stm32mp-r2/lib/libutee/tee_api.c:215
     f20:	af06      	add	r7, sp, #24
     f22:	edcd 0b06 	vstr	d16, [sp, #24]
/home/lubuntu/Dokument/GitHub/STM32-Computer/Firmware/STM32-Computer-Firmware/CA7/optee-os-3.19.0-r2/optee-os-stm32mp-3.19.0-stm32mp-r2/lib/libutee/tee_api.c:209
     f26:	4681      	mov	r9, r0
     f28:	468a      	mov	sl, r1
     f2a:	e9dd 6526 	ldrd	r6, r5, [sp, #152]	@ 0x98
/home/lubuntu/Dokument/GitHub/STM32-Computer/Firmware/STM32-Computer-Firmware/CA7/optee-os-3.19.0-r2/optee-os-stm32mp-3.19.0-stm32mp-r2/lib/libutee/tee_api.c:217
     f2e:	461c      	mov	r4, r3
/home/lubuntu/Dokument/GitHub/STM32-Computer/Firmware/STM32-Computer-Firmware/CA7/optee-os-3.19.0-r2/optee-os-stm32mp-3.19.0-stm32mp-r2/lib/libutee/tee_api.c:215
     f30:	edc7 0b02 	vstr	d16, [r7, #8]
/home/lubuntu/Dokument/GitHub/STM32-Computer/Firmware/STM32-Computer-Firmware/CA7/optee-os-3.19.0-r2/optee-os-stm32mp-3.19.0-stm32mp-r2/lib/libutee/tee_api.c:217
     f34:	b11b      	cbz	r3, f3e <TEE_InvokeTACommand+0x2e>
/home/lubuntu/Dokument/GitHub/STM32-Computer/Firmware/STM32-Computer-Firmware/CA7/optee-os-3.19.0-r2/optee-os-stm32mp-3.19.0-stm32mp-r2/lib/libutee/tee_api.c:218
     f36:	2120      	movs	r1, #32
     f38:	4630      	mov	r0, r6
     f3a:	f000 f949 	bl	11d0 <__utee_check_inout_annotation>
/home/lubuntu/Dokument/GitHub/STM32-Computer/Firmware/STM32-Computer-Firmware/CA7/optee-os-3.19.0-r2/optee-os-stm32mp-3.19.0-stm32mp-r2/lib/libutee/tee_api.c:221
     f3e:	b11d      	cbz	r5, f48 <TEE_InvokeTACommand+0x38>
/home/lubuntu/Dokument/GitHub/STM32-Computer/Firmware/STM32-Computer-Firmware/CA7/optee-os-3.19.0-r2/optee-os-stm32mp-3.19.0-stm32mp-r2/lib/libutee/tee_api.c:222
     f40:	2104      	movs	r1, #4
     f42:	4628      	mov	r0, r5
     f44:	f000 f92d 	bl	11a2 <__utee_check_out_annotation>
/home/lubuntu/Dokument/GitHub/STM32-Computer/Firmware/STM32-Computer-Firmware/CA7/optee-os-3.19.0-r2/optee-os-stm32mp-3.19.0-stm32mp-r2/lib/libutee/tee_api.c:225
     f48:	9701      	str	r7, [sp, #4]
     f4a:	ab05      	add	r3, sp, #20
     f4c:	9300      	str	r3, [sp, #0]
     f4e:	f10d 0828 	add.w	r8, sp, #40	@ 0x28
     f52:	4621      	mov	r1, r4
     f54:	ab04      	add	r3, sp, #16
     f56:	4632      	mov	r2, r6
     f58:	4640      	mov	r0, r8
     f5a:	f7ff feff 	bl	d5c <copy_param>
/home/lubuntu/Dokument/GitHub/STM32-Computer/Firmware/STM32-Computer-Firmware/CA7/optee-os-3.19.0-r2/optee-os-stm32mp-3.19.0-stm32mp-r2/lib/libutee/tee_api.c:226
     f5e:	4604      	mov	r4, r0
     f60:	b140      	cbz	r0, f74 <TEE_InvokeTACommand+0x64>
/home/lubuntu/Dokument/GitHub/STM32-Computer/Firmware/STM32-Computer-Firmware/CA7/optee-os-3.19.0-r2/optee-os-stm32mp-3.19.0-stm32mp-r2/lib/libutee/tee_api.c:241
     f62:	9b03      	ldr	r3, [sp, #12]
/home/lubuntu/Dokument/GitHub/STM32-Computer/Firmware/STM32-Computer-Firmware/CA7/optee-os-3.19.0-r2/optee-os-stm32mp-3.19.0-stm32mp-r2/lib/libutee/tee_api.c:240
     f64:	b105      	cbz	r5, f68 <TEE_InvokeTACommand+0x58>
/home/lubuntu/Dokument/GitHub/STM32-Computer/Firmware/STM32-Computer-Firmware/CA7/optee-os-3.19.0-r2/optee-os-stm32mp-3.19.0-stm32mp-r2/lib/libutee/tee_api.c:241
     f66:	602b      	str	r3, [r5, #0]
/home/lubuntu/Dokument/GitHub/STM32-Computer/Firmware/STM32-Computer-Firmware/CA7/optee-os-3.19.0-r2/optee-os-stm32mp-3.19.0-stm32mp-r2/lib/libutee/tee_api.c:243
     f68:	2b04      	cmp	r3, #4
     f6a:	d120      	bne.n	fae <TEE_InvokeTACommand+0x9e>
/home/lubuntu/Dokument/GitHub/STM32-Computer/Firmware/STM32-Computer-Firmware/CA7/optee-os-3.19.0-r2/optee-os-stm32mp-3.19.0-stm32mp-r2/lib/libutee/tee_api.c:252
     f6c:	4620      	mov	r0, r4
     f6e:	b01d      	add	sp, #116	@ 0x74
     f70:	e8bd 8ff0 	ldmia.w	sp!, {r4, r5, r6, r7, r8, r9, sl, fp, pc}
/home/lubuntu/Dokument/GitHub/STM32-Computer/Firmware/STM32-Computer-Firmware/CA7/optee-os-3.19.0-r2/optee-os-stm32mp-3.19.0-stm32mp-r2/lib/libutee/tee_api.c:228
     f74:	ab03      	add	r3, sp, #12
     f76:	465a      	mov	r2, fp
     f78:	9300      	str	r3, [sp, #0]
     f7a:	4651      	mov	r1, sl
     f7c:	4643      	mov	r3, r8
     f7e:	4648      	mov	r0, r9
     f80:	f000 ed66 	blx	1a50 <_utee_invoke_ta_command>
     f84:	4604      	mov	r4, r0
/home/lubuntu/Dokument/GitHub/STM32-Computer/Firmware/STM32-Computer-Firmware/CA7/optee-os-3.19.0-r2/optee-os-stm32mp-3.19.0-stm32mp-r2/lib/libutee/tee_api.c:231
     f86:	4642      	mov	r2, r8
     f88:	4630      	mov	r0, r6
     f8a:	4639      	mov	r1, r7
     f8c:	f7ff fe7a 	bl	c84 <update_out_param>
/home/lubuntu/Dokument/GitHub/STM32-Computer/Firmware/STM32-Computer-Firmware/CA7/optee-os-3.19.0-r2/optee-os-stm32mp-3.19.0-stm32mp-r2/lib/libutee/tee_api.c:232
     f90:	9804      	ldr	r0, [sp, #16]
     f92:	b128      	cbz	r0, fa0 <TEE_InvokeTACommand+0x90>
/home/lubuntu/Dokument/GitHub/STM32-Computer/Firmware/STM32-Computer-Firmware/CA7/optee-os-3.19.0-r2/optee-os-stm32mp-3.19.0-stm32mp-r2/lib/libutee/tee_api.c:233
     f94:	9905      	ldr	r1, [sp, #20]
     f96:	f000 fc9c 	bl	18d2 <tee_unmap>
/home/lubuntu/Dokument/GitHub/STM32-Computer/Firmware/STM32-Computer-Firmware/CA7/optee-os-3.19.0-r2/optee-os-stm32mp-3.19.0-stm32mp-r2/lib/libutee/tee_api.c:235
     f9a:	b108      	cbz	r0, fa0 <TEE_InvokeTACommand+0x90>
/home/lubuntu/Dokument/GitHub/STM32-Computer/Firmware/STM32-Computer-Firmware/CA7/optee-os-3.19.0-r2/optee-os-stm32mp-3.19.0-stm32mp-r2/lib/libutee/tee_api.c:236
     f9c:	f000 f8d6 	bl	114c <TEE_Panic>
/home/lubuntu/Dokument/GitHub/STM32-Computer/Firmware/STM32-Computer-Firmware/CA7/optee-os-3.19.0-r2/optee-os-stm32mp-3.19.0-stm32mp-r2/lib/libutee/tee_api.c:241
     fa0:	9b03      	ldr	r3, [sp, #12]
/home/lubuntu/Dokument/GitHub/STM32-Computer/Firmware/STM32-Computer-Firmware/CA7/optee-os-3.19.0-r2/optee-os-stm32mp-3.19.0-stm32mp-r2/lib/libutee/tee_api.c:240
     fa2:	b105      	cbz	r5, fa6 <TEE_InvokeTACommand+0x96>
/home/lubuntu/Dokument/GitHub/STM32-Computer/Firmware/STM32-Computer-Firmware/CA7/optee-os-3.19.0-r2/optee-os-stm32mp-3.19.0-stm32mp-r2/lib/libutee/tee_api.c:241
     fa4:	602b      	str	r3, [r5, #0]
/home/lubuntu/Dokument/GitHub/STM32-Computer/Firmware/STM32-Computer-Firmware/CA7/optee-os-3.19.0-r2/optee-os-stm32mp-3.19.0-stm32mp-r2/lib/libutee/tee_api.c:243
     fa6:	2b04      	cmp	r3, #4
     fa8:	d0e0      	beq.n	f6c <TEE_InvokeTACommand+0x5c>
/home/lubuntu/Dokument/GitHub/STM32-Computer/Firmware/STM32-Computer-Firmware/CA7/optee-os-3.19.0-r2/optee-os-stm32mp-3.19.0-stm32mp-r2/lib/libutee/tee_api.c:246
     faa:	2c00      	cmp	r4, #0
     fac:	d0de      	beq.n	f6c <TEE_InvokeTACommand+0x5c>
/home/lubuntu/Dokument/GitHub/STM32-Computer/Firmware/STM32-Computer-Firmware/CA7/optee-os-3.19.0-r2/optee-os-stm32mp-3.19.0-stm32mp-r2/lib/libutee/tee_api.c:246 (discriminator 1)
     fae:	4b05      	ldr	r3, [pc, #20]	@ (fc4 <TEE_InvokeTACommand+0xb4>)
     fb0:	429c      	cmp	r4, r3
     fb2:	d0db      	beq.n	f6c <TEE_InvokeTACommand+0x5c>
/home/lubuntu/Dokument/GitHub/STM32-Computer/Firmware/STM32-Computer-Firmware/CA7/optee-os-3.19.0-r2/optee-os-stm32mp-3.19.0-stm32mp-r2/lib/libutee/tee_api.c:247
     fb4:	4b04      	ldr	r3, [pc, #16]	@ (fc8 <TEE_InvokeTACommand+0xb8>)
     fb6:	429c      	cmp	r4, r3
     fb8:	d0d8      	beq.n	f6c <TEE_InvokeTACommand+0x5c>
/home/lubuntu/Dokument/GitHub/STM32-Computer/Firmware/STM32-Computer-Firmware/CA7/optee-os-3.19.0-r2/optee-os-stm32mp-3.19.0-stm32mp-r2/lib/libutee/tee_api.c:249
     fba:	4620      	mov	r0, r4
     fbc:	f000 f8c6 	bl	114c <TEE_Panic>
     fc0:	e7d4      	b.n	f6c <TEE_InvokeTACommand+0x5c>
     fc2:	bf00      	nop
     fc4:	ffff000c 	.word	0xffff000c
     fc8:	ffff3024 	.word	0xffff3024

00000fcc <TEE_SetInstanceData>:
TEE_SetInstanceData():
/home/lubuntu/Dokument/GitHub/STM32-Computer/Firmware/STM32-Computer-Firmware/CA7/optee-os-3.19.0-r2/optee-os-stm32mp-3.19.0-stm32mp-r2/lib/libutee/tee_api.c:313
     fcc:	4b01      	ldr	r3, [pc, #4]	@ (fd4 <TEE_SetInstanceData+0x8>)
     fce:	447b      	add	r3, pc
     fd0:	6018      	str	r0, [r3, #0]
/home/lubuntu/Dokument/GitHub/STM32-Computer/Firmware/STM32-Computer-Firmware/CA7/optee-os-3.19.0-r2/optee-os-stm32mp-3.19.0-stm32mp-r2/lib/libutee/tee_api.c:314
     fd2:	4770      	bx	lr
     fd4:	0000a3be 	.word	0x0000a3be

00000fd8 <TEE_GetInstanceData>:
TEE_GetInstanceData():
/home/lubuntu/Dokument/GitHub/STM32-Computer/Firmware/STM32-Computer-Firmware/CA7/optee-os-3.19.0-r2/optee-os-stm32mp-3.19.0-stm32mp-r2/lib/libutee/tee_api.c:319
     fd8:	4b01      	ldr	r3, [pc, #4]	@ (fe0 <TEE_GetInstanceData+0x8>)
     fda:	447b      	add	r3, pc
     fdc:	6818      	ldr	r0, [r3, #0]
     fde:	4770      	bx	lr
     fe0:	0000a3b2 	.word	0x0000a3b2

00000fe4 <TEE_MemMove>:
TEE_MemMove():
/home/lubuntu/Dokument/GitHub/STM32-Computer/Firmware/STM32-Computer-Firmware/CA7/optee-os-3.19.0-r2/optee-os-stm32mp-3.19.0-stm32mp-r2/lib/libutee/tee_api.c:323
     fe4:	f008 bd95 	b.w	9b12 <memmove>

00000fe8 <TEE_MemCompare>:
TEE_MemCompare():
/home/lubuntu/Dokument/GitHub/STM32-Computer/Firmware/STM32-Computer-Firmware/CA7/optee-os-3.19.0-r2/optee-os-stm32mp-3.19.0-stm32mp-r2/lib/libutee/tee_api.c:328
     fe8:	f008 bdcd 	b.w	9b86 <consttime_memcmp>

00000fec <TEE_MemFill>:
TEE_MemFill():
/home/lubuntu/Dokument/GitHub/STM32-Computer/Firmware/STM32-Computer-Firmware/CA7/optee-os-3.19.0-r2/optee-os-stm32mp-3.19.0-stm32mp-r2/lib/libutee/tee_api.c:333
     fec:	f008 ba9b 	b.w	9526 <memset>

00000ff0 <TEE_GetSystemTime>:
TEE_GetSystemTime():
/home/lubuntu/Dokument/GitHub/STM32-Computer/Firmware/STM32-Computer-Firmware/CA7/optee-os-3.19.0-r2/optee-os-stm32mp-3.19.0-stm32mp-r2/lib/libutee/tee_api.c:339
     ff0:	4601      	mov	r1, r0
/home/lubuntu/Dokument/GitHub/STM32-Computer/Firmware/STM32-Computer-Firmware/CA7/optee-os-3.19.0-r2/optee-os-stm32mp-3.19.0-stm32mp-r2/lib/libutee/tee_api.c:340
     ff2:	2000      	movs	r0, #0
/home/lubuntu/Dokument/GitHub/STM32-Computer/Firmware/STM32-Computer-Firmware/CA7/optee-os-3.19.0-r2/optee-os-stm32mp-3.19.0-stm32mp-r2/lib/libutee/tee_api.c:339
     ff4:	b508      	push	{r3, lr}
/home/lubuntu/Dokument/GitHub/STM32-Computer/Firmware/STM32-Computer-Firmware/CA7/optee-os-3.19.0-r2/optee-os-stm32mp-3.19.0-stm32mp-r2/lib/libutee/tee_api.c:340
     ff6:	f000 ed6a 	blx	1acc <_utee_get_time>
/home/lubuntu/Dokument/GitHub/STM32-Computer/Firmware/STM32-Computer-Firmware/CA7/optee-os-3.19.0-r2/optee-os-stm32mp-3.19.0-stm32mp-r2/lib/libutee/tee_api.c:342
     ffa:	b118      	cbz	r0, 1004 <TEE_GetSystemTime+0x14>
/home/lubuntu/Dokument/GitHub/STM32-Computer/Firmware/STM32-Computer-Firmware/CA7/optee-os-3.19.0-r2/optee-os-stm32mp-3.19.0-stm32mp-r2/lib/libutee/tee_api.c:344
     ffc:	e8bd 4008 	ldmia.w	sp!, {r3, lr}
/home/lubuntu/Dokument/GitHub/STM32-Computer/Firmware/STM32-Computer-Firmware/CA7/optee-os-3.19.0-r2/optee-os-stm32mp-3.19.0-stm32mp-r2/lib/libutee/tee_api.c:343
    1000:	f000 b8a4 	b.w	114c <TEE_Panic>
/home/lubuntu/Dokument/GitHub/STM32-Computer/Firmware/STM32-Computer-Firmware/CA7/optee-os-3.19.0-r2/optee-os-stm32mp-3.19.0-stm32mp-r2/lib/libutee/tee_api.c:344
    1004:	bd08      	pop	{r3, pc}

00001006 <TEE_Wait>:
TEE_Wait():
/home/lubuntu/Dokument/GitHub/STM32-Computer/Firmware/STM32-Computer-Firmware/CA7/optee-os-3.19.0-r2/optee-os-stm32mp-3.19.0-stm32mp-r2/lib/libutee/tee_api.c:347
    1006:	b510      	push	{r4, lr}
/home/lubuntu/Dokument/GitHub/STM32-Computer/Firmware/STM32-Computer-Firmware/CA7/optee-os-3.19.0-r2/optee-os-stm32mp-3.19.0-stm32mp-r2/lib/libutee/tee_api.c:348
    1008:	f000 ed56 	blx	1ab8 <_utee_wait>
/home/lubuntu/Dokument/GitHub/STM32-Computer/Firmware/STM32-Computer-Firmware/CA7/optee-os-3.19.0-r2/optee-os-stm32mp-3.19.0-stm32mp-r2/lib/libutee/tee_api.c:350
    100c:	4604      	mov	r4, r0
    100e:	b120      	cbz	r0, 101a <TEE_Wait+0x14>
/home/lubuntu/Dokument/GitHub/STM32-Computer/Firmware/STM32-Computer-Firmware/CA7/optee-os-3.19.0-r2/optee-os-stm32mp-3.19.0-stm32mp-r2/lib/libutee/tee_api.c:350 (discriminator 1)
    1010:	4b03      	ldr	r3, [pc, #12]	@ (1020 <TEE_Wait+0x1a>)
    1012:	4298      	cmp	r0, r3
    1014:	d001      	beq.n	101a <TEE_Wait+0x14>
/home/lubuntu/Dokument/GitHub/STM32-Computer/Firmware/STM32-Computer-Firmware/CA7/optee-os-3.19.0-r2/optee-os-stm32mp-3.19.0-stm32mp-r2/lib/libutee/tee_api.c:351
    1016:	f000 f899 	bl	114c <TEE_Panic>
/home/lubuntu/Dokument/GitHub/STM32-Computer/Firmware/STM32-Computer-Firmware/CA7/optee-os-3.19.0-r2/optee-os-stm32mp-3.19.0-stm32mp-r2/lib/libutee/tee_api.c:354
    101a:	4620      	mov	r0, r4
    101c:	bd10      	pop	{r4, pc}
    101e:	bf00      	nop
    1020:	ffff0002 	.word	0xffff0002

00001024 <TEE_GetTAPersistentTime>:
TEE_GetTAPersistentTime():
/home/lubuntu/Dokument/GitHub/STM32-Computer/Firmware/STM32-Computer-Firmware/CA7/optee-os-3.19.0-r2/optee-os-stm32mp-3.19.0-stm32mp-r2/lib/libutee/tee_api.c:357
    1024:	b538      	push	{r3, r4, r5, lr}
/home/lubuntu/Dokument/GitHub/STM32-Computer/Firmware/STM32-Computer-Firmware/CA7/optee-os-3.19.0-r2/optee-os-stm32mp-3.19.0-stm32mp-r2/lib/libutee/tee_api.c:360
    1026:	4601      	mov	r1, r0
/home/lubuntu/Dokument/GitHub/STM32-Computer/Firmware/STM32-Computer-Firmware/CA7/optee-os-3.19.0-r2/optee-os-stm32mp-3.19.0-stm32mp-r2/lib/libutee/tee_api.c:357
    1028:	4605      	mov	r5, r0
/home/lubuntu/Dokument/GitHub/STM32-Computer/Firmware/STM32-Computer-Firmware/CA7/optee-os-3.19.0-r2/optee-os-stm32mp-3.19.0-stm32mp-r2/lib/libutee/tee_api.c:360
    102a:	2001      	movs	r0, #1
    102c:	f000 ed4e 	blx	1acc <_utee_get_time>
    1030:	4604      	mov	r4, r0
/home/lubuntu/Dokument/GitHub/STM32-Computer/Firmware/STM32-Computer-Firmware/CA7/optee-os-3.19.0-r2/optee-os-stm32mp-3.19.0-stm32mp-r2/lib/libutee/tee_api.c:362
    1032:	b170      	cbz	r0, 1052 <TEE_GetTAPersistentTime+0x2e>
/home/lubuntu/Dokument/GitHub/STM32-Computer/Firmware/STM32-Computer-Firmware/CA7/optee-os-3.19.0-r2/optee-os-stm32mp-3.19.0-stm32mp-r2/lib/libutee/tee_api.c:362 (discriminator 1)
    1034:	4b08      	ldr	r3, [pc, #32]	@ (1058 <TEE_GetTAPersistentTime+0x34>)
    1036:	4298      	cmp	r0, r3
    1038:	d00b      	beq.n	1052 <TEE_GetTAPersistentTime+0x2e>
/home/lubuntu/Dokument/GitHub/STM32-Computer/Firmware/STM32-Computer-Firmware/CA7/optee-os-3.19.0-r2/optee-os-stm32mp-3.19.0-stm32mp-r2/lib/libutee/tee_api.c:363
    103a:	2300      	movs	r3, #0
    103c:	602b      	str	r3, [r5, #0]
/home/lubuntu/Dokument/GitHub/STM32-Computer/Firmware/STM32-Computer-Firmware/CA7/optee-os-3.19.0-r2/optee-os-stm32mp-3.19.0-stm32mp-r2/lib/libutee/tee_api.c:364
    103e:	606b      	str	r3, [r5, #4]
/home/lubuntu/Dokument/GitHub/STM32-Computer/Firmware/STM32-Computer-Firmware/CA7/optee-os-3.19.0-r2/optee-os-stm32mp-3.19.0-stm32mp-r2/lib/libutee/tee_api.c:367
    1040:	f500 4330 	add.w	r3, r0, #45056	@ 0xb000
    1044:	2b01      	cmp	r3, #1
    1046:	d904      	bls.n	1052 <TEE_GetTAPersistentTime+0x2e>
/home/lubuntu/Dokument/GitHub/STM32-Computer/Firmware/STM32-Computer-Firmware/CA7/optee-os-3.19.0-r2/optee-os-stm32mp-3.19.0-stm32mp-r2/lib/libutee/tee_api.c:370
    1048:	4b04      	ldr	r3, [pc, #16]	@ (105c <TEE_GetTAPersistentTime+0x38>)
    104a:	4298      	cmp	r0, r3
    104c:	d001      	beq.n	1052 <TEE_GetTAPersistentTime+0x2e>
/home/lubuntu/Dokument/GitHub/STM32-Computer/Firmware/STM32-Computer-Firmware/CA7/optee-os-3.19.0-r2/optee-os-stm32mp-3.19.0-stm32mp-r2/lib/libutee/tee_api.c:372
    104e:	f000 f87d 	bl	114c <TEE_Panic>
/home/lubuntu/Dokument/GitHub/STM32-Computer/Firmware/STM32-Computer-Firmware/CA7/optee-os-3.19.0-r2/optee-os-stm32mp-3.19.0-stm32mp-r2/lib/libutee/tee_api.c:375
    1052:	4620      	mov	r0, r4
    1054:	bd38      	pop	{r3, r4, r5, pc}
    1056:	bf00      	nop
    1058:	ffff300f 	.word	0xffff300f
    105c:	ffff000c 	.word	0xffff000c

00001060 <TEE_SetTAPersistentTime>:
TEE_SetTAPersistentTime():
/home/lubuntu/Dokument/GitHub/STM32-Computer/Firmware/STM32-Computer-Firmware/CA7/optee-os-3.19.0-r2/optee-os-stm32mp-3.19.0-stm32mp-r2/lib/libutee/tee_api.c:378
    1060:	b510      	push	{r4, lr}
/home/lubuntu/Dokument/GitHub/STM32-Computer/Firmware/STM32-Computer-Firmware/CA7/optee-os-3.19.0-r2/optee-os-stm32mp-3.19.0-stm32mp-r2/lib/libutee/tee_api.c:381
    1062:	f000 ed3e 	blx	1ae0 <_utee_set_ta_time>
/home/lubuntu/Dokument/GitHub/STM32-Computer/Firmware/STM32-Computer-Firmware/CA7/optee-os-3.19.0-r2/optee-os-stm32mp-3.19.0-stm32mp-r2/lib/libutee/tee_api.c:383
    1066:	4604      	mov	r4, r0
    1068:	b138      	cbz	r0, 107a <TEE_SetTAPersistentTime+0x1a>
/home/lubuntu/Dokument/GitHub/STM32-Computer/Firmware/STM32-Computer-Firmware/CA7/optee-os-3.19.0-r2/optee-os-stm32mp-3.19.0-stm32mp-r2/lib/libutee/tee_api.c:383 (discriminator 1)
    106a:	4b05      	ldr	r3, [pc, #20]	@ (1080 <TEE_SetTAPersistentTime+0x20>)
    106c:	4298      	cmp	r0, r3
    106e:	d004      	beq.n	107a <TEE_SetTAPersistentTime+0x1a>
/home/lubuntu/Dokument/GitHub/STM32-Computer/Firmware/STM32-Computer-Firmware/CA7/optee-os-3.19.0-r2/optee-os-stm32mp-3.19.0-stm32mp-r2/lib/libutee/tee_api.c:384
    1070:	4b04      	ldr	r3, [pc, #16]	@ (1084 <TEE_SetTAPersistentTime+0x24>)
    1072:	4298      	cmp	r0, r3
    1074:	d001      	beq.n	107a <TEE_SetTAPersistentTime+0x1a>
/home/lubuntu/Dokument/GitHub/STM32-Computer/Firmware/STM32-Computer-Firmware/CA7/optee-os-3.19.0-r2/optee-os-stm32mp-3.19.0-stm32mp-r2/lib/libutee/tee_api.c:386
    1076:	f000 f869 	bl	114c <TEE_Panic>
/home/lubuntu/Dokument/GitHub/STM32-Computer/Firmware/STM32-Computer-Firmware/CA7/optee-os-3.19.0-r2/optee-os-stm32mp-3.19.0-stm32mp-r2/lib/libutee/tee_api.c:389
    107a:	4620      	mov	r0, r4
    107c:	bd10      	pop	{r4, pc}
    107e:	bf00      	nop
    1080:	ffff000c 	.word	0xffff000c
    1084:	ffff3041 	.word	0xffff3041

00001088 <TEE_GetREETime>:
TEE_GetREETime():
/home/lubuntu/Dokument/GitHub/STM32-Computer/Firmware/STM32-Computer-Firmware/CA7/optee-os-3.19.0-r2/optee-os-stm32mp-3.19.0-stm32mp-r2/lib/libutee/tee_api.c:392
    1088:	4601      	mov	r1, r0
/home/lubuntu/Dokument/GitHub/STM32-Computer/Firmware/STM32-Computer-Firmware/CA7/optee-os-3.19.0-r2/optee-os-stm32mp-3.19.0-stm32mp-r2/lib/libutee/tee_api.c:393
    108a:	2002      	movs	r0, #2
/home/lubuntu/Dokument/GitHub/STM32-Computer/Firmware/STM32-Computer-Firmware/CA7/optee-os-3.19.0-r2/optee-os-stm32mp-3.19.0-stm32mp-r2/lib/libutee/tee_api.c:392
    108c:	b508      	push	{r3, lr}
/home/lubuntu/Dokument/GitHub/STM32-Computer/Firmware/STM32-Computer-Firmware/CA7/optee-os-3.19.0-r2/optee-os-stm32mp-3.19.0-stm32mp-r2/lib/libutee/tee_api.c:393
    108e:	f000 ed1e 	blx	1acc <_utee_get_time>
/home/lubuntu/Dokument/GitHub/STM32-Computer/Firmware/STM32-Computer-Firmware/CA7/optee-os-3.19.0-r2/optee-os-stm32mp-3.19.0-stm32mp-r2/lib/libutee/tee_api.c:395
    1092:	b118      	cbz	r0, 109c <TEE_GetREETime+0x14>
/home/lubuntu/Dokument/GitHub/STM32-Computer/Firmware/STM32-Computer-Firmware/CA7/optee-os-3.19.0-r2/optee-os-stm32mp-3.19.0-stm32mp-r2/lib/libutee/tee_api.c:397
    1094:	e8bd 4008 	ldmia.w	sp!, {r3, lr}
/home/lubuntu/Dokument/GitHub/STM32-Computer/Firmware/STM32-Computer-Firmware/CA7/optee-os-3.19.0-r2/optee-os-stm32mp-3.19.0-stm32mp-r2/lib/libutee/tee_api.c:396
    1098:	f000 b858 	b.w	114c <TEE_Panic>
/home/lubuntu/Dokument/GitHub/STM32-Computer/Firmware/STM32-Computer-Firmware/CA7/optee-os-3.19.0-r2/optee-os-stm32mp-3.19.0-stm32mp-r2/lib/libutee/tee_api.c:397
    109c:	bd08      	pop	{r3, pc}

0000109e <TEE_Malloc>:
TEE_Malloc():
/home/lubuntu/Dokument/GitHub/STM32-Computer/Firmware/STM32-Computer-Firmware/CA7/optee-os-3.19.0-r2/optee-os-stm32mp-3.19.0-stm32mp-r2/lib/libutee/tee_api.c:400
    109e:	460b      	mov	r3, r1
    10a0:	b507      	push	{r0, r1, r2, lr}
/home/lubuntu/Dokument/GitHub/STM32-Computer/Firmware/STM32-Computer-Firmware/CA7/optee-os-3.19.0-r2/optee-os-stm32mp-3.19.0-stm32mp-r2/lib/libutee/tee_api.c:401
    10a2:	4601      	mov	r1, r0
    10a4:	b1f0      	cbz	r0, 10e4 <TEE_Malloc+0x46>
/home/lubuntu/Dokument/GitHub/STM32-Computer/Firmware/STM32-Computer-Firmware/CA7/optee-os-3.19.0-r2/optee-os-stm32mp-3.19.0-stm32mp-r2/lib/libutee/tee_api.c:404
    10a6:	b92b      	cbnz	r3, 10b4 <TEE_Malloc+0x16>
/home/lubuntu/Dokument/GitHub/STM32-Computer/Firmware/STM32-Computer-Firmware/CA7/optee-os-3.19.0-r2/optee-os-stm32mp-3.19.0-stm32mp-r2/lib/libutee/tee_api.c:405
    10a8:	2001      	movs	r0, #1
/home/lubuntu/Dokument/GitHub/STM32-Computer/Firmware/STM32-Computer-Firmware/CA7/optee-os-3.19.0-r2/optee-os-stm32mp-3.19.0-stm32mp-r2/lib/libutee/tee_api.c:412
    10aa:	b003      	add	sp, #12
    10ac:	f85d eb04 	ldr.w	lr, [sp], #4
/home/lubuntu/Dokument/GitHub/STM32-Computer/Firmware/STM32-Computer-Firmware/CA7/optee-os-3.19.0-r2/optee-os-stm32mp-3.19.0-stm32mp-r2/lib/libutee/tee_api.c:405
    10b0:	f005 bdf0 	b.w	6c94 <calloc>
/home/lubuntu/Dokument/GitHub/STM32-Computer/Firmware/STM32-Computer-Firmware/CA7/optee-os-3.19.0-r2/optee-os-stm32mp-3.19.0-stm32mp-r2/lib/libutee/tee_api.c:406
    10b4:	f1b3 4f00 	cmp.w	r3, #2147483648	@ 0x80000000
    10b8:	d104      	bne.n	10c4 <TEE_Malloc+0x26>
/home/lubuntu/Dokument/GitHub/STM32-Computer/Firmware/STM32-Computer-Firmware/CA7/optee-os-3.19.0-r2/optee-os-stm32mp-3.19.0-stm32mp-r2/lib/libutee/tee_api.c:412
    10ba:	b003      	add	sp, #12
    10bc:	f85d eb04 	ldr.w	lr, [sp], #4
/home/lubuntu/Dokument/GitHub/STM32-Computer/Firmware/STM32-Computer-Firmware/CA7/optee-os-3.19.0-r2/optee-os-stm32mp-3.19.0-stm32mp-r2/lib/libutee/tee_api.c:407
    10c0:	f005 bdde 	b.w	6c80 <malloc>
/home/lubuntu/Dokument/GitHub/STM32-Computer/Firmware/STM32-Computer-Firmware/CA7/optee-os-3.19.0-r2/optee-os-stm32mp-3.19.0-stm32mp-r2/lib/libutee/tee_api.c:409
    10c4:	9301      	str	r3, [sp, #4]
    10c6:	f240 1199 	movw	r1, #409	@ 0x199
    10ca:	4b07      	ldr	r3, [pc, #28]	@ (10e8 <TEE_Malloc+0x4a>)
    10cc:	4807      	ldr	r0, [pc, #28]	@ (10ec <TEE_Malloc+0x4e>)
    10ce:	447b      	add	r3, pc
    10d0:	9300      	str	r3, [sp, #0]
    10d2:	2301      	movs	r3, #1
    10d4:	4478      	add	r0, pc
    10d6:	461a      	mov	r2, r3
    10d8:	f7ff f9b8 	bl	44c <trace_printf>
/home/lubuntu/Dokument/GitHub/STM32-Computer/Firmware/STM32-Computer-Firmware/CA7/optee-os-3.19.0-r2/optee-os-stm32mp-3.19.0-stm32mp-r2/lib/libutee/tee_api.c:411
    10dc:	2000      	movs	r0, #0
/home/lubuntu/Dokument/GitHub/STM32-Computer/Firmware/STM32-Computer-Firmware/CA7/optee-os-3.19.0-r2/optee-os-stm32mp-3.19.0-stm32mp-r2/lib/libutee/tee_api.c:412
    10de:	b003      	add	sp, #12
    10e0:	f85d fb04 	ldr.w	pc, [sp], #4
/home/lubuntu/Dokument/GitHub/STM32-Computer/Firmware/STM32-Computer-Firmware/CA7/optee-os-3.19.0-r2/optee-os-stm32mp-3.19.0-stm32mp-r2/lib/libutee/tee_api.c:402
    10e4:	2001      	movs	r0, #1
    10e6:	e7fa      	b.n	10de <TEE_Malloc+0x40>
    10e8:	00008fd1 	.word	0x00008fd1
    10ec:	00008fdc 	.word	0x00008fdc

000010f0 <TEE_Free>:
TEE_Free():
/home/lubuntu/Dokument/GitHub/STM32-Computer/Firmware/STM32-Computer-Firmware/CA7/optee-os-3.19.0-r2/optee-os-stm32mp-3.19.0-stm32mp-r2/lib/libutee/tee_api.c:429
    10f0:	2801      	cmp	r0, #1
    10f2:	d001      	beq.n	10f8 <TEE_Free+0x8>
/home/lubuntu/Dokument/GitHub/STM32-Computer/Firmware/STM32-Computer-Firmware/CA7/optee-os-3.19.0-r2/optee-os-stm32mp-3.19.0-stm32mp-r2/lib/libutee/tee_api.c:430
    10f4:	f005 be07 	b.w	6d06 <free>
/home/lubuntu/Dokument/GitHub/STM32-Computer/Firmware/STM32-Computer-Firmware/CA7/optee-os-3.19.0-r2/optee-os-stm32mp-3.19.0-stm32mp-r2/lib/libutee/tee_api.c:431
    10f8:	4770      	bx	lr

000010fa <TEE_Realloc>:
TEE_Realloc():
/home/lubuntu/Dokument/GitHub/STM32-Computer/Firmware/STM32-Computer-Firmware/CA7/optee-os-3.19.0-r2/optee-os-stm32mp-3.19.0-stm32mp-r2/lib/libutee/tee_api.c:415
    10fa:	b508      	push	{r3, lr}
/home/lubuntu/Dokument/GitHub/STM32-Computer/Firmware/STM32-Computer-Firmware/CA7/optee-os-3.19.0-r2/optee-os-stm32mp-3.19.0-stm32mp-r2/lib/libutee/tee_api.c:416
    10fc:	b149      	cbz	r1, 1112 <TEE_Realloc+0x18>
/home/lubuntu/Dokument/GitHub/STM32-Computer/Firmware/STM32-Computer-Firmware/CA7/optee-os-3.19.0-r2/optee-os-stm32mp-3.19.0-stm32mp-r2/lib/libutee/tee_api.c:421
    10fe:	2801      	cmp	r0, #1
    1100:	d103      	bne.n	110a <TEE_Realloc+0x10>
/home/lubuntu/Dokument/GitHub/STM32-Computer/Firmware/STM32-Computer-Firmware/CA7/optee-os-3.19.0-r2/optee-os-stm32mp-3.19.0-stm32mp-r2/lib/libutee/tee_api.c:425
    1102:	e8bd 4008 	ldmia.w	sp!, {r3, lr}
/home/lubuntu/Dokument/GitHub/STM32-Computer/Firmware/STM32-Computer-Firmware/CA7/optee-os-3.19.0-r2/optee-os-stm32mp-3.19.0-stm32mp-r2/lib/libutee/tee_api.c:422
    1106:	f005 bdc5 	b.w	6c94 <calloc>
/home/lubuntu/Dokument/GitHub/STM32-Computer/Firmware/STM32-Computer-Firmware/CA7/optee-os-3.19.0-r2/optee-os-stm32mp-3.19.0-stm32mp-r2/lib/libutee/tee_api.c:425
    110a:	e8bd 4008 	ldmia.w	sp!, {r3, lr}
/home/lubuntu/Dokument/GitHub/STM32-Computer/Firmware/STM32-Computer-Firmware/CA7/optee-os-3.19.0-r2/optee-os-stm32mp-3.19.0-stm32mp-r2/lib/libutee/tee_api.c:424
    110e:	f005 bdd1 	b.w	6cb4 <realloc>
/home/lubuntu/Dokument/GitHub/STM32-Computer/Firmware/STM32-Computer-Firmware/CA7/optee-os-3.19.0-r2/optee-os-stm32mp-3.19.0-stm32mp-r2/lib/libutee/tee_api.c:417
    1112:	f7ff ffed 	bl	10f0 <TEE_Free>
/home/lubuntu/Dokument/GitHub/STM32-Computer/Firmware/STM32-Computer-Firmware/CA7/optee-os-3.19.0-r2/optee-os-stm32mp-3.19.0-stm32mp-r2/lib/libutee/tee_api.c:425
    1116:	2001      	movs	r0, #1
    1118:	bd08      	pop	{r3, pc}

0000111a <TEE_CacheClean>:
TEE_CacheClean():
/home/lubuntu/Dokument/GitHub/STM32-Computer/Firmware/STM32-Computer-Firmware/CA7/optee-os-3.19.0-r2/optee-os-stm32mp-3.19.0-stm32mp-r2/lib/libutee/tee_api.c:436
    111a:	2200      	movs	r2, #0
    111c:	f008 bd70 	b.w	9c00 <___utee_cache_operation_from_thumb>

00001120 <TEE_CacheFlush>:
TEE_CacheFlush():
/home/lubuntu/Dokument/GitHub/STM32-Computer/Firmware/STM32-Computer-Firmware/CA7/optee-os-3.19.0-r2/optee-os-stm32mp-3.19.0-stm32mp-r2/lib/libutee/tee_api.c:440
    1120:	2201      	movs	r2, #1
    1122:	f008 bd6d 	b.w	9c00 <___utee_cache_operation_from_thumb>

00001126 <TEE_CacheInvalidate>:
TEE_CacheInvalidate():
/home/lubuntu/Dokument/GitHub/STM32-Computer/Firmware/STM32-Computer-Firmware/CA7/optee-os-3.19.0-r2/optee-os-stm32mp-3.19.0-stm32mp-r2/lib/libutee/tee_api.c:445
    1126:	2202      	movs	r2, #2
    1128:	f008 bd6a 	b.w	9c00 <___utee_cache_operation_from_thumb>

0000112c <check_access>:
check_access():
/home/lubuntu/Dokument/GitHub/STM32-Computer/Firmware/STM32-Computer-Firmware/CA7/optee-os-3.19.0-r2/optee-os-stm32mp-3.19.0-stm32mp-r2/lib/libutee/tee_api_panic.c:40
    112c:	4613      	mov	r3, r2
/home/lubuntu/Dokument/GitHub/STM32-Computer/Firmware/STM32-Computer-Firmware/CA7/optee-os-3.19.0-r2/optee-os-stm32mp-3.19.0-stm32mp-r2/lib/libutee/tee_api_panic.c:39
    112e:	b410      	push	{r4}
/home/lubuntu/Dokument/GitHub/STM32-Computer/Firmware/STM32-Computer-Firmware/CA7/optee-os-3.19.0-r2/optee-os-stm32mp-3.19.0-stm32mp-r2/lib/libutee/tee_api_panic.c:40
    1130:	b12a      	cbz	r2, 113e <check_access+0x12>
/home/lubuntu/Dokument/GitHub/STM32-Computer/Firmware/STM32-Computer-Firmware/CA7/optee-os-3.19.0-r2/optee-os-stm32mp-3.19.0-stm32mp-r2/lib/libutee/tee_api_panic.c:43
    1132:	b119      	cbz	r1, 113c <check_access+0x10>
/home/lubuntu/Dokument/GitHub/STM32-Computer/Firmware/STM32-Computer-Firmware/CA7/optee-os-3.19.0-r2/optee-os-stm32mp-3.19.0-stm32mp-r2/lib/libutee/tee_api_panic.c:50
    1134:	f85d 4b04 	ldr.w	r4, [sp], #4
/home/lubuntu/Dokument/GitHub/STM32-Computer/Firmware/STM32-Computer-Firmware/CA7/optee-os-3.19.0-r2/optee-os-stm32mp-3.19.0-stm32mp-r2/lib/libutee/tee_api_panic.c:47
    1138:	f7ff be0b 	b.w	d52 <TEE_CheckMemoryAccessRights>
/home/lubuntu/Dokument/GitHub/STM32-Computer/Firmware/STM32-Computer-Firmware/CA7/optee-os-3.19.0-r2/optee-os-stm32mp-3.19.0-stm32mp-r2/lib/libutee/tee_api_panic.c:44
    113c:	4b02      	ldr	r3, [pc, #8]	@ (1148 <check_access+0x1c>)
/home/lubuntu/Dokument/GitHub/STM32-Computer/Firmware/STM32-Computer-Firmware/CA7/optee-os-3.19.0-r2/optee-os-stm32mp-3.19.0-stm32mp-r2/lib/libutee/tee_api_panic.c:50
    113e:	f85d 4b04 	ldr.w	r4, [sp], #4
    1142:	4618      	mov	r0, r3
    1144:	4770      	bx	lr
    1146:	bf00      	nop
    1148:	ffff000f 	.word	0xffff000f

0000114c <TEE_Panic>:
TEE_Panic():
/home/lubuntu/Dokument/GitHub/STM32-Computer/Firmware/STM32-Computer-Firmware/CA7/optee-os-3.19.0-r2/optee-os-stm32mp-3.19.0-stm32mp-r2/lib/libutee/tee_api_panic.c:24
    114c:	f008 bd40 	b.w	9bd0 <___utee_panic_from_thumb>

00001150 <check_res.part.0>:
check_res():
/home/lubuntu/Dokument/GitHub/STM32-Computer/Firmware/STM32-Computer-Firmware/CA7/optee-os-3.19.0-r2/optee-os-stm32mp-3.19.0-stm32mp-r2/lib/libutee/tee_api_panic.c:34
    1150:	2000      	movs	r0, #0
    1152:	f7ff bffb 	b.w	114c <TEE_Panic>

00001156 <__utee_check_outbuf_annotation>:
__utee_check_outbuf_annotation():
/home/lubuntu/Dokument/GitHub/STM32-Computer/Firmware/STM32-Computer-Firmware/CA7/optee-os-3.19.0-r2/optee-os-stm32mp-3.19.0-stm32mp-r2/lib/libutee/tee_api_panic.c:53
    1156:	b538      	push	{r3, r4, r5, lr}
    1158:	4605      	mov	r5, r0
check_access():
/home/lubuntu/Dokument/GitHub/STM32-Computer/Firmware/STM32-Computer-Firmware/CA7/optee-os-3.19.0-r2/optee-os-stm32mp-3.19.0-stm32mp-r2/lib/libutee/tee_api_panic.c:43
    115a:	460c      	mov	r4, r1
    115c:	b951      	cbnz	r1, 1174 <__utee_check_outbuf_annotation+0x1e>
check_res():
/home/lubuntu/Dokument/GitHub/STM32-Computer/Firmware/STM32-Computer-Firmware/CA7/optee-os-3.19.0-r2/optee-os-stm32mp-3.19.0-stm32mp-r2/lib/libutee/tee_api_panic.c:43
    115e:	f7ff fff7 	bl	1150 <check_res.part.0>
__utee_check_outbuf_annotation():
/home/lubuntu/Dokument/GitHub/STM32-Computer/Firmware/STM32-Computer-Firmware/CA7/optee-os-3.19.0-r2/optee-os-stm32mp-3.19.0-stm32mp-r2/lib/libutee/tee_api_panic.c:56
    1162:	6822      	ldr	r2, [r4, #0]
    1164:	4629      	mov	r1, r5
    1166:	2006      	movs	r0, #6
    1168:	f7ff ffe0 	bl	112c <check_access>
check_res():
/home/lubuntu/Dokument/GitHub/STM32-Computer/Firmware/STM32-Computer-Firmware/CA7/optee-os-3.19.0-r2/optee-os-stm32mp-3.19.0-stm32mp-r2/lib/libutee/tee_api_panic.c:32
    116c:	b148      	cbz	r0, 1182 <__utee_check_outbuf_annotation+0x2c>
__utee_check_outbuf_annotation():
/home/lubuntu/Dokument/GitHub/STM32-Computer/Firmware/STM32-Computer-Firmware/CA7/optee-os-3.19.0-r2/optee-os-stm32mp-3.19.0-stm32mp-r2/lib/libutee/tee_api_panic.c:58
    116e:	e8bd 4038 	ldmia.w	sp!, {r3, r4, r5, lr}
check_res():
/home/lubuntu/Dokument/GitHub/STM32-Computer/Firmware/STM32-Computer-Firmware/CA7/optee-os-3.19.0-r2/optee-os-stm32mp-3.19.0-stm32mp-r2/lib/libutee/tee_api_panic.c:58
    1172:	e7ed      	b.n	1150 <check_res.part.0>
check_access():
/home/lubuntu/Dokument/GitHub/STM32-Computer/Firmware/STM32-Computer-Firmware/CA7/optee-os-3.19.0-r2/optee-os-stm32mp-3.19.0-stm32mp-r2/lib/libutee/tee_api_panic.c:47
    1174:	2204      	movs	r2, #4
    1176:	2003      	movs	r0, #3
    1178:	f7ff fdeb 	bl	d52 <TEE_CheckMemoryAccessRights>
check_res():
/home/lubuntu/Dokument/GitHub/STM32-Computer/Firmware/STM32-Computer-Firmware/CA7/optee-os-3.19.0-r2/optee-os-stm32mp-3.19.0-stm32mp-r2/lib/libutee/tee_api_panic.c:32
    117c:	2800      	cmp	r0, #0
    117e:	d0f0      	beq.n	1162 <__utee_check_outbuf_annotation+0xc>
    1180:	e7ed      	b.n	115e <__utee_check_outbuf_annotation+0x8>
__utee_check_outbuf_annotation():
/home/lubuntu/Dokument/GitHub/STM32-Computer/Firmware/STM32-Computer-Firmware/CA7/optee-os-3.19.0-r2/optee-os-stm32mp-3.19.0-stm32mp-r2/lib/libutee/tee_api_panic.c:58
    1182:	bd38      	pop	{r3, r4, r5, pc}

00001184 <__utee_check_instring_annotation>:
__utee_check_instring_annotation():
/home/lubuntu/Dokument/GitHub/STM32-Computer/Firmware/STM32-Computer-Firmware/CA7/optee-os-3.19.0-r2/optee-os-stm32mp-3.19.0-stm32mp-r2/lib/libutee/tee_api_panic.c:61
    1184:	b510      	push	{r4, lr}
    1186:	4604      	mov	r4, r0
/home/lubuntu/Dokument/GitHub/STM32-Computer/Firmware/STM32-Computer-Firmware/CA7/optee-os-3.19.0-r2/optee-os-stm32mp-3.19.0-stm32mp-r2/lib/libutee/tee_api_panic.c:63
    1188:	f008 f9e3 	bl	9552 <strlen>
/home/lubuntu/Dokument/GitHub/STM32-Computer/Firmware/STM32-Computer-Firmware/CA7/optee-os-3.19.0-r2/optee-os-stm32mp-3.19.0-stm32mp-r2/lib/libutee/tee_api_panic.c:62
    118c:	1c42      	adds	r2, r0, #1
    118e:	4621      	mov	r1, r4
    1190:	2001      	movs	r0, #1
    1192:	f7ff ffcb 	bl	112c <check_access>
check_res():
/home/lubuntu/Dokument/GitHub/STM32-Computer/Firmware/STM32-Computer-Firmware/CA7/optee-os-3.19.0-r2/optee-os-stm32mp-3.19.0-stm32mp-r2/lib/libutee/tee_api_panic.c:32
    1196:	b110      	cbz	r0, 119e <__utee_check_instring_annotation+0x1a>
__utee_check_instring_annotation():
/home/lubuntu/Dokument/GitHub/STM32-Computer/Firmware/STM32-Computer-Firmware/CA7/optee-os-3.19.0-r2/optee-os-stm32mp-3.19.0-stm32mp-r2/lib/libutee/tee_api_panic.c:64
    1198:	e8bd 4010 	ldmia.w	sp!, {r4, lr}
check_res():
/home/lubuntu/Dokument/GitHub/STM32-Computer/Firmware/STM32-Computer-Firmware/CA7/optee-os-3.19.0-r2/optee-os-stm32mp-3.19.0-stm32mp-r2/lib/libutee/tee_api_panic.c:64
    119c:	e7d8      	b.n	1150 <check_res.part.0>
__utee_check_instring_annotation():
/home/lubuntu/Dokument/GitHub/STM32-Computer/Firmware/STM32-Computer-Firmware/CA7/optee-os-3.19.0-r2/optee-os-stm32mp-3.19.0-stm32mp-r2/lib/libutee/tee_api_panic.c:64
    119e:	bd10      	pop	{r4, pc}

000011a0 <__utee_check_outstring_annotation>:
__utee_check_outstring_annotation():
/home/lubuntu/Dokument/GitHub/STM32-Computer/Firmware/STM32-Computer-Firmware/CA7/optee-os-3.19.0-r2/optee-os-stm32mp-3.19.0-stm32mp-r2/lib/libutee/tee_api_panic.c:66
    11a0:	e7d9      	b.n	1156 <__utee_check_outbuf_annotation>

000011a2 <__utee_check_out_annotation>:
__utee_check_out_annotation():
/home/lubuntu/Dokument/GitHub/STM32-Computer/Firmware/STM32-Computer-Firmware/CA7/optee-os-3.19.0-r2/optee-os-stm32mp-3.19.0-stm32mp-r2/lib/libutee/tee_api_panic.c:75
    11a2:	460a      	mov	r2, r1
/home/lubuntu/Dokument/GitHub/STM32-Computer/Firmware/STM32-Computer-Firmware/CA7/optee-os-3.19.0-r2/optee-os-stm32mp-3.19.0-stm32mp-r2/lib/libutee/tee_api_panic.c:76
    11a4:	4601      	mov	r1, r0
/home/lubuntu/Dokument/GitHub/STM32-Computer/Firmware/STM32-Computer-Firmware/CA7/optee-os-3.19.0-r2/optee-os-stm32mp-3.19.0-stm32mp-r2/lib/libutee/tee_api_panic.c:75
    11a6:	b508      	push	{r3, lr}
/home/lubuntu/Dokument/GitHub/STM32-Computer/Firmware/STM32-Computer-Firmware/CA7/optee-os-3.19.0-r2/optee-os-stm32mp-3.19.0-stm32mp-r2/lib/libutee/tee_api_panic.c:76
    11a8:	2002      	movs	r0, #2
    11aa:	f7ff ffbf 	bl	112c <check_access>
check_res():
/home/lubuntu/Dokument/GitHub/STM32-Computer/Firmware/STM32-Computer-Firmware/CA7/optee-os-3.19.0-r2/optee-os-stm32mp-3.19.0-stm32mp-r2/lib/libutee/tee_api_panic.c:32
    11ae:	b110      	cbz	r0, 11b6 <__utee_check_out_annotation+0x14>
__utee_check_out_annotation():
/home/lubuntu/Dokument/GitHub/STM32-Computer/Firmware/STM32-Computer-Firmware/CA7/optee-os-3.19.0-r2/optee-os-stm32mp-3.19.0-stm32mp-r2/lib/libutee/tee_api_panic.c:78
    11b0:	e8bd 4008 	ldmia.w	sp!, {r3, lr}
check_res():
/home/lubuntu/Dokument/GitHub/STM32-Computer/Firmware/STM32-Computer-Firmware/CA7/optee-os-3.19.0-r2/optee-os-stm32mp-3.19.0-stm32mp-r2/lib/libutee/tee_api_panic.c:78
    11b4:	e7cc      	b.n	1150 <check_res.part.0>
__utee_check_out_annotation():
/home/lubuntu/Dokument/GitHub/STM32-Computer/Firmware/STM32-Computer-Firmware/CA7/optee-os-3.19.0-r2/optee-os-stm32mp-3.19.0-stm32mp-r2/lib/libutee/tee_api_panic.c:78
    11b6:	bd08      	pop	{r3, pc}

000011b8 <__utee_check_attr_in_annotation>:
__utee_check_attr_in_annotation():
/home/lubuntu/Dokument/GitHub/STM32-Computer/Firmware/STM32-Computer-Firmware/CA7/optee-os-3.19.0-r2/optee-os-stm32mp-3.19.0-stm32mp-r2/lib/libutee/tee_api_panic.c:82
    11b8:	220c      	movs	r2, #12
    11ba:	434a      	muls	r2, r1
/home/lubuntu/Dokument/GitHub/STM32-Computer/Firmware/STM32-Computer-Firmware/CA7/optee-os-3.19.0-r2/optee-os-stm32mp-3.19.0-stm32mp-r2/lib/libutee/tee_api_panic.c:81
    11bc:	b508      	push	{r3, lr}
/home/lubuntu/Dokument/GitHub/STM32-Computer/Firmware/STM32-Computer-Firmware/CA7/optee-os-3.19.0-r2/optee-os-stm32mp-3.19.0-stm32mp-r2/lib/libutee/tee_api_panic.c:82
    11be:	4601      	mov	r1, r0
    11c0:	2001      	movs	r0, #1
    11c2:	f7ff ffb3 	bl	112c <check_access>
check_res():
/home/lubuntu/Dokument/GitHub/STM32-Computer/Firmware/STM32-Computer-Firmware/CA7/optee-os-3.19.0-r2/optee-os-stm32mp-3.19.0-stm32mp-r2/lib/libutee/tee_api_panic.c:32
    11c6:	b110      	cbz	r0, 11ce <__utee_check_attr_in_annotation+0x16>
__utee_check_attr_in_annotation():
/home/lubuntu/Dokument/GitHub/STM32-Computer/Firmware/STM32-Computer-Firmware/CA7/optee-os-3.19.0-r2/optee-os-stm32mp-3.19.0-stm32mp-r2/lib/libutee/tee_api_panic.c:84
    11c8:	e8bd 4008 	ldmia.w	sp!, {r3, lr}
check_res():
/home/lubuntu/Dokument/GitHub/STM32-Computer/Firmware/STM32-Computer-Firmware/CA7/optee-os-3.19.0-r2/optee-os-stm32mp-3.19.0-stm32mp-r2/lib/libutee/tee_api_panic.c:84
    11cc:	e7c0      	b.n	1150 <check_res.part.0>
__utee_check_attr_in_annotation():
/home/lubuntu/Dokument/GitHub/STM32-Computer/Firmware/STM32-Computer-Firmware/CA7/optee-os-3.19.0-r2/optee-os-stm32mp-3.19.0-stm32mp-r2/lib/libutee/tee_api_panic.c:84
    11ce:	bd08      	pop	{r3, pc}

000011d0 <__utee_check_inout_annotation>:
__utee_check_inout_annotation():
/home/lubuntu/Dokument/GitHub/STM32-Computer/Firmware/STM32-Computer-Firmware/CA7/optee-os-3.19.0-r2/optee-os-stm32mp-3.19.0-stm32mp-r2/lib/libutee/tee_api_panic.c:87
    11d0:	460a      	mov	r2, r1
/home/lubuntu/Dokument/GitHub/STM32-Computer/Firmware/STM32-Computer-Firmware/CA7/optee-os-3.19.0-r2/optee-os-stm32mp-3.19.0-stm32mp-r2/lib/libutee/tee_api_panic.c:88
    11d2:	4601      	mov	r1, r0
/home/lubuntu/Dokument/GitHub/STM32-Computer/Firmware/STM32-Computer-Firmware/CA7/optee-os-3.19.0-r2/optee-os-stm32mp-3.19.0-stm32mp-r2/lib/libutee/tee_api_panic.c:87
    11d4:	b508      	push	{r3, lr}
/home/lubuntu/Dokument/GitHub/STM32-Computer/Firmware/STM32-Computer-Firmware/CA7/optee-os-3.19.0-r2/optee-os-stm32mp-3.19.0-stm32mp-r2/lib/libutee/tee_api_panic.c:88
    11d6:	2003      	movs	r0, #3
    11d8:	f7ff ffa8 	bl	112c <check_access>
check_res():
/home/lubuntu/Dokument/GitHub/STM32-Computer/Firmware/STM32-Computer-Firmware/CA7/optee-os-3.19.0-r2/optee-os-stm32mp-3.19.0-stm32mp-r2/lib/libutee/tee_api_panic.c:32
    11dc:	b110      	cbz	r0, 11e4 <__utee_check_inout_annotation+0x14>
__utee_check_inout_annotation():
/home/lubuntu/Dokument/GitHub/STM32-Computer/Firmware/STM32-Computer-Firmware/CA7/optee-os-3.19.0-r2/optee-os-stm32mp-3.19.0-stm32mp-r2/lib/libutee/tee_api_panic.c:90
    11de:	e8bd 4008 	ldmia.w	sp!, {r3, lr}
check_res():
/home/lubuntu/Dokument/GitHub/STM32-Computer/Firmware/STM32-Computer-Firmware/CA7/optee-os-3.19.0-r2/optee-os-stm32mp-3.19.0-stm32mp-r2/lib/libutee/tee_api_panic.c:90
    11e2:	e7b5      	b.n	1150 <check_res.part.0>
__utee_check_inout_annotation():
/home/lubuntu/Dokument/GitHub/STM32-Computer/Firmware/STM32-Computer-Firmware/CA7/optee-os-3.19.0-r2/optee-os-stm32mp-3.19.0-stm32mp-r2/lib/libutee/tee_api_panic.c:90
    11e4:	bd08      	pop	{r3, pc}
    11e6:	bf00      	nop

000011e8 <propset_get>:
propset_get():
/home/lubuntu/Dokument/GitHub/STM32-Computer/Firmware/STM32-Computer-Firmware/CA7/optee-os-3.19.0-r2/optee-os-stm32mp-3.19.0-stm32mp-r2/lib/libutee/tee_api_property.c:65
    11e8:	4b0f      	ldr	r3, [pc, #60]	@ (1228 <propset_get+0x40>)
/home/lubuntu/Dokument/GitHub/STM32-Computer/Firmware/STM32-Computer-Firmware/CA7/optee-os-3.19.0-r2/optee-os-stm32mp-3.19.0-stm32mp-r2/lib/libutee/tee_api_property.c:66
    11ea:	f1b0 3fff 	cmp.w	r0, #4294967295	@ 0xffffffff
/home/lubuntu/Dokument/GitHub/STM32-Computer/Firmware/STM32-Computer-Firmware/CA7/optee-os-3.19.0-r2/optee-os-stm32mp-3.19.0-stm32mp-r2/lib/libutee/tee_api_property.c:65
    11ee:	447b      	add	r3, pc
/home/lubuntu/Dokument/GitHub/STM32-Computer/Firmware/STM32-Computer-Firmware/CA7/optee-os-3.19.0-r2/optee-os-stm32mp-3.19.0-stm32mp-r2/lib/libutee/tee_api_property.c:66
    11f0:	d108      	bne.n	1204 <propset_get+0x1c>
/home/lubuntu/Dokument/GitHub/STM32-Computer/Firmware/STM32-Computer-Firmware/CA7/optee-os-3.19.0-r2/optee-os-stm32mp-3.19.0-stm32mp-r2/lib/libutee/tee_api_property.c:67
    11f2:	480e      	ldr	r0, [pc, #56]	@ (122c <propset_get+0x44>)
    11f4:	5818      	ldr	r0, [r3, r0]
    11f6:	6008      	str	r0, [r1, #0]
/home/lubuntu/Dokument/GitHub/STM32-Computer/Firmware/STM32-Computer-Firmware/CA7/optee-os-3.19.0-r2/optee-os-stm32mp-3.19.0-stm32mp-r2/lib/libutee/tee_api_property.c:68
    11f8:	490d      	ldr	r1, [pc, #52]	@ (1230 <propset_get+0x48>)
    11fa:	585b      	ldr	r3, [r3, r1]
    11fc:	681b      	ldr	r3, [r3, #0]
    11fe:	6013      	str	r3, [r2, #0]
/home/lubuntu/Dokument/GitHub/STM32-Computer/Firmware/STM32-Computer-Firmware/CA7/optee-os-3.19.0-r2/optee-os-stm32mp-3.19.0-stm32mp-r2/lib/libutee/tee_api_property.c:79
    1200:	2000      	movs	r0, #0
    1202:	4770      	bx	lr
/home/lubuntu/Dokument/GitHub/STM32-Computer/Firmware/STM32-Computer-Firmware/CA7/optee-os-3.19.0-r2/optee-os-stm32mp-3.19.0-stm32mp-r2/lib/libutee/tee_api_property.c:69
    1204:	f110 0f02 	cmn.w	r0, #2
    1208:	d102      	bne.n	1210 <propset_get+0x28>
/home/lubuntu/Dokument/GitHub/STM32-Computer/Firmware/STM32-Computer-Firmware/CA7/optee-os-3.19.0-r2/optee-os-stm32mp-3.19.0-stm32mp-r2/lib/libutee/tee_api_property.c:70
    120a:	2300      	movs	r3, #0
    120c:	600b      	str	r3, [r1, #0]
/home/lubuntu/Dokument/GitHub/STM32-Computer/Firmware/STM32-Computer-Firmware/CA7/optee-os-3.19.0-r2/optee-os-stm32mp-3.19.0-stm32mp-r2/lib/libutee/tee_api_property.c:71
    120e:	e7f6      	b.n	11fe <propset_get+0x16>
/home/lubuntu/Dokument/GitHub/STM32-Computer/Firmware/STM32-Computer-Firmware/CA7/optee-os-3.19.0-r2/optee-os-stm32mp-3.19.0-stm32mp-r2/lib/libutee/tee_api_property.c:72
    1210:	3003      	adds	r0, #3
    1212:	d104      	bne.n	121e <propset_get+0x36>
/home/lubuntu/Dokument/GitHub/STM32-Computer/Firmware/STM32-Computer-Firmware/CA7/optee-os-3.19.0-r2/optee-os-stm32mp-3.19.0-stm32mp-r2/lib/libutee/tee_api_property.c:73
    1214:	4807      	ldr	r0, [pc, #28]	@ (1234 <propset_get+0x4c>)
    1216:	581b      	ldr	r3, [r3, r0]
    1218:	600b      	str	r3, [r1, #0]
/home/lubuntu/Dokument/GitHub/STM32-Computer/Firmware/STM32-Computer-Firmware/CA7/optee-os-3.19.0-r2/optee-os-stm32mp-3.19.0-stm32mp-r2/lib/libutee/tee_api_property.c:74
    121a:	2305      	movs	r3, #5
    121c:	e7ef      	b.n	11fe <propset_get+0x16>
/home/lubuntu/Dokument/GitHub/STM32-Computer/Firmware/STM32-Computer-Firmware/CA7/optee-os-3.19.0-r2/optee-os-stm32mp-3.19.0-stm32mp-r2/lib/libutee/tee_api_property.c:76
    121e:	4801      	ldr	r0, [pc, #4]	@ (1224 <propset_get+0x3c>)
/home/lubuntu/Dokument/GitHub/STM32-Computer/Firmware/STM32-Computer-Firmware/CA7/optee-os-3.19.0-r2/optee-os-stm32mp-3.19.0-stm32mp-r2/lib/libutee/tee_api_property.c:80
    1220:	4770      	bx	lr
    1222:	bf00      	nop
    1224:	ffff0008 	.word	0xffff0008
    1228:	00009e96 	.word	0x00009e96
    122c:	00000010 	.word	0x00000010
    1230:	00000018 	.word	0x00000018
    1234:	00000030 	.word	0x00000030

00001238 <is_propset_pseudo_handle>:
is_propset_pseudo_handle():
/home/lubuntu/Dokument/GitHub/STM32-Computer/Firmware/STM32-Computer-Firmware/CA7/optee-os-3.19.0-r2/optee-os-stm32mp-3.19.0-stm32mp-r2/lib/libutee/tee_api_property.c:140
    1238:	1c83      	adds	r3, r0, #2
/home/lubuntu/Dokument/GitHub/STM32-Computer/Firmware/STM32-Computer-Firmware/CA7/optee-os-3.19.0-r2/optee-os-stm32mp-3.19.0-stm32mp-r2/lib/libutee/tee_api_property.c:141
    123a:	2b01      	cmp	r3, #1
    123c:	d904      	bls.n	1248 <is_propset_pseudo_handle+0x10>
/home/lubuntu/Dokument/GitHub/STM32-Computer/Firmware/STM32-Computer-Firmware/CA7/optee-os-3.19.0-r2/optee-os-stm32mp-3.19.0-stm32mp-r2/lib/libutee/tee_api_property.c:141 (discriminator 2)
    123e:	1cc3      	adds	r3, r0, #3
    1240:	bf14      	ite	ne
    1242:	2000      	movne	r0, #0
    1244:	2001      	moveq	r0, #1
    1246:	4770      	bx	lr
/home/lubuntu/Dokument/GitHub/STM32-Computer/Firmware/STM32-Computer-Firmware/CA7/optee-os-3.19.0-r2/optee-os-stm32mp-3.19.0-stm32mp-r2/lib/libutee/tee_api_property.c:141
    1248:	2001      	movs	r0, #1
/home/lubuntu/Dokument/GitHub/STM32-Computer/Firmware/STM32-Computer-Firmware/CA7/optee-os-3.19.0-r2/optee-os-stm32mp-3.19.0-stm32mp-r2/lib/libutee/tee_api_property.c:143
    124a:	4770      	bx	lr

0000124c <propget_get_ext_prop>:
propget_get_ext_prop():
/home/lubuntu/Dokument/GitHub/STM32-Computer/Firmware/STM32-Computer-Firmware/CA7/optee-os-3.19.0-r2/optee-os-stm32mp-3.19.0-stm32mp-r2/lib/libutee/tee_api_property.c:85
    124c:	b573      	push	{r0, r1, r4, r5, r6, lr}
    124e:	461c      	mov	r4, r3
/home/lubuntu/Dokument/GitHub/STM32-Computer/Firmware/STM32-Computer-Firmware/CA7/optee-os-3.19.0-r2/optee-os-stm32mp-3.19.0-stm32mp-r2/lib/libutee/tee_api_property.c:88
    1250:	6843      	ldr	r3, [r0, #4]
/home/lubuntu/Dokument/GitHub/STM32-Computer/Firmware/STM32-Computer-Firmware/CA7/optee-os-3.19.0-r2/optee-os-stm32mp-3.19.0-stm32mp-r2/lib/libutee/tee_api_property.c:85
    1252:	4605      	mov	r5, r0
    1254:	4616      	mov	r6, r2
/home/lubuntu/Dokument/GitHub/STM32-Computer/Firmware/STM32-Computer-Firmware/CA7/optee-os-3.19.0-r2/optee-os-stm32mp-3.19.0-stm32mp-r2/lib/libutee/tee_api_property.c:88
    1256:	600b      	str	r3, [r1, #0]
/home/lubuntu/Dokument/GitHub/STM32-Computer/Firmware/STM32-Computer-Firmware/CA7/optee-os-3.19.0-r2/optee-os-stm32mp-3.19.0-stm32mp-r2/lib/libutee/tee_api_property.c:89
    1258:	2b05      	cmp	r3, #5
    125a:	d80c      	bhi.n	1276 <propget_get_ext_prop+0x2a>
    125c:	e8df f003 	tbb	[pc, r3]
    1260:	0e2e032c 	.word	0x0e2e032c
    1264:	1510      	.short	0x1510
    1266:	2204      	movs	r2, #4
/home/lubuntu/Dokument/GitHub/STM32-Computer/Firmware/STM32-Computer-Firmware/CA7/optee-os-3.19.0-r2/optee-os-stm32mp-3.19.0-stm32mp-r2/lib/libutee/tee_api_property.c:128
    1268:	6823      	ldr	r3, [r4, #0]
/home/lubuntu/Dokument/GitHub/STM32-Computer/Firmware/STM32-Computer-Firmware/CA7/optee-os-3.19.0-r2/optee-os-stm32mp-3.19.0-stm32mp-r2/lib/libutee/tee_api_property.c:91
    126a:	9201      	str	r2, [sp, #4]
/home/lubuntu/Dokument/GitHub/STM32-Computer/Firmware/STM32-Computer-Firmware/CA7/optee-os-3.19.0-r2/optee-os-stm32mp-3.19.0-stm32mp-r2/lib/libutee/tee_api_property.c:128
    126c:	4293      	cmp	r3, r2
    126e:	d227      	bcs.n	12c0 <propget_get_ext_prop+0x74>
/home/lubuntu/Dokument/GitHub/STM32-Computer/Firmware/STM32-Computer-Firmware/CA7/optee-os-3.19.0-r2/optee-os-stm32mp-3.19.0-stm32mp-r2/lib/libutee/tee_api_property.c:119
    1270:	4816      	ldr	r0, [pc, #88]	@ (12cc <propget_get_ext_prop+0x80>)
/home/lubuntu/Dokument/GitHub/STM32-Computer/Firmware/STM32-Computer-Firmware/CA7/optee-os-3.19.0-r2/optee-os-stm32mp-3.19.0-stm32mp-r2/lib/libutee/tee_api_property.c:129
    1272:	6022      	str	r2, [r4, #0]
    1274:	e000      	b.n	1278 <propget_get_ext_prop+0x2c>
/home/lubuntu/Dokument/GitHub/STM32-Computer/Firmware/STM32-Computer-Firmware/CA7/optee-os-3.19.0-r2/optee-os-stm32mp-3.19.0-stm32mp-r2/lib/libutee/tee_api_property.c:101
    1276:	4816      	ldr	r0, [pc, #88]	@ (12d0 <propget_get_ext_prop+0x84>)
/home/lubuntu/Dokument/GitHub/STM32-Computer/Firmware/STM32-Computer-Firmware/CA7/optee-os-3.19.0-r2/optee-os-stm32mp-3.19.0-stm32mp-r2/lib/libutee/tee_api_property.c:136
    1278:	b002      	add	sp, #8
    127a:	bd70      	pop	{r4, r5, r6, pc}
/home/lubuntu/Dokument/GitHub/STM32-Computer/Firmware/STM32-Computer-Firmware/CA7/optee-os-3.19.0-r2/optee-os-stm32mp-3.19.0-stm32mp-r2/lib/libutee/tee_api_property.c:101
    127c:	2214      	movs	r2, #20
    127e:	e7f3      	b.n	1268 <propget_get_ext_prop+0x1c>
/home/lubuntu/Dokument/GitHub/STM32-Computer/Firmware/STM32-Computer-Firmware/CA7/optee-os-3.19.0-r2/optee-os-stm32mp-3.19.0-stm32mp-r2/lib/libutee/tee_api_property.c:104
    1280:	6880      	ldr	r0, [r0, #8]
    1282:	f008 f966 	bl	9552 <strlen>
    1286:	1c42      	adds	r2, r0, #1
/home/lubuntu/Dokument/GitHub/STM32-Computer/Firmware/STM32-Computer-Firmware/CA7/optee-os-3.19.0-r2/optee-os-stm32mp-3.19.0-stm32mp-r2/lib/libutee/tee_api_property.c:105
    1288:	e7ee      	b.n	1268 <propget_get_ext_prop+0x1c>
/home/lubuntu/Dokument/GitHub/STM32-Computer/Firmware/STM32-Computer-Firmware/CA7/optee-os-3.19.0-r2/optee-os-stm32mp-3.19.0-stm32mp-r2/lib/libutee/tee_api_property.c:114
    128a:	6885      	ldr	r5, [r0, #8]
/home/lubuntu/Dokument/GitHub/STM32-Computer/Firmware/STM32-Computer-Firmware/CA7/optee-os-3.19.0-r2/optee-os-stm32mp-3.19.0-stm32mp-r2/lib/libutee/tee_api_property.c:113
    128c:	6823      	ldr	r3, [r4, #0]
/home/lubuntu/Dokument/GitHub/STM32-Computer/Firmware/STM32-Computer-Firmware/CA7/optee-os-3.19.0-r2/optee-os-stm32mp-3.19.0-stm32mp-r2/lib/libutee/tee_api_property.c:114
    128e:	4628      	mov	r0, r5
/home/lubuntu/Dokument/GitHub/STM32-Computer/Firmware/STM32-Computer-Firmware/CA7/optee-os-3.19.0-r2/optee-os-stm32mp-3.19.0-stm32mp-r2/lib/libutee/tee_api_property.c:113
    1290:	9301      	str	r3, [sp, #4]
/home/lubuntu/Dokument/GitHub/STM32-Computer/Firmware/STM32-Computer-Firmware/CA7/optee-os-3.19.0-r2/optee-os-stm32mp-3.19.0-stm32mp-r2/lib/libutee/tee_api_property.c:114
    1292:	f008 f95e 	bl	9552 <strlen>
    1296:	4601      	mov	r1, r0
    1298:	ab01      	add	r3, sp, #4
    129a:	4632      	mov	r2, r6
    129c:	4628      	mov	r0, r5
    129e:	f001 f8a1 	bl	23e4 <_base64_dec>
    12a2:	6821      	ldr	r1, [r4, #0]
    12a4:	9b01      	ldr	r3, [sp, #4]
    12a6:	b908      	cbnz	r0, 12ac <propget_get_ext_prop+0x60>
/home/lubuntu/Dokument/GitHub/STM32-Computer/Firmware/STM32-Computer-Firmware/CA7/optee-os-3.19.0-r2/optee-os-stm32mp-3.19.0-stm32mp-r2/lib/libutee/tee_api_property.c:114 (discriminator 1)
    12a8:	4299      	cmp	r1, r3
    12aa:	d2e4      	bcs.n	1276 <propget_get_ext_prop+0x2a>
/home/lubuntu/Dokument/GitHub/STM32-Computer/Firmware/STM32-Computer-Firmware/CA7/optee-os-3.19.0-r2/optee-os-stm32mp-3.19.0-stm32mp-r2/lib/libutee/tee_api_property.c:117
    12ac:	4299      	cmp	r1, r3
    12ae:	461a      	mov	r2, r3
    12b0:	d3de      	bcc.n	1270 <propget_get_ext_prop+0x24>
/home/lubuntu/Dokument/GitHub/STM32-Computer/Firmware/STM32-Computer-Firmware/CA7/optee-os-3.19.0-r2/optee-os-stm32mp-3.19.0-stm32mp-r2/lib/libutee/tee_api_property.c:122
    12b2:	6023      	str	r3, [r4, #0]
