
/home/lubuntu/Dokument/GitHub/STM32-Computer/Firmware/STM32-Computer-Firmware/CA7/optee-os-3.19.0-r2/optee-os-stm32mp-3.19.0-stm32mp-r2/../build/stm32mp135f-dk/ta/trusted_keys/f04a0fe7-1f5d-4b9b-abf7-619b85b4ce8c.elf:     file format elf32-littlearm
/home/lubuntu/Dokument/GitHub/STM32-Computer/Firmware/STM32-Computer-Firmware/CA7/optee-os-3.19.0-r2/optee-os-stm32mp-3.19.0-stm32mp-r2/../build/stm32mp135f-dk/ta/trusted_keys/f04a0fe7-1f5d-4b9b-abf7-619b85b4ce8c.elf
architecture: armv7, flags 0x00000150:
HAS_SYMS, DYNAMIC, D_PAGED
start address 0x00000438

Program Header:
0x70000001 off    0x0000c504 vaddr 0x0000b504 paddr 0x0000b504 align 2**2
         filesz 0x00000a68 memsz 0x00000a68 flags r--
    LOAD off    0x00001000 vaddr 0x00000000 paddr 0x00000000 align 2**12
         filesz 0x0000c028 memsz 0x0000c028 flags r-x
    LOAD off    0x0000e000 vaddr 0x0000d000 paddr 0x0000d000 align 2**12
         filesz 0x00000388 memsz 0x000073d8 flags rw-
 DYNAMIC off    0x0000e000 vaddr 0x0000d000 paddr 0x0000d000 align 2**2
         filesz 0x00000088 memsz 0x00000088 flags rw-
   STACK off    0x00000000 vaddr 0x00000000 paddr 0x00000000 align 2**4
         filesz 0x00000000 memsz 0x00000000 flags rw-

Dynamic Section:
  HASH                 0x0000bffc
  GNU_HASH             0x0000b0c0
  STRTAB               0x0000bfcc
  SYMTAB               0x0000bf6c
  STRSZ                0x0000002e
  SYMENT               0x00000010
  DEBUG                0x00000000
  REL                  0x0000d0dc
  RELSZ                0x00000188
  RELENT               0x00000008
  FLAGS_1              0x08000000
  RELCOUNT             0x0000001f
private flags = 0x5000400: [Version5 EABI] [hard-float ABI]

Sections:
Idx Name          Size      VMA       LMA       File off  Algn
  0 .ta_head      00000020  00000000  00000000  00001000  2**3
                  CONTENTS, ALLOC, LOAD, READONLY, DATA
  1 .text         00009d58  00000020  00000020  00001020  2**3
                  CONTENTS, ALLOC, LOAD, READONLY, CODE
  2 .rodata       00001348  00009d78  00009d78  0000ad78  2**2
                  CONTENTS, ALLOC, LOAD, READONLY, DATA
  3 .gnu.hash     0000002c  0000b0c0  0000b0c0  0000c0c0  2**2
                  CONTENTS, ALLOC, LOAD, READONLY, DATA
  4 .ARM.extab    00000418  0000b0ec  0000b0ec  0000c0ec  2**2
                  CONTENTS, ALLOC, LOAD, READONLY, DATA
  5 .ARM.exidx    00000a68  0000b504  0000b504  0000c504  2**2
                  CONTENTS, ALLOC, LOAD, READONLY, DATA
  6 .dynsym       00000060  0000bf6c  0000bf6c  0000cf6c  2**2
                  CONTENTS, ALLOC, LOAD, READONLY, DATA
  7 .dynstr       0000002e  0000bfcc  0000bfcc  0000cfcc  2**0
                  CONTENTS, ALLOC, LOAD, READONLY, DATA
  8 .hash         0000002c  0000bffc  0000bffc  0000cffc  2**2
                  CONTENTS, ALLOC, LOAD, READONLY, DATA
  9 .dynamic      00000088  0000d000  0000d000  0000e000  2**2
                  CONTENTS, ALLOC, LOAD, DATA
 10 .got          00000054  0000d088  0000d088  0000e088  2**2
                  CONTENTS, ALLOC, LOAD, DATA
 11 .rel.got      00000090  0000d1d4  0000d1d4  0000e1d4  2**2
                  CONTENTS, ALLOC, LOAD, READONLY, DATA
 12 .data         00000124  0000d264  0000d264  0000e264  2**2
                  CONTENTS, ALLOC, LOAD, DATA
 13 .bss          00007050  0000d388  0000d388  0000e388  2**2
                  ALLOC
 14 .debug_info   0001aa84  00000000  00000000  0000e388  2**0
                  CONTENTS, READONLY, DEBUGGING, OCTETS
 15 .debug_abbrev 00004bf4  00000000  00000000  00028e0c  2**0
                  CONTENTS, READONLY, DEBUGGING, OCTETS
 16 .debug_loclists 0000fe82  00000000  00000000  0002da00  2**0
                  CONTENTS, READONLY, DEBUGGING, OCTETS
 17 .debug_aranges 00000668  00000000  00000000  0003d888  2**3
                  CONTENTS, READONLY, DEBUGGING, OCTETS
 18 .debug_rnglists 00000816  00000000  00000000  0003def0  2**0
                  CONTENTS, READONLY, DEBUGGING, OCTETS
 19 .debug_macro  0001de3c  00000000  00000000  0003e706  2**0
                  CONTENTS, READONLY, DEBUGGING, OCTETS
 20 .debug_line   0001321b  00000000  00000000  0005c542  2**0
                  CONTENTS, READONLY, DEBUGGING, OCTETS
 21 .debug_str    0001b312  00000000  00000000  0006f75d  2**0
                  CONTENTS, READONLY, DEBUGGING, OCTETS
 22 .comment      00000012  00000000  00000000  0008aa6f  2**0
                  CONTENTS, READONLY
 23 .ARM.attributes 00000033  00000000  00000000  0008aa81  2**0
                  CONTENTS, READONLY
 24 .debug_frame  000029a0  00000000  00000000  0008aab4  2**2
                  CONTENTS, READONLY, DEBUGGING, OCTETS
 25 .rel.dyn      000000f8  0000d0dc  0000d0dc  0000e0dc  2**2
                  CONTENTS, ALLOC, LOAD, READONLY, DATA
 26 .debug_line_str 000001bd  00000000  00000000  0008d454  2**0
                  CONTENTS, READONLY, DEBUGGING, OCTETS
SYMBOL TABLE:
00000000 l    d  .ta_head	00000000 .ta_head
00000020 l    d  .text	00000000 .text
00009d78 l    d  .rodata	00000000 .rodata
0000b0c0 l    d  .gnu.hash	00000000 .gnu.hash
0000b0ec l    d  .ARM.extab	00000000 .ARM.extab
0000b504 l    d  .ARM.exidx	00000000 .ARM.exidx
0000bf6c l    d  .dynsym	00000000 .dynsym
0000bfcc l    d  .dynstr	00000000 .dynstr
0000bffc l    d  .hash	00000000 .hash
0000d000 l    d  .dynamic	00000000 .dynamic
0000d088 l    d  .got	00000000 .got
0000d1d4 l    d  .rel.got	00000000 .rel.got
0000d264 l    d  .data	00000000 .data
0000d388 l    d  .bss	00000000 .bss
00000000 l    d  .debug_info	00000000 .debug_info
00000000 l    d  .debug_abbrev	00000000 .debug_abbrev
00000000 l    d  .debug_loclists	00000000 .debug_loclists
00000000 l    d  .debug_aranges	00000000 .debug_aranges
00000000 l    d  .debug_rnglists	00000000 .debug_rnglists
00000000 l    d  .debug_macro	00000000 .debug_macro
00000000 l    d  .debug_line	00000000 .debug_line
00000000 l    d  .debug_str	00000000 .debug_str
00000000 l    d  .comment	00000000 .comment
00000000 l    d  .ARM.attributes	00000000 .ARM.attributes
00000000 l    d  .debug_frame	00000000 .debug_frame
0000d0dc l    d  .rel.dyn	00000000 .rel.dyn
00000000 l    d  .debug_line_str	00000000 .debug_line_str
00000000 l    df *ABS*	00000000 user_ta_header.c
00009dd8 l     O .rodata	00000004 __compound_literal.4
00009ddc l     O .rodata	00000004 __compound_literal.3
00009de0 l     O .rodata	00000001 __compound_literal.2
00009de1 l     O .rodata	00000001 __compound_literal.1
00009de2 l     O .rodata	00000001 __compound_literal.0
00000000 l    df *ABS*	00000000 entry.c
00000020 l     F .text	00000244 huk_crypt
00009d88 l     O .rodata	0000000a __func__.1
00009d92 l     O .rodata	00000011 __func__.2
00009da3 l     O .rodata	00000013 __func__.0
00009db6 l     O .rodata	0000001b __func__.3
00000000 l    df *ABS*	00000000 ta_entry_a32.o
00000000 l    df *ABS*	00000000 memcpy.c
00000000 l    df *ABS*	00000000 trace.c
0000a2bd l     O .rodata	00000005 lvl_strs.0
00000000 l    df *ABS*	00000000 snprintk.c
000006f4 l     F .text	000006e0 kprintf.constprop.0
0000a2fa l     O .rodata	00000011 hexdigits
0000a30b l     O .rodata	00000011 HEXDIGITS
00000000 l    df *ABS*	00000000 arm32_aeabi_ldivmod_a32.o
00000000 l    df *ABS*	00000000 assert.c
00000000 l    df *ABS*	00000000 trace_ext.c
00000000 l    df *ABS*	00000000 tee_api.c
00000ef0 l     F .text	00000066 update_out_param
00000fc8 l     F .text	00000124 copy_param
0000a354 l     O .rodata	0000000b __func__.0
0000d388 l     O .bss	00000004 tee_api_instance_data
00000000 l    df *ABS*	00000000 tee_api_objects.c
00000000 l    df *ABS*	00000000 tee_api_operations.c
00001b94 l     F .text	00000040 __tee_alg_get_main_alg
00001bd4 l     F .text	00000158 tee_buffer_update
00000000 l    df *ABS*	00000000 tee_api_panic.c
0000387c l     F .text	00000020 check_access
000038a0 l     F .text	00000006 check_res.part.0
000038a6 l     F .text	0000002e __utee_check_outbuf_annotation.localalias
00000000 l    df *ABS*	00000000 tee_api_property.c
00003938 l     F .text	00000050 propset_get
00003988 l     F .text	00000014 is_propset_pseudo_handle
0000399c l     F .text	00000088 propget_get_ext_prop
00003a24 l     F .text	000000f0 propget_get_property
00009dec l     O .rodata	00000004 __compound_literal.3
00009df0 l     O .rodata	00000004 __compound_literal.2
00009df4 l     O .rodata	00000004 __compound_literal.1
00009df8 l     O .rodata	00000004 __compound_literal.0
00000000 l    df *ABS*	00000000 tee_system_pta.c
00003f9c l     F .text	00000050 invoke_system_pta
00009dfc l     O .rodata	00000010 uuid.2
00009e0c l     O .rodata	0000000a __func__.1
00009e16 l     O .rodata	00000017 __func__.0
0000d38c l     O .bss	00000004 sess.3
00000000 l    df *ABS*	00000000 utee_syscalls_a32.o
00000000 l    df *ABS*	00000000 user_ta_entry.c
000045a8 l     F .text	0000006a _get_fn_array
00004612 l     F .text	00000032 _fini_iterate_phdr_cb
00004644 l     F .text	0000001c ta_header_get_session
00004660 l     F .text	0000005a to_utee_params
000046ba l     F .text	0000003c from_utee_params
000046f6 l     F .text	00000062 _init_iterate_phdr_cb
00004828 l     F .text	0000006c ta_header_remove_session
0000a49a l     O .rodata	00000016 __func__.0
0000d390 l     O .bss	00000004 _num_mod_init
0000d394 l     O .bss	00000001 init_done
0000d2f8 l     O .data	00000008 ta_sessions
0000d300 l     O .data	00000008 __phdr_info_head
00000000 l    df *ABS*	00000000 abort.c
00000000 l    df *ABS*	00000000 base64.c
0000a4b7 l     O .rodata	00000041 base64_table
00000000 l    df *ABS*	00000000 tee_api_arith_mpi.c
00004c00 l     F .text	00000020 api_panic
00004c20 l     F .text	00000020 mpi_panic
00004c40 l     F .text	00000050 get_mpi
00004c90 l     F .text	00000040 copy_mpi_to_bigint
00004cd0 l     F .text	000000a8 bigint_binary
00004d78 l     F .text	00000010 mpi_is_odd
00004d88 l     F .text	00000016 rng_read
00004d9e l     F .text	0000045e mpi_egcd
0000d3c8 l     O .bss	00003000 data.17
00005434 l     F .text	00000110 bigint_binary_mod
0000a5af l     O .rodata	00000008 __func__.14
0000a5b7 l     O .rodata	0000000e __func__.10
0000a5c5 l     O .rodata	00000009 __func__.2
0000a5ce l     O .rodata	00000012 __func__.16
0000a5e0 l     O .rodata	0000000f __func__.15
0000a5ef l     O .rodata	0000001f __func__.13
0000a60e l     O .rodata	00000019 __func__.12
0000a627 l     O .rodata	00000012 __func__.6
0000a639 l     O .rodata	00000015 __func__.11
0000a64e l     O .rodata	0000000e __func__.9
0000a65c l     O .rodata	0000000e __func__.8
0000a66a l     O .rodata	0000000e __func__.7
0000a678 l     O .rodata	00000011 __func__.5
0000a689 l     O .rodata	00000018 __func__.4
0000a6a1 l     O .rodata	0000001d __func__.3
0000a6be l     O .rodata	00000019 __func__.1
0000a6d7 l     O .rodata	00000015 __func__.0
00000000 l    df *ABS*	00000000 tcb.c
0000a782 l     O .rodata	00000010 __func__.1
0000a792 l     O .rodata	00000010 __func__.0
000103c8 l     O .bss	00000004 _tls_size
000103cc l     O .bss	00000004 _tcb
00000000 l    df *ABS*	00000000 bignum.c
00006028 l     F .text	00000036 mpi_get_digit
0000605e l     F .text	00000364 mpi_mul_hlp
000063c2 l     F .text	000000e6 mpi_montmul
000064a8 l     F .text	00000022 mpi_montred
000064ca l     F .text	00000026 mpi_montg_init.isra.0
000064f0 l     F .text	00000052 mpi_bigendian_to_host.part.0
00006542 l     F .text	00000064 mpi_fill_random_internal
000066b8 l     F .text	00000036 mbedtls_mpi_resize_clear
00007784 l     F .text	00000050 mpi_check_small_factors
00007d60 l     F .text	00000192 mpi_miller_rabin
00009e30 l     O .rodata	000002a0 small_prime
0000a0d0 l     O .rodata	00000024 gcd_pairs
00000000 l    df *ABS*	00000000 platform_util.c
0000d308 l     O .data	00000004 memset_func
00000000 l    df *ABS*	00000000 bget_malloc.c
00008890 l     F .text	00000020 myrand
000088b0 l     F .text	0000000a _assert_trap
000088ba l     F .text	00000022 bget_buf_size.part.0
00008ed0 l     F .text	00000044 stats.constprop.0
00009318 l     F .text	00000080 gen_malloc_add_pool
0000afa1 l     O .rodata	0000000e __func__.2
0000afaf l     O .rodata	00000005 __func__.9
0000afb4 l     O .rodata	00000006 __func__.8
0000afba l     O .rodata	00000005 __func__.6
0000afbf l     O .rodata	00000006 __func__.7
0000afc5 l     O .rodata	00000006 __func__.5
0000afcb l     O .rodata	00000007 __func__.4
0000afd2 l     O .rodata	0000000f __func__.3
0000afe1 l     O .rodata	00000003 CSWTCH.113
0000afe4 l     O .rodata	00000014 __func__.1
0000aff8 l     O .rodata	00000013 __func__.0
0000d30c l     O .data	00000004 next
000103d4 l     O .bss	00000004 bchain
0000d310 l     O .data	0000001c mypoolset
0000d32c l     O .data	0000005c malloc_ctx
00000000 l    df *ABS*	00000000 mempool.c
0000b094 l     O .rodata	00000013 __func__.2
0000b0a7 l     O .rodata	0000000b __func__.1
0000b0b2 l     O .rodata	0000000e __func__.0
00000000 l    df *ABS*	00000000 memset.c
00000000 l    df *ABS*	00000000 memzero_explicit.c
00000000 l    df *ABS*	00000000 aeabi_unwind.c
00000000 l    df *ABS*	00000000 memchr.c
00000000 l    df *ABS*	00000000 strlen.c
00000000 l    df *ABS*	00000000 arm32_aeabi_ldivmod.c
000096c8 l     F .text	0000008a ul_div_qr
00000000 l    df *ABS*	00000000 constant_time.c
000097fc l     F .text	00000010 mbedtls_ct_uchar_mask_of_range
00000000 l    df *ABS*	00000000 snprintf.c
00000000 l    df *ABS*	00000000 memmove.c
00000000 l    df *ABS*	00000000 strcmp.c
00000000 l    df *ABS*	00000000 strlcpy.c
00000000 l    df *ABS*	00000000 consttime_memcmp.c
00000000 l    df *ABS*	00000000 
0000d000 l     O *ABS*	00000000 _DYNAMIC
0000d088 l     O *ABS*	00000000 _GLOBAL_OFFSET_TABLE_
00009d38 l     F .text	00000010 ___utee_check_access_rights_from_thumb
00009d48 l     F .text	00000010 ___utee_log_from_thumb
00009d58 l     F .text	00000010 ___utee_cache_operation_from_thumb
00009d68 l     F .text	00000010 ___utee_panic_from_thumb
00000ecc g     F .text	00000022 putchar
00001634 g     F .text	00000078 TEE_PopulateTransientObject
00005cc2 g     F .text	00000004 TEE_BigIntConvertToFMM
000059a0 g     F .text	00000008 TEE_BigIntSquareMod
00005544 g     F .text	00000110 TEE_BigIntShiftRight
00009456 g     F .text	00000002 raw_malloc_add_pool
00004070 g     F .text	00000088 tee_invoke_supp_plugin
0000661c g     F .text	0000009c mbedtls_mpi_grow
0000978c g     F .text	00000070 __l_divmod
000028f4 g     F .text	00000030 TEE_DigestUpdate
00001366 g     F .text	00000020 TEE_Realloc
0000274c g     F .text	000000f4 TEE_SetOperationKey2
00003920 g     F .text	00000016 __utee_check_inout_annotation
000091fc g     F .text	00000008 raw_free
00000e6e g     F .text	0000003a printf
000016ac g     F .text	00000022 TEE_InitRefAttribute
00004120 g     F .text	00000014 _utee_log
0000117c g     F .text	000000bc TEE_InvokeTACommand
000038a6 g     F .text	0000002e __utee_check_outbuf_annotation
000065b2 g     F .text	00000026 mbedtls_mpi_init_mempool
000043bc g     F .text	00000014 _utee_cryp_random_number_generate
00006a52 g     F .text	0000006a mbedtls_mpi_write_binary
00002fa4 g     F .text	00000114 TEE_AEEncryptFinal
000006cc g     F .text	0000000e vsnprintk
00006f48 g     F .text	0000002e mbedtls_mpi_sub_int
00009c78 g     F .text	00000034 memmove
00009c4c g     F .text	0000001e snprintf
0000540e g     F .text	00000026 TEE_BigIntCmpS32
00009ac6 g     F .text	00000186 mbedtls_ct_rsaes_pkcs1_v15_unpadding
000016ce g     F .text	00000022 TEE_InitValueAttribute
000066ee g     F .text	000000b6 mbedtls_mpi_shrink
00009696 g     F .text	00000002 __aeabi_unwind_cpp_pr0
000056a0 g     F .text	00000020 TEE_BigIntAdd
0000431c g     F .text	00000014 _utee_cryp_obj_restrict_usage
00009de4 g     O .rodata	00000004 ta_heap_size
00001604 g     F .text	00000030 TEE_ResetTransientObject
00004444 g     F .text	00000018 _utee_asymm_operate
00004a64 g     F .text	0000000e _base64_enc_len
000070bc g     F .text	0000011c mbedtls_mpi_read_string
000029ac g     F .text	00000074 TEE_CipherInit
000056e0 g     F .text	00000074 TEE_BigIntNeg
000044e0 g     F .text	00000014 _utee_storage_free_enum
00000020 g       .text	00000000 __text_start
00003f34 g     F .text	00000068 TEE_GetNextProperty
000019a4 g     F .text	0000002c TEE_StartPersistentObjectEnumerator
00006b60 g     F .text	0000007a mbedtls_mpi_shift_r
0000952c g     F .text	00000054 malloc_buffer_overlaps_heap
00004284 g     F .text	00000014 _utee_hash_init
00005968 g     F .text	0000001c TEE_BigIntSubMod
0000832e g     F .text	00000212 mbedtls_mpi_gen_prime
00003d30 g     F .text	00000068 TEE_GetPropertyAsBinaryBlock
00006874 g     F .text	00000020 mbedtls_mpi_get_bit
000069a4 g     F .text	00000042 mbedtls_mpi_read_binary
00002e0c g     F .text	00000070 TEE_AEInit
00000680 g     F .text	00000018 trace_printf
000077da g     F .text	00000004 mbedtls_mpi_montmul
00004594 g     F .text	00000014 _utee_cache_operation
0000043c g     F .text	000000dc memcpy
00005cc6 g     F .text	00000066 TEE_BigIntConvertFromFMM
0000389c g     F .text	00000004 TEE_Panic
00000e04 g     F .text	00000018 __aeabi_uldivmod
00002840 g     F .text	000000b4 TEE_CopyOperation
00000ea8 g     F .text	00000024 puts
00005d2c g     F .text	000000c0 TEE_BigIntComputeFMM
00009178 g     F .text	0000001c malloc_get_stats
000012f4 g     F .text	00000016 TEE_GetREETime
00009458 g     F .text	00000018 raw_malloc_get_stats
00001948 g     F .text	00000034 TEE_AllocatePersistentObjectEnumerator
0000d268 g     O .data	00000054 ta_props
000031b8 g     F .text	000000c0 TEE_AsymmetricEncrypt
000038d4 g     F .text	0000001c __utee_check_instring_annotation
00009398 g     F .text	00000014 malloc
00009670 g     F .text	0000000a __ta_entry_c
00003e90 g     F .text	00000004 TEE_FreePropertyEnumerator
0000983c g     F .text	00000008 mbedtls_ct_mpi_uint_mask
00001788 g     F .text	00000054 TEE_GenerateKey
00009c6a g     F .text	0000000e vsnprintf
0000d264 g     O .data	00000004 trace_level
000053d8 g     F .text	00000036 TEE_BigIntCmp
00009dd4 g     O .rodata	00000004 ta_num_props
00008d58 g     F .text	00000080 bgetr
00004474 g     F .text	00000018 _utee_storage_obj_open
00009662 g     F .text	0000000c mempool_free
00002a20 g     F .text	000000ec TEE_CipherUpdate
00004298 g     F .text	00000014 _utee_hash_update
0000968e g     F .text	00000008 memzero_explicit
000052d4 g     F .text	00000058 TEE_BigIntConvertToOctetString
000025a0 g     F .text	000000d4 TEE_GetOperationInfoMultiple
0000691a g     F .text	0000003a mbedtls_mpi_bitlen
00005654 g     F .text	0000002a TEE_BigIntGetBit
00009de8 g     O .rodata	00000003 trace_ext_prefix
0000451c g     F .text	00000014 _utee_storage_next_enum
000091ea g     F .text	00000012 raw_malloc
00008af8 g     F .text	0000005c bgetz
00009844 g     F .text	0000000c mbedtls_ct_size_bool_eq
00001244 g     F .text	0000000c TEE_GetInstanceData
00001272 g     F .text	0000001e TEE_Wait
00006f76 g     F .text	000000ea mbedtls_mpi_mul_mpi
0000969a g     F .text	00000002 __aeabi_unwind_cpp_pr2
0000138c g     F .text	00000006 TEE_CacheFlush
00000548 g     F .text	00000138 trace_vprintf
00000268 g     F .text	00000002 TA_DestroyEntryPoint
000065a6 g     F .text	0000000c mbedtls_mpi_init
000044a4 g     F .text	00000014 _utee_storage_obj_del
000068e2 g     F .text	00000038 mbedtls_mpi_lsb
00000e1c g     F .text	00000028 _assert_log
0000425c g     F .text	00000014 _utee_cryp_state_copy
00005cbe g     F .text	00000004 TEE_BigIntFMMContextSizeInU32
00004022 g     F .text	0000004e tee_unmap
00002d88 g     F .text	00000084 TEE_MACCompareFinal
0000985e g     F .text	00000012 mbedtls_ct_uint_if
0000190e g     F .text	0000003a TEE_RenamePersistentObject
00002924 g     F .text	00000088 TEE_DigestDoFinal
000051fc g     F .text	00000044 _TEE_MathAPI_Init
00005dec g     F .text	0000017c __utee_tcb_init
00006e80 g     F .text	0000004c mbedtls_mpi_add_mpi
00004a4c g     F .text	00000018 abort
00007ef2 g     F .text	000000e6 mbedtls_mpi_random
000038f2 g     F .text	00000016 __utee_check_out_annotation
000103d8 g     O .bss	00004000 ta_heap
000059a8 g     F .text	000000c0 TEE_BigIntInvMod
00004758 g     F .text	000000c0 __utee_call_elf_init_fn
000002c4 g     F .text	00000002 TA_CloseSessionEntryPoint
0000418c g     F .text	00000014 _utee_close_ta_session
00003278 g     F .text	000000c0 TEE_AsymmetricDecrypt
000017dc g     F .text	00000070 TEE_OpenPersistentObject
00006ecc g     F .text	0000004e mbedtls_mpi_sub_mpi
00009cec g     F .text	00000048 consttime_memcmp
0000410c g     F .text	00000014 _utee_return
00004134 g     F .text	00000014 __utee_panic
0000980c g     F .text	00000028 mbedtls_ct_memcmp
00005f68 g     F .text	00000018 __tls_get_addr
000002c6 g     F .text	00000172 TA_InvokeCommandEntryPoint
00004818 g     F .text	00000010 __utee_call_elf_fini_fn
00009430 g     F .text	00000010 free_wipe
00009604 g     F .text	0000003c mempool_alloc
000040f8 g     F .text	00000014 _utee_panic
00009444 g     F .text	00000012 raw_malloc_init_ctx
00009640 g     F .text	00000022 mempool_calloc
00004580 g     F .text	00000014 _utee_cryp_obj_generate_key
00004558 g     F .text	00000014 _utee_storage_obj_trunc
00001758 g     F .text	00000030 TEE_CopyObjectAttributes
0000d2bc g     O .data	0000003c tee_props
000041e0 g     F .text	00000014 _utee_unmask_cancellation
00003e60 g     F .text	00000008 TEE_ResetPropertyEnumerator
000093ac g     F .text	00000020 calloc
0000130a g     F .text	00000052 TEE_Malloc
00000fbe g     F .text	0000000a TEE_CheckMemoryAccessRights
00003d98 g     F .text	00000064 TEE_GetPropertyAsUUID
00009752 g     F .text	0000003a __ul_divmod
00004148 g     F .text	00000018 _utee_get_property
0000683c g     F .text	00000038 mbedtls_mpi_lset
00001a4c g     F .text	00000054 TEE_ReadObjectData
00001458 g     F .text	00000078 TEE_GetObjectBufferAttribute
0000026a g     F .text	0000005a TA_OpenSessionEntryPoint
00001d2c g     F .text	00000026 TEE_FreeOperation
00005f80 g     F .text	000000a8 dl_iterate_phdr
000143d8 g       .bss	00000000 __ftrace_buf_end
0000d3c4 g     O .bss	00000004 ta_param_types
00007528 g     F .text	0000002e mbedtls_mpi_div_int
00001398 g     F .text	0000002a __utee_from_attr
000082be g     F .text	00000066 mbedtls_mpi_is_prime_ext
00005c80 g     F .text	00000030 TEE_BigIntIsProbablePrime
00007060 g     F .text	0000005c mbedtls_mpi_mul_int
000018d4 g     F .text	00000024 TEE_CloseAndDeletePersistentObject1
000077e2 g     F .text	0000044a mbedtls_mpi_exp_mod
0000994a g     F .text	00000062 mbedtls_mpi_safe_cond_assign
00003b14 g     F .text	00000158 TEE_GetPropertyAsString
00009a34 g     F .text	00000092 mbedtls_mpi_lt_mpi_ct
000030b8 g     F .text	00000100 TEE_AEDecryptFinal
00005240 g     F .text	00000038 TEE_BigIntInit
000038f0 g     F .text	00000002 __utee_check_outstring_annotation
00001250 g     F .text	00000004 TEE_MemMove
0000887c g     F .text	00000014 mbedtls_platform_zeroize
00005278 g     F .text	0000005c TEE_BigIntConvertFromOctetString
0000442c g     F .text	00000018 _utee_authenc_dec_final
00006bda g     F .text	00000062 mbedtls_mpi_cmp_abs
00004530 g     F .text	00000014 _utee_storage_obj_read
00002c68 g     F .text	00000056 TEE_MACInit
00003338 g     F .text	000000bc TEE_AsymmetricSignDigest
0000969c g     F .text	0000001c memchr
00000f86 g     F .text	0000001c TEE_UnmaskCancellation
000013c2 g     F .text	0000002a TEE_GetObjectInfo
00008540 g     F .text	0000033c mbedtls_mpi_self_test
0000456c g     F .text	00000014 _utee_storage_obj_seek
00002ec2 g     F .text	000000e2 TEE_AEUpdate
000015d4 g     F .text	00000030 TEE_FreeTransientObject
000041cc g     F .text	00000014 _utee_check_access_rights
00006cc2 g     F .text	0000002e mbedtls_mpi_cmp_int
00004b34 g     F .text	000000cc _base64_dec
000044f4 g     F .text	00000014 _utee_storage_reset_enum
000098ec g     F .text	0000005e mbedtls_ct_base64_dec_value
00008f14 g     F .text	00000250 bget_main_test
0000358e g     F .text	00000018 rand
00003908 g     F .text	00000018 __utee_check_attr_in_annotation
000043fc g     F .text	00000018 _utee_authenc_update_payload
00002570 g     F .text	00000030 TEE_GetOperationInfo
000058fc g     F .text	00000050 TEE_BigIntMod
000075ba g     F .text	0000006c mbedtls_mpi_mod_int
00006960 g     F .text	00000044 mbedtls_mpi_read_binary_le
00005802 g     F .text	000000fa TEE_BigIntDiv
00004344 g     F .text	00000014 _utee_cryp_obj_alloc
000143d8 g       .bss	00000000 __ftrace_buf_start
00009cc2 g     F .text	0000002a strlcpy
00009894 g     F .text	00000058 mbedtls_ct_base64_enc_char
000067a4 g     F .text	0000006a mbedtls_mpi_copy
000035a6 g     F .text	000002d6 TEE_IsAlgorithmSupported
00009164 g     F .text	00000014 malloc_reset_stats
00003dfc g     F .text	00000064 TEE_GetPropertyAsIdentity
00000dd4 g     F .text	00000016 __vsprintf
00004230 g     F .text	00000014 _utee_set_ta_time
000041a0 g     F .text	00000018 _utee_invoke_ta_command
0000140c g     F .text	00000020 TEE_RestrictObjectUsage1
000093cc g     F .text	00000020 realloc
0000680e g     F .text	0000002e mbedtls_mpi_swap
00009580 g     F .text	00000084 mempool_alloc_pool
00005754 g     F .text	000000a8 TEE_BigIntMul
00002674 g     F .text	00000040 TEE_ResetOperation
00009440 g     F .text	00000004 raw_malloc_get_ctx_size
00006abc g     F .text	000000a4 mbedtls_mpi_shift_l
00006c3c g     F .text	00000086 mbedtls_mpi_cmp_mpi
00001258 g     F .text	00000004 TEE_MemFill
00009470 g     F .text	00000010 malloc_add_pool
00002cbe g     F .text	0000004e TEE_MACUpdate
00000534 g     F .text	00000014 trace_get_level
00006cf0 g     F .text	000000ae mbedtls_mpi_add_abs
0000142c g     F .text	0000002c TEE_RestrictObjectUsage
00005cb6 g     F .text	00000008 TEE_BigIntFMMSizeInU32
00003c6c g     F .text	00000060 TEE_GetPropertyAsBool
00009262 g     F .text	000000b6 raw_realloc
00005cb0 g     F .text	00000004 TEE_BigIntInitFMM
00001580 g     F .text	00000014 TEE_CloseObject
000042c4 g     F .text	00000014 _utee_cipher_init
00004894 g     F .text	000001b8 __utee_entry
00003ccc g     F .text	00000064 TEE_GetPropertyAsU32
00009d78 g       .text	00000000 __text_end
00005a68 g     F .text	0000007c TEE_BigIntRelativePrime
00007556 g     F .text	00000064 mbedtls_mpi_mod_mpi
00004308 g     F .text	00000014 _utee_cryp_obj_get_info
00008dd8 g     F .text	00000098 bpool
00003e68 g     F .text	00000028 TEE_AllocatePropertyEnumerator
00004244 g     F .text	00000018 _utee_cryp_state_alloc
00000f6a g     F .text	0000001c TEE_GetCancellationFlag
00007c2c g     F .text	00000100 mbedtls_mpi_gcd
000012cc g     F .text	00000028 TEE_SetTAPersistentTime
000069e6 g     F .text	0000006c mbedtls_mpi_write_binary_le
0000967e g     F .text	00000010 memset
00009194 g     F .text	00000056 raw_memalign
00001290 g     F .text	0000003c TEE_GetTAPersistentTime
00000698 g     F .text	00000002 dhex_dump
0000184c g     F .text	00000088 TEE_CreatePersistentObject
00000fa2 g     F .text	0000001c TEE_MaskCancellation
00002e7c g     F .text	00000046 TEE_AEUpdateAAD
00001ae0 g     F .text	00000038 TEE_TruncateObjectData
00004330 g     F .text	00000014 _utee_cryp_obj_get_attr
000013ec g     F .text	00000020 TEE_GetObjectInfo1
000042f0 g     F .text	00000018 _utee_cipher_final
00000518 g     F .text	0000001c trace_set_level
000014d0 g     F .text	000000b0 TEE_GetObjectValueAttribute
000026b4 g     F .text	00000098 TEE_SetOperationKey
00009850 g     F .text	0000000e mbedtls_ct_mpi_uint_lt
00004270 g     F .text	00000014 _utee_cryp_state_free
00009cac g     F .text	00000016 strcmp
00004174 g     F .text	00000018 _utee_open_ta_session
0000537c g     F .text	0000005c TEE_BigIntConvertToS32
000056c0 g     F .text	00000020 TEE_BigIntSub
0000967a g     F .text	00000004 tahead_get_trace_level
00004508 g     F .text	00000014 _utee_storage_start_enum
00001b18 g     F .text	0000007c TEE_SeekObjectData
00003fec g     F .text	00000036 tee_map_zi
000077de g     F .text	00000004 mbedtls_mpi_montred
000093ec g     F .text	00000020 memalign
00009834 g     F .text	00000008 mbedtls_ct_uint_mask
00002b0c g     F .text	0000015c TEE_CipherDoFinal
0000532c g     F .text	00000050 TEE_BigIntConvertFromS32
00006f1a g     F .text	0000002e mbedtls_mpi_add_int
00004414 g     F .text	00000018 _utee_authenc_enc_final
00009480 g     F .text	000000ac malloc_buffer_is_within_alloced
00004358 g     F .text	00000014 _utee_cryp_obj_close
00005cb4 g     F .text	00000002 TEE_BigIntInitFMMContext
000041f4 g     F .text	00000014 _utee_mask_cancellation
000044b8 g     F .text	00000014 _utee_storage_obj_rename
00001aa0 g     F .text	00000040 TEE_WriteObjectData
00001990 g     F .text	00000014 TEE_ResetPersistentObjectEnumerator
000057fc g     F .text	00000006 TEE_BigIntSquare
00004544 g     F .text	00000014 _utee_storage_obj_write
00000264 g     F .text	00000004 TA_CreateEntryPoint
00000438 g     F .text	00000004 __ta_entry
000043e8 g     F .text	00000014 _utee_authenc_update_aad
000077d4 g     F .text	00000006 mbedtls_mpi_montg_init
000006da g     F .text	0000001a snprintk
0000567e g     F .text	00000022 TEE_BigIntGetBitCount
00004394 g     F .text	00000014 _utee_cryp_obj_copy
00005984 g     F .text	0000001c TEE_BigIntMulMod
00007fd8 g     F .text	000002e6 mbedtls_mpi_inv_mod
0000349c g     F .text	000000e0 TEE_DeriveKey
0000d3a4 g     O .bss	00000020 ta_params
000071d8 g     F .text	00000350 mbedtls_mpi_div_mpi
00006954 g     F .text	0000000c mbedtls_mpi_size
000088dc g     F .text	0000021c bget
00001594 g     F .text	00000040 TEE_AllocateTransientObject
00003e94 g     F .text	0000000a TEE_StartPropertyEnumerator
00004208 g     F .text	00000014 _utee_wait
00006894 g     F .text	0000004e mbedtls_mpi_set_bit
0000135c g     F .text	0000000a TEE_Free
00008324 g     F .text	0000000a mbedtls_mpi_is_prime
00001392 g     F .text	00000006 TEE_CacheInvalidate
00000e44 g     F .text	00000010 _assert_break
0000594c g     F .text	0000001c TEE_BigIntAddMod
00009870 g     F .text	00000024 mbedtls_ct_mpi_uint_cond_assign
0000421c g     F .text	00000014 _utee_get_time
00003e9e g     F .text	00000096 TEE_GetPropertyName
00001d52 g     F .text	0000081e TEE_AllocateOperation
00004380 g     F .text	00000014 _utee_cryp_obj_populate
0000357c g     F .text	00000012 TEE_GenerateRandom
00001254 g     F .text	00000004 TEE_MemCompare
000042d8 g     F .text	00000018 _utee_cipher_update
0000069c g     F .text	00000030 __vsnprintf
0000d398 g     O .bss	0000000c __elf_phdr_info
0000197c g     F .text	00000014 TEE_FreePersistentObjectEnumerator
000010ec g     F .text	00000090 TEE_OpenTASession
00000e54 g     F .text	00000014 trace_ext_puts
00000e68 g     F .text	00000006 trace_ext_get_thread_id
000018f8 g     F .text	00000016 TEE_CloseAndDeletePersistentObject
000043a8 g     F .text	00000014 _utee_cryp_derive_key
000065d8 g     F .text	00000044 mbedtls_mpi_free
0000436c g     F .text	00000014 _utee_cryp_obj_reset
00001386 g     F .text	00000006 TEE_CacheClean
00004160 g     F .text	00000014 _utee_get_property_name_to_index
00009204 g     F .text	0000005e raw_calloc
00004a72 g     F .text	000000c2 _base64_enc
000099ac g     F .text	00000088 mbedtls_mpi_safe_cond_swap
000043d0 g     F .text	00000018 _utee_authenc_init
000016f0 g     F .text	00000068 TEE_CopyObjectAttributes1
000096b8 g     F .text	00000010 strlen
00005ae4 g     F .text	0000019c TEE_BigIntComputeExtendedGcd
00009698 g     F .text	00000002 __aeabi_unwind_cpp_pr1
000044cc g     F .text	00000014 _utee_storage_alloc_enum
0000125c g     F .text	00000016 TEE_GetSystemTime
0000445c g     F .text	00000018 _utee_asymm_verify
00000000 g     O .ta_head	00000020 ta_head
00008b54 g     F .text	00000204 brel
00006d9e g     F .text	000000e2 mbedtls_mpi_sub_abs
00007d2c g     F .text	00000034 mbedtls_mpi_fill_random
00001238 g     F .text	0000000c TEE_SetInstanceData
000041b8 g     F .text	00000014 _utee_get_cancellation_flag
00000dec g     F .text	00000018 __aeabi_ldivmod
00007626 g     F .text	0000015e mbedtls_mpi_write_string
0000940c g     F .text	00000012 aligned_alloc
000019d0 g     F .text	0000007c TEE_GetNextPersistentObject
00000f56 g     F .text	00000014 TEE_CloseTASession
000033f4 g     F .text	000000a8 TEE_AsymmetricVerifyDigest
0000448c g     F .text	00000018 _utee_storage_obj_create
0000941e g     F .text	00000012 free
00008e70 g     F .text	00000060 bstats
00002d0c g     F .text	0000007c TEE_MACComputeFinal
000103d0 g     O .bss	00000004 mbedtls_mpi_mempool
000042ac g     F .text	00000018 _utee_hash_final



Disassembly of section .text:

00000020 <huk_crypt>:
huk_crypt():
/home/lubuntu/Dokument/GitHub/STM32-Computer/Firmware/STM32-Computer-Firmware/CA7/optee-os-3.19.0-r2/optee-os-stm32mp-3.19.0-stm32mp-r2/ta/trusted_keys/entry.c:149
      20:	e92d 4ff0 	stmdb	sp!, {r4, r5, r6, r7, r8, r9, sl, fp, lr}
      24:	4681      	mov	r9, r0
      26:	ed2d 8b02 	vpush	{d8}
/home/lubuntu/Dokument/GitHub/STM32-Computer/Firmware/STM32-Computer-Firmware/CA7/optee-os-3.19.0-r2/optee-os-stm32mp-3.19.0-stm32mp-r2/ta/trusted_keys/entry.c:154
      2a:	ef80 8010 	vmov.i32	d8, #0	@ 0x00000000
/home/lubuntu/Dokument/GitHub/STM32-Computer/Firmware/STM32-Computer-Firmware/CA7/optee-os-3.19.0-r2/optee-os-stm32mp-3.19.0-stm32mp-r2/ta/trusted_keys/entry.c:149
      2e:	b0a3      	sub	sp, #140	@ 0x8c
      30:	460e      	mov	r6, r1
/home/lubuntu/Dokument/GitHub/STM32-Computer/Firmware/STM32-Computer-Firmware/CA7/optee-os-3.19.0-r2/optee-os-stm32mp-3.19.0-stm32mp-r2/ta/trusted_keys/entry.c:153
      32:	a813      	add	r0, sp, #76	@ 0x4c
/home/lubuntu/Dokument/GitHub/STM32-Computer/Firmware/STM32-Computer-Firmware/CA7/optee-os-3.19.0-r2/optee-os-stm32mp-3.19.0-stm32mp-r2/ta/trusted_keys/entry.c:151
      34:	2100      	movs	r1, #0
/home/lubuntu/Dokument/GitHub/STM32-Computer/Firmware/STM32-Computer-Firmware/CA7/optee-os-3.19.0-r2/optee-os-stm32mp-3.19.0-stm32mp-r2/ta/trusted_keys/entry.c:149
      36:	9204      	str	r2, [sp, #16]
/home/lubuntu/Dokument/GitHub/STM32-Computer/Firmware/STM32-Computer-Firmware/CA7/optee-os-3.19.0-r2/optee-os-stm32mp-3.19.0-stm32mp-r2/ta/trusted_keys/entry.c:153
      38:	221c      	movs	r2, #28
/home/lubuntu/Dokument/GitHub/STM32-Computer/Firmware/STM32-Computer-Firmware/CA7/optee-os-3.19.0-r2/optee-os-stm32mp-3.19.0-stm32mp-r2/ta/trusted_keys/entry.c:151
      3a:	9107      	str	r1, [sp, #28]
/home/lubuntu/Dokument/GitHub/STM32-Computer/Firmware/STM32-Computer-Firmware/CA7/optee-os-3.19.0-r2/optee-os-stm32mp-3.19.0-stm32mp-r2/ta/trusted_keys/entry.c:149
      3c:	461f      	mov	r7, r3
/home/lubuntu/Dokument/GitHub/STM32-Computer/Firmware/STM32-Computer-Firmware/CA7/optee-os-3.19.0-r2/optee-os-stm32mp-3.19.0-stm32mp-r2/ta/trusted_keys/entry.c:152
      3e:	9108      	str	r1, [sp, #32]
/home/lubuntu/Dokument/GitHub/STM32-Computer/Firmware/STM32-Computer-Firmware/CA7/optee-os-3.19.0-r2/optee-os-stm32mp-3.19.0-stm32mp-r2/ta/trusted_keys/entry.c:153
      40:	9112      	str	r1, [sp, #72]	@ 0x48
      42:	f009 fb1c 	bl	967e <memset>
/home/lubuntu/Dokument/GitHub/STM32-Computer/Firmware/STM32-Computer-Firmware/CA7/optee-os-3.19.0-r2/optee-os-stm32mp-3.19.0-stm32mp-r2/ta/trusted_keys/entry.c:156
      46:	497d      	ldr	r1, [pc, #500]	@ (23c <huk_crypt+0x21c>)
      48:	f44f 7380 	mov.w	r3, #256	@ 0x100
      4c:	464a      	mov	r2, r9
      4e:	a807      	add	r0, sp, #28
/home/lubuntu/Dokument/GitHub/STM32-Computer/Firmware/STM32-Computer-Firmware/CA7/optee-os-3.19.0-r2/optee-os-stm32mp-3.19.0-stm32mp-r2/ta/trusted_keys/entry.c:154
      50:	ed8d 8b0b 	vstr	d8, [sp, #44]	@ 0x2c
      54:	ed8d 8b0c 	vstr	d8, [sp, #48]	@ 0x30
/home/lubuntu/Dokument/GitHub/STM32-Computer/Firmware/STM32-Computer-Firmware/CA7/optee-os-3.19.0-r2/optee-os-stm32mp-3.19.0-stm32mp-r2/ta/trusted_keys/entry.c:156
      58:	f001 fe7b 	bl	1d52 <TEE_AllocateOperation>
/home/lubuntu/Dokument/GitHub/STM32-Computer/Firmware/STM32-Computer-Firmware/CA7/optee-os-3.19.0-r2/optee-os-stm32mp-3.19.0-stm32mp-r2/ta/trusted_keys/entry.c:158
      5c:	4604      	mov	r4, r0
      5e:	2800      	cmp	r0, #0
      60:	d145      	bne.n	ee <huk_crypt+0xce>
derive_unique_key():
/home/lubuntu/Dokument/GitHub/STM32-Computer/Firmware/STM32-Computer-Firmware/CA7/optee-os-3.19.0-r2/optee-os-stm32mp-3.19.0-stm32mp-r2/ta/trusted_keys/entry.c:63
      62:	9009      	str	r0, [sp, #36]	@ 0x24
/home/lubuntu/Dokument/GitHub/STM32-Computer/Firmware/STM32-Computer-Firmware/CA7/optee-os-3.19.0-r2/optee-os-stm32mp-3.19.0-stm32mp-r2/ta/trusted_keys/entry.c:64
      64:	f10d 0868 	add.w	r8, sp, #104	@ 0x68
      68:	f04f 0a20 	mov.w	sl, #32
      6c:	4601      	mov	r1, r0
      6e:	4652      	mov	r2, sl
      70:	4640      	mov	r0, r8
      72:	f009 fb04 	bl	967e <memset>
/home/lubuntu/Dokument/GitHub/STM32-Computer/Firmware/STM32-Computer-Firmware/CA7/optee-os-3.19.0-r2/optee-os-stm32mp-3.19.0-stm32mp-r2/ta/trusted_keys/entry.c:72
      76:	4b74      	ldr	r3, [pc, #464]	@ (248 <huk_crypt+0x228>)
      78:	aa0e      	add	r2, sp, #56	@ 0x38
      7a:	9205      	str	r2, [sp, #20]
      7c:	447b      	add	r3, pc
      7e:	9d05      	ldr	r5, [sp, #20]
      80:	cb0f      	ldmia	r3, {r0, r1, r2, r3}
/home/lubuntu/Dokument/GitHub/STM32-Computer/Firmware/STM32-Computer-Firmware/CA7/optee-os-3.19.0-r2/optee-os-stm32mp-3.19.0-stm32mp-r2/ta/trusted_keys/entry.c:66
      82:	940a      	str	r4, [sp, #40]	@ 0x28
/home/lubuntu/Dokument/GitHub/STM32-Computer/Firmware/STM32-Computer-Firmware/CA7/optee-os-3.19.0-r2/optee-os-stm32mp-3.19.0-stm32mp-r2/ta/trusted_keys/entry.c:72
      84:	e885 000f 	stmia.w	r5, {r0, r1, r2, r3}
      88:	ab09      	add	r3, sp, #36	@ 0x24
      8a:	9300      	str	r3, [sp, #0]
      8c:	ad0a      	add	r5, sp, #40	@ 0x28
      8e:	9805      	ldr	r0, [sp, #20]
      90:	4623      	mov	r3, r4
      92:	9501      	str	r5, [sp, #4]
      94:	4622      	mov	r2, r4
      96:	f04f 31ff 	mov.w	r1, #4294967295	@ 0xffffffff
      9a:	f001 f827 	bl	10ec <TEE_OpenTASession>
/home/lubuntu/Dokument/GitHub/STM32-Computer/Firmware/STM32-Computer-Firmware/CA7/optee-os-3.19.0-r2/optee-os-stm32mp-3.19.0-stm32mp-r2/ta/trusted_keys/entry.c:75
      9e:	4604      	mov	r4, r0
      a0:	b990      	cbnz	r0, c8 <huk_crypt+0xa8>
/home/lubuntu/Dokument/GitHub/STM32-Computer/Firmware/STM32-Computer-Firmware/CA7/optee-os-3.19.0-r2/optee-os-stm32mp-3.19.0-stm32mp-r2/ta/trusted_keys/entry.c:86
      a2:	9809      	ldr	r0, [sp, #36]	@ 0x24
/home/lubuntu/Dokument/GitHub/STM32-Computer/Firmware/STM32-Computer-Firmware/CA7/optee-os-3.19.0-r2/optee-os-stm32mp-3.19.0-stm32mp-r2/ta/trusted_keys/entry.c:83
      a4:	f10d 0b48 	add.w	fp, sp, #72	@ 0x48
/home/lubuntu/Dokument/GitHub/STM32-Computer/Firmware/STM32-Computer-Firmware/CA7/optee-os-3.19.0-r2/optee-os-stm32mp-3.19.0-stm32mp-r2/ta/trusted_keys/entry.c:86
      a8:	9501      	str	r5, [sp, #4]
      aa:	2365      	movs	r3, #101	@ 0x65
      ac:	f8cd 8000 	str.w	r8, [sp]
      b0:	2201      	movs	r2, #1
      b2:	f04f 31ff 	mov.w	r1, #4294967295	@ 0xffffffff
/home/lubuntu/Dokument/GitHub/STM32-Computer/Firmware/STM32-Computer-Firmware/CA7/optee-os-3.19.0-r2/optee-os-stm32mp-3.19.0-stm32mp-r2/ta/trusted_keys/entry.c:84
      b6:	e9cd ba1c 	strd	fp, sl, [sp, #112]	@ 0x70
/home/lubuntu/Dokument/GitHub/STM32-Computer/Firmware/STM32-Computer-Firmware/CA7/optee-os-3.19.0-r2/optee-os-stm32mp-3.19.0-stm32mp-r2/ta/trusted_keys/entry.c:86
      ba:	f001 f85f 	bl	117c <TEE_InvokeTACommand>
      be:	4604      	mov	r4, r0
/home/lubuntu/Dokument/GitHub/STM32-Computer/Firmware/STM32-Computer-Firmware/CA7/optee-os-3.19.0-r2/optee-os-stm32mp-3.19.0-stm32mp-r2/ta/trusted_keys/entry.c:90
      c0:	9809      	ldr	r0, [sp, #36]	@ 0x24
      c2:	f000 ff48 	bl	f56 <TEE_CloseTASession>
huk_crypt():
/home/lubuntu/Dokument/GitHub/STM32-Computer/Firmware/STM32-Computer-Firmware/CA7/optee-os-3.19.0-r2/optee-os-stm32mp-3.19.0-stm32mp-r2/ta/trusted_keys/entry.c:162
      c6:	b1c4      	cbz	r4, fa <huk_crypt+0xda>
/home/lubuntu/Dokument/GitHub/STM32-Computer/Firmware/STM32-Computer-Firmware/CA7/optee-os-3.19.0-r2/optee-os-stm32mp-3.19.0-stm32mp-r2/ta/trusted_keys/entry.c:163
      c8:	4b60      	ldr	r3, [pc, #384]	@ (24c <huk_crypt+0x22c>)
      ca:	21a3      	movs	r1, #163	@ 0xa3
      cc:	4860      	ldr	r0, [pc, #384]	@ (250 <huk_crypt+0x230>)
      ce:	447b      	add	r3, pc
      d0:	4478      	add	r0, pc
      d2:	9300      	str	r3, [sp, #0]
      d4:	2301      	movs	r3, #1
      d6:	9401      	str	r4, [sp, #4]
      d8:	461a      	mov	r2, r3
      da:	3010      	adds	r0, #16
      dc:	f000 fad0 	bl	680 <trace_printf>
/home/lubuntu/Dokument/GitHub/STM32-Computer/Firmware/STM32-Computer-Firmware/CA7/optee-os-3.19.0-r2/optee-os-stm32mp-3.19.0-stm32mp-r2/ta/trusted_keys/entry.c:199
      e0:	9807      	ldr	r0, [sp, #28]
      e2:	f001 fe23 	bl	1d2c <TEE_FreeOperation>
/home/lubuntu/Dokument/GitHub/STM32-Computer/Firmware/STM32-Computer-Firmware/CA7/optee-os-3.19.0-r2/optee-os-stm32mp-3.19.0-stm32mp-r2/ta/trusted_keys/entry.c:200
      e6:	2120      	movs	r1, #32
      e8:	a812      	add	r0, sp, #72	@ 0x48
      ea:	f009 fad0 	bl	968e <memzero_explicit>
/home/lubuntu/Dokument/GitHub/STM32-Computer/Firmware/STM32-Computer-Firmware/CA7/optee-os-3.19.0-r2/optee-os-stm32mp-3.19.0-stm32mp-r2/ta/trusted_keys/entry.c:202
      ee:	4620      	mov	r0, r4
      f0:	b023      	add	sp, #140	@ 0x8c
      f2:	ecbd 8b02 	vpop	{d8}
      f6:	e8bd 8ff0 	ldmia.w	sp!, {r4, r5, r6, r7, r8, r9, sl, fp, pc}
/home/lubuntu/Dokument/GitHub/STM32-Computer/Firmware/STM32-Computer-Firmware/CA7/optee-os-3.19.0-r2/optee-os-stm32mp-3.19.0-stm32mp-r2/ta/trusted_keys/entry.c:167
      fa:	4851      	ldr	r0, [pc, #324]	@ (240 <huk_crypt+0x220>)
      fc:	aa08      	add	r2, sp, #32
      fe:	f44f 7180 	mov.w	r1, #256	@ 0x100
     102:	f001 fa47 	bl	1594 <TEE_AllocateTransientObject>
/home/lubuntu/Dokument/GitHub/STM32-Computer/Firmware/STM32-Computer-Firmware/CA7/optee-os-3.19.0-r2/optee-os-stm32mp-3.19.0-stm32mp-r2/ta/trusted_keys/entry.c:169
     106:	4604      	mov	r4, r0
     108:	2800      	cmp	r0, #0
     10a:	d1e9      	bne.n	e0 <huk_crypt+0xc0>
/home/lubuntu/Dokument/GitHub/STM32-Computer/Firmware/STM32-Computer-Firmware/CA7/optee-os-3.19.0-r2/optee-os-stm32mp-3.19.0-stm32mp-r2/ta/trusted_keys/entry.c:176
     10c:	9808      	ldr	r0, [sp, #32]
/home/lubuntu/Dokument/GitHub/STM32-Computer/Firmware/STM32-Computer-Firmware/CA7/optee-os-3.19.0-r2/optee-os-stm32mp-3.19.0-stm32mp-r2/ta/trusted_keys/entry.c:172
     10e:	f04f 4340 	mov.w	r3, #3221225472	@ 0xc0000000
     112:	930b      	str	r3, [sp, #44]	@ 0x2c
/home/lubuntu/Dokument/GitHub/STM32-Computer/Firmware/STM32-Computer-Firmware/CA7/optee-os-3.19.0-r2/optee-os-stm32mp-3.19.0-stm32mp-r2/ta/trusted_keys/entry.c:176
     114:	2201      	movs	r2, #1
/home/lubuntu/Dokument/GitHub/STM32-Computer/Firmware/STM32-Computer-Firmware/CA7/optee-os-3.19.0-r2/optee-os-stm32mp-3.19.0-stm32mp-r2/ta/trusted_keys/entry.c:173
     116:	f8cd b030 	str.w	fp, [sp, #48]	@ 0x30
/home/lubuntu/Dokument/GitHub/STM32-Computer/Firmware/STM32-Computer-Firmware/CA7/optee-os-3.19.0-r2/optee-os-stm32mp-3.19.0-stm32mp-r2/ta/trusted_keys/entry.c:176
     11a:	a90b      	add	r1, sp, #44	@ 0x2c
/home/lubuntu/Dokument/GitHub/STM32-Computer/Firmware/STM32-Computer-Firmware/CA7/optee-os-3.19.0-r2/optee-os-stm32mp-3.19.0-stm32mp-r2/ta/trusted_keys/entry.c:174
     11c:	f8cd a034 	str.w	sl, [sp, #52]	@ 0x34
/home/lubuntu/Dokument/GitHub/STM32-Computer/Firmware/STM32-Computer-Firmware/CA7/optee-os-3.19.0-r2/optee-os-stm32mp-3.19.0-stm32mp-r2/ta/trusted_keys/entry.c:176
     120:	f001 fa88 	bl	1634 <TEE_PopulateTransientObject>
/home/lubuntu/Dokument/GitHub/STM32-Computer/Firmware/STM32-Computer-Firmware/CA7/optee-os-3.19.0-r2/optee-os-stm32mp-3.19.0-stm32mp-r2/ta/trusted_keys/entry.c:177
     124:	4604      	mov	r4, r0
     126:	2800      	cmp	r0, #0
     128:	d153      	bne.n	1d2 <huk_crypt+0x1b2>
/home/lubuntu/Dokument/GitHub/STM32-Computer/Firmware/STM32-Computer-Firmware/CA7/optee-os-3.19.0-r2/optee-os-stm32mp-3.19.0-stm32mp-r2/ta/trusted_keys/entry.c:180
     12a:	9908      	ldr	r1, [sp, #32]
     12c:	9807      	ldr	r0, [sp, #28]
     12e:	f002 fac1 	bl	26b4 <TEE_SetOperationKey>
/home/lubuntu/Dokument/GitHub/STM32-Computer/Firmware/STM32-Computer-Firmware/CA7/optee-os-3.19.0-r2/optee-os-stm32mp-3.19.0-stm32mp-r2/ta/trusted_keys/entry.c:181
     132:	4604      	mov	r4, r0
     134:	2800      	cmp	r0, #0
     136:	d14c      	bne.n	1d2 <huk_crypt+0x1b2>
huk_ae_encrypt():
/home/lubuntu/Dokument/GitHub/STM32-Computer/Firmware/STM32-Computer-Firmware/CA7/optee-os-3.19.0-r2/optee-os-stm32mp-3.19.0-stm32mp-r2/ta/trusted_keys/entry.c:100
     138:	901a      	str	r0, [sp, #104]	@ 0x68
     13a:	ab1b      	add	r3, sp, #108	@ 0x6c
     13c:	ed8d 8b1b 	vstr	d8, [sp, #108]	@ 0x6c
huk_crypt():
/home/lubuntu/Dokument/GitHub/STM32-Computer/Firmware/STM32-Computer-Firmware/CA7/optee-os-3.19.0-r2/optee-os-stm32mp-3.19.0-stm32mp-r2/ta/trusted_keys/entry.c:185
     140:	f8dd a01c 	ldr.w	sl, [sp, #28]
huk_ae_encrypt():
/home/lubuntu/Dokument/GitHub/STM32-Computer/Firmware/STM32-Computer-Firmware/CA7/optee-os-3.19.0-r2/optee-os-stm32mp-3.19.0-stm32mp-r2/ta/trusted_keys/entry.c:100
     144:	ed83 8b01 	vstr	d8, [r3, #4]
/home/lubuntu/Dokument/GitHub/STM32-Computer/Firmware/STM32-Computer-Firmware/CA7/optee-os-3.19.0-r2/optee-os-stm32mp-3.19.0-stm32mp-r2/ta/trusted_keys/entry.c:101
     148:	9b04      	ldr	r3, [sp, #16]
huk_crypt():
/home/lubuntu/Dokument/GitHub/STM32-Computer/Firmware/STM32-Computer-Firmware/CA7/optee-os-3.19.0-r2/optee-os-stm32mp-3.19.0-stm32mp-r2/ta/trusted_keys/entry.c:184
     14a:	f1b9 0f00 	cmp.w	r9, #0
     14e:	d144      	bne.n	1da <huk_crypt+0x1ba>
huk_ae_encrypt():
/home/lubuntu/Dokument/GitHub/STM32-Computer/Firmware/STM32-Computer-Firmware/CA7/optee-os-3.19.0-r2/optee-os-stm32mp-3.19.0-stm32mp-r2/ta/trusted_keys/entry.c:101
     150:	930a      	str	r3, [sp, #40]	@ 0x28
/home/lubuntu/Dokument/GitHub/STM32-Computer/Firmware/STM32-Computer-Firmware/CA7/optee-os-3.19.0-r2/optee-os-stm32mp-3.19.0-stm32mp-r2/ta/trusted_keys/entry.c:104
     152:	46b9      	mov	r9, r7
/home/lubuntu/Dokument/GitHub/STM32-Computer/Firmware/STM32-Computer-Firmware/CA7/optee-os-3.19.0-r2/optee-os-stm32mp-3.19.0-stm32mp-r2/ta/trusted_keys/entry.c:102
     154:	f04f 0b10 	mov.w	fp, #16
/home/lubuntu/Dokument/GitHub/STM32-Computer/Firmware/STM32-Computer-Firmware/CA7/optee-os-3.19.0-r2/optee-os-stm32mp-3.19.0-stm32mp-r2/ta/trusted_keys/entry.c:104
     158:	f809 0b01 	strb.w	r0, [r9], #1
/home/lubuntu/Dokument/GitHub/STM32-Computer/Firmware/STM32-Computer-Firmware/CA7/optee-os-3.19.0-r2/optee-os-stm32mp-3.19.0-stm32mp-r2/ta/trusted_keys/entry.c:105
     15c:	4659      	mov	r1, fp
/home/lubuntu/Dokument/GitHub/STM32-Computer/Firmware/STM32-Computer-Firmware/CA7/optee-os-3.19.0-r2/optee-os-stm32mp-3.19.0-stm32mp-r2/ta/trusted_keys/entry.c:102
     15e:	f8cd b038 	str.w	fp, [sp, #56]	@ 0x38
/home/lubuntu/Dokument/GitHub/STM32-Computer/Firmware/STM32-Computer-Firmware/CA7/optee-os-3.19.0-r2/optee-os-stm32mp-3.19.0-stm32mp-r2/ta/trusted_keys/entry.c:105
     162:	4640      	mov	r0, r8
     164:	f003 fa0a 	bl	357c <TEE_GenerateRandom>
/home/lubuntu/Dokument/GitHub/STM32-Computer/Firmware/STM32-Computer-Firmware/CA7/optee-os-3.19.0-r2/optee-os-stm32mp-3.19.0-stm32mp-r2/ta/trusted_keys/entry.c:106
     168:	4641      	mov	r1, r8
     16a:	465a      	mov	r2, fp
     16c:	4648      	mov	r0, r9
     16e:	f000 f965 	bl	43c <memcpy>
/home/lubuntu/Dokument/GitHub/STM32-Computer/Firmware/STM32-Computer-Firmware/CA7/optee-os-3.19.0-r2/optee-os-stm32mp-3.19.0-stm32mp-r2/ta/trusted_keys/entry.c:108
     172:	9401      	str	r4, [sp, #4]
     174:	2380      	movs	r3, #128	@ 0x80
     176:	9400      	str	r4, [sp, #0]
     178:	465a      	mov	r2, fp
     17a:	4649      	mov	r1, r9
     17c:	4650      	mov	r0, sl
     17e:	f002 fe45 	bl	2e0c <TEE_AEInit>
/home/lubuntu/Dokument/GitHub/STM32-Computer/Firmware/STM32-Computer-Firmware/CA7/optee-os-3.19.0-r2/optee-os-stm32mp-3.19.0-stm32mp-r2/ta/trusted_keys/entry.c:109
     182:	4680      	mov	r8, r0
     184:	b9b8      	cbnz	r0, 1b6 <huk_crypt+0x196>
/home/lubuntu/Dokument/GitHub/STM32-Computer/Firmware/STM32-Computer-Firmware/CA7/optee-os-3.19.0-r2/optee-os-stm32mp-3.19.0-stm32mp-r2/ta/trusted_keys/entry.c:112
     186:	9b05      	ldr	r3, [sp, #20]
     188:	4631      	mov	r1, r6
     18a:	9a04      	ldr	r2, [sp, #16]
     18c:	4650      	mov	r0, sl
     18e:	9302      	str	r3, [sp, #8]
/home/lubuntu/Dokument/GitHub/STM32-Computer/Firmware/STM32-Computer-Firmware/CA7/optee-os-3.19.0-r2/optee-os-stm32mp-3.19.0-stm32mp-r2/ta/trusted_keys/entry.c:113
     190:	f107 0311 	add.w	r3, r7, #17
/home/lubuntu/Dokument/GitHub/STM32-Computer/Firmware/STM32-Computer-Firmware/CA7/optee-os-3.19.0-r2/optee-os-stm32mp-3.19.0-stm32mp-r2/ta/trusted_keys/entry.c:112
     194:	9301      	str	r3, [sp, #4]
     196:	f107 0321 	add.w	r3, r7, #33	@ 0x21
     19a:	9500      	str	r5, [sp, #0]
     19c:	f002 ff02 	bl	2fa4 <TEE_AEEncryptFinal>
/home/lubuntu/Dokument/GitHub/STM32-Computer/Firmware/STM32-Computer-Firmware/CA7/optee-os-3.19.0-r2/optee-os-stm32mp-3.19.0-stm32mp-r2/ta/trusted_keys/entry.c:114
     1a0:	b938      	cbnz	r0, 1b2 <huk_crypt+0x192>
     1a2:	9b0e      	ldr	r3, [sp, #56]	@ 0x38
     1a4:	455b      	cmp	r3, fp
     1a6:	d104      	bne.n	1b2 <huk_crypt+0x192>
/home/lubuntu/Dokument/GitHub/STM32-Computer/Firmware/STM32-Computer-Firmware/CA7/optee-os-3.19.0-r2/optee-os-stm32mp-3.19.0-stm32mp-r2/ta/trusted_keys/entry.c:117
     1a8:	9b0a      	ldr	r3, [sp, #40]	@ 0x28
     1aa:	9a2e      	ldr	r2, [sp, #184]	@ 0xb8
     1ac:	3321      	adds	r3, #33	@ 0x21
     1ae:	6013      	str	r3, [r2, #0]
     1b0:	d30f      	bcc.n	1d2 <huk_crypt+0x1b2>
/home/lubuntu/Dokument/GitHub/STM32-Computer/Firmware/STM32-Computer-Firmware/CA7/optee-os-3.19.0-r2/optee-os-stm32mp-3.19.0-stm32mp-r2/ta/trusted_keys/entry.c:115
     1b2:	f8df 8090 	ldr.w	r8, [pc, #144]	@ 244 <huk_crypt+0x224>
huk_crypt():
/home/lubuntu/Dokument/GitHub/STM32-Computer/Firmware/STM32-Computer-Firmware/CA7/optee-os-3.19.0-r2/optee-os-stm32mp-3.19.0-stm32mp-r2/ta/trusted_keys/entry.c:187
     1b6:	4b27      	ldr	r3, [pc, #156]	@ (254 <huk_crypt+0x234>)
     1b8:	21bb      	movs	r1, #187	@ 0xbb
     1ba:	4827      	ldr	r0, [pc, #156]	@ (258 <huk_crypt+0x238>)
     1bc:	4644      	mov	r4, r8
     1be:	447b      	add	r3, pc
     1c0:	9300      	str	r3, [sp, #0]
     1c2:	2301      	movs	r3, #1
     1c4:	4478      	add	r0, pc
     1c6:	461a      	mov	r2, r3
     1c8:	f8cd 8004 	str.w	r8, [sp, #4]
     1cc:	3010      	adds	r0, #16
     1ce:	f000 fa57 	bl	680 <trace_printf>
/home/lubuntu/Dokument/GitHub/STM32-Computer/Firmware/STM32-Computer-Firmware/CA7/optee-os-3.19.0-r2/optee-os-stm32mp-3.19.0-stm32mp-r2/ta/trusted_keys/entry.c:197
     1d2:	9808      	ldr	r0, [sp, #32]
     1d4:	f001 f9fe 	bl	15d4 <TEE_FreeTransientObject>
     1d8:	e782      	b.n	e0 <huk_crypt+0xc0>
huk_ae_decrypt():
/home/lubuntu/Dokument/GitHub/STM32-Computer/Firmware/STM32-Computer-Firmware/CA7/optee-os-3.19.0-r2/optee-os-stm32mp-3.19.0-stm32mp-r2/ta/trusted_keys/entry.c:131
     1da:	f1b3 0921 	subs.w	r9, r3, #33	@ 0x21
     1de:	d31e      	bcc.n	21e <huk_crypt+0x1fe>
/home/lubuntu/Dokument/GitHub/STM32-Computer/Firmware/STM32-Computer-Firmware/CA7/optee-os-3.19.0-r2/optee-os-stm32mp-3.19.0-stm32mp-r2/ta/trusted_keys/entry.c:134
     1e0:	9001      	str	r0, [sp, #4]
     1e2:	2380      	movs	r3, #128	@ 0x80
     1e4:	9000      	str	r0, [sp, #0]
     1e6:	2210      	movs	r2, #16
     1e8:	1c71      	adds	r1, r6, #1
     1ea:	4650      	mov	r0, sl
     1ec:	f002 fe0e 	bl	2e0c <TEE_AEInit>
/home/lubuntu/Dokument/GitHub/STM32-Computer/Firmware/STM32-Computer-Firmware/CA7/optee-os-3.19.0-r2/optee-os-stm32mp-3.19.0-stm32mp-r2/ta/trusted_keys/entry.c:135
     1f0:	4605      	mov	r5, r0
     1f2:	b9a8      	cbnz	r0, 220 <huk_crypt+0x200>
/home/lubuntu/Dokument/GitHub/STM32-Computer/Firmware/STM32-Computer-Firmware/CA7/optee-os-3.19.0-r2/optee-os-stm32mp-3.19.0-stm32mp-r2/ta/trusted_keys/entry.c:138
     1f4:	2510      	movs	r5, #16
     1f6:	f106 0111 	add.w	r1, r6, #17
     1fa:	462a      	mov	r2, r5
     1fc:	4640      	mov	r0, r8
     1fe:	f000 f91d 	bl	43c <memcpy>
/home/lubuntu/Dokument/GitHub/STM32-Computer/Firmware/STM32-Computer-Firmware/CA7/optee-os-3.19.0-r2/optee-os-stm32mp-3.19.0-stm32mp-r2/ta/trusted_keys/entry.c:139
     202:	9b2e      	ldr	r3, [sp, #184]	@ 0xb8
     204:	464a      	mov	r2, r9
     206:	9502      	str	r5, [sp, #8]
     208:	f106 0121 	add.w	r1, r6, #33	@ 0x21
     20c:	9300      	str	r3, [sp, #0]
     20e:	4650      	mov	r0, sl
     210:	f8cd 8004 	str.w	r8, [sp, #4]
     214:	463b      	mov	r3, r7
     216:	f002 ff4f 	bl	30b8 <TEE_AEDecryptFinal>
/home/lubuntu/Dokument/GitHub/STM32-Computer/Firmware/STM32-Computer-Firmware/CA7/optee-os-3.19.0-r2/optee-os-stm32mp-3.19.0-stm32mp-r2/ta/trusted_keys/entry.c:141
     21a:	2800      	cmp	r0, #0
     21c:	d0d9      	beq.n	1d2 <huk_crypt+0x1b2>
/home/lubuntu/Dokument/GitHub/STM32-Computer/Firmware/STM32-Computer-Firmware/CA7/optee-os-3.19.0-r2/optee-os-stm32mp-3.19.0-stm32mp-r2/ta/trusted_keys/entry.c:132
     21e:	4d09      	ldr	r5, [pc, #36]	@ (244 <huk_crypt+0x224>)
huk_crypt():
/home/lubuntu/Dokument/GitHub/STM32-Computer/Firmware/STM32-Computer-Firmware/CA7/optee-os-3.19.0-r2/optee-os-stm32mp-3.19.0-stm32mp-r2/ta/trusted_keys/entry.c:191
     220:	4b0e      	ldr	r3, [pc, #56]	@ (25c <huk_crypt+0x23c>)
     222:	21bf      	movs	r1, #191	@ 0xbf
     224:	480e      	ldr	r0, [pc, #56]	@ (260 <huk_crypt+0x240>)
     226:	462c      	mov	r4, r5
     228:	447b      	add	r3, pc
     22a:	9300      	str	r3, [sp, #0]
     22c:	2301      	movs	r3, #1
     22e:	4478      	add	r0, pc
     230:	461a      	mov	r2, r3
     232:	9501      	str	r5, [sp, #4]
     234:	3010      	adds	r0, #16
     236:	f000 fa23 	bl	680 <trace_printf>
     23a:	e7ca      	b.n	1d2 <huk_crypt+0x1b2>
     23c:	40000810 	.word	0x40000810
     240:	a0000010 	.word	0xa0000010
     244:	ffff000f 	.word	0xffff000f
     248:	00009cf8 	.word	0x00009cf8
     24c:	0000a022 	.word	0x0000a022
     250:	00009ca4 	.word	0x00009ca4
     254:	00009f59 	.word	0x00009f59
     258:	00009bb0 	.word	0x00009bb0
     25c:	00009f13 	.word	0x00009f13
     260:	00009b46 	.word	0x00009b46

00000264 <TA_CreateEntryPoint>:
TA_CreateEntryPoint():
/home/lubuntu/Dokument/GitHub/STM32-Computer/Firmware/STM32-Computer-Firmware/CA7/optee-os-3.19.0-r2/optee-os-stm32mp-3.19.0-stm32mp-r2/ta/trusted_keys/entry.c:292
     264:	2000      	movs	r0, #0
     266:	4770      	bx	lr

00000268 <TA_DestroyEntryPoint>:
TA_DestroyEntryPoint():
/home/lubuntu/Dokument/GitHub/STM32-Computer/Firmware/STM32-Computer-Firmware/CA7/optee-os-3.19.0-r2/optee-os-stm32mp-3.19.0-stm32mp-r2/ta/trusted_keys/entry.c:296
     268:	4770      	bx	lr

0000026a <TA_OpenSessionEntryPoint>:
TA_OpenSessionEntryPoint():
/home/lubuntu/Dokument/GitHub/STM32-Computer/Firmware/STM32-Computer-Firmware/CA7/optee-os-3.19.0-r2/optee-os-stm32mp-3.19.0-stm32mp-r2/ta/trusted_keys/entry.c:304
     26a:	efc0 0010 	vmov.i32	d16, #0	@ 0x00000000
/home/lubuntu/Dokument/GitHub/STM32-Computer/Firmware/STM32-Computer-Firmware/CA7/optee-os-3.19.0-r2/optee-os-stm32mp-3.19.0-stm32mp-r2/ta/trusted_keys/entry.c:301
     26e:	b510      	push	{r4, lr}
     270:	b086      	sub	sp, #24
/home/lubuntu/Dokument/GitHub/STM32-Computer/Firmware/STM32-Computer-Firmware/CA7/optee-os-3.19.0-r2/optee-os-stm32mp-3.19.0-stm32mp-r2/ta/trusted_keys/entry.c:303
     272:	2300      	movs	r3, #0
/home/lubuntu/Dokument/GitHub/STM32-Computer/Firmware/STM32-Computer-Firmware/CA7/optee-os-3.19.0-r2/optee-os-stm32mp-3.19.0-stm32mp-r2/ta/trusted_keys/entry.c:306
     274:	4668      	mov	r0, sp
/home/lubuntu/Dokument/GitHub/STM32-Computer/Firmware/STM32-Computer-Firmware/CA7/optee-os-3.19.0-r2/optee-os-stm32mp-3.19.0-stm32mp-r2/ta/trusted_keys/entry.c:304
     276:	edcd 0b03 	vstr	d16, [sp, #12]
     27a:	edcd 0b01 	vstr	d16, [sp, #4]
     27e:	edcd 0b04 	vstr	d16, [sp, #16]
/home/lubuntu/Dokument/GitHub/STM32-Computer/Firmware/STM32-Computer-Firmware/CA7/optee-os-3.19.0-r2/optee-os-stm32mp-3.19.0-stm32mp-r2/ta/trusted_keys/entry.c:303
     282:	9300      	str	r3, [sp, #0]
/home/lubuntu/Dokument/GitHub/STM32-Computer/Firmware/STM32-Computer-Firmware/CA7/optee-os-3.19.0-r2/optee-os-stm32mp-3.19.0-stm32mp-r2/ta/trusted_keys/entry.c:306
     284:	f003 fdf0 	bl	3e68 <TEE_AllocatePropertyEnumerator>
/home/lubuntu/Dokument/GitHub/STM32-Computer/Firmware/STM32-Computer-Firmware/CA7/optee-os-3.19.0-r2/optee-os-stm32mp-3.19.0-stm32mp-r2/ta/trusted_keys/entry.c:307
     288:	4604      	mov	r4, r0
     28a:	b988      	cbnz	r0, 2b0 <TA_OpenSessionEntryPoint+0x46>
/home/lubuntu/Dokument/GitHub/STM32-Computer/Firmware/STM32-Computer-Firmware/CA7/optee-os-3.19.0-r2/optee-os-stm32mp-3.19.0-stm32mp-r2/ta/trusted_keys/entry.c:310
     28c:	f06f 0101 	mvn.w	r1, #1
     290:	9800      	ldr	r0, [sp, #0]
     292:	f003 fdff 	bl	3e94 <TEE_StartPropertyEnumerator>
/home/lubuntu/Dokument/GitHub/STM32-Computer/Firmware/STM32-Computer-Firmware/CA7/optee-os-3.19.0-r2/optee-os-stm32mp-3.19.0-stm32mp-r2/ta/trusted_keys/entry.c:312
     296:	9800      	ldr	r0, [sp, #0]
     298:	4621      	mov	r1, r4
     29a:	aa01      	add	r2, sp, #4
     29c:	f003 fdae 	bl	3dfc <TEE_GetPropertyAsIdentity>
/home/lubuntu/Dokument/GitHub/STM32-Computer/Firmware/STM32-Computer-Firmware/CA7/optee-os-3.19.0-r2/optee-os-stm32mp-3.19.0-stm32mp-r2/ta/trusted_keys/entry.c:313
     2a0:	4604      	mov	r4, r0
     2a2:	b928      	cbnz	r0, 2b0 <TA_OpenSessionEntryPoint+0x46>
/home/lubuntu/Dokument/GitHub/STM32-Computer/Firmware/STM32-Computer-Firmware/CA7/optee-os-3.19.0-r2/optee-os-stm32mp-3.19.0-stm32mp-r2/ta/trusted_keys/entry.c:317
     2a4:	9a01      	ldr	r2, [sp, #4]
     2a6:	4b06      	ldr	r3, [pc, #24]	@ (2c0 <TA_OpenSessionEntryPoint+0x56>)
     2a8:	f1b2 4f00 	cmp.w	r2, #2147483648	@ 0x80000000
     2ac:	bf18      	it	ne
     2ae:	461c      	movne	r4, r3
/home/lubuntu/Dokument/GitHub/STM32-Computer/Firmware/STM32-Computer-Firmware/CA7/optee-os-3.19.0-r2/optee-os-stm32mp-3.19.0-stm32mp-r2/ta/trusted_keys/entry.c:320
     2b0:	9800      	ldr	r0, [sp, #0]
     2b2:	b108      	cbz	r0, 2b8 <TA_OpenSessionEntryPoint+0x4e>
/home/lubuntu/Dokument/GitHub/STM32-Computer/Firmware/STM32-Computer-Firmware/CA7/optee-os-3.19.0-r2/optee-os-stm32mp-3.19.0-stm32mp-r2/ta/trusted_keys/entry.c:321
     2b4:	f003 fdec 	bl	3e90 <TEE_FreePropertyEnumerator>
/home/lubuntu/Dokument/GitHub/STM32-Computer/Firmware/STM32-Computer-Firmware/CA7/optee-os-3.19.0-r2/optee-os-stm32mp-3.19.0-stm32mp-r2/ta/trusted_keys/entry.c:323
     2b8:	4620      	mov	r0, r4
     2ba:	b006      	add	sp, #24
     2bc:	bd10      	pop	{r4, pc}
     2be:	bf00      	nop
     2c0:	ffff0001 	.word	0xffff0001

000002c4 <TA_CloseSessionEntryPoint>:
TA_CloseSessionEntryPoint():
/home/lubuntu/Dokument/GitHub/STM32-Computer/Firmware/STM32-Computer-Firmware/CA7/optee-os-3.19.0-r2/optee-os-stm32mp-3.19.0-stm32mp-r2/ta/trusted_keys/entry.c:327
     2c4:	4770      	bx	lr

000002c6 <TA_InvokeCommandEntryPoint>:
TA_InvokeCommandEntryPoint():
/home/lubuntu/Dokument/GitHub/STM32-Computer/Firmware/STM32-Computer-Firmware/CA7/optee-os-3.19.0-r2/optee-os-stm32mp-3.19.0-stm32mp-r2/ta/trusted_keys/entry.c:333
     2c6:	2901      	cmp	r1, #1
/home/lubuntu/Dokument/GitHub/STM32-Computer/Firmware/STM32-Computer-Firmware/CA7/optee-os-3.19.0-r2/optee-os-stm32mp-3.19.0-stm32mp-r2/ta/trusted_keys/entry.c:332
     2c8:	b57f      	push	{r0, r1, r2, r3, r4, r5, r6, lr}
     2ca:	460c      	mov	r4, r1
     2cc:	461d      	mov	r5, r3
/home/lubuntu/Dokument/GitHub/STM32-Computer/Firmware/STM32-Computer-Firmware/CA7/optee-os-3.19.0-r2/optee-os-stm32mp-3.19.0-stm32mp-r2/ta/trusted_keys/entry.c:333
     2ce:	d022      	beq.n	316 <TA_InvokeCommandEntryPoint+0x50>
     2d0:	2902      	cmp	r1, #2
     2d2:	d055      	beq.n	380 <TA_InvokeCommandEntryPoint+0xba>
     2d4:	2900      	cmp	r1, #0
     2d6:	f040 8085 	bne.w	3e4 <TA_InvokeCommandEntryPoint+0x11e>
get_random():
/home/lubuntu/Dokument/GitHub/STM32-Computer/Firmware/STM32-Computer-Firmware/CA7/optee-os-3.19.0-r2/optee-os-stm32mp-3.19.0-stm32mp-r2/ta/trusted_keys/entry.c:38
     2da:	2a06      	cmp	r2, #6
     2dc:	d11d      	bne.n	31a <TA_InvokeCommandEntryPoint+0x54>
/home/lubuntu/Dokument/GitHub/STM32-Computer/Firmware/STM32-Computer-Firmware/CA7/optee-os-3.19.0-r2/optee-os-stm32mp-3.19.0-stm32mp-r2/ta/trusted_keys/entry.c:44
     2de:	681b      	ldr	r3, [r3, #0]
     2e0:	b1db      	cbz	r3, 31a <TA_InvokeCommandEntryPoint+0x54>
     2e2:	6868      	ldr	r0, [r5, #4]
     2e4:	b1c8      	cbz	r0, 31a <TA_InvokeCommandEntryPoint+0x54>
/home/lubuntu/Dokument/GitHub/STM32-Computer/Firmware/STM32-Computer-Firmware/CA7/optee-os-3.19.0-r2/optee-os-stm32mp-3.19.0-stm32mp-r2/ta/trusted_keys/entry.c:47
     2e6:	f001 f810 	bl	130a <TEE_Malloc>
/home/lubuntu/Dokument/GitHub/STM32-Computer/Firmware/STM32-Computer-Firmware/CA7/optee-os-3.19.0-r2/optee-os-stm32mp-3.19.0-stm32mp-r2/ta/trusted_keys/entry.c:48
     2ea:	4606      	mov	r6, r0
     2ec:	2800      	cmp	r0, #0
     2ee:	f000 8088 	beq.w	402 <TA_InvokeCommandEntryPoint+0x13c>
/home/lubuntu/Dokument/GitHub/STM32-Computer/Firmware/STM32-Computer-Firmware/CA7/optee-os-3.19.0-r2/optee-os-stm32mp-3.19.0-stm32mp-r2/ta/trusted_keys/entry.c:51
     2f2:	6869      	ldr	r1, [r5, #4]
     2f4:	f003 f942 	bl	357c <TEE_GenerateRandom>
/home/lubuntu/Dokument/GitHub/STM32-Computer/Firmware/STM32-Computer-Firmware/CA7/optee-os-3.19.0-r2/optee-os-stm32mp-3.19.0-stm32mp-r2/ta/trusted_keys/entry.c:52
     2f8:	686a      	ldr	r2, [r5, #4]
     2fa:	4631      	mov	r1, r6
     2fc:	6828      	ldr	r0, [r5, #0]
     2fe:	f000 f89d 	bl	43c <memcpy>
/home/lubuntu/Dokument/GitHub/STM32-Computer/Firmware/STM32-Computer-Firmware/CA7/optee-os-3.19.0-r2/optee-os-stm32mp-3.19.0-stm32mp-r2/ta/trusted_keys/entry.c:53
     302:	6869      	ldr	r1, [r5, #4]
     304:	4630      	mov	r0, r6
     306:	f009 f9c2 	bl	968e <memzero_explicit>
/home/lubuntu/Dokument/GitHub/STM32-Computer/Firmware/STM32-Computer-Firmware/CA7/optee-os-3.19.0-r2/optee-os-stm32mp-3.19.0-stm32mp-r2/ta/trusted_keys/entry.c:55
     30a:	4630      	mov	r0, r6
     30c:	f001 f826 	bl	135c <TEE_Free>
TA_InvokeCommandEntryPoint():
/home/lubuntu/Dokument/GitHub/STM32-Computer/Firmware/STM32-Computer-Firmware/CA7/optee-os-3.19.0-r2/optee-os-stm32mp-3.19.0-stm32mp-r2/ta/trusted_keys/entry.c:344
     310:	4620      	mov	r0, r4
     312:	b004      	add	sp, #16
     314:	bd70      	pop	{r4, r5, r6, pc}
seal_trusted_key():
/home/lubuntu/Dokument/GitHub/STM32-Computer/Firmware/STM32-Computer-Firmware/CA7/optee-os-3.19.0-r2/optee-os-stm32mp-3.19.0-stm32mp-r2/ta/trusted_keys/entry.c:215
     316:	2a65      	cmp	r2, #101	@ 0x65
     318:	d001      	beq.n	31e <TA_InvokeCommandEntryPoint+0x58>
get_random():
/home/lubuntu/Dokument/GitHub/STM32-Computer/Firmware/STM32-Computer-Firmware/CA7/optee-os-3.19.0-r2/optee-os-stm32mp-3.19.0-stm32mp-r2/ta/trusted_keys/entry.c:42
     31a:	4c3b      	ldr	r4, [pc, #236]	@ (408 <TA_InvokeCommandEntryPoint+0x142>)
     31c:	e7f8      	b.n	310 <TA_InvokeCommandEntryPoint+0x4a>
seal_trusted_key():
/home/lubuntu/Dokument/GitHub/STM32-Computer/Firmware/STM32-Computer-Firmware/CA7/optee-os-3.19.0-r2/optee-os-stm32mp-3.19.0-stm32mp-r2/ta/trusted_keys/entry.c:223
     31e:	cb0e      	ldmia	r3, {r1, r2, r3}
/home/lubuntu/Dokument/GitHub/STM32-Computer/Firmware/STM32-Computer-Firmware/CA7/optee-os-3.19.0-r2/optee-os-stm32mp-3.19.0-stm32mp-r2/ta/trusted_keys/entry.c:224
     320:	68e8      	ldr	r0, [r5, #12]
     322:	9003      	str	r0, [sp, #12]
/home/lubuntu/Dokument/GitHub/STM32-Computer/Firmware/STM32-Computer-Firmware/CA7/optee-os-3.19.0-r2/optee-os-stm32mp-3.19.0-stm32mp-r2/ta/trusted_keys/entry.c:226
     324:	2900      	cmp	r1, #0
     326:	d0f8      	beq.n	31a <TA_InvokeCommandEntryPoint+0x54>
     328:	1e54      	subs	r4, r2, #1
     32a:	f5b4 7f00 	cmp.w	r4, #512	@ 0x200
     32e:	d2f4      	bcs.n	31a <TA_InvokeCommandEntryPoint+0x54>
/home/lubuntu/Dokument/GitHub/STM32-Computer/Firmware/STM32-Computer-Firmware/CA7/optee-os-3.19.0-r2/optee-os-stm32mp-3.19.0-stm32mp-r2/ta/trusted_keys/entry.c:228
     330:	b933      	cbnz	r3, 340 <TA_InvokeCommandEntryPoint+0x7a>
     332:	2800      	cmp	r0, #0
     334:	d1f1      	bne.n	31a <TA_InvokeCommandEntryPoint+0x54>
/home/lubuntu/Dokument/GitHub/STM32-Computer/Firmware/STM32-Computer-Firmware/CA7/optee-os-3.19.0-r2/optee-os-stm32mp-3.19.0-stm32mp-r2/ta/trusted_keys/entry.c:233
     336:	f102 0621 	add.w	r6, r2, #33	@ 0x21
unseal_trusted_key():
/home/lubuntu/Dokument/GitHub/STM32-Computer/Firmware/STM32-Computer-Firmware/CA7/optee-os-3.19.0-r2/optee-os-stm32mp-3.19.0-stm32mp-r2/ta/trusted_keys/entry.c:277
     33a:	4c34      	ldr	r4, [pc, #208]	@ (40c <TA_InvokeCommandEntryPoint+0x146>)
/home/lubuntu/Dokument/GitHub/STM32-Computer/Firmware/STM32-Computer-Firmware/CA7/optee-os-3.19.0-r2/optee-os-stm32mp-3.19.0-stm32mp-r2/ta/trusted_keys/entry.c:276
     33c:	60ee      	str	r6, [r5, #12]
/home/lubuntu/Dokument/GitHub/STM32-Computer/Firmware/STM32-Computer-Firmware/CA7/optee-os-3.19.0-r2/optee-os-stm32mp-3.19.0-stm32mp-r2/ta/trusted_keys/entry.c:277
     33e:	e7e7      	b.n	310 <TA_InvokeCommandEntryPoint+0x4a>
seal_trusted_key():
/home/lubuntu/Dokument/GitHub/STM32-Computer/Firmware/STM32-Computer-Firmware/CA7/optee-os-3.19.0-r2/optee-os-stm32mp-3.19.0-stm32mp-r2/ta/trusted_keys/entry.c:229
     340:	f5b0 7f00 	cmp.w	r0, #512	@ 0x200
     344:	d8e9      	bhi.n	31a <TA_InvokeCommandEntryPoint+0x54>
/home/lubuntu/Dokument/GitHub/STM32-Computer/Firmware/STM32-Computer-Firmware/CA7/optee-os-3.19.0-r2/optee-os-stm32mp-3.19.0-stm32mp-r2/ta/trusted_keys/entry.c:233
     346:	f102 0621 	add.w	r6, r2, #33	@ 0x21
     34a:	42b0      	cmp	r0, r6
     34c:	d3f5      	bcc.n	33a <TA_InvokeCommandEntryPoint+0x74>
/home/lubuntu/Dokument/GitHub/STM32-Computer/Firmware/STM32-Computer-Firmware/CA7/optee-os-3.19.0-r2/optee-os-stm32mp-3.19.0-stm32mp-r2/ta/trusted_keys/entry.c:238
     34e:	a803      	add	r0, sp, #12
     350:	9000      	str	r0, [sp, #0]
     352:	2000      	movs	r0, #0
     354:	f7ff fe64 	bl	20 <huk_crypt>
/home/lubuntu/Dokument/GitHub/STM32-Computer/Firmware/STM32-Computer-Firmware/CA7/optee-os-3.19.0-r2/optee-os-stm32mp-3.19.0-stm32mp-r2/ta/trusted_keys/entry.c:239
     358:	4604      	mov	r4, r0
     35a:	2800      	cmp	r0, #0
     35c:	d1d8      	bne.n	310 <TA_InvokeCommandEntryPoint+0x4a>
/home/lubuntu/Dokument/GitHub/STM32-Computer/Firmware/STM32-Computer-Firmware/CA7/optee-os-3.19.0-r2/optee-os-stm32mp-3.19.0-stm32mp-r2/ta/trusted_keys/entry.c:240
     35e:	9b03      	ldr	r3, [sp, #12]
     360:	429e      	cmp	r6, r3
     362:	d00b      	beq.n	37c <TA_InvokeCommandEntryPoint+0xb6>
_assert_trap():
/home/lubuntu/Dokument/GitHub/STM32-Computer/Firmware/STM32-Computer-Firmware/CA7/optee-os-3.19.0-r2/optee-os-stm32mp-3.19.0-stm32mp-r2/../build/stm32mp135f-dk/export-ta_arm32/include/assert.h:19
     364:	4b2c      	ldr	r3, [pc, #176]	@ (418 <TA_InvokeCommandEntryPoint+0x152>)
     366:	22f0      	movs	r2, #240	@ 0xf0
     368:	492c      	ldr	r1, [pc, #176]	@ (41c <TA_InvokeCommandEntryPoint+0x156>)
     36a:	482d      	ldr	r0, [pc, #180]	@ (420 <TA_InvokeCommandEntryPoint+0x15a>)
     36c:	447b      	add	r3, pc
     36e:	4479      	add	r1, pc
     370:	331a      	adds	r3, #26
     372:	4478      	add	r0, pc
     374:	f000 fd52 	bl	e1c <_assert_log>
/home/lubuntu/Dokument/GitHub/STM32-Computer/Firmware/STM32-Computer-Firmware/CA7/optee-os-3.19.0-r2/optee-os-stm32mp-3.19.0-stm32mp-r2/../build/stm32mp135f-dk/export-ta_arm32/include/assert.h:20
     378:	f000 fd64 	bl	e44 <_assert_break>
seal_trusted_key():
/home/lubuntu/Dokument/GitHub/STM32-Computer/Firmware/STM32-Computer-Firmware/CA7/optee-os-3.19.0-r2/optee-os-stm32mp-3.19.0-stm32mp-r2/ta/trusted_keys/entry.c:241
     37c:	60ee      	str	r6, [r5, #12]
TA_InvokeCommandEntryPoint():
/home/lubuntu/Dokument/GitHub/STM32-Computer/Firmware/STM32-Computer-Firmware/CA7/optee-os-3.19.0-r2/optee-os-stm32mp-3.19.0-stm32mp-r2/ta/trusted_keys/entry.c:337
     37e:	e7c7      	b.n	310 <TA_InvokeCommandEntryPoint+0x4a>
unseal_trusted_key():
/home/lubuntu/Dokument/GitHub/STM32-Computer/Firmware/STM32-Computer-Firmware/CA7/optee-os-3.19.0-r2/optee-os-stm32mp-3.19.0-stm32mp-r2/ta/trusted_keys/entry.c:258
     380:	2a65      	cmp	r2, #101	@ 0x65
     382:	d1ca      	bne.n	31a <TA_InvokeCommandEntryPoint+0x54>
/home/lubuntu/Dokument/GitHub/STM32-Computer/Firmware/STM32-Computer-Firmware/CA7/optee-os-3.19.0-r2/optee-os-stm32mp-3.19.0-stm32mp-r2/ta/trusted_keys/entry.c:265
     384:	e9d3 1600 	ldrd	r1, r6, [r3]
/home/lubuntu/Dokument/GitHub/STM32-Computer/Firmware/STM32-Computer-Firmware/CA7/optee-os-3.19.0-r2/optee-os-stm32mp-3.19.0-stm32mp-r2/ta/trusted_keys/entry.c:267
     388:	68ea      	ldr	r2, [r5, #12]
/home/lubuntu/Dokument/GitHub/STM32-Computer/Firmware/STM32-Computer-Firmware/CA7/optee-os-3.19.0-r2/optee-os-stm32mp-3.19.0-stm32mp-r2/ta/trusted_keys/entry.c:266
     38a:	689b      	ldr	r3, [r3, #8]
/home/lubuntu/Dokument/GitHub/STM32-Computer/Firmware/STM32-Computer-Firmware/CA7/optee-os-3.19.0-r2/optee-os-stm32mp-3.19.0-stm32mp-r2/ta/trusted_keys/entry.c:267
     38c:	9203      	str	r2, [sp, #12]
/home/lubuntu/Dokument/GitHub/STM32-Computer/Firmware/STM32-Computer-Firmware/CA7/optee-os-3.19.0-r2/optee-os-stm32mp-3.19.0-stm32mp-r2/ta/trusted_keys/entry.c:269
     38e:	2900      	cmp	r1, #0
     390:	d0c3      	beq.n	31a <TA_InvokeCommandEntryPoint+0x54>
     392:	f1a6 0022 	sub.w	r0, r6, #34	@ 0x22
     396:	f5b0 7fef 	cmp.w	r0, #478	@ 0x1de
     39a:	d8be      	bhi.n	31a <TA_InvokeCommandEntryPoint+0x54>
/home/lubuntu/Dokument/GitHub/STM32-Computer/Firmware/STM32-Computer-Firmware/CA7/optee-os-3.19.0-r2/optee-os-stm32mp-3.19.0-stm32mp-r2/ta/trusted_keys/entry.c:272
     39c:	b91b      	cbnz	r3, 3a6 <TA_InvokeCommandEntryPoint+0xe0>
     39e:	2a00      	cmp	r2, #0
     3a0:	d1bb      	bne.n	31a <TA_InvokeCommandEntryPoint+0x54>
/home/lubuntu/Dokument/GitHub/STM32-Computer/Firmware/STM32-Computer-Firmware/CA7/optee-os-3.19.0-r2/optee-os-stm32mp-3.19.0-stm32mp-r2/ta/trusted_keys/entry.c:276
     3a2:	3e21      	subs	r6, #33	@ 0x21
     3a4:	e7c9      	b.n	33a <TA_InvokeCommandEntryPoint+0x74>
/home/lubuntu/Dokument/GitHub/STM32-Computer/Firmware/STM32-Computer-Firmware/CA7/optee-os-3.19.0-r2/optee-os-stm32mp-3.19.0-stm32mp-r2/ta/trusted_keys/entry.c:272
     3a6:	f5b2 7f00 	cmp.w	r2, #512	@ 0x200
     3aa:	d8b6      	bhi.n	31a <TA_InvokeCommandEntryPoint+0x54>
/home/lubuntu/Dokument/GitHub/STM32-Computer/Firmware/STM32-Computer-Firmware/CA7/optee-os-3.19.0-r2/optee-os-stm32mp-3.19.0-stm32mp-r2/ta/trusted_keys/entry.c:275
     3ac:	3221      	adds	r2, #33	@ 0x21
     3ae:	4296      	cmp	r6, r2
     3b0:	d8f7      	bhi.n	3a2 <TA_InvokeCommandEntryPoint+0xdc>
/home/lubuntu/Dokument/GitHub/STM32-Computer/Firmware/STM32-Computer-Firmware/CA7/optee-os-3.19.0-r2/optee-os-stm32mp-3.19.0-stm32mp-r2/ta/trusted_keys/entry.c:280
     3b2:	aa03      	add	r2, sp, #12
     3b4:	2001      	movs	r0, #1
     3b6:	9200      	str	r2, [sp, #0]
     3b8:	4632      	mov	r2, r6
     3ba:	f7ff fe31 	bl	20 <huk_crypt>
/home/lubuntu/Dokument/GitHub/STM32-Computer/Firmware/STM32-Computer-Firmware/CA7/optee-os-3.19.0-r2/optee-os-stm32mp-3.19.0-stm32mp-r2/ta/trusted_keys/entry.c:281
     3be:	4604      	mov	r4, r0
     3c0:	2800      	cmp	r0, #0
     3c2:	d1a5      	bne.n	310 <TA_InvokeCommandEntryPoint+0x4a>
/home/lubuntu/Dokument/GitHub/STM32-Computer/Firmware/STM32-Computer-Firmware/CA7/optee-os-3.19.0-r2/optee-os-stm32mp-3.19.0-stm32mp-r2/ta/trusted_keys/entry.c:282
     3c4:	9b03      	ldr	r3, [sp, #12]
     3c6:	3e21      	subs	r6, #33	@ 0x21
     3c8:	429e      	cmp	r6, r3
     3ca:	d009      	beq.n	3e0 <TA_InvokeCommandEntryPoint+0x11a>
_assert_trap():
/home/lubuntu/Dokument/GitHub/STM32-Computer/Firmware/STM32-Computer-Firmware/CA7/optee-os-3.19.0-r2/optee-os-stm32mp-3.19.0-stm32mp-r2/../build/stm32mp135f-dk/export-ta_arm32/include/assert.h:19
     3cc:	4b15      	ldr	r3, [pc, #84]	@ (424 <TA_InvokeCommandEntryPoint+0x15e>)
     3ce:	f44f 728d 	mov.w	r2, #282	@ 0x11a
     3d2:	4915      	ldr	r1, [pc, #84]	@ (428 <TA_InvokeCommandEntryPoint+0x162>)
     3d4:	4815      	ldr	r0, [pc, #84]	@ (42c <TA_InvokeCommandEntryPoint+0x166>)
     3d6:	447b      	add	r3, pc
     3d8:	4479      	add	r1, pc
     3da:	332b      	adds	r3, #43	@ 0x2b
     3dc:	4478      	add	r0, pc
     3de:	e7c9      	b.n	374 <TA_InvokeCommandEntryPoint+0xae>
unseal_trusted_key():
/home/lubuntu/Dokument/GitHub/STM32-Computer/Firmware/STM32-Computer-Firmware/CA7/optee-os-3.19.0-r2/optee-os-stm32mp-3.19.0-stm32mp-r2/ta/trusted_keys/entry.c:283
     3e0:	60eb      	str	r3, [r5, #12]
TA_InvokeCommandEntryPoint():
/home/lubuntu/Dokument/GitHub/STM32-Computer/Firmware/STM32-Computer-Firmware/CA7/optee-os-3.19.0-r2/optee-os-stm32mp-3.19.0-stm32mp-r2/ta/trusted_keys/entry.c:339
     3e2:	e795      	b.n	310 <TA_InvokeCommandEntryPoint+0x4a>
/home/lubuntu/Dokument/GitHub/STM32-Computer/Firmware/STM32-Computer-Firmware/CA7/optee-os-3.19.0-r2/optee-os-stm32mp-3.19.0-stm32mp-r2/ta/trusted_keys/entry.c:341
     3e4:	4b12      	ldr	r3, [pc, #72]	@ (430 <TA_InvokeCommandEntryPoint+0x16a>)
     3e6:	4813      	ldr	r0, [pc, #76]	@ (434 <TA_InvokeCommandEntryPoint+0x16e>)
     3e8:	447b      	add	r3, pc
     3ea:	9300      	str	r3, [sp, #0]
     3ec:	2301      	movs	r3, #1
     3ee:	4478      	add	r0, pc
     3f0:	461a      	mov	r2, r3
     3f2:	9101      	str	r1, [sp, #4]
     3f4:	303e      	adds	r0, #62	@ 0x3e
/home/lubuntu/Dokument/GitHub/STM32-Computer/Firmware/STM32-Computer-Firmware/CA7/optee-os-3.19.0-r2/optee-os-stm32mp-3.19.0-stm32mp-r2/ta/trusted_keys/entry.c:342
     3f6:	4c06      	ldr	r4, [pc, #24]	@ (410 <TA_InvokeCommandEntryPoint+0x14a>)
/home/lubuntu/Dokument/GitHub/STM32-Computer/Firmware/STM32-Computer-Firmware/CA7/optee-os-3.19.0-r2/optee-os-stm32mp-3.19.0-stm32mp-r2/ta/trusted_keys/entry.c:341
     3f8:	f240 1155 	movw	r1, #341	@ 0x155
     3fc:	f000 f940 	bl	680 <trace_printf>
/home/lubuntu/Dokument/GitHub/STM32-Computer/Firmware/STM32-Computer-Firmware/CA7/optee-os-3.19.0-r2/optee-os-stm32mp-3.19.0-stm32mp-r2/ta/trusted_keys/entry.c:342
     400:	e786      	b.n	310 <TA_InvokeCommandEntryPoint+0x4a>
get_random():
/home/lubuntu/Dokument/GitHub/STM32-Computer/Firmware/STM32-Computer-Firmware/CA7/optee-os-3.19.0-r2/optee-os-stm32mp-3.19.0-stm32mp-r2/ta/trusted_keys/entry.c:49
     402:	4c04      	ldr	r4, [pc, #16]	@ (414 <TA_InvokeCommandEntryPoint+0x14e>)
     404:	e784      	b.n	310 <TA_InvokeCommandEntryPoint+0x4a>
     406:	bf00      	nop
     408:	ffff0006 	.word	0xffff0006
     40c:	ffff0010 	.word	0xffff0010
     410:	ffff000a 	.word	0xffff000a
     414:	ffff000c 	.word	0xffff000c
     418:	00009a08 	.word	0x00009a08
     41c:	00009df1 	.word	0x00009df1
     420:	00009e05 	.word	0x00009e05
     424:	0000999e 	.word	0x0000999e
     428:	00009d87 	.word	0x00009d87
     42c:	00009dc8 	.word	0x00009dc8
     430:	00009de9 	.word	0x00009de9
     434:	00009986 	.word	0x00009986

00000438 <__ta_entry>:
__ta_entry():
/home/lubuntu/Dokument/GitHub/STM32-Computer/Firmware/STM32-Computer-Firmware/CA7/optee-os-3.19.0-r2/optee-os-stm32mp-3.19.0-stm32mp-r2/../build/stm32mp135f-dk/export-ta_arm32/src/ta_entry_a32.S:22
     438:	fa00248c 	blx	9670 <__ta_entry_c>

0000043c <memcpy>:
memcpy():
/home/lubuntu/Dokument/GitHub/STM32-Computer/Firmware/STM32-Computer-Firmware/CA7/optee-os-3.19.0-r2/optee-os-stm32mp-3.19.0-stm32mp-r2/lib/libutils/isoc/newlib/memcpy.c:106
     43c:	2a0f      	cmp	r2, #15
     43e:	d912      	bls.n	466 <memcpy+0x2a>
     440:	ea40 0301 	orr.w	r3, r0, r1
     444:	079b      	lsls	r3, r3, #30
/home/lubuntu/Dokument/GitHub/STM32-Computer/Firmware/STM32-Computer-Firmware/CA7/optee-os-3.19.0-r2/optee-os-stm32mp-3.19.0-stm32mp-r2/lib/libutils/isoc/newlib/memcpy.c:130
     446:	bf1c      	itt	ne
     448:	f102 3cff 	addne.w	ip, r2, #4294967295	@ 0xffffffff
/home/lubuntu/Dokument/GitHub/STM32-Computer/Firmware/STM32-Computer-Firmware/CA7/optee-os-3.19.0-r2/optee-os-stm32mp-3.19.0-stm32mp-r2/lib/libutils/isoc/newlib/memcpy.c:99
     44c:	4603      	movne	r3, r0
/home/lubuntu/Dokument/GitHub/STM32-Computer/Firmware/STM32-Computer-Firmware/CA7/optee-os-3.19.0-r2/optee-os-stm32mp-3.19.0-stm32mp-r2/lib/libutils/isoc/newlib/memcpy.c:106
     44e:	d010      	beq.n	472 <memcpy+0x36>
     450:	f10c 0c01 	add.w	ip, ip, #1
     454:	3b01      	subs	r3, #1
     456:	448c      	add	ip, r1
/home/lubuntu/Dokument/GitHub/STM32-Computer/Firmware/STM32-Computer-Firmware/CA7/optee-os-3.19.0-r2/optee-os-stm32mp-3.19.0-stm32mp-r2/lib/libutils/isoc/newlib/memcpy.c:131
     458:	f811 2b01 	ldrb.w	r2, [r1], #1
/home/lubuntu/Dokument/GitHub/STM32-Computer/Firmware/STM32-Computer-Firmware/CA7/optee-os-3.19.0-r2/optee-os-stm32mp-3.19.0-stm32mp-r2/lib/libutils/isoc/newlib/memcpy.c:130
     45c:	4561      	cmp	r1, ip
/home/lubuntu/Dokument/GitHub/STM32-Computer/Firmware/STM32-Computer-Firmware/CA7/optee-os-3.19.0-r2/optee-os-stm32mp-3.19.0-stm32mp-r2/lib/libutils/isoc/newlib/memcpy.c:131
     45e:	f803 2f01 	strb.w	r2, [r3, #1]!
/home/lubuntu/Dokument/GitHub/STM32-Computer/Firmware/STM32-Computer-Firmware/CA7/optee-os-3.19.0-r2/optee-os-stm32mp-3.19.0-stm32mp-r2/lib/libutils/isoc/newlib/memcpy.c:130
     462:	d1f9      	bne.n	458 <memcpy+0x1c>
     464:	4770      	bx	lr
/home/lubuntu/Dokument/GitHub/STM32-Computer/Firmware/STM32-Computer-Firmware/CA7/optee-os-3.19.0-r2/optee-os-stm32mp-3.19.0-stm32mp-r2/lib/libutils/isoc/newlib/memcpy.c:99
     466:	4603      	mov	r3, r0
/home/lubuntu/Dokument/GitHub/STM32-Computer/Firmware/STM32-Computer-Firmware/CA7/optee-os-3.19.0-r2/optee-os-stm32mp-3.19.0-stm32mp-r2/lib/libutils/isoc/newlib/memcpy.c:130
     468:	f102 3cff 	add.w	ip, r2, #4294967295	@ 0xffffffff
     46c:	2a00      	cmp	r2, #0
     46e:	d1ef      	bne.n	450 <memcpy+0x14>
/home/lubuntu/Dokument/GitHub/STM32-Computer/Firmware/STM32-Computer-Firmware/CA7/optee-os-3.19.0-r2/optee-os-stm32mp-3.19.0-stm32mp-r2/lib/libutils/isoc/newlib/memcpy.c:135
     470:	4770      	bx	lr
     472:	f1a2 0310 	sub.w	r3, r2, #16
     476:	f101 0c20 	add.w	ip, r1, #32
/home/lubuntu/Dokument/GitHub/STM32-Computer/Firmware/STM32-Computer-Firmware/CA7/optee-os-3.19.0-r2/optee-os-stm32mp-3.19.0-stm32mp-r2/lib/libutils/isoc/newlib/memcpy.c:87
     47a:	b570      	push	{r4, r5, r6, lr}
     47c:	f101 0410 	add.w	r4, r1, #16
     480:	f023 060f 	bic.w	r6, r3, #15
     484:	f100 0510 	add.w	r5, r0, #16
     488:	44b4      	add	ip, r6
     48a:	ea4f 1e13 	mov.w	lr, r3, lsr #4
/home/lubuntu/Dokument/GitHub/STM32-Computer/Firmware/STM32-Computer-Firmware/CA7/optee-os-3.19.0-r2/optee-os-stm32mp-3.19.0-stm32mp-r2/lib/libutils/isoc/newlib/memcpy.c:112
     48e:	f854 3c10 	ldr.w	r3, [r4, #-16]
/home/lubuntu/Dokument/GitHub/STM32-Computer/Firmware/STM32-Computer-Firmware/CA7/optee-os-3.19.0-r2/optee-os-stm32mp-3.19.0-stm32mp-r2/lib/libutils/isoc/newlib/memcpy.c:111
     492:	3410      	adds	r4, #16
     494:	4564      	cmp	r4, ip
     496:	f105 0510 	add.w	r5, r5, #16
/home/lubuntu/Dokument/GitHub/STM32-Computer/Firmware/STM32-Computer-Firmware/CA7/optee-os-3.19.0-r2/optee-os-stm32mp-3.19.0-stm32mp-r2/lib/libutils/isoc/newlib/memcpy.c:112
     49a:	f845 3c20 	str.w	r3, [r5, #-32]
/home/lubuntu/Dokument/GitHub/STM32-Computer/Firmware/STM32-Computer-Firmware/CA7/optee-os-3.19.0-r2/optee-os-stm32mp-3.19.0-stm32mp-r2/lib/libutils/isoc/newlib/memcpy.c:113
     49e:	f854 3c1c 	ldr.w	r3, [r4, #-28]
     4a2:	f845 3c1c 	str.w	r3, [r5, #-28]
/home/lubuntu/Dokument/GitHub/STM32-Computer/Firmware/STM32-Computer-Firmware/CA7/optee-os-3.19.0-r2/optee-os-stm32mp-3.19.0-stm32mp-r2/lib/libutils/isoc/newlib/memcpy.c:114
     4a6:	f854 3c18 	ldr.w	r3, [r4, #-24]
     4aa:	f845 3c18 	str.w	r3, [r5, #-24]
/home/lubuntu/Dokument/GitHub/STM32-Computer/Firmware/STM32-Computer-Firmware/CA7/optee-os-3.19.0-r2/optee-os-stm32mp-3.19.0-stm32mp-r2/lib/libutils/isoc/newlib/memcpy.c:115
     4ae:	f854 3c14 	ldr.w	r3, [r4, #-20]
     4b2:	f845 3c14 	str.w	r3, [r5, #-20]
/home/lubuntu/Dokument/GitHub/STM32-Computer/Firmware/STM32-Computer-Firmware/CA7/optee-os-3.19.0-r2/optee-os-stm32mp-3.19.0-stm32mp-r2/lib/libutils/isoc/newlib/memcpy.c:111
     4b6:	d1ea      	bne.n	48e <memcpy+0x52>
     4b8:	f10e 0301 	add.w	r3, lr, #1
/home/lubuntu/Dokument/GitHub/STM32-Computer/Firmware/STM32-Computer-Firmware/CA7/optee-os-3.19.0-r2/optee-os-stm32mp-3.19.0-stm32mp-r2/lib/libutils/isoc/newlib/memcpy.c:120
     4bc:	f012 0f0c 	tst.w	r2, #12
/home/lubuntu/Dokument/GitHub/STM32-Computer/Firmware/STM32-Computer-Firmware/CA7/optee-os-3.19.0-r2/optee-os-stm32mp-3.19.0-stm32mp-r2/lib/libutils/isoc/newlib/memcpy.c:116
     4c0:	f002 040f 	and.w	r4, r2, #15
     4c4:	ea4f 1303 	mov.w	r3, r3, lsl #4
     4c8:	bf08      	it	eq
     4ca:	4622      	moveq	r2, r4
/home/lubuntu/Dokument/GitHub/STM32-Computer/Firmware/STM32-Computer-Firmware/CA7/optee-os-3.19.0-r2/optee-os-stm32mp-3.19.0-stm32mp-r2/lib/libutils/isoc/newlib/memcpy.c:115
     4cc:	4419      	add	r1, r3
     4ce:	4403      	add	r3, r0
/home/lubuntu/Dokument/GitHub/STM32-Computer/Firmware/STM32-Computer-Firmware/CA7/optee-os-3.19.0-r2/optee-os-stm32mp-3.19.0-stm32mp-r2/lib/libutils/isoc/newlib/memcpy.c:120
     4d0:	d014      	beq.n	4fc <memcpy+0xc0>
     4d2:	f1a3 0e04 	sub.w	lr, r3, #4
/home/lubuntu/Dokument/GitHub/STM32-Computer/Firmware/STM32-Computer-Firmware/CA7/optee-os-3.19.0-r2/optee-os-stm32mp-3.19.0-stm32mp-r2/lib/libutils/isoc/newlib/memcpy.c:115
     4d6:	460d      	mov	r5, r1
/home/lubuntu/Dokument/GitHub/STM32-Computer/Firmware/STM32-Computer-Firmware/CA7/optee-os-3.19.0-r2/optee-os-stm32mp-3.19.0-stm32mp-r2/lib/libutils/isoc/newlib/memcpy.c:121
     4d8:	f855 6b04 	ldr.w	r6, [r5], #4
     4dc:	eba4 0c05 	sub.w	ip, r4, r5
/home/lubuntu/Dokument/GitHub/STM32-Computer/Firmware/STM32-Computer-Firmware/CA7/optee-os-3.19.0-r2/optee-os-stm32mp-3.19.0-stm32mp-r2/lib/libutils/isoc/newlib/memcpy.c:120
     4e0:	448c      	add	ip, r1
/home/lubuntu/Dokument/GitHub/STM32-Computer/Firmware/STM32-Computer-Firmware/CA7/optee-os-3.19.0-r2/optee-os-stm32mp-3.19.0-stm32mp-r2/lib/libutils/isoc/newlib/memcpy.c:121
     4e2:	f84e 6f04 	str.w	r6, [lr, #4]!
/home/lubuntu/Dokument/GitHub/STM32-Computer/Firmware/STM32-Computer-Firmware/CA7/optee-os-3.19.0-r2/optee-os-stm32mp-3.19.0-stm32mp-r2/lib/libutils/isoc/newlib/memcpy.c:120
     4e6:	f1bc 0f03 	cmp.w	ip, #3
     4ea:	d8f5      	bhi.n	4d8 <memcpy+0x9c>
     4ec:	3c04      	subs	r4, #4
/home/lubuntu/Dokument/GitHub/STM32-Computer/Firmware/STM32-Computer-Firmware/CA7/optee-os-3.19.0-r2/optee-os-stm32mp-3.19.0-stm32mp-r2/lib/libutils/isoc/newlib/memcpy.c:122
     4ee:	f002 0203 	and.w	r2, r2, #3
     4f2:	f024 0403 	bic.w	r4, r4, #3
     4f6:	3404      	adds	r4, #4
/home/lubuntu/Dokument/GitHub/STM32-Computer/Firmware/STM32-Computer-Firmware/CA7/optee-os-3.19.0-r2/optee-os-stm32mp-3.19.0-stm32mp-r2/lib/libutils/isoc/newlib/memcpy.c:121
     4f8:	4423      	add	r3, r4
     4fa:	4421      	add	r1, r4
/home/lubuntu/Dokument/GitHub/STM32-Computer/Firmware/STM32-Computer-Firmware/CA7/optee-os-3.19.0-r2/optee-os-stm32mp-3.19.0-stm32mp-r2/lib/libutils/isoc/newlib/memcpy.c:130
     4fc:	f102 3cff 	add.w	ip, r2, #4294967295	@ 0xffffffff
     500:	3b01      	subs	r3, #1
     502:	f10c 0c01 	add.w	ip, ip, #1
     506:	448c      	add	ip, r1
     508:	b12a      	cbz	r2, 516 <memcpy+0xda>
/home/lubuntu/Dokument/GitHub/STM32-Computer/Firmware/STM32-Computer-Firmware/CA7/optee-os-3.19.0-r2/optee-os-stm32mp-3.19.0-stm32mp-r2/lib/libutils/isoc/newlib/memcpy.c:131
     50a:	f811 2b01 	ldrb.w	r2, [r1], #1
/home/lubuntu/Dokument/GitHub/STM32-Computer/Firmware/STM32-Computer-Firmware/CA7/optee-os-3.19.0-r2/optee-os-stm32mp-3.19.0-stm32mp-r2/lib/libutils/isoc/newlib/memcpy.c:130
     50e:	4561      	cmp	r1, ip
/home/lubuntu/Dokument/GitHub/STM32-Computer/Firmware/STM32-Computer-Firmware/CA7/optee-os-3.19.0-r2/optee-os-stm32mp-3.19.0-stm32mp-r2/lib/libutils/isoc/newlib/memcpy.c:131
     510:	f803 2f01 	strb.w	r2, [r3, #1]!
/home/lubuntu/Dokument/GitHub/STM32-Computer/Firmware/STM32-Computer-Firmware/CA7/optee-os-3.19.0-r2/optee-os-stm32mp-3.19.0-stm32mp-r2/lib/libutils/isoc/newlib/memcpy.c:130
     514:	d1f9      	bne.n	50a <memcpy+0xce>
/home/lubuntu/Dokument/GitHub/STM32-Computer/Firmware/STM32-Computer-Firmware/CA7/optee-os-3.19.0-r2/optee-os-stm32mp-3.19.0-stm32mp-r2/lib/libutils/isoc/newlib/memcpy.c:135
     516:	bd70      	pop	{r4, r5, r6, pc}

00000518 <trace_set_level>:
trace_set_level():
/home/lubuntu/Dokument/GitHub/STM32-Computer/Firmware/STM32-Computer-Firmware/CA7/optee-os-3.19.0-r2/optee-os-stm32mp-3.19.0-stm32mp-r2/lib/libutils/ext/trace.c:24
     518:	4b04      	ldr	r3, [pc, #16]	@ (52c <trace_set_level+0x14>)
/home/lubuntu/Dokument/GitHub/STM32-Computer/Firmware/STM32-Computer-Firmware/CA7/optee-os-3.19.0-r2/optee-os-stm32mp-3.19.0-stm32mp-r2/lib/libutils/ext/trace.c:28
     51a:	2805      	cmp	r0, #5
     51c:	4a04      	ldr	r2, [pc, #16]	@ (530 <trace_set_level+0x18>)
     51e:	bf28      	it	cs
     520:	2004      	movcs	r0, #4
/home/lubuntu/Dokument/GitHub/STM32-Computer/Firmware/STM32-Computer-Firmware/CA7/optee-os-3.19.0-r2/optee-os-stm32mp-3.19.0-stm32mp-r2/lib/libutils/ext/trace.c:24
     522:	447b      	add	r3, pc
     524:	589b      	ldr	r3, [r3, r2]
     526:	6018      	str	r0, [r3, #0]
/home/lubuntu/Dokument/GitHub/STM32-Computer/Firmware/STM32-Computer-Firmware/CA7/optee-os-3.19.0-r2/optee-os-stm32mp-3.19.0-stm32mp-r2/lib/libutils/ext/trace.c:29
     528:	4770      	bx	lr
     52a:	bf00      	nop
     52c:	0000cb62 	.word	0x0000cb62
     530:	00000014 	.word	0x00000014

00000534 <trace_get_level>:
trace_get_level():
/home/lubuntu/Dokument/GitHub/STM32-Computer/Firmware/STM32-Computer-Firmware/CA7/optee-os-3.19.0-r2/optee-os-stm32mp-3.19.0-stm32mp-r2/lib/libutils/ext/trace.c:32
     534:	4b02      	ldr	r3, [pc, #8]	@ (540 <trace_get_level+0xc>)
/home/lubuntu/Dokument/GitHub/STM32-Computer/Firmware/STM32-Computer-Firmware/CA7/optee-os-3.19.0-r2/optee-os-stm32mp-3.19.0-stm32mp-r2/lib/libutils/ext/trace.c:33
     536:	4a03      	ldr	r2, [pc, #12]	@ (544 <trace_get_level+0x10>)
/home/lubuntu/Dokument/GitHub/STM32-Computer/Firmware/STM32-Computer-Firmware/CA7/optee-os-3.19.0-r2/optee-os-stm32mp-3.19.0-stm32mp-r2/lib/libutils/ext/trace.c:32
     538:	447b      	add	r3, pc
/home/lubuntu/Dokument/GitHub/STM32-Computer/Firmware/STM32-Computer-Firmware/CA7/optee-os-3.19.0-r2/optee-os-stm32mp-3.19.0-stm32mp-r2/lib/libutils/ext/trace.c:33
     53a:	589b      	ldr	r3, [r3, r2]
/home/lubuntu/Dokument/GitHub/STM32-Computer/Firmware/STM32-Computer-Firmware/CA7/optee-os-3.19.0-r2/optee-os-stm32mp-3.19.0-stm32mp-r2/lib/libutils/ext/trace.c:34
     53c:	6818      	ldr	r0, [r3, #0]
     53e:	4770      	bx	lr
     540:	0000cb4c 	.word	0x0000cb4c
     544:	00000014 	.word	0x00000014

00000548 <trace_vprintf>:
trace_vprintf():
/home/lubuntu/Dokument/GitHub/STM32-Computer/Firmware/STM32-Computer-Firmware/CA7/optee-os-3.19.0-r2/optee-os-stm32mp-3.19.0-stm32mp-r2/lib/libutils/ext/trace.c:113
     548:	e92d 47f0 	stmdb	sp!, {r4, r5, r6, r7, r8, r9, sl, lr}
     54c:	4607      	mov	r7, r0
     54e:	4e42      	ldr	r6, [pc, #264]	@ (658 <trace_vprintf+0x110>)
     550:	b0c4      	sub	sp, #272	@ 0x110
     552:	4688      	mov	r8, r1
     554:	4614      	mov	r4, r2
     556:	447e      	add	r6, pc
/home/lubuntu/Dokument/GitHub/STM32-Computer/Firmware/STM32-Computer-Firmware/CA7/optee-os-3.19.0-r2/optee-os-stm32mp-3.19.0-stm32mp-r2/lib/libutils/ext/trace.c:118
     558:	469a      	mov	sl, r3
     55a:	2b00      	cmp	r3, #0
     55c:	d069      	beq.n	632 <trace_vprintf+0xea>
/home/lubuntu/Dokument/GitHub/STM32-Computer/Firmware/STM32-Computer-Firmware/CA7/optee-os-3.19.0-r2/optee-os-stm32mp-3.19.0-stm32mp-r2/lib/libutils/ext/trace.c:118 (discriminator 1)
     55e:	4b3f      	ldr	r3, [pc, #252]	@ (65c <trace_vprintf+0x114>)
     560:	58f3      	ldr	r3, [r6, r3]
     562:	681b      	ldr	r3, [r3, #0]
     564:	4293      	cmp	r3, r2
     566:	db61      	blt.n	62c <trace_vprintf+0xe4>
trace_level_to_string():
/home/lubuntu/Dokument/GitHub/STM32-Computer/Firmware/STM32-Computer-Firmware/CA7/optee-os-3.19.0-r2/optee-os-stm32mp-3.19.0-stm32mp-r2/lib/libutils/ext/trace.c:51
     568:	2a04      	cmp	r2, #4
     56a:	bf94      	ite	ls
     56c:	4613      	movls	r3, r2
     56e:	2300      	movhi	r3, #0
/home/lubuntu/Dokument/GitHub/STM32-Computer/Firmware/STM32-Computer-Firmware/CA7/optee-os-3.19.0-r2/optee-os-stm32mp-3.19.0-stm32mp-r2/lib/libutils/ext/trace.c:54
     570:	4a3b      	ldr	r2, [pc, #236]	@ (660 <trace_vprintf+0x118>)
     572:	447a      	add	r2, pc
     574:	5cd3      	ldrb	r3, [r2, r3]
trace_vprintf():
/home/lubuntu/Dokument/GitHub/STM32-Computer/Firmware/STM32-Computer-Firmware/CA7/optee-os-3.19.0-r2/optee-os-stm32mp-3.19.0-stm32mp-r2/lib/libutils/ext/trace.c:122
     576:	4a3b      	ldr	r2, [pc, #236]	@ (664 <trace_vprintf+0x11c>)
     578:	ad04      	add	r5, sp, #16
     57a:	f44f 7180 	mov.w	r1, #256	@ 0x100
     57e:	4628      	mov	r0, r5
     580:	447a      	add	r2, pc
     582:	f000 f8aa 	bl	6da <snprintk>
/home/lubuntu/Dokument/GitHub/STM32-Computer/Firmware/STM32-Computer-Firmware/CA7/optee-os-3.19.0-r2/optee-os-stm32mp-3.19.0-stm32mp-r2/lib/libutils/ext/trace.c:124
     586:	f1b0 0900 	subs.w	r9, r0, #0
     58a:	db4f      	blt.n	62c <trace_vprintf+0xe4>
/home/lubuntu/Dokument/GitHub/STM32-Computer/Firmware/STM32-Computer-Firmware/CA7/optee-os-3.19.0-r2/optee-os-stm32mp-3.19.0-stm32mp-r2/lib/libutils/ext/trace.c:129
     58c:	4b36      	ldr	r3, [pc, #216]	@ (668 <trace_vprintf+0x120>)
     58e:	f5c9 7180 	rsb	r1, r9, #256	@ 0x100
     592:	4a36      	ldr	r2, [pc, #216]	@ (66c <trace_vprintf+0x124>)
     594:	58f3      	ldr	r3, [r6, r3]
     596:	447a      	add	r2, pc
     598:	eb05 0009 	add.w	r0, r5, r9
     59c:	9303      	str	r3, [sp, #12]
     59e:	f000 f89c 	bl	6da <snprintk>
/home/lubuntu/Dokument/GitHub/STM32-Computer/Firmware/STM32-Computer-Firmware/CA7/optee-os-3.19.0-r2/optee-os-stm32mp-3.19.0-stm32mp-r2/lib/libutils/ext/trace.c:131
     5a2:	2800      	cmp	r0, #0
     5a4:	db42      	blt.n	62c <trace_vprintf+0xe4>
/home/lubuntu/Dokument/GitHub/STM32-Computer/Firmware/STM32-Computer-Firmware/CA7/optee-os-3.19.0-r2/optee-os-stm32mp-3.19.0-stm32mp-r2/lib/libutils/ext/trace.c:133
     5a6:	eb00 0609 	add.w	r6, r0, r9
/home/lubuntu/Dokument/GitHub/STM32-Computer/Firmware/STM32-Computer-Firmware/CA7/optee-os-3.19.0-r2/optee-os-stm32mp-3.19.0-stm32mp-r2/lib/libutils/ext/trace.c:135
     5aa:	f1ba 0f00 	cmp.w	sl, #0
     5ae:	d049      	beq.n	644 <trace_vprintf+0xfc>
/home/lubuntu/Dokument/GitHub/STM32-Computer/Firmware/STM32-Computer-Firmware/CA7/optee-os-3.19.0-r2/optee-os-stm32mp-3.19.0-stm32mp-r2/lib/libutils/ext/trace.c:135 (discriminator 1)
     5b0:	231a      	movs	r3, #26
     5b2:	40e3      	lsrs	r3, r4
     5b4:	07db      	lsls	r3, r3, #31
     5b6:	d545      	bpl.n	644 <trace_vprintf+0xfc>
/home/lubuntu/Dokument/GitHub/STM32-Computer/Firmware/STM32-Computer-Firmware/CA7/optee-os-3.19.0-r2/optee-os-stm32mp-3.19.0-stm32mp-r2/lib/libutils/ext/trace.c:137
     5b8:	19ac      	adds	r4, r5, r6
print_thread_id():
/home/lubuntu/Dokument/GitHub/STM32-Computer/Firmware/STM32-Computer-Firmware/CA7/optee-os-3.19.0-r2/optee-os-stm32mp-3.19.0-stm32mp-r2/lib/libutils/ext/trace.c:66
     5ba:	f000 fc55 	bl	e68 <trace_ext_get_thread_id>
/home/lubuntu/Dokument/GitHub/STM32-Computer/Firmware/STM32-Computer-Firmware/CA7/optee-os-3.19.0-r2/optee-os-stm32mp-3.19.0-stm32mp-r2/lib/libutils/ext/trace.c:68
     5be:	2800      	cmp	r0, #0
trace_vprintf():
/home/lubuntu/Dokument/GitHub/STM32-Computer/Firmware/STM32-Computer-Firmware/CA7/optee-os-3.19.0-r2/optee-os-stm32mp-3.19.0-stm32mp-r2/lib/libutils/ext/trace.c:137
     5c0:	f5c6 7980 	rsb	r9, r6, #256	@ 0x100
print_thread_id():
/home/lubuntu/Dokument/GitHub/STM32-Computer/Firmware/STM32-Computer-Firmware/CA7/optee-os-3.19.0-r2/optee-os-stm32mp-3.19.0-stm32mp-r2/lib/libutils/ext/trace.c:68
     5c4:	db37      	blt.n	636 <trace_vprintf+0xee>
/home/lubuntu/Dokument/GitHub/STM32-Computer/Firmware/STM32-Computer-Firmware/CA7/optee-os-3.19.0-r2/optee-os-stm32mp-3.19.0-stm32mp-r2/lib/libutils/ext/trace.c:69
     5c6:	4a2a      	ldr	r2, [pc, #168]	@ (670 <trace_vprintf+0x128>)
     5c8:	2301      	movs	r3, #1
     5ca:	9000      	str	r0, [sp, #0]
     5cc:	447a      	add	r2, pc
/home/lubuntu/Dokument/GitHub/STM32-Computer/Firmware/STM32-Computer-Firmware/CA7/optee-os-3.19.0-r2/optee-os-stm32mp-3.19.0-stm32mp-r2/lib/libutils/ext/trace.c:71
     5ce:	4649      	mov	r1, r9
     5d0:	4620      	mov	r0, r4
     5d2:	f000 f882 	bl	6da <snprintk>
trace_vprintf():
/home/lubuntu/Dokument/GitHub/STM32-Computer/Firmware/STM32-Computer-Firmware/CA7/optee-os-3.19.0-r2/optee-os-stm32mp-3.19.0-stm32mp-r2/lib/libutils/ext/trace.c:144
     5d6:	2800      	cmp	r0, #0
     5d8:	db28      	blt.n	62c <trace_vprintf+0xe4>
/home/lubuntu/Dokument/GitHub/STM32-Computer/Firmware/STM32-Computer-Firmware/CA7/optee-os-3.19.0-r2/optee-os-stm32mp-3.19.0-stm32mp-r2/lib/libutils/ext/trace.c:146
     5da:	1984      	adds	r4, r0, r6
/home/lubuntu/Dokument/GitHub/STM32-Computer/Firmware/STM32-Computer-Firmware/CA7/optee-os-3.19.0-r2/optee-os-stm32mp-3.19.0-stm32mp-r2/lib/libutils/ext/trace.c:148
     5dc:	b167      	cbz	r7, 5f8 <trace_vprintf+0xb0>
/home/lubuntu/Dokument/GitHub/STM32-Computer/Firmware/STM32-Computer-Firmware/CA7/optee-os-3.19.0-r2/optee-os-stm32mp-3.19.0-stm32mp-r2/lib/libutils/ext/trace.c:149
     5de:	4a25      	ldr	r2, [pc, #148]	@ (674 <trace_vprintf+0x12c>)
     5e0:	463b      	mov	r3, r7
     5e2:	1928      	adds	r0, r5, r4
     5e4:	f5c4 7180 	rsb	r1, r4, #256	@ 0x100
     5e8:	447a      	add	r2, pc
     5ea:	f8cd 8000 	str.w	r8, [sp]
     5ee:	f000 f874 	bl	6da <snprintk>
/home/lubuntu/Dokument/GitHub/STM32-Computer/Firmware/STM32-Computer-Firmware/CA7/optee-os-3.19.0-r2/optee-os-stm32mp-3.19.0-stm32mp-r2/lib/libutils/ext/trace.c:151
     5f2:	2800      	cmp	r0, #0
     5f4:	db1a      	blt.n	62c <trace_vprintf+0xe4>
/home/lubuntu/Dokument/GitHub/STM32-Computer/Firmware/STM32-Computer-Firmware/CA7/optee-os-3.19.0-r2/optee-os-stm32mp-3.19.0-stm32mp-r2/lib/libutils/ext/trace.c:153
     5f6:	4404      	add	r4, r0
/home/lubuntu/Dokument/GitHub/STM32-Computer/Firmware/STM32-Computer-Firmware/CA7/optee-os-3.19.0-r2/optee-os-stm32mp-3.19.0-stm32mp-r2/lib/libutils/ext/trace.c:163
     5f8:	1928      	adds	r0, r5, r4
     5fa:	f5c4 7180 	rsb	r1, r4, #256	@ 0x100
     5fe:	e9dd 234c 	ldrd	r2, r3, [sp, #304]	@ 0x130
     602:	f000 f863 	bl	6cc <vsnprintk>
/home/lubuntu/Dokument/GitHub/STM32-Computer/Firmware/STM32-Computer-Firmware/CA7/optee-os-3.19.0-r2/optee-os-stm32mp-3.19.0-stm32mp-r2/lib/libutils/ext/trace.c:164
     606:	2800      	cmp	r0, #0
/home/lubuntu/Dokument/GitHub/STM32-Computer/Firmware/STM32-Computer-Firmware/CA7/optee-os-3.19.0-r2/optee-os-stm32mp-3.19.0-stm32mp-r2/lib/libutils/ext/trace.c:170
     608:	f04f 030a 	mov.w	r3, #10
/home/lubuntu/Dokument/GitHub/STM32-Computer/Firmware/STM32-Computer-Firmware/CA7/optee-os-3.19.0-r2/optee-os-stm32mp-3.19.0-stm32mp-r2/lib/libutils/ext/trace.c:165
     60c:	bfc8      	it	gt
     60e:	1824      	addgt	r4, r4, r0
/home/lubuntu/Dokument/GitHub/STM32-Computer/Firmware/STM32-Computer-Firmware/CA7/optee-os-3.19.0-r2/optee-os-stm32mp-3.19.0-stm32mp-r2/lib/libutils/ext/trace.c:167
     610:	2cfe      	cmp	r4, #254	@ 0xfe
     612:	bf28      	it	cs
     614:	24fe      	movcs	r4, #254	@ 0xfe
/home/lubuntu/Dokument/GitHub/STM32-Computer/Firmware/STM32-Computer-Firmware/CA7/optee-os-3.19.0-r2/optee-os-stm32mp-3.19.0-stm32mp-r2/lib/libutils/ext/trace.c:170
     616:	552b      	strb	r3, [r5, r4]
/home/lubuntu/Dokument/GitHub/STM32-Computer/Firmware/STM32-Computer-Firmware/CA7/optee-os-3.19.0-r2/optee-os-stm32mp-3.19.0-stm32mp-r2/lib/libutils/ext/trace.c:171
     618:	b114      	cbz	r4, 620 <trace_vprintf+0xd8>
/home/lubuntu/Dokument/GitHub/STM32-Computer/Firmware/STM32-Computer-Firmware/CA7/optee-os-3.19.0-r2/optee-os-stm32mp-3.19.0-stm32mp-r2/lib/libutils/ext/trace.c:171 (discriminator 1)
     61a:	5d2b      	ldrb	r3, [r5, r4]
     61c:	2b0a      	cmp	r3, #10
     61e:	d019      	beq.n	654 <trace_vprintf+0x10c>
/home/lubuntu/Dokument/GitHub/STM32-Computer/Firmware/STM32-Computer-Firmware/CA7/optee-os-3.19.0-r2/optee-os-stm32mp-3.19.0-stm32mp-r2/lib/libutils/ext/trace.c:174
     620:	442c      	add	r4, r5
     622:	2300      	movs	r3, #0
/home/lubuntu/Dokument/GitHub/STM32-Computer/Firmware/STM32-Computer-Firmware/CA7/optee-os-3.19.0-r2/optee-os-stm32mp-3.19.0-stm32mp-r2/lib/libutils/ext/trace.c:176
     624:	4628      	mov	r0, r5
/home/lubuntu/Dokument/GitHub/STM32-Computer/Firmware/STM32-Computer-Firmware/CA7/optee-os-3.19.0-r2/optee-os-stm32mp-3.19.0-stm32mp-r2/lib/libutils/ext/trace.c:174
     626:	70a3      	strb	r3, [r4, #2]
/home/lubuntu/Dokument/GitHub/STM32-Computer/Firmware/STM32-Computer-Firmware/CA7/optee-os-3.19.0-r2/optee-os-stm32mp-3.19.0-stm32mp-r2/lib/libutils/ext/trace.c:176
     628:	f000 fc14 	bl	e54 <trace_ext_puts>
/home/lubuntu/Dokument/GitHub/STM32-Computer/Firmware/STM32-Computer-Firmware/CA7/optee-os-3.19.0-r2/optee-os-stm32mp-3.19.0-stm32mp-r2/lib/libutils/ext/trace.c:177
     62c:	b044      	add	sp, #272	@ 0x110
     62e:	e8bd 87f0 	ldmia.w	sp!, {r4, r5, r6, r7, r8, r9, sl, pc}
trace_level_to_string():
/home/lubuntu/Dokument/GitHub/STM32-Computer/Firmware/STM32-Computer-Firmware/CA7/optee-os-3.19.0-r2/optee-os-stm32mp-3.19.0-stm32mp-r2/lib/libutils/ext/trace.c:49
     632:	234d      	movs	r3, #77	@ 0x4d
     634:	e79f      	b.n	576 <trace_vprintf+0x2e>
print_thread_id():
/home/lubuntu/Dokument/GitHub/STM32-Computer/Firmware/STM32-Computer-Firmware/CA7/optee-os-3.19.0-r2/optee-os-stm32mp-3.19.0-stm32mp-r2/lib/libutils/ext/trace.c:71
     636:	4b10      	ldr	r3, [pc, #64]	@ (678 <trace_vprintf+0x130>)
     638:	4a10      	ldr	r2, [pc, #64]	@ (67c <trace_vprintf+0x134>)
     63a:	447b      	add	r3, pc
     63c:	9300      	str	r3, [sp, #0]
     63e:	2301      	movs	r3, #1
     640:	447a      	add	r2, pc
     642:	e7c4      	b.n	5ce <trace_vprintf+0x86>
trace_vprintf():
/home/lubuntu/Dokument/GitHub/STM32-Computer/Firmware/STM32-Computer-Firmware/CA7/optee-os-3.19.0-r2/optee-os-stm32mp-3.19.0-stm32mp-r2/lib/libutils/ext/trace.c:157
     644:	2efe      	cmp	r6, #254	@ 0xfe
     646:	d8f1      	bhi.n	62c <trace_vprintf+0xe4>
/home/lubuntu/Dokument/GitHub/STM32-Computer/Firmware/STM32-Computer-Firmware/CA7/optee-os-3.19.0-r2/optee-os-stm32mp-3.19.0-stm32mp-r2/lib/libutils/ext/trace.c:159
     648:	2320      	movs	r3, #32
     64a:	1c74      	adds	r4, r6, #1
     64c:	55ab      	strb	r3, [r5, r6]
/home/lubuntu/Dokument/GitHub/STM32-Computer/Firmware/STM32-Computer-Firmware/CA7/optee-os-3.19.0-r2/optee-os-stm32mp-3.19.0-stm32mp-r2/lib/libutils/ext/trace.c:160
     64e:	2300      	movs	r3, #0
     650:	552b      	strb	r3, [r5, r4]
     652:	e7d1      	b.n	5f8 <trace_vprintf+0xb0>
/home/lubuntu/Dokument/GitHub/STM32-Computer/Firmware/STM32-Computer-Firmware/CA7/optee-os-3.19.0-r2/optee-os-stm32mp-3.19.0-stm32mp-r2/lib/libutils/ext/trace.c:172
     654:	3c01      	subs	r4, #1
     656:	e7df      	b.n	618 <trace_vprintf+0xd0>
     658:	0000cb2e 	.word	0x0000cb2e
     65c:	00000014 	.word	0x00000014
     660:	00009d47 	.word	0x00009d47
     664:	00009d1f 	.word	0x00009d1f
     668:	0000001c 	.word	0x0000001c
     66c:	00009d0d 	.word	0x00009d0d
     670:	00009cdb 	.word	0x00009cdb
     674:	00009cca 	.word	0x00009cca
     678:	0000a5b9 	.word	0x0000a5b9
     67c:	00009c6d 	.word	0x00009c6d

00000680 <trace_printf>:
trace_printf():
/home/lubuntu/Dokument/GitHub/STM32-Computer/Firmware/STM32-Computer-Firmware/CA7/optee-os-3.19.0-r2/optee-os-stm32mp-3.19.0-stm32mp-r2/lib/libutils/ext/trace.c:104
     680:	b530      	push	{r4, r5, lr}
     682:	b085      	sub	sp, #20
     684:	ac08      	add	r4, sp, #32
     686:	f854 5b04 	ldr.w	r5, [r4], #4
/home/lubuntu/Dokument/GitHub/STM32-Computer/Firmware/STM32-Computer-Firmware/CA7/optee-os-3.19.0-r2/optee-os-stm32mp-3.19.0-stm32mp-r2/lib/libutils/ext/trace.c:108
     68a:	9401      	str	r4, [sp, #4]
     68c:	9500      	str	r5, [sp, #0]
/home/lubuntu/Dokument/GitHub/STM32-Computer/Firmware/STM32-Computer-Firmware/CA7/optee-os-3.19.0-r2/optee-os-stm32mp-3.19.0-stm32mp-r2/lib/libutils/ext/trace.c:107
     68e:	9403      	str	r4, [sp, #12]
/home/lubuntu/Dokument/GitHub/STM32-Computer/Firmware/STM32-Computer-Firmware/CA7/optee-os-3.19.0-r2/optee-os-stm32mp-3.19.0-stm32mp-r2/lib/libutils/ext/trace.c:108
     690:	f7ff ff5a 	bl	548 <trace_vprintf>
/home/lubuntu/Dokument/GitHub/STM32-Computer/Firmware/STM32-Computer-Firmware/CA7/optee-os-3.19.0-r2/optee-os-stm32mp-3.19.0-stm32mp-r2/lib/libutils/ext/trace.c:110
     694:	b005      	add	sp, #20
     696:	bd30      	pop	{r4, r5, pc}

00000698 <dhex_dump>:
dhex_dump():
/home/lubuntu/Dokument/GitHub/STM32-Computer/Firmware/STM32-Computer-Firmware/CA7/optee-os-3.19.0-r2/optee-os-stm32mp-3.19.0-stm32mp-r2/lib/libutils/ext/trace.c:287
     698:	4770      	bx	lr
     69a:	bf00      	nop

0000069c <__vsnprintf>:
__vsnprintf():
/home/lubuntu/Dokument/GitHub/STM32-Computer/Firmware/STM32-Computer-Firmware/CA7/optee-os-3.19.0-r2/optee-os-stm32mp-3.19.0-stm32mp-r2/lib/libutils/ext/snprintk.c:138
     69c:	b57f      	push	{r0, r1, r2, r3, r4, r5, r6, lr}
     69e:	4604      	mov	r4, r0
/home/lubuntu/Dokument/GitHub/STM32-Computer/Firmware/STM32-Computer-Firmware/CA7/optee-os-3.19.0-r2/optee-os-stm32mp-3.19.0-stm32mp-r2/lib/libutils/ext/snprintk.c:142
     6a0:	1866      	adds	r6, r4, r1
/home/lubuntu/Dokument/GitHub/STM32-Computer/Firmware/STM32-Computer-Firmware/CA7/optee-os-3.19.0-r2/optee-os-stm32mp-3.19.0-stm32mp-r2/lib/libutils/ext/snprintk.c:138
     6a2:	4610      	mov	r0, r2
/home/lubuntu/Dokument/GitHub/STM32-Computer/Firmware/STM32-Computer-Firmware/CA7/optee-os-3.19.0-r2/optee-os-stm32mp-3.19.0-stm32mp-r2/lib/libutils/ext/snprintk.c:143
     6a4:	f89d 2020 	ldrb.w	r2, [sp, #32]
/home/lubuntu/Dokument/GitHub/STM32-Computer/Firmware/STM32-Computer-Firmware/CA7/optee-os-3.19.0-r2/optee-os-stm32mp-3.19.0-stm32mp-r2/lib/libutils/ext/snprintk.c:138
     6a8:	460d      	mov	r5, r1
/home/lubuntu/Dokument/GitHub/STM32-Computer/Firmware/STM32-Computer-Firmware/CA7/optee-os-3.19.0-r2/optee-os-stm32mp-3.19.0-stm32mp-r2/lib/libutils/ext/snprintk.c:142
     6aa:	9603      	str	r6, [sp, #12]
/home/lubuntu/Dokument/GitHub/STM32-Computer/Firmware/STM32-Computer-Firmware/CA7/optee-os-3.19.0-r2/optee-os-stm32mp-3.19.0-stm32mp-r2/lib/libutils/ext/snprintk.c:143
     6ac:	a903      	add	r1, sp, #12
     6ae:	9200      	str	r2, [sp, #0]
     6b0:	4622      	mov	r2, r4
     6b2:	f000 f81f 	bl	6f4 <kprintf.constprop.0>
/home/lubuntu/Dokument/GitHub/STM32-Computer/Firmware/STM32-Computer-Firmware/CA7/optee-os-3.19.0-r2/optee-os-stm32mp-3.19.0-stm32mp-r2/lib/libutils/ext/snprintk.c:144
     6b6:	b13c      	cbz	r4, 6c8 <__vsnprintf+0x2c>
/home/lubuntu/Dokument/GitHub/STM32-Computer/Firmware/STM32-Computer-Firmware/CA7/optee-os-3.19.0-r2/optee-os-stm32mp-3.19.0-stm32mp-r2/lib/libutils/ext/snprintk.c:144 (discriminator 1)
     6b8:	b135      	cbz	r5, 6c8 <__vsnprintf+0x2c>
/home/lubuntu/Dokument/GitHub/STM32-Computer/Firmware/STM32-Computer-Firmware/CA7/optee-os-3.19.0-r2/optee-os-stm32mp-3.19.0-stm32mp-r2/lib/libutils/ext/snprintk.c:146
     6ba:	42a8      	cmp	r0, r5
     6bc:	f04f 0300 	mov.w	r3, #0
/home/lubuntu/Dokument/GitHub/STM32-Computer/Firmware/STM32-Computer-Firmware/CA7/optee-os-3.19.0-r2/optee-os-stm32mp-3.19.0-stm32mp-r2/lib/libutils/ext/snprintk.c:147
     6c0:	bf2c      	ite	cs
     6c2:	f806 3c01 	strbcs.w	r3, [r6, #-1]
/home/lubuntu/Dokument/GitHub/STM32-Computer/Firmware/STM32-Computer-Firmware/CA7/optee-os-3.19.0-r2/optee-os-stm32mp-3.19.0-stm32mp-r2/lib/libutils/ext/snprintk.c:149
     6c6:	5423      	strbcc	r3, [r4, r0]
/home/lubuntu/Dokument/GitHub/STM32-Computer/Firmware/STM32-Computer-Firmware/CA7/optee-os-3.19.0-r2/optee-os-stm32mp-3.19.0-stm32mp-r2/lib/libutils/ext/snprintk.c:152
     6c8:	b004      	add	sp, #16
     6ca:	bd70      	pop	{r4, r5, r6, pc}

000006cc <vsnprintk>:
vsnprintk():
/home/lubuntu/Dokument/GitHub/STM32-Computer/Firmware/STM32-Computer-Firmware/CA7/optee-os-3.19.0-r2/optee-os-stm32mp-3.19.0-stm32mp-r2/lib/libutils/ext/snprintk.c:130
     6cc:	b513      	push	{r0, r1, r4, lr}
/home/lubuntu/Dokument/GitHub/STM32-Computer/Firmware/STM32-Computer-Firmware/CA7/optee-os-3.19.0-r2/optee-os-stm32mp-3.19.0-stm32mp-r2/lib/libutils/ext/snprintk.c:131
     6ce:	2401      	movs	r4, #1
     6d0:	9400      	str	r4, [sp, #0]
     6d2:	f7ff ffe3 	bl	69c <__vsnprintf>
/home/lubuntu/Dokument/GitHub/STM32-Computer/Firmware/STM32-Computer-Firmware/CA7/optee-os-3.19.0-r2/optee-os-stm32mp-3.19.0-stm32mp-r2/lib/libutils/ext/snprintk.c:132
     6d6:	b002      	add	sp, #8
     6d8:	bd10      	pop	{r4, pc}

000006da <snprintk>:
snprintk():
/home/lubuntu/Dokument/GitHub/STM32-Computer/Firmware/STM32-Computer-Firmware/CA7/optee-os-3.19.0-r2/optee-os-stm32mp-3.19.0-stm32mp-r2/lib/libutils/ext/snprintk.c:113
     6da:	b40c      	push	{r2, r3}
     6dc:	b507      	push	{r0, r1, r2, lr}
     6de:	ab04      	add	r3, sp, #16
     6e0:	f853 2b04 	ldr.w	r2, [r3], #4
/home/lubuntu/Dokument/GitHub/STM32-Computer/Firmware/STM32-Computer-Firmware/CA7/optee-os-3.19.0-r2/optee-os-stm32mp-3.19.0-stm32mp-r2/lib/libutils/ext/snprintk.c:117
     6e4:	9301      	str	r3, [sp, #4]
/home/lubuntu/Dokument/GitHub/STM32-Computer/Firmware/STM32-Computer-Firmware/CA7/optee-os-3.19.0-r2/optee-os-stm32mp-3.19.0-stm32mp-r2/lib/libutils/ext/snprintk.c:118
     6e6:	f7ff fff1 	bl	6cc <vsnprintk>
/home/lubuntu/Dokument/GitHub/STM32-Computer/Firmware/STM32-Computer-Firmware/CA7/optee-os-3.19.0-r2/optee-os-stm32mp-3.19.0-stm32mp-r2/lib/libutils/ext/snprintk.c:122
     6ea:	b003      	add	sp, #12
     6ec:	f85d eb04 	ldr.w	lr, [sp], #4
     6f0:	b002      	add	sp, #8
     6f2:	4770      	bx	lr

000006f4 <kprintf.constprop.0>:
kprintf():
/home/lubuntu/Dokument/GitHub/STM32-Computer/Firmware/STM32-Computer-Firmware/CA7/optee-os-3.19.0-r2/optee-os-stm32mp-3.19.0-stm32mp-r2/lib/libutils/ext/snprintk.c:242
     6f4:	e92d 4ff0 	stmdb	sp!, {r4, r5, r6, r7, r8, r9, sl, fp, lr}
     6f8:	b09d      	sub	sp, #116	@ 0x74
     6fa:	4614      	mov	r4, r2
     6fc:	4680      	mov	r8, r0
     6fe:	f89d 2098 	ldrb.w	r2, [sp, #152]	@ 0x98
     702:	461e      	mov	r6, r3
/home/lubuntu/Dokument/GitHub/STM32-Computer/Firmware/STM32-Computer-Firmware/CA7/optee-os-3.19.0-r2/optee-os-stm32mp-3.19.0-stm32mp-r2/lib/libutils/ext/snprintk.c:264
     704:	910d      	str	r1, [sp, #52]	@ 0x34
/home/lubuntu/Dokument/GitHub/STM32-Computer/Firmware/STM32-Computer-Firmware/CA7/optee-os-3.19.0-r2/optee-os-stm32mp-3.19.0-stm32mp-r2/lib/libutils/ext/snprintk.c:242
     706:	9211      	str	r2, [sp, #68]	@ 0x44
/home/lubuntu/Dokument/GitHub/STM32-Computer/Firmware/STM32-Computer-Firmware/CA7/optee-os-3.19.0-r2/optee-os-stm32mp-3.19.0-stm32mp-r2/lib/libutils/ext/snprintk.c:264
     708:	b181      	cbz	r1, 72c <kprintf.constprop.0+0x38>
/home/lubuntu/Dokument/GitHub/STM32-Computer/Firmware/STM32-Computer-Firmware/CA7/optee-os-3.19.0-r2/optee-os-stm32mp-3.19.0-stm32mp-r2/lib/libutils/ext/snprintk.c:265
     70a:	680b      	ldr	r3, [r1, #0]
/home/lubuntu/Dokument/GitHub/STM32-Computer/Firmware/STM32-Computer-Firmware/CA7/optee-os-3.19.0-r2/optee-os-stm32mp-3.19.0-stm32mp-r2/lib/libutils/ext/snprintk.c:267
     70c:	930e      	str	r3, [sp, #56]	@ 0x38
/home/lubuntu/Dokument/GitHub/STM32-Computer/Firmware/STM32-Computer-Firmware/CA7/optee-os-3.19.0-r2/optee-os-stm32mp-3.19.0-stm32mp-r2/lib/libutils/ext/snprintk.c:275
     70e:	2300      	movs	r3, #0
     710:	930f      	str	r3, [sp, #60]	@ 0x3c
/home/lubuntu/Dokument/GitHub/STM32-Computer/Firmware/STM32-Computer-Firmware/CA7/optee-os-3.19.0-r2/optee-os-stm32mp-3.19.0-stm32mp-r2/lib/libutils/ext/snprintk.c:273
     712:	469b      	mov	fp, r3
/home/lubuntu/Dokument/GitHub/STM32-Computer/Firmware/STM32-Computer-Firmware/CA7/optee-os-3.19.0-r2/optee-os-stm32mp-3.19.0-stm32mp-r2/lib/libutils/ext/snprintk.c:281
     714:	f898 3000 	ldrb.w	r3, [r8]
     718:	2b25      	cmp	r3, #37	@ 0x25
     71a:	d016      	beq.n	74a <kprintf.constprop.0+0x56>
     71c:	b943      	cbnz	r3, 730 <kprintf.constprop.0+0x3c>
/home/lubuntu/Dokument/GitHub/STM32-Computer/Firmware/STM32-Computer-Firmware/CA7/optee-os-3.19.0-r2/optee-os-stm32mp-3.19.0-stm32mp-r2/lib/libutils/ext/snprintk.c:619
     71e:	9b0d      	ldr	r3, [sp, #52]	@ 0x34
     720:	b103      	cbz	r3, 724 <kprintf.constprop.0+0x30>
/home/lubuntu/Dokument/GitHub/STM32-Computer/Firmware/STM32-Computer-Firmware/CA7/optee-os-3.19.0-r2/optee-os-stm32mp-3.19.0-stm32mp-r2/lib/libutils/ext/snprintk.c:620
     722:	601c      	str	r4, [r3, #0]
/home/lubuntu/Dokument/GitHub/STM32-Computer/Firmware/STM32-Computer-Firmware/CA7/optee-os-3.19.0-r2/optee-os-stm32mp-3.19.0-stm32mp-r2/lib/libutils/ext/snprintk.c:622
     724:	4658      	mov	r0, fp
     726:	b01d      	add	sp, #116	@ 0x74
     728:	e8bd 8ff0 	ldmia.w	sp!, {r4, r5, r6, r7, r8, r9, sl, fp, pc}
/home/lubuntu/Dokument/GitHub/STM32-Computer/Firmware/STM32-Computer-Firmware/CA7/optee-os-3.19.0-r2/optee-os-stm32mp-3.19.0-stm32mp-r2/lib/libutils/ext/snprintk.c:267
     72c:	9b0d      	ldr	r3, [sp, #52]	@ 0x34
     72e:	e7ed      	b.n	70c <kprintf.constprop.0+0x18>
/home/lubuntu/Dokument/GitHub/STM32-Computer/Firmware/STM32-Computer-Firmware/CA7/optee-os-3.19.0-r2/optee-os-stm32mp-3.19.0-stm32mp-r2/lib/libutils/ext/snprintk.c:282
     730:	f10b 0b01 	add.w	fp, fp, #1
/home/lubuntu/Dokument/GitHub/STM32-Computer/Firmware/STM32-Computer-Firmware/CA7/optee-os-3.19.0-r2/optee-os-stm32mp-3.19.0-stm32mp-r2/lib/libutils/ext/snprintk.c:283
     734:	b134      	cbz	r4, 744 <kprintf.constprop.0+0x50>
     736:	9a0d      	ldr	r2, [sp, #52]	@ 0x34
     738:	b112      	cbz	r2, 740 <kprintf.constprop.0+0x4c>
     73a:	9a0e      	ldr	r2, [sp, #56]	@ 0x38
     73c:	4294      	cmp	r4, r2
     73e:	d201      	bcs.n	744 <kprintf.constprop.0+0x50>
     740:	f804 3b01 	strb.w	r3, [r4], #1
/home/lubuntu/Dokument/GitHub/STM32-Computer/Firmware/STM32-Computer-Firmware/CA7/optee-os-3.19.0-r2/optee-os-stm32mp-3.19.0-stm32mp-r2/lib/libutils/ext/snprintk.c:281
     744:	f108 0801 	add.w	r8, r8, #1
     748:	e7e4      	b.n	714 <kprintf.constprop.0+0x20>
/home/lubuntu/Dokument/GitHub/STM32-Computer/Firmware/STM32-Computer-Firmware/CA7/optee-os-3.19.0-r2/optee-os-stm32mp-3.19.0-stm32mp-r2/lib/libutils/ext/snprintk.c:294
     74a:	2700      	movs	r7, #0
/home/lubuntu/Dokument/GitHub/STM32-Computer/Firmware/STM32-Computer-Firmware/CA7/optee-os-3.19.0-r2/optee-os-stm32mp-3.19.0-stm32mp-r2/lib/libutils/ext/snprintk.c:288
     74c:	f108 0801 	add.w	r8, r8, #1
/home/lubuntu/Dokument/GitHub/STM32-Computer/Firmware/STM32-Computer-Firmware/CA7/optee-os-3.19.0-r2/optee-os-stm32mp-3.19.0-stm32mp-r2/lib/libutils/ext/snprintk.c:292
     750:	970c      	str	r7, [sp, #48]	@ 0x30
/home/lubuntu/Dokument/GitHub/STM32-Computer/Firmware/STM32-Computer-Firmware/CA7/optee-os-3.19.0-r2/optee-os-stm32mp-3.19.0-stm32mp-r2/lib/libutils/ext/snprintk.c:288
     752:	4633      	mov	r3, r6
/home/lubuntu/Dokument/GitHub/STM32-Computer/Firmware/STM32-Computer-Firmware/CA7/optee-os-3.19.0-r2/optee-os-stm32mp-3.19.0-stm32mp-r2/lib/libutils/ext/snprintk.c:293
     754:	f04f 3aff 	mov.w	sl, #4294967295	@ 0xffffffff
/home/lubuntu/Dokument/GitHub/STM32-Computer/Firmware/STM32-Computer-Firmware/CA7/optee-os-3.19.0-r2/optee-os-stm32mp-3.19.0-stm32mp-r2/lib/libutils/ext/snprintk.c:290
     758:	463d      	mov	r5, r7
/home/lubuntu/Dokument/GitHub/STM32-Computer/Firmware/STM32-Computer-Firmware/CA7/optee-os-3.19.0-r2/optee-os-stm32mp-3.19.0-stm32mp-r2/lib/libutils/ext/snprintk.c:296
     75a:	f818 2b01 	ldrb.w	r2, [r8], #1
     75e:	920b      	str	r2, [sp, #44]	@ 0x2c
/home/lubuntu/Dokument/GitHub/STM32-Computer/Firmware/STM32-Computer-Firmware/CA7/optee-os-3.19.0-r2/optee-os-stm32mp-3.19.0-stm32mp-r2/lib/libutils/ext/snprintk.c:297
     760:	9a0b      	ldr	r2, [sp, #44]	@ 0x2c
     762:	2a39      	cmp	r2, #57	@ 0x39
     764:	dc71      	bgt.n	84a <kprintf.constprop.0+0x156>
     766:	2a1f      	cmp	r2, #31
     768:	f340 828d 	ble.w	c86 <kprintf.constprop.0+0x592>
     76c:	9a0b      	ldr	r2, [sp, #44]	@ 0x2c
     76e:	3a20      	subs	r2, #32
     770:	2a19      	cmp	r2, #25
     772:	f200 8288 	bhi.w	c86 <kprintf.constprop.0+0x592>
     776:	e8df f012 	tbh	[pc, r2, lsl #1]
     77a:	0071      	.short	0x0071
     77c:	02860286 	.word	0x02860286
     780:	02860075 	.word	0x02860075
     784:	02860286 	.word	0x02860286
     788:	02860286 	.word	0x02860286
     78c:	00780286 	.word	0x00780286
     790:	0286001a 	.word	0x0286001a
     794:	00830080 	.word	0x00830080
     798:	009b0286 	.word	0x009b0286
     79c:	009e009e 	.word	0x009e009e
     7a0:	009e009e 	.word	0x009e009e
     7a4:	009e009e 	.word	0x009e009e
     7a8:	009e009e 	.word	0x009e009e
     7ac:	009e      	.short	0x009e
     7ae:	272b      	movs	r7, #43	@ 0x2b
     7b0:	e7d3      	b.n	75a <kprintf.constprop.0+0x66>
     7b2:	2a36      	cmp	r2, #54	@ 0x36
     7b4:	f200 8267 	bhi.w	c86 <kprintf.constprop.0+0x592>
     7b8:	e8df f012 	tbh	[pc, r2, lsl #1]
     7bc:	026500b1 	.word	0x026500b1
     7c0:	02650265 	.word	0x02650265
     7c4:	02650265 	.word	0x02650265
     7c8:	02650265 	.word	0x02650265
     7cc:	02650265 	.word	0x02650265
     7d0:	013d0265 	.word	0x013d0265
     7d4:	02650265 	.word	0x02650265
     7d8:	02650265 	.word	0x02650265
     7dc:	01d80265 	.word	0x01d80265
     7e0:	02650265 	.word	0x02650265
     7e4:	0265021d 	.word	0x0265021d
     7e8:	02650265 	.word	0x02650265
     7ec:	02650265 	.word	0x02650265
     7f0:	02650265 	.word	0x02650265
     7f4:	02650265 	.word	0x02650265
     7f8:	00a50265 	.word	0x00a50265
     7fc:	026500b3 	.word	0x026500b3
     800:	02650265 	.word	0x02650265
     804:	00b3008d 	.word	0x00b3008d
     808:	02650090 	.word	0x02650090
     80c:	02650093 	.word	0x02650093
     810:	013f0122 	.word	0x013f0122
     814:	0099016e 	.word	0x0099016e
     818:	01ba0265 	.word	0x01ba0265
     81c:	01da009f 	.word	0x01da009f
     820:	02650265 	.word	0x02650265
     824:	02650037 	.word	0x02650037
     828:	00a2      	.short	0x00a2
/home/lubuntu/Dokument/GitHub/STM32-Computer/Firmware/STM32-Computer-Firmware/CA7/optee-os-3.19.0-r2/optee-os-stm32mp-3.19.0-stm32mp-r2/lib/libutils/ext/snprintk.c:480
     82a:	f8df 2594 	ldr.w	r2, [pc, #1428]	@ dc0 <kprintf.constprop.0+0x6cc>
     82e:	447a      	add	r2, pc
/home/lubuntu/Dokument/GitHub/STM32-Computer/Firmware/STM32-Computer-Firmware/CA7/optee-os-3.19.0-r2/optee-os-stm32mp-3.19.0-stm32mp-r2/lib/libutils/ext/snprintk.c:297
     830:	920f      	str	r2, [sp, #60]	@ 0x3c
/home/lubuntu/Dokument/GitHub/STM32-Computer/Firmware/STM32-Computer-Firmware/CA7/optee-os-3.19.0-r2/optee-os-stm32mp-3.19.0-stm32mp-r2/lib/libutils/ext/snprintk.c:481
     832:	f015 0280 	ands.w	r2, r5, #128	@ 0x80
     836:	f000 81e2 	beq.w	bfe <kprintf.constprop.0+0x50a>
     83a:	3307      	adds	r3, #7
     83c:	f023 0307 	bic.w	r3, r3, #7
     840:	461e      	mov	r6, r3
     842:	6859      	ldr	r1, [r3, #4]
     844:	f856 0b08 	ldr.w	r0, [r6], #8
     848:	e1e0      	b.n	c0c <kprintf.constprop.0+0x518>
/home/lubuntu/Dokument/GitHub/STM32-Computer/Firmware/STM32-Computer-Firmware/CA7/optee-os-3.19.0-r2/optee-os-stm32mp-3.19.0-stm32mp-r2/lib/libutils/ext/snprintk.c:297
     84a:	9a0b      	ldr	r2, [sp, #44]	@ 0x2c
     84c:	3a44      	subs	r2, #68	@ 0x44
     84e:	2a36      	cmp	r2, #54	@ 0x36
     850:	d9af      	bls.n	7b2 <kprintf.constprop.0+0xbe>
/home/lubuntu/Dokument/GitHub/STM32-Computer/Firmware/STM32-Computer-Firmware/CA7/optee-os-3.19.0-r2/optee-os-stm32mp-3.19.0-stm32mp-r2/lib/libutils/ext/snprintk.c:551
     852:	9a0b      	ldr	r2, [sp, #44]	@ 0x2c
/home/lubuntu/Dokument/GitHub/STM32-Computer/Firmware/STM32-Computer-Firmware/CA7/optee-os-3.19.0-r2/optee-os-stm32mp-3.19.0-stm32mp-r2/lib/libutils/ext/snprintk.c:554
     854:	461e      	mov	r6, r3
/home/lubuntu/Dokument/GitHub/STM32-Computer/Firmware/STM32-Computer-Firmware/CA7/optee-os-3.19.0-r2/optee-os-stm32mp-3.19.0-stm32mp-r2/lib/libutils/ext/snprintk.c:551
     856:	f88d 2048 	strb.w	r2, [sp, #72]	@ 0x48
/home/lubuntu/Dokument/GitHub/STM32-Computer/Firmware/STM32-Computer-Firmware/CA7/optee-os-3.19.0-r2/optee-os-stm32mp-3.19.0-stm32mp-r2/lib/libutils/ext/snprintk.c:554
     85a:	e059      	b.n	910 <kprintf.constprop.0+0x21c>
/home/lubuntu/Dokument/GitHub/STM32-Computer/Firmware/STM32-Computer-Firmware/CA7/optee-os-3.19.0-r2/optee-os-stm32mp-3.19.0-stm32mp-r2/lib/libutils/ext/snprintk.c:305
     85c:	2f00      	cmp	r7, #0
     85e:	bf08      	it	eq
     860:	2720      	moveq	r7, #32
     862:	e77a      	b.n	75a <kprintf.constprop.0+0x66>
/home/lubuntu/Dokument/GitHub/STM32-Computer/Firmware/STM32-Computer-Firmware/CA7/optee-os-3.19.0-r2/optee-os-stm32mp-3.19.0-stm32mp-r2/lib/libutils/ext/snprintk.c:308
     864:	f045 0501 	orr.w	r5, r5, #1
/home/lubuntu/Dokument/GitHub/STM32-Computer/Firmware/STM32-Computer-Firmware/CA7/optee-os-3.19.0-r2/optee-os-stm32mp-3.19.0-stm32mp-r2/lib/libutils/ext/snprintk.c:309
     868:	e777      	b.n	75a <kprintf.constprop.0+0x66>
/home/lubuntu/Dokument/GitHub/STM32-Computer/Firmware/STM32-Computer-Firmware/CA7/optee-os-3.19.0-r2/optee-os-stm32mp-3.19.0-stm32mp-r2/lib/libutils/ext/snprintk.c:317
     86a:	f853 2b04 	ldr.w	r2, [r3], #4
     86e:	920c      	str	r2, [sp, #48]	@ 0x30
     870:	2a00      	cmp	r2, #0
     872:	f6bf af72 	bge.w	75a <kprintf.constprop.0+0x66>
/home/lubuntu/Dokument/GitHub/STM32-Computer/Firmware/STM32-Computer-Firmware/CA7/optee-os-3.19.0-r2/optee-os-stm32mp-3.19.0-stm32mp-r2/lib/libutils/ext/snprintk.c:319
     876:	4252      	negs	r2, r2
     878:	920c      	str	r2, [sp, #48]	@ 0x30
/home/lubuntu/Dokument/GitHub/STM32-Computer/Firmware/STM32-Computer-Firmware/CA7/optee-os-3.19.0-r2/optee-os-stm32mp-3.19.0-stm32mp-r2/lib/libutils/ext/snprintk.c:322
     87a:	f045 0504 	orr.w	r5, r5, #4
/home/lubuntu/Dokument/GitHub/STM32-Computer/Firmware/STM32-Computer-Firmware/CA7/optee-os-3.19.0-r2/optee-os-stm32mp-3.19.0-stm32mp-r2/lib/libutils/ext/snprintk.c:323
     87e:	e76c      	b.n	75a <kprintf.constprop.0+0x66>
/home/lubuntu/Dokument/GitHub/STM32-Computer/Firmware/STM32-Computer-Firmware/CA7/optee-os-3.19.0-r2/optee-os-stm32mp-3.19.0-stm32mp-r2/lib/libutils/ext/snprintk.c:328
     880:	f818 2b01 	ldrb.w	r2, [r8], #1
     884:	920b      	str	r2, [sp, #44]	@ 0x2c
     886:	2a2a      	cmp	r2, #42	@ 0x2a
     888:	d10e      	bne.n	8a8 <kprintf.constprop.0+0x1b4>
/home/lubuntu/Dokument/GitHub/STM32-Computer/Firmware/STM32-Computer-Firmware/CA7/optee-os-3.19.0-r2/optee-os-stm32mp-3.19.0-stm32mp-r2/lib/libutils/ext/snprintk.c:330
     88a:	f853 2b04 	ldr.w	r2, [r3], #4
     88e:	ea42 7ae2 	orr.w	sl, r2, r2, asr #31
/home/lubuntu/Dokument/GitHub/STM32-Computer/Firmware/STM32-Computer-Firmware/CA7/optee-os-3.19.0-r2/optee-os-stm32mp-3.19.0-stm32mp-r2/lib/libutils/ext/snprintk.c:331
     892:	e762      	b.n	75a <kprintf.constprop.0+0x66>
/home/lubuntu/Dokument/GitHub/STM32-Computer/Firmware/STM32-Computer-Firmware/CA7/optee-os-3.19.0-r2/optee-os-stm32mp-3.19.0-stm32mp-r2/lib/libutils/ext/snprintk.c:335
     894:	fb01 2a0a 	mla	sl, r1, sl, r2
/home/lubuntu/Dokument/GitHub/STM32-Computer/Firmware/STM32-Computer-Firmware/CA7/optee-os-3.19.0-r2/optee-os-stm32mp-3.19.0-stm32mp-r2/lib/libutils/ext/snprintk.c:336
     898:	f818 2b01 	ldrb.w	r2, [r8], #1
     89c:	920b      	str	r2, [sp, #44]	@ 0x2c
/home/lubuntu/Dokument/GitHub/STM32-Computer/Firmware/STM32-Computer-Firmware/CA7/optee-os-3.19.0-r2/optee-os-stm32mp-3.19.0-stm32mp-r2/lib/libutils/ext/snprintk.c:334
     89e:	9a0b      	ldr	r2, [sp, #44]	@ 0x2c
     8a0:	3a30      	subs	r2, #48	@ 0x30
     8a2:	2a09      	cmp	r2, #9
     8a4:	d9f6      	bls.n	894 <kprintf.constprop.0+0x1a0>
     8a6:	e75b      	b.n	760 <kprintf.constprop.0+0x6c>
/home/lubuntu/Dokument/GitHub/STM32-Computer/Firmware/STM32-Computer-Firmware/CA7/optee-os-3.19.0-r2/optee-os-stm32mp-3.19.0-stm32mp-r2/lib/libutils/ext/snprintk.c:333
     8a8:	f04f 0a00 	mov.w	sl, #0
/home/lubuntu/Dokument/GitHub/STM32-Computer/Firmware/STM32-Computer-Firmware/CA7/optee-os-3.19.0-r2/optee-os-stm32mp-3.19.0-stm32mp-r2/lib/libutils/ext/snprintk.c:335
     8ac:	210a      	movs	r1, #10
     8ae:	e7f6      	b.n	89e <kprintf.constprop.0+0x1aa>
/home/lubuntu/Dokument/GitHub/STM32-Computer/Firmware/STM32-Computer-Firmware/CA7/optee-os-3.19.0-r2/optee-os-stm32mp-3.19.0-stm32mp-r2/lib/libutils/ext/snprintk.c:346
     8b0:	f445 6580 	orr.w	r5, r5, #1024	@ 0x400
/home/lubuntu/Dokument/GitHub/STM32-Computer/Firmware/STM32-Computer-Firmware/CA7/optee-os-3.19.0-r2/optee-os-stm32mp-3.19.0-stm32mp-r2/lib/libutils/ext/snprintk.c:347
     8b4:	e751      	b.n	75a <kprintf.constprop.0+0x66>
/home/lubuntu/Dokument/GitHub/STM32-Computer/Firmware/STM32-Computer-Firmware/CA7/optee-os-3.19.0-r2/optee-os-stm32mp-3.19.0-stm32mp-r2/lib/libutils/ext/snprintk.c:352
     8b6:	210a      	movs	r1, #10
/home/lubuntu/Dokument/GitHub/STM32-Computer/Firmware/STM32-Computer-Firmware/CA7/optee-os-3.19.0-r2/optee-os-stm32mp-3.19.0-stm32mp-r2/lib/libutils/ext/snprintk.c:297
     8b8:	2200      	movs	r2, #0
     8ba:	920c      	str	r2, [sp, #48]	@ 0x30
/home/lubuntu/Dokument/GitHub/STM32-Computer/Firmware/STM32-Computer-Firmware/CA7/optee-os-3.19.0-r2/optee-os-stm32mp-3.19.0-stm32mp-r2/lib/libutils/ext/snprintk.c:352
     8bc:	9a0b      	ldr	r2, [sp, #44]	@ 0x2c
     8be:	980c      	ldr	r0, [sp, #48]	@ 0x30
     8c0:	3a30      	subs	r2, #48	@ 0x30
     8c2:	fb01 2200 	mla	r2, r1, r0, r2
     8c6:	920c      	str	r2, [sp, #48]	@ 0x30
/home/lubuntu/Dokument/GitHub/STM32-Computer/Firmware/STM32-Computer-Firmware/CA7/optee-os-3.19.0-r2/optee-os-stm32mp-3.19.0-stm32mp-r2/lib/libutils/ext/snprintk.c:353
     8c8:	f818 2b01 	ldrb.w	r2, [r8], #1
     8cc:	920b      	str	r2, [sp, #44]	@ 0x2c
/home/lubuntu/Dokument/GitHub/STM32-Computer/Firmware/STM32-Computer-Firmware/CA7/optee-os-3.19.0-r2/optee-os-stm32mp-3.19.0-stm32mp-r2/lib/libutils/ext/snprintk.c:354
     8ce:	3a30      	subs	r2, #48	@ 0x30
     8d0:	2a09      	cmp	r2, #9
     8d2:	d9f3      	bls.n	8bc <kprintf.constprop.0+0x1c8>
     8d4:	e744      	b.n	760 <kprintf.constprop.0+0x6c>
/home/lubuntu/Dokument/GitHub/STM32-Computer/Firmware/STM32-Computer-Firmware/CA7/optee-os-3.19.0-r2/optee-os-stm32mp-3.19.0-stm32mp-r2/lib/libutils/ext/snprintk.c:358
     8d6:	f045 0540 	orr.w	r5, r5, #64	@ 0x40
/home/lubuntu/Dokument/GitHub/STM32-Computer/Firmware/STM32-Computer-Firmware/CA7/optee-os-3.19.0-r2/optee-os-stm32mp-3.19.0-stm32mp-r2/lib/libutils/ext/snprintk.c:359
     8da:	e73e      	b.n	75a <kprintf.constprop.0+0x66>
/home/lubuntu/Dokument/GitHub/STM32-Computer/Firmware/STM32-Computer-Firmware/CA7/optee-os-3.19.0-r2/optee-os-stm32mp-3.19.0-stm32mp-r2/lib/libutils/ext/snprintk.c:361
     8dc:	f045 0580 	orr.w	r5, r5, #128	@ 0x80
/home/lubuntu/Dokument/GitHub/STM32-Computer/Firmware/STM32-Computer-Firmware/CA7/optee-os-3.19.0-r2/optee-os-stm32mp-3.19.0-stm32mp-r2/lib/libutils/ext/snprintk.c:362
     8e0:	e73b      	b.n	75a <kprintf.constprop.0+0x66>
/home/lubuntu/Dokument/GitHub/STM32-Computer/Firmware/STM32-Computer-Firmware/CA7/optee-os-3.19.0-r2/optee-os-stm32mp-3.19.0-stm32mp-r2/lib/libutils/ext/snprintk.c:364
     8e2:	f898 2000 	ldrb.w	r2, [r8]
     8e6:	2a6c      	cmp	r2, #108	@ 0x6c
     8e8:	d104      	bne.n	8f4 <kprintf.constprop.0+0x200>
/home/lubuntu/Dokument/GitHub/STM32-Computer/Firmware/STM32-Computer-Firmware/CA7/optee-os-3.19.0-r2/optee-os-stm32mp-3.19.0-stm32mp-r2/lib/libutils/ext/snprintk.c:328
     8ea:	f108 0801 	add.w	r8, r8, #1
/home/lubuntu/Dokument/GitHub/STM32-Computer/Firmware/STM32-Computer-Firmware/CA7/optee-os-3.19.0-r2/optee-os-stm32mp-3.19.0-stm32mp-r2/lib/libutils/ext/snprintk.c:372
     8ee:	f045 0520 	orr.w	r5, r5, #32
/home/lubuntu/Dokument/GitHub/STM32-Computer/Firmware/STM32-Computer-Firmware/CA7/optee-os-3.19.0-r2/optee-os-stm32mp-3.19.0-stm32mp-r2/lib/libutils/ext/snprintk.c:373
     8f2:	e732      	b.n	75a <kprintf.constprop.0+0x66>
/home/lubuntu/Dokument/GitHub/STM32-Computer/Firmware/STM32-Computer-Firmware/CA7/optee-os-3.19.0-r2/optee-os-stm32mp-3.19.0-stm32mp-r2/lib/libutils/ext/snprintk.c:368
     8f4:	f045 0510 	orr.w	r5, r5, #16
     8f8:	e72f      	b.n	75a <kprintf.constprop.0+0x66>
/home/lubuntu/Dokument/GitHub/STM32-Computer/Firmware/STM32-Computer-Firmware/CA7/optee-os-3.19.0-r2/optee-os-stm32mp-3.19.0-stm32mp-r2/lib/libutils/ext/snprintk.c:375
     8fa:	f445 7580 	orr.w	r5, r5, #256	@ 0x100
/home/lubuntu/Dokument/GitHub/STM32-Computer/Firmware/STM32-Computer-Firmware/CA7/optee-os-3.19.0-r2/optee-os-stm32mp-3.19.0-stm32mp-r2/lib/libutils/ext/snprintk.c:376
     8fe:	e72c      	b.n	75a <kprintf.constprop.0+0x66>
/home/lubuntu/Dokument/GitHub/STM32-Computer/Firmware/STM32-Computer-Firmware/CA7/optee-os-3.19.0-r2/optee-os-stm32mp-3.19.0-stm32mp-r2/lib/libutils/ext/snprintk.c:378
     900:	f445 7500 	orr.w	r5, r5, #512	@ 0x200
/home/lubuntu/Dokument/GitHub/STM32-Computer/Firmware/STM32-Computer-Firmware/CA7/optee-os-3.19.0-r2/optee-os-stm32mp-3.19.0-stm32mp-r2/lib/libutils/ext/snprintk.c:379
     904:	e729      	b.n	75a <kprintf.constprop.0+0x66>
/home/lubuntu/Dokument/GitHub/STM32-Computer/Firmware/STM32-Computer-Firmware/CA7/optee-os-3.19.0-r2/optee-os-stm32mp-3.19.0-stm32mp-r2/lib/libutils/ext/snprintk.c:381
     906:	461e      	mov	r6, r3
     908:	f856 3b04 	ldr.w	r3, [r6], #4
     90c:	f88d 3048 	strb.w	r3, [sp, #72]	@ 0x48
/home/lubuntu/Dokument/GitHub/STM32-Computer/Firmware/STM32-Computer-Firmware/CA7/optee-os-3.19.0-r2/optee-os-stm32mp-3.19.0-stm32mp-r2/lib/libutils/ext/snprintk.c:291
     910:	2000      	movs	r0, #0
/home/lubuntu/Dokument/GitHub/STM32-Computer/Firmware/STM32-Computer-Firmware/CA7/optee-os-3.19.0-r2/optee-os-stm32mp-3.19.0-stm32mp-r2/lib/libutils/ext/snprintk.c:552
     912:	f04f 0a01 	mov.w	sl, #1
/home/lubuntu/Dokument/GitHub/STM32-Computer/Firmware/STM32-Computer-Firmware/CA7/optee-os-3.19.0-r2/optee-os-stm32mp-3.19.0-stm32mp-r2/lib/libutils/ext/snprintk.c:553
     916:	4607      	mov	r7, r0
/home/lubuntu/Dokument/GitHub/STM32-Computer/Firmware/STM32-Computer-Firmware/CA7/optee-os-3.19.0-r2/optee-os-stm32mp-3.19.0-stm32mp-r2/lib/libutils/ext/snprintk.c:550
     918:	f10d 0948 	add.w	r9, sp, #72	@ 0x48
/home/lubuntu/Dokument/GitHub/STM32-Computer/Firmware/STM32-Computer-Firmware/CA7/optee-os-3.19.0-r2/optee-os-stm32mp-3.19.0-stm32mp-r2/lib/libutils/ext/snprintk.c:554
     91c:	e03a      	b.n	994 <kprintf.constprop.0+0x2a0>
/home/lubuntu/Dokument/GitHub/STM32-Computer/Firmware/STM32-Computer-Firmware/CA7/optee-os-3.19.0-r2/optee-os-stm32mp-3.19.0-stm32mp-r2/lib/libutils/ext/snprintk.c:386
     91e:	f045 0510 	orr.w	r5, r5, #16
/home/lubuntu/Dokument/GitHub/STM32-Computer/Firmware/STM32-Computer-Firmware/CA7/optee-os-3.19.0-r2/optee-os-stm32mp-3.19.0-stm32mp-r2/lib/libutils/ext/snprintk.c:390
     922:	062a      	lsls	r2, r5, #24
     924:	d554      	bpl.n	9d0 <kprintf.constprop.0+0x2dc>
     926:	3307      	adds	r3, #7
     928:	f023 0307 	bic.w	r3, r3, #7
     92c:	461e      	mov	r6, r3
     92e:	6859      	ldr	r1, [r3, #4]
     930:	f856 0b08 	ldr.w	r0, [r6], #8
/home/lubuntu/Dokument/GitHub/STM32-Computer/Firmware/STM32-Computer-Firmware/CA7/optee-os-3.19.0-r2/optee-os-stm32mp-3.19.0-stm32mp-r2/lib/libutils/ext/snprintk.c:391
     934:	2900      	cmp	r1, #0
     936:	f280 8126 	bge.w	b86 <kprintf.constprop.0+0x492>
/home/lubuntu/Dokument/GitHub/STM32-Computer/Firmware/STM32-Computer-Firmware/CA7/optee-os-3.19.0-r2/optee-os-stm32mp-3.19.0-stm32mp-r2/lib/libutils/ext/snprintk.c:392
     93a:	4240      	negs	r0, r0
/home/lubuntu/Dokument/GitHub/STM32-Computer/Firmware/STM32-Computer-Firmware/CA7/optee-os-3.19.0-r2/optee-os-stm32mp-3.19.0-stm32mp-r2/lib/libutils/ext/snprintk.c:395
     93c:	f04f 0301 	mov.w	r3, #1
/home/lubuntu/Dokument/GitHub/STM32-Computer/Firmware/STM32-Computer-Firmware/CA7/optee-os-3.19.0-r2/optee-os-stm32mp-3.19.0-stm32mp-r2/lib/libutils/ext/snprintk.c:392
     940:	eb61 0141 	sbc.w	r1, r1, r1, lsl #1
/home/lubuntu/Dokument/GitHub/STM32-Computer/Firmware/STM32-Computer-Firmware/CA7/optee-os-3.19.0-r2/optee-os-stm32mp-3.19.0-stm32mp-r2/lib/libutils/ext/snprintk.c:393
     944:	272d      	movs	r7, #45	@ 0x2d
/home/lubuntu/Dokument/GitHub/STM32-Computer/Firmware/STM32-Computer-Firmware/CA7/optee-os-3.19.0-r2/optee-os-stm32mp-3.19.0-stm32mp-r2/lib/libutils/ext/snprintk.c:494
     946:	f1ba 3fff 	cmp.w	sl, #4294967295	@ 0xffffffff
     94a:	f040 8182 	bne.w	c52 <kprintf.constprop.0+0x55e>
/home/lubuntu/Dokument/GitHub/STM32-Computer/Firmware/STM32-Computer-Firmware/CA7/optee-os-3.19.0-r2/optee-os-stm32mp-3.19.0-stm32mp-r2/lib/libutils/ext/snprintk.c:509
     94e:	2b01      	cmp	r3, #1
     950:	f000 811c 	beq.w	b8c <kprintf.constprop.0+0x498>
     954:	2b02      	cmp	r3, #2
     956:	f000 80db 	beq.w	b10 <kprintf.constprop.0+0x41c>
/home/lubuntu/Dokument/GitHub/STM32-Computer/Firmware/STM32-Computer-Firmware/CA7/optee-os-3.19.0-r2/optee-os-stm32mp-3.19.0-stm32mp-r2/lib/libutils/ext/snprintk.c:502
     95a:	f10d 096d 	add.w	r9, sp, #109	@ 0x6d
/home/lubuntu/Dokument/GitHub/STM32-Computer/Firmware/STM32-Computer-Firmware/CA7/optee-os-3.19.0-r2/optee-os-stm32mp-3.19.0-stm32mp-r2/lib/libutils/ext/snprintk.c:512
     95e:	f000 0307 	and.w	r3, r0, #7
     962:	464a      	mov	r2, r9
/home/lubuntu/Dokument/GitHub/STM32-Computer/Firmware/STM32-Computer-Firmware/CA7/optee-os-3.19.0-r2/optee-os-stm32mp-3.19.0-stm32mp-r2/lib/libutils/ext/snprintk.c:513
     964:	08c0      	lsrs	r0, r0, #3
/home/lubuntu/Dokument/GitHub/STM32-Computer/Firmware/STM32-Computer-Firmware/CA7/optee-os-3.19.0-r2/optee-os-stm32mp-3.19.0-stm32mp-r2/lib/libutils/ext/snprintk.c:512
     966:	3330      	adds	r3, #48	@ 0x30
/home/lubuntu/Dokument/GitHub/STM32-Computer/Firmware/STM32-Computer-Firmware/CA7/optee-os-3.19.0-r2/optee-os-stm32mp-3.19.0-stm32mp-r2/lib/libutils/ext/snprintk.c:513
     968:	ea40 7041 	orr.w	r0, r0, r1, lsl #29
     96c:	08c9      	lsrs	r1, r1, #3
/home/lubuntu/Dokument/GitHub/STM32-Computer/Firmware/STM32-Computer-Firmware/CA7/optee-os-3.19.0-r2/optee-os-stm32mp-3.19.0-stm32mp-r2/lib/libutils/ext/snprintk.c:514
     96e:	ea50 0c01 	orrs.w	ip, r0, r1
/home/lubuntu/Dokument/GitHub/STM32-Computer/Firmware/STM32-Computer-Firmware/CA7/optee-os-3.19.0-r2/optee-os-stm32mp-3.19.0-stm32mp-r2/lib/libutils/ext/snprintk.c:512
     972:	f809 3d01 	strb.w	r3, [r9, #-1]!
/home/lubuntu/Dokument/GitHub/STM32-Computer/Firmware/STM32-Computer-Firmware/CA7/optee-os-3.19.0-r2/optee-os-stm32mp-3.19.0-stm32mp-r2/lib/libutils/ext/snprintk.c:514
     976:	d1f2      	bne.n	95e <kprintf.constprop.0+0x26a>
/home/lubuntu/Dokument/GitHub/STM32-Computer/Firmware/STM32-Computer-Firmware/CA7/optee-os-3.19.0-r2/optee-os-stm32mp-3.19.0-stm32mp-r2/lib/libutils/ext/snprintk.c:516
     978:	07e8      	lsls	r0, r5, #31
     97a:	d506      	bpl.n	98a <kprintf.constprop.0+0x296>
     97c:	2b30      	cmp	r3, #48	@ 0x30
     97e:	d004      	beq.n	98a <kprintf.constprop.0+0x296>
/home/lubuntu/Dokument/GitHub/STM32-Computer/Firmware/STM32-Computer-Firmware/CA7/optee-os-3.19.0-r2/optee-os-stm32mp-3.19.0-stm32mp-r2/lib/libutils/ext/snprintk.c:517
     980:	2330      	movs	r3, #48	@ 0x30
     982:	f809 3c01 	strb.w	r3, [r9, #-1]
     986:	f1a2 0902 	sub.w	r9, r2, #2
/home/lubuntu/Dokument/GitHub/STM32-Computer/Firmware/STM32-Computer-Firmware/CA7/optee-os-3.19.0-r2/optee-os-stm32mp-3.19.0-stm32mp-r2/lib/libutils/ext/snprintk.c:543
     98a:	4650      	mov	r0, sl
     98c:	f10d 0a6d 	add.w	sl, sp, #109	@ 0x6d
     990:	ebaa 0a09 	sub.w	sl, sl, r9
/home/lubuntu/Dokument/GitHub/STM32-Computer/Firmware/STM32-Computer-Firmware/CA7/optee-os-3.19.0-r2/optee-os-stm32mp-3.19.0-stm32mp-r2/lib/libutils/ext/snprintk.c:571
     994:	4550      	cmp	r0, sl
/home/lubuntu/Dokument/GitHub/STM32-Computer/Firmware/STM32-Computer-Firmware/CA7/optee-os-3.19.0-r2/optee-os-stm32mp-3.19.0-stm32mp-r2/lib/libutils/ext/snprintk.c:581
     996:	f240 4304 	movw	r3, #1028	@ 0x404
     99a:	ea05 0303 	and.w	r3, r5, r3
/home/lubuntu/Dokument/GitHub/STM32-Computer/Firmware/STM32-Computer-Firmware/CA7/optee-os-3.19.0-r2/optee-os-stm32mp-3.19.0-stm32mp-r2/lib/libutils/ext/snprintk.c:571
     99e:	4602      	mov	r2, r0
     9a0:	bfb8      	it	lt
     9a2:	4652      	movlt	r2, sl
/home/lubuntu/Dokument/GitHub/STM32-Computer/Firmware/STM32-Computer-Firmware/CA7/optee-os-3.19.0-r2/optee-os-stm32mp-3.19.0-stm32mp-r2/lib/libutils/ext/snprintk.c:572
     9a4:	2f00      	cmp	r7, #0
     9a6:	f000 8173 	beq.w	c90 <kprintf.constprop.0+0x59c>
/home/lubuntu/Dokument/GitHub/STM32-Computer/Firmware/STM32-Computer-Firmware/CA7/optee-os-3.19.0-r2/optee-os-stm32mp-3.19.0-stm32mp-r2/lib/libutils/ext/snprintk.c:578
     9aa:	990c      	ldr	r1, [sp, #48]	@ 0x30
/home/lubuntu/Dokument/GitHub/STM32-Computer/Firmware/STM32-Computer-Firmware/CA7/optee-os-3.19.0-r2/optee-os-stm32mp-3.19.0-stm32mp-r2/lib/libutils/ext/snprintk.c:573
     9ac:	3201      	adds	r2, #1
/home/lubuntu/Dokument/GitHub/STM32-Computer/Firmware/STM32-Computer-Firmware/CA7/optee-os-3.19.0-r2/optee-os-stm32mp-3.19.0-stm32mp-r2/lib/libutils/ext/snprintk.c:578
     9ae:	428a      	cmp	r2, r1
     9b0:	bfac      	ite	ge
     9b2:	4493      	addge	fp, r2
     9b4:	448b      	addlt	fp, r1
/home/lubuntu/Dokument/GitHub/STM32-Computer/Firmware/STM32-Computer-Firmware/CA7/optee-os-3.19.0-r2/optee-os-stm32mp-3.19.0-stm32mp-r2/lib/libutils/ext/snprintk.c:581
     9b6:	2b00      	cmp	r3, #0
     9b8:	f040 81d3 	bne.w	d62 <kprintf.constprop.0+0x66e>
/home/lubuntu/Dokument/GitHub/STM32-Computer/Firmware/STM32-Computer-Firmware/CA7/optee-os-3.19.0-r2/optee-os-stm32mp-3.19.0-stm32mp-r2/lib/libutils/ext/snprintk.c:582
     9bc:	9b0c      	ldr	r3, [sp, #48]	@ 0x30
     9be:	1a9b      	subs	r3, r3, r2
/home/lubuntu/Dokument/GitHub/STM32-Computer/Firmware/STM32-Computer-Firmware/CA7/optee-os-3.19.0-r2/optee-os-stm32mp-3.19.0-stm32mp-r2/lib/libutils/ext/snprintk.c:583
     9c0:	2b00      	cmp	r3, #0
     9c2:	f300 8184 	bgt.w	cce <kprintf.constprop.0+0x5da>
/home/lubuntu/Dokument/GitHub/STM32-Computer/Firmware/STM32-Computer-Firmware/CA7/optee-os-3.19.0-r2/optee-os-stm32mp-3.19.0-stm32mp-r2/lib/libutils/ext/snprintk.c:588
     9c6:	2f00      	cmp	r7, #0
     9c8:	f040 81ee 	bne.w	da8 <kprintf.constprop.0+0x6b4>
     9cc:	463b      	mov	r3, r7
     9ce:	e16a      	b.n	ca6 <kprintf.constprop.0+0x5b2>
/home/lubuntu/Dokument/GitHub/STM32-Computer/Firmware/STM32-Computer-Firmware/CA7/optee-os-3.19.0-r2/optee-os-stm32mp-3.19.0-stm32mp-r2/lib/libutils/ext/snprintk.c:390
     9d0:	05ee      	lsls	r6, r5, #23
     9d2:	d504      	bpl.n	9de <kprintf.constprop.0+0x2ea>
     9d4:	461e      	mov	r6, r3
     9d6:	f856 0b04 	ldr.w	r0, [r6], #4
     9da:	17c1      	asrs	r1, r0, #31
     9dc:	e7aa      	b.n	934 <kprintf.constprop.0+0x240>
     9de:	05a8      	lsls	r0, r5, #22
     9e0:	d4f8      	bmi.n	9d4 <kprintf.constprop.0+0x2e0>
     9e2:	06a9      	lsls	r1, r5, #26
     9e4:	d49f      	bmi.n	926 <kprintf.constprop.0+0x232>
     9e6:	06ea      	lsls	r2, r5, #27
/home/lubuntu/Dokument/GitHub/STM32-Computer/Firmware/STM32-Computer-Firmware/CA7/optee-os-3.19.0-r2/optee-os-stm32mp-3.19.0-stm32mp-r2/lib/libutils/ext/snprintk.c:317
     9e8:	461e      	mov	r6, r3
     9ea:	f856 1b04 	ldr.w	r1, [r6], #4
/home/lubuntu/Dokument/GitHub/STM32-Computer/Firmware/STM32-Computer-Firmware/CA7/optee-os-3.19.0-r2/optee-os-stm32mp-3.19.0-stm32mp-r2/lib/libutils/ext/snprintk.c:390
     9ee:	d501      	bpl.n	9f4 <kprintf.constprop.0+0x300>
     9f0:	4608      	mov	r0, r1
     9f2:	e7f2      	b.n	9da <kprintf.constprop.0+0x2e6>
     9f4:	066b      	lsls	r3, r5, #25
     9f6:	d5fb      	bpl.n	9f0 <kprintf.constprop.0+0x2fc>
     9f8:	b208      	sxth	r0, r1
     9fa:	f341 31c0 	sbfx	r1, r1, #15, #1
     9fe:	e799      	b.n	934 <kprintf.constprop.0+0x240>
/home/lubuntu/Dokument/GitHub/STM32-Computer/Firmware/STM32-Computer-Firmware/CA7/optee-os-3.19.0-r2/optee-os-stm32mp-3.19.0-stm32mp-r2/lib/libutils/ext/snprintk.c:398
     a00:	0628      	lsls	r0, r5, #24
     a02:	d505      	bpl.n	a10 <kprintf.constprop.0+0x31c>
/home/lubuntu/Dokument/GitHub/STM32-Computer/Firmware/STM32-Computer-Firmware/CA7/optee-os-3.19.0-r2/optee-os-stm32mp-3.19.0-stm32mp-r2/lib/libutils/ext/snprintk.c:405
     a04:	681a      	ldr	r2, [r3, #0]
     a06:	ea4f 71eb 	mov.w	r1, fp, asr #31
     a0a:	e9c2 b100 	strd	fp, r1, [r2]
     a0e:	e004      	b.n	a1a <kprintf.constprop.0+0x326>
/home/lubuntu/Dokument/GitHub/STM32-Computer/Firmware/STM32-Computer-Firmware/CA7/optee-os-3.19.0-r2/optee-os-stm32mp-3.19.0-stm32mp-r2/lib/libutils/ext/snprintk.c:400
     a10:	05e9      	lsls	r1, r5, #23
     a12:	d504      	bpl.n	a1e <kprintf.constprop.0+0x32a>
/home/lubuntu/Dokument/GitHub/STM32-Computer/Firmware/STM32-Computer-Firmware/CA7/optee-os-3.19.0-r2/optee-os-stm32mp-3.19.0-stm32mp-r2/lib/libutils/ext/snprintk.c:401
     a14:	681a      	ldr	r2, [r3, #0]
     a16:	f8c2 b000 	str.w	fp, [r2]
/home/lubuntu/Dokument/GitHub/STM32-Computer/Firmware/STM32-Computer-Firmware/CA7/optee-os-3.19.0-r2/optee-os-stm32mp-3.19.0-stm32mp-r2/lib/libutils/ext/snprintk.c:317
     a1a:	1d1e      	adds	r6, r3, #4
     a1c:	e67a      	b.n	714 <kprintf.constprop.0+0x20>
/home/lubuntu/Dokument/GitHub/STM32-Computer/Firmware/STM32-Computer-Firmware/CA7/optee-os-3.19.0-r2/optee-os-stm32mp-3.19.0-stm32mp-r2/lib/libutils/ext/snprintk.c:402
     a1e:	05aa      	lsls	r2, r5, #22
     a20:	d4f8      	bmi.n	a14 <kprintf.constprop.0+0x320>
/home/lubuntu/Dokument/GitHub/STM32-Computer/Firmware/STM32-Computer-Firmware/CA7/optee-os-3.19.0-r2/optee-os-stm32mp-3.19.0-stm32mp-r2/lib/libutils/ext/snprintk.c:404
     a22:	06af      	lsls	r7, r5, #26
     a24:	d4ee      	bmi.n	a04 <kprintf.constprop.0+0x310>
/home/lubuntu/Dokument/GitHub/STM32-Computer/Firmware/STM32-Computer-Firmware/CA7/optee-os-3.19.0-r2/optee-os-stm32mp-3.19.0-stm32mp-r2/lib/libutils/ext/snprintk.c:406
     a26:	06ee      	lsls	r6, r5, #27
     a28:	d4f4      	bmi.n	a14 <kprintf.constprop.0+0x320>
/home/lubuntu/Dokument/GitHub/STM32-Computer/Firmware/STM32-Computer-Firmware/CA7/optee-os-3.19.0-r2/optee-os-stm32mp-3.19.0-stm32mp-r2/lib/libutils/ext/snprintk.c:408
     a2a:	066d      	lsls	r5, r5, #25
     a2c:	d5f2      	bpl.n	a14 <kprintf.constprop.0+0x320>
/home/lubuntu/Dokument/GitHub/STM32-Computer/Firmware/STM32-Computer-Firmware/CA7/optee-os-3.19.0-r2/optee-os-stm32mp-3.19.0-stm32mp-r2/lib/libutils/ext/snprintk.c:409
     a2e:	681a      	ldr	r2, [r3, #0]
     a30:	f8a2 b000 	strh.w	fp, [r2]
     a34:	e7f1      	b.n	a1a <kprintf.constprop.0+0x326>
/home/lubuntu/Dokument/GitHub/STM32-Computer/Firmware/STM32-Computer-Firmware/CA7/optee-os-3.19.0-r2/optee-os-stm32mp-3.19.0-stm32mp-r2/lib/libutils/ext/snprintk.c:414
     a36:	f045 0510 	orr.w	r5, r5, #16
/home/lubuntu/Dokument/GitHub/STM32-Computer/Firmware/STM32-Computer-Firmware/CA7/optee-os-3.19.0-r2/optee-os-stm32mp-3.19.0-stm32mp-r2/lib/libutils/ext/snprintk.c:417
     a3a:	f015 0280 	ands.w	r2, r5, #128	@ 0x80
     a3e:	d007      	beq.n	a50 <kprintf.constprop.0+0x35c>
     a40:	3307      	adds	r3, #7
     a42:	f023 0307 	bic.w	r3, r3, #7
     a46:	461e      	mov	r6, r3
     a48:	6859      	ldr	r1, [r3, #4]
     a4a:	f856 0b08 	ldr.w	r0, [r6], #8
     a4e:	e006      	b.n	a5e <kprintf.constprop.0+0x36a>
     a50:	f415 7180 	ands.w	r1, r5, #256	@ 0x100
     a54:	d00b      	beq.n	a6e <kprintf.constprop.0+0x37a>
     a56:	461e      	mov	r6, r3
     a58:	4611      	mov	r1, r2
     a5a:	f856 0b04 	ldr.w	r0, [r6], #4
/home/lubuntu/Dokument/GitHub/STM32-Computer/Firmware/STM32-Computer-Firmware/CA7/optee-os-3.19.0-r2/optee-os-stm32mp-3.19.0-stm32mp-r2/lib/libutils/ext/snprintk.c:494
     a5e:	f1ba 3fff 	cmp.w	sl, #4294967295	@ 0xffffffff
     a62:	f04f 0700 	mov.w	r7, #0
     a66:	f43f af78 	beq.w	95a <kprintf.constprop.0+0x266>
     a6a:	463b      	mov	r3, r7
     a6c:	e0f1      	b.n	c52 <kprintf.constprop.0+0x55e>
/home/lubuntu/Dokument/GitHub/STM32-Computer/Firmware/STM32-Computer-Firmware/CA7/optee-os-3.19.0-r2/optee-os-stm32mp-3.19.0-stm32mp-r2/lib/libutils/ext/snprintk.c:417
     a6e:	05a8      	lsls	r0, r5, #22
     a70:	d503      	bpl.n	a7a <kprintf.constprop.0+0x386>
     a72:	461e      	mov	r6, r3
     a74:	f856 0b04 	ldr.w	r0, [r6], #4
     a78:	e7f1      	b.n	a5e <kprintf.constprop.0+0x36a>
     a7a:	f015 0120 	ands.w	r1, r5, #32
     a7e:	d1df      	bne.n	a40 <kprintf.constprop.0+0x34c>
/home/lubuntu/Dokument/GitHub/STM32-Computer/Firmware/STM32-Computer-Firmware/CA7/optee-os-3.19.0-r2/optee-os-stm32mp-3.19.0-stm32mp-r2/lib/libutils/ext/snprintk.c:317
     a80:	461e      	mov	r6, r3
/home/lubuntu/Dokument/GitHub/STM32-Computer/Firmware/STM32-Computer-Firmware/CA7/optee-os-3.19.0-r2/optee-os-stm32mp-3.19.0-stm32mp-r2/lib/libutils/ext/snprintk.c:417
     a82:	f015 0310 	ands.w	r3, r5, #16
/home/lubuntu/Dokument/GitHub/STM32-Computer/Firmware/STM32-Computer-Firmware/CA7/optee-os-3.19.0-r2/optee-os-stm32mp-3.19.0-stm32mp-r2/lib/libutils/ext/snprintk.c:317
     a86:	f856 0b04 	ldr.w	r0, [r6], #4
/home/lubuntu/Dokument/GitHub/STM32-Computer/Firmware/STM32-Computer-Firmware/CA7/optee-os-3.19.0-r2/optee-os-stm32mp-3.19.0-stm32mp-r2/lib/libutils/ext/snprintk.c:417
     a8a:	d1e8      	bne.n	a5e <kprintf.constprop.0+0x36a>
     a8c:	f015 0140 	ands.w	r1, r5, #64	@ 0x40
     a90:	d0e5      	beq.n	a5e <kprintf.constprop.0+0x36a>
     a92:	b280      	uxth	r0, r0
     a94:	4619      	mov	r1, r3
     a96:	e7e2      	b.n	a5e <kprintf.constprop.0+0x36a>
/home/lubuntu/Dokument/GitHub/STM32-Computer/Firmware/STM32-Computer-Firmware/CA7/optee-os-3.19.0-r2/optee-os-stm32mp-3.19.0-stm32mp-r2/lib/libutils/ext/snprintk.c:317
     a98:	461e      	mov	r6, r3
/home/lubuntu/Dokument/GitHub/STM32-Computer/Firmware/STM32-Computer-Firmware/CA7/optee-os-3.19.0-r2/optee-os-stm32mp-3.19.0-stm32mp-r2/lib/libutils/ext/snprintk.c:421
     a9a:	9b11      	ldr	r3, [sp, #68]	@ 0x44
     a9c:	f856 0b04 	ldr.w	r0, [r6], #4
     aa0:	b343      	cbz	r3, af4 <kprintf.constprop.0+0x400>
     aa2:	f898 3000 	ldrb.w	r3, [r8]
     aa6:	2b55      	cmp	r3, #85	@ 0x55
     aa8:	d124      	bne.n	af4 <kprintf.constprop.0+0x400>
     aaa:	f898 3001 	ldrb.w	r3, [r8, #1]
     aae:	2b6c      	cmp	r3, #108	@ 0x6c
     ab0:	d120      	bne.n	af4 <kprintf.constprop.0+0x400>
uuid2str():
/home/lubuntu/Dokument/GitHub/STM32-Computer/Firmware/STM32-Computer-Firmware/CA7/optee-os-3.19.0-r2/optee-os-stm32mp-3.19.0-stm32mp-r2/lib/libutils/ext/snprintk.c:229
     ab2:	7bc3      	ldrb	r3, [r0, #15]
     ab4:	f10d 0948 	add.w	r9, sp, #72	@ 0x48
     ab8:	4ac2      	ldr	r2, [pc, #776]	@ (dc4 <kprintf.constprop.0+0x6d0>)
     aba:	2125      	movs	r1, #37	@ 0x25
     abc:	9309      	str	r3, [sp, #36]	@ 0x24
kprintf():
/home/lubuntu/Dokument/GitHub/STM32-Computer/Firmware/STM32-Computer-Firmware/CA7/optee-os-3.19.0-r2/optee-os-stm32mp-3.19.0-stm32mp-r2/lib/libutils/ext/snprintk.c:426
     abe:	f108 0802 	add.w	r8, r8, #2
uuid2str():
/home/lubuntu/Dokument/GitHub/STM32-Computer/Firmware/STM32-Computer-Firmware/CA7/optee-os-3.19.0-r2/optee-os-stm32mp-3.19.0-stm32mp-r2/lib/libutils/ext/snprintk.c:229
     ac2:	7b83      	ldrb	r3, [r0, #14]
     ac4:	447a      	add	r2, pc
     ac6:	9308      	str	r3, [sp, #32]
     ac8:	7b43      	ldrb	r3, [r0, #13]
     aca:	9307      	str	r3, [sp, #28]
     acc:	7b03      	ldrb	r3, [r0, #12]
     ace:	9306      	str	r3, [sp, #24]
     ad0:	7ac3      	ldrb	r3, [r0, #11]
     ad2:	9305      	str	r3, [sp, #20]
     ad4:	7a83      	ldrb	r3, [r0, #10]
     ad6:	9304      	str	r3, [sp, #16]
     ad8:	7a43      	ldrb	r3, [r0, #9]
     ada:	9303      	str	r3, [sp, #12]
     adc:	7a03      	ldrb	r3, [r0, #8]
     ade:	9302      	str	r3, [sp, #8]
     ae0:	88c3      	ldrh	r3, [r0, #6]
     ae2:	9301      	str	r3, [sp, #4]
     ae4:	8883      	ldrh	r3, [r0, #4]
     ae6:	9300      	str	r3, [sp, #0]
     ae8:	6803      	ldr	r3, [r0, #0]
     aea:	4648      	mov	r0, r9
     aec:	f7ff fdf5 	bl	6da <snprintk>
kprintf():
/home/lubuntu/Dokument/GitHub/STM32-Computer/Firmware/STM32-Computer-Firmware/CA7/optee-os-3.19.0-r2/optee-os-stm32mp-3.19.0-stm32mp-r2/lib/libutils/ext/snprintk.c:466
     af0:	4682      	mov	sl, r0
     af2:	e034      	b.n	b5e <kprintf.constprop.0+0x46a>
/home/lubuntu/Dokument/GitHub/STM32-Computer/Firmware/STM32-Computer-Firmware/CA7/optee-os-3.19.0-r2/optee-os-stm32mp-3.19.0-stm32mp-r2/lib/libutils/ext/snprintk.c:443
     af4:	4bb4      	ldr	r3, [pc, #720]	@ (dc8 <kprintf.constprop.0+0x6d4>)
/home/lubuntu/Dokument/GitHub/STM32-Computer/Firmware/STM32-Computer-Firmware/CA7/optee-os-3.19.0-r2/optee-os-stm32mp-3.19.0-stm32mp-r2/lib/libutils/ext/snprintk.c:441
     af6:	2100      	movs	r1, #0
/home/lubuntu/Dokument/GitHub/STM32-Computer/Firmware/STM32-Computer-Firmware/CA7/optee-os-3.19.0-r2/optee-os-stm32mp-3.19.0-stm32mp-r2/lib/libutils/ext/snprintk.c:444
     af8:	f045 0502 	orr.w	r5, r5, #2
/home/lubuntu/Dokument/GitHub/STM32-Computer/Firmware/STM32-Computer-Firmware/CA7/optee-os-3.19.0-r2/optee-os-stm32mp-3.19.0-stm32mp-r2/lib/libutils/ext/snprintk.c:443
     afc:	447b      	add	r3, pc
     afe:	930f      	str	r3, [sp, #60]	@ 0x3c
/home/lubuntu/Dokument/GitHub/STM32-Computer/Firmware/STM32-Computer-Firmware/CA7/optee-os-3.19.0-r2/optee-os-stm32mp-3.19.0-stm32mp-r2/lib/libutils/ext/snprintk.c:445
     b00:	2378      	movs	r3, #120	@ 0x78
     b02:	930b      	str	r3, [sp, #44]	@ 0x2c
/home/lubuntu/Dokument/GitHub/STM32-Computer/Firmware/STM32-Computer-Firmware/CA7/optee-os-3.19.0-r2/optee-os-stm32mp-3.19.0-stm32mp-r2/lib/libutils/ext/snprintk.c:494
     b04:	f1ba 3fff 	cmp.w	sl, #4294967295	@ 0xffffffff
     b08:	f04f 0700 	mov.w	r7, #0
     b0c:	f040 80a0 	bne.w	c50 <kprintf.constprop.0+0x55c>
/home/lubuntu/Dokument/GitHub/STM32-Computer/Firmware/STM32-Computer-Firmware/CA7/optee-os-3.19.0-r2/optee-os-stm32mp-3.19.0-stm32mp-r2/lib/libutils/ext/snprintk.c:502
     b10:	f10d 096d 	add.w	r9, sp, #109	@ 0x6d
/home/lubuntu/Dokument/GitHub/STM32-Computer/Firmware/STM32-Computer-Firmware/CA7/optee-os-3.19.0-r2/optee-os-stm32mp-3.19.0-stm32mp-r2/lib/libutils/ext/snprintk.c:531
     b14:	9a0f      	ldr	r2, [sp, #60]	@ 0x3c
     b16:	f000 030f 	and.w	r3, r0, #15
/home/lubuntu/Dokument/GitHub/STM32-Computer/Firmware/STM32-Computer-Firmware/CA7/optee-os-3.19.0-r2/optee-os-stm32mp-3.19.0-stm32mp-r2/lib/libutils/ext/snprintk.c:532
     b1a:	0900      	lsrs	r0, r0, #4
/home/lubuntu/Dokument/GitHub/STM32-Computer/Firmware/STM32-Computer-Firmware/CA7/optee-os-3.19.0-r2/optee-os-stm32mp-3.19.0-stm32mp-r2/lib/libutils/ext/snprintk.c:531
     b1c:	5cd3      	ldrb	r3, [r2, r3]
/home/lubuntu/Dokument/GitHub/STM32-Computer/Firmware/STM32-Computer-Firmware/CA7/optee-os-3.19.0-r2/optee-os-stm32mp-3.19.0-stm32mp-r2/lib/libutils/ext/snprintk.c:532
     b1e:	ea40 7001 	orr.w	r0, r0, r1, lsl #28
     b22:	0909      	lsrs	r1, r1, #4
/home/lubuntu/Dokument/GitHub/STM32-Computer/Firmware/STM32-Computer-Firmware/CA7/optee-os-3.19.0-r2/optee-os-stm32mp-3.19.0-stm32mp-r2/lib/libutils/ext/snprintk.c:531
     b24:	f809 3d01 	strb.w	r3, [r9, #-1]!
/home/lubuntu/Dokument/GitHub/STM32-Computer/Firmware/STM32-Computer-Firmware/CA7/optee-os-3.19.0-r2/optee-os-stm32mp-3.19.0-stm32mp-r2/lib/libutils/ext/snprintk.c:533
     b28:	ea50 0301 	orrs.w	r3, r0, r1
     b2c:	d1f2      	bne.n	b14 <kprintf.constprop.0+0x420>
     b2e:	e72c      	b.n	98a <kprintf.constprop.0+0x296>
/home/lubuntu/Dokument/GitHub/STM32-Computer/Firmware/STM32-Computer-Firmware/CA7/optee-os-3.19.0-r2/optee-os-stm32mp-3.19.0-stm32mp-r2/lib/libutils/ext/snprintk.c:448
     b30:	461e      	mov	r6, r3
     b32:	f856 9b04 	ldr.w	r9, [r6], #4
     b36:	f1b9 0f00 	cmp.w	r9, #0
     b3a:	d102      	bne.n	b42 <kprintf.constprop.0+0x44e>
/home/lubuntu/Dokument/GitHub/STM32-Computer/Firmware/STM32-Computer-Firmware/CA7/optee-os-3.19.0-r2/optee-os-stm32mp-3.19.0-stm32mp-r2/lib/libutils/ext/snprintk.c:450
     b3c:	f8df 928c 	ldr.w	r9, [pc, #652]	@ dcc <kprintf.constprop.0+0x6d8>
     b40:	44f9      	add	r9, pc
/home/lubuntu/Dokument/GitHub/STM32-Computer/Firmware/STM32-Computer-Firmware/CA7/optee-os-3.19.0-r2/optee-os-stm32mp-3.19.0-stm32mp-r2/lib/libutils/ext/snprintk.c:451
     b42:	f1ba 3fff 	cmp.w	sl, #4294967295	@ 0xffffffff
     b46:	d00d      	beq.n	b64 <kprintf.constprop.0+0x470>
/home/lubuntu/Dokument/GitHub/STM32-Computer/Firmware/STM32-Computer-Firmware/CA7/optee-os-3.19.0-r2/optee-os-stm32mp-3.19.0-stm32mp-r2/lib/libutils/ext/snprintk.c:457
     b48:	4652      	mov	r2, sl
     b4a:	2100      	movs	r1, #0
     b4c:	4648      	mov	r0, r9
     b4e:	f008 fda5 	bl	969c <memchr>
/home/lubuntu/Dokument/GitHub/STM32-Computer/Firmware/STM32-Computer-Firmware/CA7/optee-os-3.19.0-r2/optee-os-stm32mp-3.19.0-stm32mp-r2/lib/libutils/ext/snprintk.c:459
     b52:	b128      	cbz	r0, b60 <kprintf.constprop.0+0x46c>
/home/lubuntu/Dokument/GitHub/STM32-Computer/Firmware/STM32-Computer-Firmware/CA7/optee-os-3.19.0-r2/optee-os-stm32mp-3.19.0-stm32mp-r2/lib/libutils/ext/snprintk.c:460
     b54:	eba0 0009 	sub.w	r0, r0, r9
     b58:	4582      	cmp	sl, r0
     b5a:	bfa8      	it	ge
     b5c:	4682      	movge	sl, r0
/home/lubuntu/Dokument/GitHub/STM32-Computer/Firmware/STM32-Computer-Firmware/CA7/optee-os-3.19.0-r2/optee-os-stm32mp-3.19.0-stm32mp-r2/lib/libutils/ext/snprintk.c:291
     b5e:	2000      	movs	r0, #0
/home/lubuntu/Dokument/GitHub/STM32-Computer/Firmware/STM32-Computer-Firmware/CA7/optee-os-3.19.0-r2/optee-os-stm32mp-3.19.0-stm32mp-r2/lib/libutils/ext/snprintk.c:467
     b60:	4607      	mov	r7, r0
     b62:	e717      	b.n	994 <kprintf.constprop.0+0x2a0>
/home/lubuntu/Dokument/GitHub/STM32-Computer/Firmware/STM32-Computer-Firmware/CA7/optee-os-3.19.0-r2/optee-os-stm32mp-3.19.0-stm32mp-r2/lib/libutils/ext/snprintk.c:466
     b64:	4648      	mov	r0, r9
     b66:	f008 fda7 	bl	96b8 <strlen>
     b6a:	e7c1      	b.n	af0 <kprintf.constprop.0+0x3fc>
/home/lubuntu/Dokument/GitHub/STM32-Computer/Firmware/STM32-Computer-Firmware/CA7/optee-os-3.19.0-r2/optee-os-stm32mp-3.19.0-stm32mp-r2/lib/libutils/ext/snprintk.c:470
     b6c:	f045 0510 	orr.w	r5, r5, #16
/home/lubuntu/Dokument/GitHub/STM32-Computer/Firmware/STM32-Computer-Firmware/CA7/optee-os-3.19.0-r2/optee-os-stm32mp-3.19.0-stm32mp-r2/lib/libutils/ext/snprintk.c:473
     b70:	f015 0280 	ands.w	r2, r5, #128	@ 0x80
     b74:	d019      	beq.n	baa <kprintf.constprop.0+0x4b6>
     b76:	3307      	adds	r3, #7
     b78:	f023 0307 	bic.w	r3, r3, #7
     b7c:	461e      	mov	r6, r3
     b7e:	6859      	ldr	r1, [r3, #4]
     b80:	f856 0b08 	ldr.w	r0, [r6], #8
/home/lubuntu/Dokument/GitHub/STM32-Computer/Firmware/STM32-Computer-Firmware/CA7/optee-os-3.19.0-r2/optee-os-stm32mp-3.19.0-stm32mp-r2/lib/libutils/ext/snprintk.c:488
     b84:	2700      	movs	r7, #0
/home/lubuntu/Dokument/GitHub/STM32-Computer/Firmware/STM32-Computer-Firmware/CA7/optee-os-3.19.0-r2/optee-os-stm32mp-3.19.0-stm32mp-r2/lib/libutils/ext/snprintk.c:494
     b86:	f1ba 3fff 	cmp.w	sl, #4294967295	@ 0xffffffff
     b8a:	d16f      	bne.n	c6c <kprintf.constprop.0+0x578>
/home/lubuntu/Dokument/GitHub/STM32-Computer/Firmware/STM32-Computer-Firmware/CA7/optee-os-3.19.0-r2/optee-os-stm32mp-3.19.0-stm32mp-r2/lib/libutils/ext/snprintk.c:502
     b8c:	f10d 036d 	add.w	r3, sp, #109	@ 0x6d
     b90:	9310      	str	r3, [sp, #64]	@ 0x40
/home/lubuntu/Dokument/GitHub/STM32-Computer/Firmware/STM32-Computer-Firmware/CA7/optee-os-3.19.0-r2/optee-os-stm32mp-3.19.0-stm32mp-r2/lib/libutils/ext/snprintk.c:523
     b92:	9b10      	ldr	r3, [sp, #64]	@ 0x40
/home/lubuntu/Dokument/GitHub/STM32-Computer/Firmware/STM32-Computer-Firmware/CA7/optee-os-3.19.0-r2/optee-os-stm32mp-3.19.0-stm32mp-r2/lib/libutils/ext/snprintk.c:522
     b94:	280a      	cmp	r0, #10
/home/lubuntu/Dokument/GitHub/STM32-Computer/Firmware/STM32-Computer-Firmware/CA7/optee-os-3.19.0-r2/optee-os-stm32mp-3.19.0-stm32mp-r2/lib/libutils/ext/snprintk.c:523
     b96:	f103 39ff 	add.w	r9, r3, #4294967295	@ 0xffffffff
/home/lubuntu/Dokument/GitHub/STM32-Computer/Firmware/STM32-Computer-Firmware/CA7/optee-os-3.19.0-r2/optee-os-stm32mp-3.19.0-stm32mp-r2/lib/libutils/ext/snprintk.c:522
     b9a:	f171 0300 	sbcs.w	r3, r1, #0
     b9e:	d267      	bcs.n	c70 <kprintf.constprop.0+0x57c>
/home/lubuntu/Dokument/GitHub/STM32-Computer/Firmware/STM32-Computer-Firmware/CA7/optee-os-3.19.0-r2/optee-os-stm32mp-3.19.0-stm32mp-r2/lib/libutils/ext/snprintk.c:526
     ba0:	9b10      	ldr	r3, [sp, #64]	@ 0x40
     ba2:	3030      	adds	r0, #48	@ 0x30
     ba4:	f803 0c01 	strb.w	r0, [r3, #-1]
/home/lubuntu/Dokument/GitHub/STM32-Computer/Firmware/STM32-Computer-Firmware/CA7/optee-os-3.19.0-r2/optee-os-stm32mp-3.19.0-stm32mp-r2/lib/libutils/ext/snprintk.c:527
     ba8:	e6ef      	b.n	98a <kprintf.constprop.0+0x296>
/home/lubuntu/Dokument/GitHub/STM32-Computer/Firmware/STM32-Computer-Firmware/CA7/optee-os-3.19.0-r2/optee-os-stm32mp-3.19.0-stm32mp-r2/lib/libutils/ext/snprintk.c:473
     baa:	f415 7180 	ands.w	r1, r5, #256	@ 0x100
     bae:	d004      	beq.n	bba <kprintf.constprop.0+0x4c6>
     bb0:	461e      	mov	r6, r3
     bb2:	4611      	mov	r1, r2
     bb4:	f856 0b04 	ldr.w	r0, [r6], #4
     bb8:	e7e4      	b.n	b84 <kprintf.constprop.0+0x490>
     bba:	f415 7700 	ands.w	r7, r5, #512	@ 0x200
     bbe:	d003      	beq.n	bc8 <kprintf.constprop.0+0x4d4>
     bc0:	461e      	mov	r6, r3
     bc2:	f856 0b04 	ldr.w	r0, [r6], #4
     bc6:	e7dd      	b.n	b84 <kprintf.constprop.0+0x490>
     bc8:	f015 0120 	ands.w	r1, r5, #32
     bcc:	d007      	beq.n	bde <kprintf.constprop.0+0x4ea>
     bce:	3307      	adds	r3, #7
     bd0:	f023 0307 	bic.w	r3, r3, #7
     bd4:	461e      	mov	r6, r3
     bd6:	6859      	ldr	r1, [r3, #4]
     bd8:	f856 0b08 	ldr.w	r0, [r6], #8
     bdc:	e7d3      	b.n	b86 <kprintf.constprop.0+0x492>
/home/lubuntu/Dokument/GitHub/STM32-Computer/Firmware/STM32-Computer-Firmware/CA7/optee-os-3.19.0-r2/optee-os-stm32mp-3.19.0-stm32mp-r2/lib/libutils/ext/snprintk.c:317
     bde:	461e      	mov	r6, r3
/home/lubuntu/Dokument/GitHub/STM32-Computer/Firmware/STM32-Computer-Firmware/CA7/optee-os-3.19.0-r2/optee-os-stm32mp-3.19.0-stm32mp-r2/lib/libutils/ext/snprintk.c:473
     be0:	f015 0310 	ands.w	r3, r5, #16
/home/lubuntu/Dokument/GitHub/STM32-Computer/Firmware/STM32-Computer-Firmware/CA7/optee-os-3.19.0-r2/optee-os-stm32mp-3.19.0-stm32mp-r2/lib/libutils/ext/snprintk.c:317
     be4:	f856 0b04 	ldr.w	r0, [r6], #4
/home/lubuntu/Dokument/GitHub/STM32-Computer/Firmware/STM32-Computer-Firmware/CA7/optee-os-3.19.0-r2/optee-os-stm32mp-3.19.0-stm32mp-r2/lib/libutils/ext/snprintk.c:473
     be8:	d1cc      	bne.n	b84 <kprintf.constprop.0+0x490>
     bea:	f015 0140 	ands.w	r1, r5, #64	@ 0x40
     bee:	d0c9      	beq.n	b84 <kprintf.constprop.0+0x490>
     bf0:	b280      	uxth	r0, r0
     bf2:	4619      	mov	r1, r3
     bf4:	e7c6      	b.n	b84 <kprintf.constprop.0+0x490>
/home/lubuntu/Dokument/GitHub/STM32-Computer/Firmware/STM32-Computer-Firmware/CA7/optee-os-3.19.0-r2/optee-os-stm32mp-3.19.0-stm32mp-r2/lib/libutils/ext/snprintk.c:297
     bf6:	4a76      	ldr	r2, [pc, #472]	@ (dd0 <kprintf.constprop.0+0x6dc>)
     bf8:	447a      	add	r2, pc
     bfa:	3211      	adds	r2, #17
     bfc:	e618      	b.n	830 <kprintf.constprop.0+0x13c>
/home/lubuntu/Dokument/GitHub/STM32-Computer/Firmware/STM32-Computer-Firmware/CA7/optee-os-3.19.0-r2/optee-os-stm32mp-3.19.0-stm32mp-r2/lib/libutils/ext/snprintk.c:481
     bfe:	f415 7180 	ands.w	r1, r5, #256	@ 0x100
     c02:	d00f      	beq.n	c24 <kprintf.constprop.0+0x530>
     c04:	461e      	mov	r6, r3
     c06:	4611      	mov	r1, r2
     c08:	f856 0b04 	ldr.w	r0, [r6], #4
/home/lubuntu/Dokument/GitHub/STM32-Computer/Firmware/STM32-Computer-Firmware/CA7/optee-os-3.19.0-r2/optee-os-stm32mp-3.19.0-stm32mp-r2/lib/libutils/ext/snprintk.c:484
     c0c:	07ef      	lsls	r7, r5, #31
     c0e:	f57f af79 	bpl.w	b04 <kprintf.constprop.0+0x410>
     c12:	ea50 0301 	orrs.w	r3, r0, r1
/home/lubuntu/Dokument/GitHub/STM32-Computer/Firmware/STM32-Computer-Firmware/CA7/optee-os-3.19.0-r2/optee-os-stm32mp-3.19.0-stm32mp-r2/lib/libutils/ext/snprintk.c:488
     c16:	f04f 0700 	mov.w	r7, #0
/home/lubuntu/Dokument/GitHub/STM32-Computer/Firmware/STM32-Computer-Firmware/CA7/optee-os-3.19.0-r2/optee-os-stm32mp-3.19.0-stm32mp-r2/lib/libutils/ext/snprintk.c:485
     c1a:	bf18      	it	ne
     c1c:	f045 0502 	orrne.w	r5, r5, #2
/home/lubuntu/Dokument/GitHub/STM32-Computer/Firmware/STM32-Computer-Firmware/CA7/optee-os-3.19.0-r2/optee-os-stm32mp-3.19.0-stm32mp-r2/lib/libutils/ext/snprintk.c:482
     c20:	2302      	movs	r3, #2
     c22:	e690      	b.n	946 <kprintf.constprop.0+0x252>
/home/lubuntu/Dokument/GitHub/STM32-Computer/Firmware/STM32-Computer-Firmware/CA7/optee-os-3.19.0-r2/optee-os-stm32mp-3.19.0-stm32mp-r2/lib/libutils/ext/snprintk.c:481
     c24:	05aa      	lsls	r2, r5, #22
     c26:	d503      	bpl.n	c30 <kprintf.constprop.0+0x53c>
     c28:	461e      	mov	r6, r3
     c2a:	f856 0b04 	ldr.w	r0, [r6], #4
     c2e:	e7ed      	b.n	c0c <kprintf.constprop.0+0x518>
     c30:	f015 0120 	ands.w	r1, r5, #32
     c34:	f47f ae01 	bne.w	83a <kprintf.constprop.0+0x146>
/home/lubuntu/Dokument/GitHub/STM32-Computer/Firmware/STM32-Computer-Firmware/CA7/optee-os-3.19.0-r2/optee-os-stm32mp-3.19.0-stm32mp-r2/lib/libutils/ext/snprintk.c:317
     c38:	461e      	mov	r6, r3
/home/lubuntu/Dokument/GitHub/STM32-Computer/Firmware/STM32-Computer-Firmware/CA7/optee-os-3.19.0-r2/optee-os-stm32mp-3.19.0-stm32mp-r2/lib/libutils/ext/snprintk.c:481
     c3a:	f015 0310 	ands.w	r3, r5, #16
/home/lubuntu/Dokument/GitHub/STM32-Computer/Firmware/STM32-Computer-Firmware/CA7/optee-os-3.19.0-r2/optee-os-stm32mp-3.19.0-stm32mp-r2/lib/libutils/ext/snprintk.c:317
     c3e:	f856 0b04 	ldr.w	r0, [r6], #4
/home/lubuntu/Dokument/GitHub/STM32-Computer/Firmware/STM32-Computer-Firmware/CA7/optee-os-3.19.0-r2/optee-os-stm32mp-3.19.0-stm32mp-r2/lib/libutils/ext/snprintk.c:481
     c42:	d1e3      	bne.n	c0c <kprintf.constprop.0+0x518>
     c44:	f015 0140 	ands.w	r1, r5, #64	@ 0x40
     c48:	bf1c      	itt	ne
     c4a:	b280      	uxthne	r0, r0
     c4c:	4619      	movne	r1, r3
     c4e:	e7dd      	b.n	c0c <kprintf.constprop.0+0x518>
/home/lubuntu/Dokument/GitHub/STM32-Computer/Firmware/STM32-Computer-Firmware/CA7/optee-os-3.19.0-r2/optee-os-stm32mp-3.19.0-stm32mp-r2/lib/libutils/ext/snprintk.c:494
     c50:	2302      	movs	r3, #2
/home/lubuntu/Dokument/GitHub/STM32-Computer/Firmware/STM32-Computer-Firmware/CA7/optee-os-3.19.0-r2/optee-os-stm32mp-3.19.0-stm32mp-r2/lib/libutils/ext/snprintk.c:503
     c52:	ea50 0201 	orrs.w	r2, r0, r1
/home/lubuntu/Dokument/GitHub/STM32-Computer/Firmware/STM32-Computer-Firmware/CA7/optee-os-3.19.0-r2/optee-os-stm32mp-3.19.0-stm32mp-r2/lib/libutils/ext/snprintk.c:495
     c56:	f425 6580 	bic.w	r5, r5, #1024	@ 0x400
/home/lubuntu/Dokument/GitHub/STM32-Computer/Firmware/STM32-Computer-Firmware/CA7/optee-os-3.19.0-r2/optee-os-stm32mp-3.19.0-stm32mp-r2/lib/libutils/ext/snprintk.c:503
     c5a:	f47f ae78 	bne.w	94e <kprintf.constprop.0+0x25a>
     c5e:	f1ba 0f00 	cmp.w	sl, #0
     c62:	f47f ae74 	bne.w	94e <kprintf.constprop.0+0x25a>
/home/lubuntu/Dokument/GitHub/STM32-Computer/Firmware/STM32-Computer-Firmware/CA7/optee-os-3.19.0-r2/optee-os-stm32mp-3.19.0-stm32mp-r2/lib/libutils/ext/snprintk.c:502
     c66:	f10d 096d 	add.w	r9, sp, #109	@ 0x6d
     c6a:	e68e      	b.n	98a <kprintf.constprop.0+0x296>
/home/lubuntu/Dokument/GitHub/STM32-Computer/Firmware/STM32-Computer-Firmware/CA7/optee-os-3.19.0-r2/optee-os-stm32mp-3.19.0-stm32mp-r2/lib/libutils/ext/snprintk.c:494
     c6c:	2301      	movs	r3, #1
     c6e:	e7f0      	b.n	c52 <kprintf.constprop.0+0x55e>
/home/lubuntu/Dokument/GitHub/STM32-Computer/Firmware/STM32-Computer-Firmware/CA7/optee-os-3.19.0-r2/optee-os-stm32mp-3.19.0-stm32mp-r2/lib/libutils/ext/snprintk.c:523
     c70:	220a      	movs	r2, #10
     c72:	2300      	movs	r3, #0
     c74:	f000 e8c6 	blx	e04 <__aeabi_uldivmod>
     c78:	9b10      	ldr	r3, [sp, #64]	@ 0x40
     c7a:	3230      	adds	r2, #48	@ 0x30
     c7c:	f8cd 9040 	str.w	r9, [sp, #64]	@ 0x40
     c80:	f803 2c01 	strb.w	r2, [r3, #-1]
/home/lubuntu/Dokument/GitHub/STM32-Computer/Firmware/STM32-Computer-Firmware/CA7/optee-os-3.19.0-r2/optee-os-stm32mp-3.19.0-stm32mp-r2/lib/libutils/ext/snprintk.c:524
     c84:	e785      	b.n	b92 <kprintf.constprop.0+0x49e>
/home/lubuntu/Dokument/GitHub/STM32-Computer/Firmware/STM32-Computer-Firmware/CA7/optee-os-3.19.0-r2/optee-os-stm32mp-3.19.0-stm32mp-r2/lib/libutils/ext/snprintk.c:547
     c86:	9a0b      	ldr	r2, [sp, #44]	@ 0x2c
     c88:	2a00      	cmp	r2, #0
     c8a:	f47f ade2 	bne.w	852 <kprintf.constprop.0+0x15e>
     c8e:	e546      	b.n	71e <kprintf.constprop.0+0x2a>
/home/lubuntu/Dokument/GitHub/STM32-Computer/Firmware/STM32-Computer-Firmware/CA7/optee-os-3.19.0-r2/optee-os-stm32mp-3.19.0-stm32mp-r2/lib/libutils/ext/snprintk.c:574
     c90:	07a9      	lsls	r1, r5, #30
/home/lubuntu/Dokument/GitHub/STM32-Computer/Firmware/STM32-Computer-Firmware/CA7/optee-os-3.19.0-r2/optee-os-stm32mp-3.19.0-stm32mp-r2/lib/libutils/ext/snprintk.c:578
     c92:	990c      	ldr	r1, [sp, #48]	@ 0x30
/home/lubuntu/Dokument/GitHub/STM32-Computer/Firmware/STM32-Computer-Firmware/CA7/optee-os-3.19.0-r2/optee-os-stm32mp-3.19.0-stm32mp-r2/lib/libutils/ext/snprintk.c:575
     c94:	bf48      	it	mi
     c96:	3202      	addmi	r2, #2
/home/lubuntu/Dokument/GitHub/STM32-Computer/Firmware/STM32-Computer-Firmware/CA7/optee-os-3.19.0-r2/optee-os-stm32mp-3.19.0-stm32mp-r2/lib/libutils/ext/snprintk.c:578
     c98:	428a      	cmp	r2, r1
     c9a:	bfac      	ite	ge
     c9c:	4493      	addge	fp, r2
     c9e:	448b      	addlt	fp, r1
/home/lubuntu/Dokument/GitHub/STM32-Computer/Firmware/STM32-Computer-Firmware/CA7/optee-os-3.19.0-r2/optee-os-stm32mp-3.19.0-stm32mp-r2/lib/libutils/ext/snprintk.c:581
     ca0:	2b00      	cmp	r3, #0
     ca2:	f43f ae8b 	beq.w	9bc <kprintf.constprop.0+0x2c8>
/home/lubuntu/Dokument/GitHub/STM32-Computer/Firmware/STM32-Computer-Firmware/CA7/optee-os-3.19.0-r2/optee-os-stm32mp-3.19.0-stm32mp-r2/lib/libutils/ext/snprintk.c:590
     ca6:	07a9      	lsls	r1, r5, #30
     ca8:	d55c      	bpl.n	d64 <kprintf.constprop.0+0x670>
/home/lubuntu/Dokument/GitHub/STM32-Computer/Firmware/STM32-Computer-Firmware/CA7/optee-os-3.19.0-r2/optee-os-stm32mp-3.19.0-stm32mp-r2/lib/libutils/ext/snprintk.c:591
     caa:	2c00      	cmp	r4, #0
     cac:	d05a      	beq.n	d64 <kprintf.constprop.0+0x670>
     cae:	990d      	ldr	r1, [sp, #52]	@ 0x34
     cb0:	2900      	cmp	r1, #0
     cb2:	d06c      	beq.n	d8e <kprintf.constprop.0+0x69a>
     cb4:	990e      	ldr	r1, [sp, #56]	@ 0x38
     cb6:	42a1      	cmp	r1, r4
     cb8:	d954      	bls.n	d64 <kprintf.constprop.0+0x670>
     cba:	2130      	movs	r1, #48	@ 0x30
     cbc:	f804 1b01 	strb.w	r1, [r4], #1
/home/lubuntu/Dokument/GitHub/STM32-Computer/Firmware/STM32-Computer-Firmware/CA7/optee-os-3.19.0-r2/optee-os-stm32mp-3.19.0-stm32mp-r2/lib/libutils/ext/snprintk.c:592
     cc0:	990e      	ldr	r1, [sp, #56]	@ 0x38
     cc2:	42a1      	cmp	r1, r4
     cc4:	d94e      	bls.n	d64 <kprintf.constprop.0+0x670>
     cc6:	990b      	ldr	r1, [sp, #44]	@ 0x2c
     cc8:	f804 1b01 	strb.w	r1, [r4], #1
     ccc:	e04a      	b.n	d64 <kprintf.constprop.0+0x670>
/home/lubuntu/Dokument/GitHub/STM32-Computer/Firmware/STM32-Computer-Firmware/CA7/optee-os-3.19.0-r2/optee-os-stm32mp-3.19.0-stm32mp-r2/lib/libutils/ext/snprintk.c:584
     cce:	2c00      	cmp	r4, #0
     cd0:	d045      	beq.n	d5e <kprintf.constprop.0+0x66a>
     cd2:	990d      	ldr	r1, [sp, #52]	@ 0x34
     cd4:	b111      	cbz	r1, cdc <kprintf.constprop.0+0x5e8>
     cd6:	990e      	ldr	r1, [sp, #56]	@ 0x38
     cd8:	42a1      	cmp	r1, r4
     cda:	d940      	bls.n	d5e <kprintf.constprop.0+0x66a>
/home/lubuntu/Dokument/GitHub/STM32-Computer/Firmware/STM32-Computer-Firmware/CA7/optee-os-3.19.0-r2/optee-os-stm32mp-3.19.0-stm32mp-r2/lib/libutils/ext/snprintk.c:583
     cdc:	3b01      	subs	r3, #1
/home/lubuntu/Dokument/GitHub/STM32-Computer/Firmware/STM32-Computer-Firmware/CA7/optee-os-3.19.0-r2/optee-os-stm32mp-3.19.0-stm32mp-r2/lib/libutils/ext/snprintk.c:584
     cde:	f04f 0120 	mov.w	r1, #32
     ce2:	f804 1b01 	strb.w	r1, [r4], #1
/home/lubuntu/Dokument/GitHub/STM32-Computer/Firmware/STM32-Computer-Firmware/CA7/optee-os-3.19.0-r2/optee-os-stm32mp-3.19.0-stm32mp-r2/lib/libutils/ext/snprintk.c:583
     ce6:	d1f4      	bne.n	cd2 <kprintf.constprop.0+0x5de>
/home/lubuntu/Dokument/GitHub/STM32-Computer/Firmware/STM32-Computer-Firmware/CA7/optee-os-3.19.0-r2/optee-os-stm32mp-3.19.0-stm32mp-r2/lib/libutils/ext/snprintk.c:588
     ce8:	2f00      	cmp	r7, #0
     cea:	d160      	bne.n	dae <kprintf.constprop.0+0x6ba>
/home/lubuntu/Dokument/GitHub/STM32-Computer/Firmware/STM32-Computer-Firmware/CA7/optee-os-3.19.0-r2/optee-os-stm32mp-3.19.0-stm32mp-r2/lib/libutils/ext/snprintk.c:590
     cec:	07ab      	lsls	r3, r5, #30
     cee:	d44c      	bmi.n	d8a <kprintf.constprop.0+0x696>
/home/lubuntu/Dokument/GitHub/STM32-Computer/Firmware/STM32-Computer-Firmware/CA7/optee-os-3.19.0-r2/optee-os-stm32mp-3.19.0-stm32mp-r2/lib/libutils/ext/snprintk.c:603
     cf0:	eba0 000a 	sub.w	r0, r0, sl
/home/lubuntu/Dokument/GitHub/STM32-Computer/Firmware/STM32-Computer-Firmware/CA7/optee-os-3.19.0-r2/optee-os-stm32mp-3.19.0-stm32mp-r2/lib/libutils/ext/snprintk.c:604
     cf4:	2800      	cmp	r0, #0
     cf6:	dd0b      	ble.n	d10 <kprintf.constprop.0+0x61c>
/home/lubuntu/Dokument/GitHub/STM32-Computer/Firmware/STM32-Computer-Firmware/CA7/optee-os-3.19.0-r2/optee-os-stm32mp-3.19.0-stm32mp-r2/lib/libutils/ext/snprintk.c:605
     cf8:	2c00      	cmp	r4, #0
     cfa:	d04e      	beq.n	d9a <kprintf.constprop.0+0x6a6>
     cfc:	2330      	movs	r3, #48	@ 0x30
     cfe:	990d      	ldr	r1, [sp, #52]	@ 0x34
     d00:	b111      	cbz	r1, d08 <kprintf.constprop.0+0x614>
     d02:	990e      	ldr	r1, [sp, #56]	@ 0x38
     d04:	42a1      	cmp	r1, r4
     d06:	d948      	bls.n	d9a <kprintf.constprop.0+0x6a6>
     d08:	f804 3b01 	strb.w	r3, [r4], #1
/home/lubuntu/Dokument/GitHub/STM32-Computer/Firmware/STM32-Computer-Firmware/CA7/optee-os-3.19.0-r2/optee-os-stm32mp-3.19.0-stm32mp-r2/lib/libutils/ext/snprintk.c:604
     d0c:	3801      	subs	r0, #1
     d0e:	d1f6      	bne.n	cfe <kprintf.constprop.0+0x60a>
     d10:	44ca      	add	sl, r9
/home/lubuntu/Dokument/GitHub/STM32-Computer/Firmware/STM32-Computer-Firmware/CA7/optee-os-3.19.0-r2/optee-os-stm32mp-3.19.0-stm32mp-r2/lib/libutils/ext/snprintk.c:608
     d12:	45d1      	cmp	r9, sl
     d14:	d00c      	beq.n	d30 <kprintf.constprop.0+0x63c>
/home/lubuntu/Dokument/GitHub/STM32-Computer/Firmware/STM32-Computer-Firmware/CA7/optee-os-3.19.0-r2/optee-os-stm32mp-3.19.0-stm32mp-r2/lib/libutils/ext/snprintk.c:609
     d16:	2c00      	cmp	r4, #0
     d18:	d041      	beq.n	d9e <kprintf.constprop.0+0x6aa>
     d1a:	9b0d      	ldr	r3, [sp, #52]	@ 0x34
     d1c:	b113      	cbz	r3, d24 <kprintf.constprop.0+0x630>
     d1e:	9b0e      	ldr	r3, [sp, #56]	@ 0x38
     d20:	42a3      	cmp	r3, r4
     d22:	d93c      	bls.n	d9e <kprintf.constprop.0+0x6aa>
     d24:	f819 3b01 	ldrb.w	r3, [r9], #1
/home/lubuntu/Dokument/GitHub/STM32-Computer/Firmware/STM32-Computer-Firmware/CA7/optee-os-3.19.0-r2/optee-os-stm32mp-3.19.0-stm32mp-r2/lib/libutils/ext/snprintk.c:608
     d28:	45d1      	cmp	r9, sl
/home/lubuntu/Dokument/GitHub/STM32-Computer/Firmware/STM32-Computer-Firmware/CA7/optee-os-3.19.0-r2/optee-os-stm32mp-3.19.0-stm32mp-r2/lib/libutils/ext/snprintk.c:609
     d2a:	f804 3b01 	strb.w	r3, [r4], #1
/home/lubuntu/Dokument/GitHub/STM32-Computer/Firmware/STM32-Computer-Firmware/CA7/optee-os-3.19.0-r2/optee-os-stm32mp-3.19.0-stm32mp-r2/lib/libutils/ext/snprintk.c:608
     d2e:	d1f4      	bne.n	d1a <kprintf.constprop.0+0x626>
/home/lubuntu/Dokument/GitHub/STM32-Computer/Firmware/STM32-Computer-Firmware/CA7/optee-os-3.19.0-r2/optee-os-stm32mp-3.19.0-stm32mp-r2/lib/libutils/ext/snprintk.c:611
     d30:	076b      	lsls	r3, r5, #29
     d32:	f57f acef 	bpl.w	714 <kprintf.constprop.0+0x20>
/home/lubuntu/Dokument/GitHub/STM32-Computer/Firmware/STM32-Computer-Firmware/CA7/optee-os-3.19.0-r2/optee-os-stm32mp-3.19.0-stm32mp-r2/lib/libutils/ext/snprintk.c:612
     d36:	9b0c      	ldr	r3, [sp, #48]	@ 0x30
     d38:	1a9b      	subs	r3, r3, r2
/home/lubuntu/Dokument/GitHub/STM32-Computer/Firmware/STM32-Computer-Firmware/CA7/optee-os-3.19.0-r2/optee-os-stm32mp-3.19.0-stm32mp-r2/lib/libutils/ext/snprintk.c:613
     d3a:	2b00      	cmp	r3, #0
     d3c:	f77f acea 	ble.w	714 <kprintf.constprop.0+0x20>
/home/lubuntu/Dokument/GitHub/STM32-Computer/Firmware/STM32-Computer-Firmware/CA7/optee-os-3.19.0-r2/optee-os-stm32mp-3.19.0-stm32mp-r2/lib/libutils/ext/snprintk.c:614
     d40:	b384      	cbz	r4, da4 <kprintf.constprop.0+0x6b0>
     d42:	990d      	ldr	r1, [sp, #52]	@ 0x34
     d44:	4622      	mov	r2, r4
     d46:	b111      	cbz	r1, d4e <kprintf.constprop.0+0x65a>
     d48:	990e      	ldr	r1, [sp, #56]	@ 0x38
     d4a:	42a1      	cmp	r1, r4
     d4c:	d92a      	bls.n	da4 <kprintf.constprop.0+0x6b0>
/home/lubuntu/Dokument/GitHub/STM32-Computer/Firmware/STM32-Computer-Firmware/CA7/optee-os-3.19.0-r2/optee-os-stm32mp-3.19.0-stm32mp-r2/lib/libutils/ext/snprintk.c:613
     d4e:	3b01      	subs	r3, #1
/home/lubuntu/Dokument/GitHub/STM32-Computer/Firmware/STM32-Computer-Firmware/CA7/optee-os-3.19.0-r2/optee-os-stm32mp-3.19.0-stm32mp-r2/lib/libutils/ext/snprintk.c:614
     d50:	f04f 0120 	mov.w	r1, #32
     d54:	7011      	strb	r1, [r2, #0]
     d56:	f104 0401 	add.w	r4, r4, #1
/home/lubuntu/Dokument/GitHub/STM32-Computer/Firmware/STM32-Computer-Firmware/CA7/optee-os-3.19.0-r2/optee-os-stm32mp-3.19.0-stm32mp-r2/lib/libutils/ext/snprintk.c:613
     d5a:	d1f2      	bne.n	d42 <kprintf.constprop.0+0x64e>
     d5c:	e4da      	b.n	714 <kprintf.constprop.0+0x20>
     d5e:	3b01      	subs	r3, #1
     d60:	e62e      	b.n	9c0 <kprintf.constprop.0+0x2cc>
/home/lubuntu/Dokument/GitHub/STM32-Computer/Firmware/STM32-Computer-Firmware/CA7/optee-os-3.19.0-r2/optee-os-stm32mp-3.19.0-stm32mp-r2/lib/libutils/ext/snprintk.c:589
     d62:	bb24      	cbnz	r4, dae <kprintf.constprop.0+0x6ba>
/home/lubuntu/Dokument/GitHub/STM32-Computer/Firmware/STM32-Computer-Firmware/CA7/optee-os-3.19.0-r2/optee-os-stm32mp-3.19.0-stm32mp-r2/lib/libutils/ext/snprintk.c:596
     d64:	f5b3 6f80 	cmp.w	r3, #1024	@ 0x400
     d68:	d1c2      	bne.n	cf0 <kprintf.constprop.0+0x5fc>
/home/lubuntu/Dokument/GitHub/STM32-Computer/Firmware/STM32-Computer-Firmware/CA7/optee-os-3.19.0-r2/optee-os-stm32mp-3.19.0-stm32mp-r2/lib/libutils/ext/snprintk.c:597
     d6a:	9b0c      	ldr	r3, [sp, #48]	@ 0x30
     d6c:	1a9b      	subs	r3, r3, r2
/home/lubuntu/Dokument/GitHub/STM32-Computer/Firmware/STM32-Computer-Firmware/CA7/optee-os-3.19.0-r2/optee-os-stm32mp-3.19.0-stm32mp-r2/lib/libutils/ext/snprintk.c:598
     d6e:	2b00      	cmp	r3, #0
     d70:	ddbe      	ble.n	cf0 <kprintf.constprop.0+0x5fc>
/home/lubuntu/Dokument/GitHub/STM32-Computer/Firmware/STM32-Computer-Firmware/CA7/optee-os-3.19.0-r2/optee-os-stm32mp-3.19.0-stm32mp-r2/lib/libutils/ext/snprintk.c:599
     d72:	b184      	cbz	r4, d96 <kprintf.constprop.0+0x6a2>
     d74:	2130      	movs	r1, #48	@ 0x30
     d76:	9f0d      	ldr	r7, [sp, #52]	@ 0x34
     d78:	b117      	cbz	r7, d80 <kprintf.constprop.0+0x68c>
     d7a:	9f0e      	ldr	r7, [sp, #56]	@ 0x38
     d7c:	42a7      	cmp	r7, r4
     d7e:	d90a      	bls.n	d96 <kprintf.constprop.0+0x6a2>
     d80:	f804 1b01 	strb.w	r1, [r4], #1
/home/lubuntu/Dokument/GitHub/STM32-Computer/Firmware/STM32-Computer-Firmware/CA7/optee-os-3.19.0-r2/optee-os-stm32mp-3.19.0-stm32mp-r2/lib/libutils/ext/snprintk.c:598
     d84:	3b01      	subs	r3, #1
     d86:	d1f6      	bne.n	d76 <kprintf.constprop.0+0x682>
     d88:	e7b2      	b.n	cf0 <kprintf.constprop.0+0x5fc>
/home/lubuntu/Dokument/GitHub/STM32-Computer/Firmware/STM32-Computer-Firmware/CA7/optee-os-3.19.0-r2/optee-os-stm32mp-3.19.0-stm32mp-r2/lib/libutils/ext/snprintk.c:590
     d8a:	463b      	mov	r3, r7
     d8c:	e78f      	b.n	cae <kprintf.constprop.0+0x5ba>
/home/lubuntu/Dokument/GitHub/STM32-Computer/Firmware/STM32-Computer-Firmware/CA7/optee-os-3.19.0-r2/optee-os-stm32mp-3.19.0-stm32mp-r2/lib/libutils/ext/snprintk.c:591
     d8e:	2130      	movs	r1, #48	@ 0x30
     d90:	f804 1b01 	strb.w	r1, [r4], #1
/home/lubuntu/Dokument/GitHub/STM32-Computer/Firmware/STM32-Computer-Firmware/CA7/optee-os-3.19.0-r2/optee-os-stm32mp-3.19.0-stm32mp-r2/lib/libutils/ext/snprintk.c:592
     d94:	e797      	b.n	cc6 <kprintf.constprop.0+0x5d2>
     d96:	3b01      	subs	r3, #1
     d98:	e7e9      	b.n	d6e <kprintf.constprop.0+0x67a>
     d9a:	3801      	subs	r0, #1
     d9c:	e7aa      	b.n	cf4 <kprintf.constprop.0+0x600>
/home/lubuntu/Dokument/GitHub/STM32-Computer/Firmware/STM32-Computer-Firmware/CA7/optee-os-3.19.0-r2/optee-os-stm32mp-3.19.0-stm32mp-r2/lib/libutils/ext/snprintk.c:608
     d9e:	f109 0901 	add.w	r9, r9, #1
     da2:	e7b6      	b.n	d12 <kprintf.constprop.0+0x61e>
     da4:	3b01      	subs	r3, #1
     da6:	e7c8      	b.n	d3a <kprintf.constprop.0+0x646>
/home/lubuntu/Dokument/GitHub/STM32-Computer/Firmware/STM32-Computer-Firmware/CA7/optee-os-3.19.0-r2/optee-os-stm32mp-3.19.0-stm32mp-r2/lib/libutils/ext/snprintk.c:589
     da8:	2c00      	cmp	r4, #0
     daa:	d0a1      	beq.n	cf0 <kprintf.constprop.0+0x5fc>
     dac:	2300      	movs	r3, #0
     dae:	990d      	ldr	r1, [sp, #52]	@ 0x34
     db0:	b111      	cbz	r1, db8 <kprintf.constprop.0+0x6c4>
     db2:	990e      	ldr	r1, [sp, #56]	@ 0x38
     db4:	42a1      	cmp	r1, r4
     db6:	d9d5      	bls.n	d64 <kprintf.constprop.0+0x670>
     db8:	f804 7b01 	strb.w	r7, [r4], #1
     dbc:	e7d2      	b.n	d64 <kprintf.constprop.0+0x670>
     dbe:	bf00      	nop
     dc0:	00009ac8 	.word	0x00009ac8
     dc4:	00009801 	.word	0x00009801
     dc8:	000097fa 	.word	0x000097fa
     dcc:	0000977e 	.word	0x0000977e
     dd0:	000096fe 	.word	0x000096fe

00000dd4 <__vsprintf>:
__vsprintf():
/home/lubuntu/Dokument/GitHub/STM32-Computer/Firmware/STM32-Computer-Firmware/CA7/optee-os-3.19.0-r2/optee-os-stm32mp-3.19.0-stm32mp-r2/lib/libutils/ext/snprintk.c:155
     dd4:	b513      	push	{r0, r1, r4, lr}
     dd6:	4604      	mov	r4, r0
     dd8:	4608      	mov	r0, r1
/home/lubuntu/Dokument/GitHub/STM32-Computer/Firmware/STM32-Computer-Firmware/CA7/optee-os-3.19.0-r2/optee-os-stm32mp-3.19.0-stm32mp-r2/lib/libutils/ext/snprintk.c:156
     dda:	2100      	movs	r1, #0
     ddc:	9100      	str	r1, [sp, #0]
/home/lubuntu/Dokument/GitHub/STM32-Computer/Firmware/STM32-Computer-Firmware/CA7/optee-os-3.19.0-r2/optee-os-stm32mp-3.19.0-stm32mp-r2/lib/libutils/ext/snprintk.c:155
     dde:	4613      	mov	r3, r2
/home/lubuntu/Dokument/GitHub/STM32-Computer/Firmware/STM32-Computer-Firmware/CA7/optee-os-3.19.0-r2/optee-os-stm32mp-3.19.0-stm32mp-r2/lib/libutils/ext/snprintk.c:156
     de0:	4622      	mov	r2, r4
     de2:	f7ff fc87 	bl	6f4 <kprintf.constprop.0>
/home/lubuntu/Dokument/GitHub/STM32-Computer/Firmware/STM32-Computer-Firmware/CA7/optee-os-3.19.0-r2/optee-os-stm32mp-3.19.0-stm32mp-r2/lib/libutils/ext/snprintk.c:157
     de6:	b002      	add	sp, #8
     de8:	bd10      	pop	{r4, pc}
     dea:	bf00      	nop

00000dec <__aeabi_ldivmod>:
__aeabi_ldivmod():
/home/lubuntu/Dokument/GitHub/STM32-Computer/Firmware/STM32-Computer-Firmware/CA7/optee-os-3.19.0-r2/optee-os-stm32mp-3.19.0-stm32mp-r2/lib/libutils/isoc/arch/arm/arm32_aeabi_ldivmod_a32.S:14
     dec:	e92d5000 	push	{ip, lr}
/home/lubuntu/Dokument/GitHub/STM32-Computer/Firmware/STM32-Computer-Firmware/CA7/optee-os-3.19.0-r2/optee-os-stm32mp-3.19.0-stm32mp-r2/lib/libutils/isoc/arch/arm/arm32_aeabi_ldivmod_a32.S:16
     df0:	e92d000f 	push	{r0, r1, r2, r3}
/home/lubuntu/Dokument/GitHub/STM32-Computer/Firmware/STM32-Computer-Firmware/CA7/optee-os-3.19.0-r2/optee-os-stm32mp-3.19.0-stm32mp-r2/lib/libutils/isoc/arch/arm/arm32_aeabi_ldivmod_a32.S:18
     df4:	e1a0000d 	mov	r0, sp
/home/lubuntu/Dokument/GitHub/STM32-Computer/Firmware/STM32-Computer-Firmware/CA7/optee-os-3.19.0-r2/optee-os-stm32mp-3.19.0-stm32mp-r2/lib/libutils/isoc/arch/arm/arm32_aeabi_ldivmod_a32.S:19
     df8:	fa002263 	blx	978c <__l_divmod>
/home/lubuntu/Dokument/GitHub/STM32-Computer/Firmware/STM32-Computer-Firmware/CA7/optee-os-3.19.0-r2/optee-os-stm32mp-3.19.0-stm32mp-r2/lib/libutils/isoc/arch/arm/arm32_aeabi_ldivmod_a32.S:20
     dfc:	e8bd000f 	pop	{r0, r1, r2, r3}
/home/lubuntu/Dokument/GitHub/STM32-Computer/Firmware/STM32-Computer-Firmware/CA7/optee-os-3.19.0-r2/optee-os-stm32mp-3.19.0-stm32mp-r2/lib/libutils/isoc/arch/arm/arm32_aeabi_ldivmod_a32.S:21
     e00:	e8bd9000 	pop	{ip, pc}

00000e04 <__aeabi_uldivmod>:
__aeabi_uldivmod():
/home/lubuntu/Dokument/GitHub/STM32-Computer/Firmware/STM32-Computer-Firmware/CA7/optee-os-3.19.0-r2/optee-os-stm32mp-3.19.0-stm32mp-r2/lib/libutils/isoc/arch/arm/arm32_aeabi_ldivmod_a32.S:29
     e04:	e92d5000 	push	{ip, lr}
/home/lubuntu/Dokument/GitHub/STM32-Computer/Firmware/STM32-Computer-Firmware/CA7/optee-os-3.19.0-r2/optee-os-stm32mp-3.19.0-stm32mp-r2/lib/libutils/isoc/arch/arm/arm32_aeabi_ldivmod_a32.S:31
     e08:	e92d000f 	push	{r0, r1, r2, r3}
/home/lubuntu/Dokument/GitHub/STM32-Computer/Firmware/STM32-Computer-Firmware/CA7/optee-os-3.19.0-r2/optee-os-stm32mp-3.19.0-stm32mp-r2/lib/libutils/isoc/arch/arm/arm32_aeabi_ldivmod_a32.S:33
     e0c:	e1a0000d 	mov	r0, sp
/home/lubuntu/Dokument/GitHub/STM32-Computer/Firmware/STM32-Computer-Firmware/CA7/optee-os-3.19.0-r2/optee-os-stm32mp-3.19.0-stm32mp-r2/lib/libutils/isoc/arch/arm/arm32_aeabi_ldivmod_a32.S:34
     e10:	fb00224e 	blx	9752 <__ul_divmod>
/home/lubuntu/Dokument/GitHub/STM32-Computer/Firmware/STM32-Computer-Firmware/CA7/optee-os-3.19.0-r2/optee-os-stm32mp-3.19.0-stm32mp-r2/lib/libutils/isoc/arch/arm/arm32_aeabi_ldivmod_a32.S:35
     e14:	e8bd000f 	pop	{r0, r1, r2, r3}
/home/lubuntu/Dokument/GitHub/STM32-Computer/Firmware/STM32-Computer-Firmware/CA7/optee-os-3.19.0-r2/optee-os-stm32mp-3.19.0-stm32mp-r2/lib/libutils/isoc/arch/arm/arm32_aeabi_ldivmod_a32.S:36
     e18:	e8bd9000 	pop	{ip, pc}

00000e1c <_assert_log>:
_assert_log():
/home/lubuntu/Dokument/GitHub/STM32-Computer/Firmware/STM32-Computer-Firmware/CA7/optee-os-3.19.0-r2/optee-os-stm32mp-3.19.0-stm32mp-r2/lib/libutee/assert.c:17
     e1c:	b57f      	push	{r0, r1, r2, r3, r4, r5, r6, lr}
/home/lubuntu/Dokument/GitHub/STM32-Computer/Firmware/STM32-Computer-Firmware/CA7/optee-os-3.19.0-r2/optee-os-stm32mp-3.19.0-stm32mp-r2/lib/libutee/assert.c:18
     e1e:	9304      	str	r3, [sp, #16]
     e20:	4b07      	ldr	r3, [pc, #28]	@ (e40 <_assert_log+0x24>)
     e22:	9102      	str	r1, [sp, #8]
     e24:	2100      	movs	r1, #0
     e26:	447b      	add	r3, pc
     e28:	9300      	str	r3, [sp, #0]
     e2a:	2301      	movs	r3, #1
     e2c:	9203      	str	r2, [sp, #12]
     e2e:	461a      	mov	r2, r3
     e30:	9001      	str	r0, [sp, #4]
     e32:	4608      	mov	r0, r1
     e34:	f7ff fc24 	bl	680 <trace_printf>
/home/lubuntu/Dokument/GitHub/STM32-Computer/Firmware/STM32-Computer-Firmware/CA7/optee-os-3.19.0-r2/optee-os-stm32mp-3.19.0-stm32mp-r2/lib/libutee/assert.c:20
     e38:	b007      	add	sp, #28
     e3a:	f85d fb04 	ldr.w	pc, [sp], #4
     e3e:	bf00      	nop
     e40:	000094f2 	.word	0x000094f2

00000e44 <_assert_break>:
_assert_break():
/home/lubuntu/Dokument/GitHub/STM32-Computer/Firmware/STM32-Computer-Firmware/CA7/optee-os-3.19.0-r2/optee-os-stm32mp-3.19.0-stm32mp-r2/lib/libutee/assert.c:24
     e44:	4802      	ldr	r0, [pc, #8]	@ (e50 <_assert_break+0xc>)
/home/lubuntu/Dokument/GitHub/STM32-Computer/Firmware/STM32-Computer-Firmware/CA7/optee-os-3.19.0-r2/optee-os-stm32mp-3.19.0-stm32mp-r2/lib/libutee/assert.c:23
     e46:	b508      	push	{r3, lr}
/home/lubuntu/Dokument/GitHub/STM32-Computer/Firmware/STM32-Computer-Firmware/CA7/optee-os-3.19.0-r2/optee-os-stm32mp-3.19.0-stm32mp-r2/lib/libutee/assert.c:24
     e48:	f003 e956 	blx	40f8 <_utee_panic>
/home/lubuntu/Dokument/GitHub/STM32-Computer/Firmware/STM32-Computer-Firmware/CA7/optee-os-3.19.0-r2/optee-os-stm32mp-3.19.0-stm32mp-r2/lib/libutee/assert.c:26 (discriminator 1)
     e4c:	e7fe      	b.n	e4c <_assert_break+0x8>
     e4e:	bf00      	nop
     e50:	ffff0000 	.word	0xffff0000

00000e54 <trace_ext_puts>:
trace_ext_puts():
/home/lubuntu/Dokument/GitHub/STM32-Computer/Firmware/STM32-Computer-Firmware/CA7/optee-os-3.19.0-r2/optee-os-stm32mp-3.19.0-stm32mp-r2/lib/libutee/trace_ext.c:22
     e54:	b510      	push	{r4, lr}
     e56:	4604      	mov	r4, r0
/home/lubuntu/Dokument/GitHub/STM32-Computer/Firmware/STM32-Computer-Firmware/CA7/optee-os-3.19.0-r2/optee-os-stm32mp-3.19.0-stm32mp-r2/lib/libutee/trace_ext.c:26
     e58:	f008 fc2e 	bl	96b8 <strlen>
     e5c:	4601      	mov	r1, r0
     e5e:	4620      	mov	r0, r4
/home/lubuntu/Dokument/GitHub/STM32-Computer/Firmware/STM32-Computer-Firmware/CA7/optee-os-3.19.0-r2/optee-os-stm32mp-3.19.0-stm32mp-r2/lib/libutee/trace_ext.c:28
     e60:	e8bd 4010 	ldmia.w	sp!, {r4, lr}
/home/lubuntu/Dokument/GitHub/STM32-Computer/Firmware/STM32-Computer-Firmware/CA7/optee-os-3.19.0-r2/optee-os-stm32mp-3.19.0-stm32mp-r2/lib/libutee/trace_ext.c:26
     e64:	f008 bf70 	b.w	9d48 <___utee_log_from_thumb>

00000e68 <trace_ext_get_thread_id>:
trace_ext_get_thread_id():
/home/lubuntu/Dokument/GitHub/STM32-Computer/Firmware/STM32-Computer-Firmware/CA7/optee-os-3.19.0-r2/optee-os-stm32mp-3.19.0-stm32mp-r2/lib/libutee/trace_ext.c:33
     e68:	f04f 30ff 	mov.w	r0, #4294967295	@ 0xffffffff
     e6c:	4770      	bx	lr

00000e6e <printf>:
printf():
/home/lubuntu/Dokument/GitHub/STM32-Computer/Firmware/STM32-Computer-Firmware/CA7/optee-os-3.19.0-r2/optee-os-stm32mp-3.19.0-stm32mp-r2/lib/libutee/trace_ext.c:41
     e6e:	b40f      	push	{r0, r1, r2, r3}
     e70:	b530      	push	{r4, r5, lr}
     e72:	b0c3      	sub	sp, #268	@ 0x10c
/home/lubuntu/Dokument/GitHub/STM32-Computer/Firmware/STM32-Computer-Firmware/CA7/optee-os-3.19.0-r2/optee-os-stm32mp-3.19.0-stm32mp-r2/lib/libutee/trace_ext.c:46
     e74:	f7ff fb5e 	bl	534 <trace_get_level>
     e78:	2800      	cmp	r0, #0
     e7a:	dd13      	ble.n	ea4 <printf+0x36>
/home/lubuntu/Dokument/GitHub/STM32-Computer/Firmware/STM32-Computer-Firmware/CA7/optee-os-3.19.0-r2/optee-os-stm32mp-3.19.0-stm32mp-r2/lib/libutee/trace_ext.c:50
     e7c:	9a46      	ldr	r2, [sp, #280]	@ 0x118
     e7e:	ad02      	add	r5, sp, #8
/home/lubuntu/Dokument/GitHub/STM32-Computer/Firmware/STM32-Computer-Firmware/CA7/optee-os-3.19.0-r2/optee-os-stm32mp-3.19.0-stm32mp-r2/lib/libutee/trace_ext.c:49
     e80:	ab47      	add	r3, sp, #284	@ 0x11c
/home/lubuntu/Dokument/GitHub/STM32-Computer/Firmware/STM32-Computer-Firmware/CA7/optee-os-3.19.0-r2/optee-os-stm32mp-3.19.0-stm32mp-r2/lib/libutee/trace_ext.c:50
     e82:	f44f 7180 	mov.w	r1, #256	@ 0x100
/home/lubuntu/Dokument/GitHub/STM32-Computer/Firmware/STM32-Computer-Firmware/CA7/optee-os-3.19.0-r2/optee-os-stm32mp-3.19.0-stm32mp-r2/lib/libutee/trace_ext.c:49
     e86:	9301      	str	r3, [sp, #4]
/home/lubuntu/Dokument/GitHub/STM32-Computer/Firmware/STM32-Computer-Firmware/CA7/optee-os-3.19.0-r2/optee-os-stm32mp-3.19.0-stm32mp-r2/lib/libutee/trace_ext.c:50
     e88:	4628      	mov	r0, r5
     e8a:	f008 feee 	bl	9c6a <vsnprintf>
/home/lubuntu/Dokument/GitHub/STM32-Computer/Firmware/STM32-Computer-Firmware/CA7/optee-os-3.19.0-r2/optee-os-stm32mp-3.19.0-stm32mp-r2/lib/libutee/trace_ext.c:53
     e8e:	1e04      	subs	r4, r0, #0
     e90:	db02      	blt.n	e98 <printf+0x2a>
/home/lubuntu/Dokument/GitHub/STM32-Computer/Firmware/STM32-Computer-Firmware/CA7/optee-os-3.19.0-r2/optee-os-stm32mp-3.19.0-stm32mp-r2/lib/libutee/trace_ext.c:56
     e92:	4628      	mov	r0, r5
     e94:	f7ff ffde 	bl	e54 <trace_ext_puts>
/home/lubuntu/Dokument/GitHub/STM32-Computer/Firmware/STM32-Computer-Firmware/CA7/optee-os-3.19.0-r2/optee-os-stm32mp-3.19.0-stm32mp-r2/lib/libutee/trace_ext.c:59
     e98:	4620      	mov	r0, r4
     e9a:	b043      	add	sp, #268	@ 0x10c
     e9c:	e8bd 4030 	ldmia.w	sp!, {r4, r5, lr}
     ea0:	b004      	add	sp, #16
     ea2:	4770      	bx	lr
/home/lubuntu/Dokument/GitHub/STM32-Computer/Firmware/STM32-Computer-Firmware/CA7/optee-os-3.19.0-r2/optee-os-stm32mp-3.19.0-stm32mp-r2/lib/libutee/trace_ext.c:47
     ea4:	2400      	movs	r4, #0
     ea6:	e7f7      	b.n	e98 <printf+0x2a>

00000ea8 <puts>:
puts():
/home/lubuntu/Dokument/GitHub/STM32-Computer/Firmware/STM32-Computer-Firmware/CA7/optee-os-3.19.0-r2/optee-os-stm32mp-3.19.0-stm32mp-r2/lib/libutee/trace_ext.c:62
     ea8:	b510      	push	{r4, lr}
     eaa:	4604      	mov	r4, r0
/home/lubuntu/Dokument/GitHub/STM32-Computer/Firmware/STM32-Computer-Firmware/CA7/optee-os-3.19.0-r2/optee-os-stm32mp-3.19.0-stm32mp-r2/lib/libutee/trace_ext.c:63
     eac:	f7ff fb42 	bl	534 <trace_get_level>
     eb0:	2800      	cmp	r0, #0
     eb2:	dd06      	ble.n	ec2 <puts+0x1a>
/home/lubuntu/Dokument/GitHub/STM32-Computer/Firmware/STM32-Computer-Firmware/CA7/optee-os-3.19.0-r2/optee-os-stm32mp-3.19.0-stm32mp-r2/lib/libutee/trace_ext.c:64
     eb4:	4620      	mov	r0, r4
     eb6:	f7ff ffcd 	bl	e54 <trace_ext_puts>
/home/lubuntu/Dokument/GitHub/STM32-Computer/Firmware/STM32-Computer-Firmware/CA7/optee-os-3.19.0-r2/optee-os-stm32mp-3.19.0-stm32mp-r2/lib/libutee/trace_ext.c:65
     eba:	4803      	ldr	r0, [pc, #12]	@ (ec8 <puts+0x20>)
     ebc:	4478      	add	r0, pc
     ebe:	f7ff ffc9 	bl	e54 <trace_ext_puts>
/home/lubuntu/Dokument/GitHub/STM32-Computer/Firmware/STM32-Computer-Firmware/CA7/optee-os-3.19.0-r2/optee-os-stm32mp-3.19.0-stm32mp-r2/lib/libutee/trace_ext.c:68
     ec2:	2001      	movs	r0, #1
     ec4:	bd10      	pop	{r4, pc}
     ec6:	bf00      	nop
     ec8:	00009d36 	.word	0x00009d36

00000ecc <putchar>:
putchar():
/home/lubuntu/Dokument/GitHub/STM32-Computer/Firmware/STM32-Computer-Firmware/CA7/optee-os-3.19.0-r2/optee-os-stm32mp-3.19.0-stm32mp-r2/lib/libutee/trace_ext.c:71
     ecc:	b513      	push	{r0, r1, r4, lr}
/home/lubuntu/Dokument/GitHub/STM32-Computer/Firmware/STM32-Computer-Firmware/CA7/optee-os-3.19.0-r2/optee-os-stm32mp-3.19.0-stm32mp-r2/lib/libutee/trace_ext.c:72
     ece:	2300      	movs	r3, #0
     ed0:	f88d 0004 	strb.w	r0, [sp, #4]
/home/lubuntu/Dokument/GitHub/STM32-Computer/Firmware/STM32-Computer-Firmware/CA7/optee-os-3.19.0-r2/optee-os-stm32mp-3.19.0-stm32mp-r2/lib/libutee/trace_ext.c:71
     ed4:	4604      	mov	r4, r0
/home/lubuntu/Dokument/GitHub/STM32-Computer/Firmware/STM32-Computer-Firmware/CA7/optee-os-3.19.0-r2/optee-os-stm32mp-3.19.0-stm32mp-r2/lib/libutee/trace_ext.c:72
     ed6:	f88d 3005 	strb.w	r3, [sp, #5]
/home/lubuntu/Dokument/GitHub/STM32-Computer/Firmware/STM32-Computer-Firmware/CA7/optee-os-3.19.0-r2/optee-os-stm32mp-3.19.0-stm32mp-r2/lib/libutee/trace_ext.c:74
     eda:	f7ff fb2b 	bl	534 <trace_get_level>
     ede:	2800      	cmp	r0, #0
     ee0:	dd02      	ble.n	ee8 <putchar+0x1c>
/home/lubuntu/Dokument/GitHub/STM32-Computer/Firmware/STM32-Computer-Firmware/CA7/optee-os-3.19.0-r2/optee-os-stm32mp-3.19.0-stm32mp-r2/lib/libutee/trace_ext.c:75
     ee2:	a801      	add	r0, sp, #4
     ee4:	f7ff ffb6 	bl	e54 <trace_ext_puts>
/home/lubuntu/Dokument/GitHub/STM32-Computer/Firmware/STM32-Computer-Firmware/CA7/optee-os-3.19.0-r2/optee-os-stm32mp-3.19.0-stm32mp-r2/lib/libutee/trace_ext.c:82
     ee8:	b2e0      	uxtb	r0, r4
     eea:	b002      	add	sp, #8
     eec:	bd10      	pop	{r4, pc}
     eee:	bf00      	nop

00000ef0 <update_out_param>:
update_out_param():
/home/lubuntu/Dokument/GitHub/STM32-Computer/Firmware/STM32-Computer-Firmware/CA7/optee-os-3.19.0-r2/optee-os-stm32mp-3.19.0-stm32mp-r2/lib/libutee/tee_api.c:121
     ef0:	e92d 47f0 	stmdb	sp!, {r4, r5, r6, r7, r8, r9, sl, lr}
     ef4:	4607      	mov	r7, r0
/home/lubuntu/Dokument/GitHub/STM32-Computer/Firmware/STM32-Computer-Firmware/CA7/optee-os-3.19.0-r2/optee-os-stm32mp-3.19.0-stm32mp-r2/lib/libutee/tee_api.c:123
     ef6:	f8d2 a000 	ldr.w	sl, [r2]
/home/lubuntu/Dokument/GitHub/STM32-Computer/Firmware/STM32-Computer-Firmware/CA7/optee-os-3.19.0-r2/optee-os-stm32mp-3.19.0-stm32mp-r2/lib/libutee/tee_api.c:121
     efa:	4688      	mov	r8, r1
     efc:	4614      	mov	r4, r2
     efe:	4606      	mov	r6, r0
/home/lubuntu/Dokument/GitHub/STM32-Computer/Firmware/STM32-Computer-Firmware/CA7/optee-os-3.19.0-r2/optee-os-stm32mp-3.19.0-stm32mp-r2/lib/libutee/tee_api.c:123
     f00:	2500      	movs	r5, #0
/home/lubuntu/Dokument/GitHub/STM32-Computer/Firmware/STM32-Computer-Firmware/CA7/optee-os-3.19.0-r2/optee-os-stm32mp-3.19.0-stm32mp-r2/lib/libutee/tee_api.c:129
     f02:	fa2a f205 	lsr.w	r2, sl, r5
/home/lubuntu/Dokument/GitHub/STM32-Computer/Firmware/STM32-Computer-Firmware/CA7/optee-os-3.19.0-r2/optee-os-stm32mp-3.19.0-stm32mp-r2/lib/libutee/tee_api.c:126
     f06:	68a1      	ldr	r1, [r4, #8]
/home/lubuntu/Dokument/GitHub/STM32-Computer/Firmware/STM32-Computer-Firmware/CA7/optee-os-3.19.0-r2/optee-os-stm32mp-3.19.0-stm32mp-r2/lib/libutee/tee_api.c:129
     f08:	f012 0f0c 	tst.w	r2, #12
/home/lubuntu/Dokument/GitHub/STM32-Computer/Firmware/STM32-Computer-Firmware/CA7/optee-os-3.19.0-r2/optee-os-stm32mp-3.19.0-stm32mp-r2/lib/libutee/tee_api.c:127
     f0c:	f8d4 9010 	ldr.w	r9, [r4, #16]
/home/lubuntu/Dokument/GitHub/STM32-Computer/Firmware/STM32-Computer-Firmware/CA7/optee-os-3.19.0-r2/optee-os-stm32mp-3.19.0-stm32mp-r2/lib/libutee/tee_api.c:129
     f10:	f002 030f 	and.w	r3, r2, #15
     f14:	d107      	bne.n	f26 <update_out_param+0x36>
     f16:	f012 0f0e 	tst.w	r2, #14
     f1a:	d007      	beq.n	f2c <update_out_param+0x3c>
/home/lubuntu/Dokument/GitHub/STM32-Computer/Firmware/STM32-Computer-Firmware/CA7/optee-os-3.19.0-r2/optee-os-stm32mp-3.19.0-stm32mp-r2/lib/libutee/tee_api.c:126
     f1c:	f847 1015 	str.w	r1, [r7, r5, lsl #1]
/home/lubuntu/Dokument/GitHub/STM32-Computer/Firmware/STM32-Computer-Firmware/CA7/optee-os-3.19.0-r2/optee-os-stm32mp-3.19.0-stm32mp-r2/lib/libutee/tee_api.c:140
     f20:	f8c6 9004 	str.w	r9, [r6, #4]
/home/lubuntu/Dokument/GitHub/STM32-Computer/Firmware/STM32-Computer-Firmware/CA7/optee-os-3.19.0-r2/optee-os-stm32mp-3.19.0-stm32mp-r2/lib/libutee/tee_api.c:141
     f24:	e002      	b.n	f2c <update_out_param+0x3c>
/home/lubuntu/Dokument/GitHub/STM32-Computer/Firmware/STM32-Computer-Firmware/CA7/optee-os-3.19.0-r2/optee-os-stm32mp-3.19.0-stm32mp-r2/lib/libutee/tee_api.c:129
     f26:	3b06      	subs	r3, #6
     f28:	2b01      	cmp	r3, #1
     f2a:	d907      	bls.n	f3c <update_out_param+0x4c>
/home/lubuntu/Dokument/GitHub/STM32-Computer/Firmware/STM32-Computer-Firmware/CA7/optee-os-3.19.0-r2/optee-os-stm32mp-3.19.0-stm32mp-r2/lib/libutee/tee_api.c:125 (discriminator 2)
     f2c:	3504      	adds	r5, #4
     f2e:	3410      	adds	r4, #16
     f30:	2d10      	cmp	r5, #16
     f32:	f106 0608 	add.w	r6, r6, #8
     f36:	d1e4      	bne.n	f02 <update_out_param+0x12>
/home/lubuntu/Dokument/GitHub/STM32-Computer/Firmware/STM32-Computer-Firmware/CA7/optee-os-3.19.0-r2/optee-os-stm32mp-3.19.0-stm32mp-r2/lib/libutee/tee_api.c:146
     f38:	e8bd 87f0 	ldmia.w	sp!, {r4, r5, r6, r7, r8, r9, sl, pc}
/home/lubuntu/Dokument/GitHub/STM32-Computer/Firmware/STM32-Computer-Firmware/CA7/optee-os-3.19.0-r2/optee-os-stm32mp-3.19.0-stm32mp-r2/lib/libutee/tee_api.c:137
     f3c:	f858 1005 	ldr.w	r1, [r8, r5]
     f40:	2900      	cmp	r1, #0
     f42:	d0ed      	beq.n	f20 <update_out_param+0x30>
/home/lubuntu/Dokument/GitHub/STM32-Computer/Firmware/STM32-Computer-Firmware/CA7/optee-os-3.19.0-r2/optee-os-stm32mp-3.19.0-stm32mp-r2/lib/libutee/tee_api.c:139
     f44:	6872      	ldr	r2, [r6, #4]
/home/lubuntu/Dokument/GitHub/STM32-Computer/Firmware/STM32-Computer-Firmware/CA7/optee-os-3.19.0-r2/optee-os-stm32mp-3.19.0-stm32mp-r2/lib/libutee/tee_api.c:138
     f46:	f857 0015 	ldr.w	r0, [r7, r5, lsl #1]
     f4a:	454a      	cmp	r2, r9
     f4c:	bf28      	it	cs
     f4e:	464a      	movcs	r2, r9
     f50:	f7ff fa74 	bl	43c <memcpy>
     f54:	e7e4      	b.n	f20 <update_out_param+0x30>

00000f56 <TEE_CloseTASession>:
TEE_CloseTASession():
/home/lubuntu/Dokument/GitHub/STM32-Computer/Firmware/STM32-Computer-Firmware/CA7/optee-os-3.19.0-r2/optee-os-stm32mp-3.19.0-stm32mp-r2/lib/libutee/tee_api.c:195
     f56:	b508      	push	{r3, lr}
/home/lubuntu/Dokument/GitHub/STM32-Computer/Firmware/STM32-Computer-Firmware/CA7/optee-os-3.19.0-r2/optee-os-stm32mp-3.19.0-stm32mp-r2/lib/libutee/tee_api.c:196
     f58:	b130      	cbz	r0, f68 <TEE_CloseTASession+0x12>
/home/lubuntu/Dokument/GitHub/STM32-Computer/Firmware/STM32-Computer-Firmware/CA7/optee-os-3.19.0-r2/optee-os-stm32mp-3.19.0-stm32mp-r2/lib/libutee/tee_api.c:197
     f5a:	f003 e918 	blx	418c <_utee_close_ta_session>
/home/lubuntu/Dokument/GitHub/STM32-Computer/Firmware/STM32-Computer-Firmware/CA7/optee-os-3.19.0-r2/optee-os-stm32mp-3.19.0-stm32mp-r2/lib/libutee/tee_api.c:199
     f5e:	b118      	cbz	r0, f68 <TEE_CloseTASession+0x12>
/home/lubuntu/Dokument/GitHub/STM32-Computer/Firmware/STM32-Computer-Firmware/CA7/optee-os-3.19.0-r2/optee-os-stm32mp-3.19.0-stm32mp-r2/lib/libutee/tee_api.c:202
     f60:	e8bd 4008 	ldmia.w	sp!, {r3, lr}
/home/lubuntu/Dokument/GitHub/STM32-Computer/Firmware/STM32-Computer-Firmware/CA7/optee-os-3.19.0-r2/optee-os-stm32mp-3.19.0-stm32mp-r2/lib/libutee/tee_api.c:200
     f64:	f002 bc9a 	b.w	389c <TEE_Panic>
/home/lubuntu/Dokument/GitHub/STM32-Computer/Firmware/STM32-Computer-Firmware/CA7/optee-os-3.19.0-r2/optee-os-stm32mp-3.19.0-stm32mp-r2/lib/libutee/tee_api.c:202
     f68:	bd08      	pop	{r3, pc}

00000f6a <TEE_GetCancellationFlag>:
TEE_GetCancellationFlag():
/home/lubuntu/Dokument/GitHub/STM32-Computer/Firmware/STM32-Computer-Firmware/CA7/optee-os-3.19.0-r2/optee-os-stm32mp-3.19.0-stm32mp-r2/lib/libutee/tee_api.c:257
     f6a:	b507      	push	{r0, r1, r2, lr}
/home/lubuntu/Dokument/GitHub/STM32-Computer/Firmware/STM32-Computer-Firmware/CA7/optee-os-3.19.0-r2/optee-os-stm32mp-3.19.0-stm32mp-r2/lib/libutee/tee_api.c:259
     f6c:	a801      	add	r0, sp, #4
     f6e:	f003 e924 	blx	41b8 <_utee_get_cancellation_flag>
/home/lubuntu/Dokument/GitHub/STM32-Computer/Firmware/STM32-Computer-Firmware/CA7/optee-os-3.19.0-r2/optee-os-stm32mp-3.19.0-stm32mp-r2/lib/libutee/tee_api.c:261
     f72:	b108      	cbz	r0, f78 <TEE_GetCancellationFlag+0xe>
/home/lubuntu/Dokument/GitHub/STM32-Computer/Firmware/STM32-Computer-Firmware/CA7/optee-os-3.19.0-r2/optee-os-stm32mp-3.19.0-stm32mp-r2/lib/libutee/tee_api.c:262
     f74:	2300      	movs	r3, #0
     f76:	9301      	str	r3, [sp, #4]
/home/lubuntu/Dokument/GitHub/STM32-Computer/Firmware/STM32-Computer-Firmware/CA7/optee-os-3.19.0-r2/optee-os-stm32mp-3.19.0-stm32mp-r2/lib/libutee/tee_api.c:264
     f78:	9801      	ldr	r0, [sp, #4]
     f7a:	3800      	subs	r0, #0
     f7c:	bf18      	it	ne
     f7e:	2001      	movne	r0, #1
     f80:	b003      	add	sp, #12
     f82:	f85d fb04 	ldr.w	pc, [sp], #4

00000f86 <TEE_UnmaskCancellation>:
TEE_UnmaskCancellation():
/home/lubuntu/Dokument/GitHub/STM32-Computer/Firmware/STM32-Computer-Firmware/CA7/optee-os-3.19.0-r2/optee-os-stm32mp-3.19.0-stm32mp-r2/lib/libutee/tee_api.c:267
     f86:	b507      	push	{r0, r1, r2, lr}
/home/lubuntu/Dokument/GitHub/STM32-Computer/Firmware/STM32-Computer-Firmware/CA7/optee-os-3.19.0-r2/optee-os-stm32mp-3.19.0-stm32mp-r2/lib/libutee/tee_api.c:269
     f88:	a801      	add	r0, sp, #4
     f8a:	f003 e92a 	blx	41e0 <_utee_unmask_cancellation>
/home/lubuntu/Dokument/GitHub/STM32-Computer/Firmware/STM32-Computer-Firmware/CA7/optee-os-3.19.0-r2/optee-os-stm32mp-3.19.0-stm32mp-r2/lib/libutee/tee_api.c:271
     f8e:	b108      	cbz	r0, f94 <TEE_UnmaskCancellation+0xe>
/home/lubuntu/Dokument/GitHub/STM32-Computer/Firmware/STM32-Computer-Firmware/CA7/optee-os-3.19.0-r2/optee-os-stm32mp-3.19.0-stm32mp-r2/lib/libutee/tee_api.c:272
     f90:	f002 fc84 	bl	389c <TEE_Panic>
/home/lubuntu/Dokument/GitHub/STM32-Computer/Firmware/STM32-Computer-Firmware/CA7/optee-os-3.19.0-r2/optee-os-stm32mp-3.19.0-stm32mp-r2/lib/libutee/tee_api.c:274
     f94:	9801      	ldr	r0, [sp, #4]
     f96:	3800      	subs	r0, #0
     f98:	bf18      	it	ne
     f9a:	2001      	movne	r0, #1
     f9c:	b003      	add	sp, #12
     f9e:	f85d fb04 	ldr.w	pc, [sp], #4

00000fa2 <TEE_MaskCancellation>:
TEE_MaskCancellation():
/home/lubuntu/Dokument/GitHub/STM32-Computer/Firmware/STM32-Computer-Firmware/CA7/optee-os-3.19.0-r2/optee-os-stm32mp-3.19.0-stm32mp-r2/lib/libutee/tee_api.c:277
     fa2:	b507      	push	{r0, r1, r2, lr}
/home/lubuntu/Dokument/GitHub/STM32-Computer/Firmware/STM32-Computer-Firmware/CA7/optee-os-3.19.0-r2/optee-os-stm32mp-3.19.0-stm32mp-r2/lib/libutee/tee_api.c:279
     fa4:	a801      	add	r0, sp, #4
     fa6:	f003 e926 	blx	41f4 <_utee_mask_cancellation>
/home/lubuntu/Dokument/GitHub/STM32-Computer/Firmware/STM32-Computer-Firmware/CA7/optee-os-3.19.0-r2/optee-os-stm32mp-3.19.0-stm32mp-r2/lib/libutee/tee_api.c:281
     faa:	b108      	cbz	r0, fb0 <TEE_MaskCancellation+0xe>
/home/lubuntu/Dokument/GitHub/STM32-Computer/Firmware/STM32-Computer-Firmware/CA7/optee-os-3.19.0-r2/optee-os-stm32mp-3.19.0-stm32mp-r2/lib/libutee/tee_api.c:282
     fac:	f002 fc76 	bl	389c <TEE_Panic>
/home/lubuntu/Dokument/GitHub/STM32-Computer/Firmware/STM32-Computer-Firmware/CA7/optee-os-3.19.0-r2/optee-os-stm32mp-3.19.0-stm32mp-r2/lib/libutee/tee_api.c:284
     fb0:	9801      	ldr	r0, [sp, #4]
     fb2:	3800      	subs	r0, #0
     fb4:	bf18      	it	ne
     fb6:	2001      	movne	r0, #1
     fb8:	b003      	add	sp, #12
     fba:	f85d fb04 	ldr.w	pc, [sp], #4

00000fbe <TEE_CheckMemoryAccessRights>:
TEE_CheckMemoryAccessRights():
/home/lubuntu/Dokument/GitHub/STM32-Computer/Firmware/STM32-Computer-Firmware/CA7/optee-os-3.19.0-r2/optee-os-stm32mp-3.19.0-stm32mp-r2/lib/libutee/tee_api.c:293
     fbe:	b10a      	cbz	r2, fc4 <TEE_CheckMemoryAccessRights+0x6>
/home/lubuntu/Dokument/GitHub/STM32-Computer/Firmware/STM32-Computer-Firmware/CA7/optee-os-3.19.0-r2/optee-os-stm32mp-3.19.0-stm32mp-r2/lib/libutee/tee_api.c:297
     fc0:	f008 beba 	b.w	9d38 <___utee_check_access_rights_from_thumb>
/home/lubuntu/Dokument/GitHub/STM32-Computer/Firmware/STM32-Computer-Firmware/CA7/optee-os-3.19.0-r2/optee-os-stm32mp-3.19.0-stm32mp-r2/lib/libutee/tee_api.c:309
     fc4:	4610      	mov	r0, r2
     fc6:	4770      	bx	lr

00000fc8 <copy_param>:
copy_param():
/home/lubuntu/Dokument/GitHub/STM32-Computer/Firmware/STM32-Computer-Firmware/CA7/optee-os-3.19.0-r2/optee-os-stm32mp-3.19.0-stm32mp-r2/lib/libutee/tee_api.c:29
     fc8:	e92d 4ff0 	stmdb	sp!, {r4, r5, r6, r7, r8, r9, sl, fp, lr}
/home/lubuntu/Dokument/GitHub/STM32-Computer/Firmware/STM32-Computer-Firmware/CA7/optee-os-3.19.0-r2/optee-os-stm32mp-3.19.0-stm32mp-r2/lib/libutee/tee_api.c:34
     fcc:	2500      	movs	r5, #0
/home/lubuntu/Dokument/GitHub/STM32-Computer/Firmware/STM32-Computer-Firmware/CA7/optee-os-3.19.0-r2/optee-os-stm32mp-3.19.0-stm32mp-r2/lib/libutee/tee_api.c:29
     fce:	ed2d 8b02 	vpush	{d8}
/home/lubuntu/Dokument/GitHub/STM32-Computer/Firmware/STM32-Computer-Firmware/CA7/optee-os-3.19.0-r2/optee-os-stm32mp-3.19.0-stm32mp-r2/lib/libutee/tee_api.c:45
     fd2:	601d      	str	r5, [r3, #0]
/home/lubuntu/Dokument/GitHub/STM32-Computer/Firmware/STM32-Computer-Firmware/CA7/optee-os-3.19.0-r2/optee-os-stm32mp-3.19.0-stm32mp-r2/lib/libutee/tee_api.c:29
     fd4:	b085      	sub	sp, #20
     fd6:	4699      	mov	r9, r3
     fd8:	4604      	mov	r4, r0
/home/lubuntu/Dokument/GitHub/STM32-Computer/Firmware/STM32-Computer-Firmware/CA7/optee-os-3.19.0-r2/optee-os-stm32mp-3.19.0-stm32mp-r2/lib/libutee/tee_api.c:46
     fda:	9b10      	ldr	r3, [sp, #64]	@ 0x40
/home/lubuntu/Dokument/GitHub/STM32-Computer/Firmware/STM32-Computer-Firmware/CA7/optee-os-3.19.0-r2/optee-os-stm32mp-3.19.0-stm32mp-r2/lib/libutee/tee_api.c:29
     fdc:	4688      	mov	r8, r1
/home/lubuntu/Dokument/GitHub/STM32-Computer/Firmware/STM32-Computer-Firmware/CA7/optee-os-3.19.0-r2/optee-os-stm32mp-3.19.0-stm32mp-r2/lib/libutee/tee_api.c:34
     fde:	9503      	str	r5, [sp, #12]
/home/lubuntu/Dokument/GitHub/STM32-Computer/Firmware/STM32-Computer-Firmware/CA7/optee-os-3.19.0-r2/optee-os-stm32mp-3.19.0-stm32mp-r2/lib/libutee/tee_api.c:29
     fe0:	4617      	mov	r7, r2
/home/lubuntu/Dokument/GitHub/STM32-Computer/Firmware/STM32-Computer-Firmware/CA7/optee-os-3.19.0-r2/optee-os-stm32mp-3.19.0-stm32mp-r2/lib/libutee/tee_api.c:46
     fe2:	601d      	str	r5, [r3, #0]
/home/lubuntu/Dokument/GitHub/STM32-Computer/Firmware/STM32-Computer-Firmware/CA7/optee-os-3.19.0-r2/optee-os-stm32mp-3.19.0-stm32mp-r2/lib/libutee/tee_api.c:47
     fe4:	462e      	mov	r6, r5
/home/lubuntu/Dokument/GitHub/STM32-Computer/Firmware/STM32-Computer-Firmware/CA7/optee-os-3.19.0-r2/optee-os-stm32mp-3.19.0-stm32mp-r2/lib/libutee/tee_api.c:48
     fe6:	46ab      	mov	fp, r5
/home/lubuntu/Dokument/GitHub/STM32-Computer/Firmware/STM32-Computer-Firmware/CA7/optee-os-3.19.0-r2/optee-os-stm32mp-3.19.0-stm32mp-r2/lib/libutee/tee_api.c:54
     fe8:	f102 0a04 	add.w	sl, r2, #4
/home/lubuntu/Dokument/GitHub/STM32-Computer/Firmware/STM32-Computer-Firmware/CA7/optee-os-3.19.0-r2/optee-os-stm32mp-3.19.0-stm32mp-r2/lib/libutee/tee_api.c:49
     fec:	00b2      	lsls	r2, r6, #2
/home/lubuntu/Dokument/GitHub/STM32-Computer/Firmware/STM32-Computer-Firmware/CA7/optee-os-3.19.0-r2/optee-os-stm32mp-3.19.0-stm32mp-r2/lib/libutee/tee_api.c:48
     fee:	9b11      	ldr	r3, [sp, #68]	@ 0x44
/home/lubuntu/Dokument/GitHub/STM32-Computer/Firmware/STM32-Computer-Firmware/CA7/optee-os-3.19.0-r2/optee-os-stm32mp-3.19.0-stm32mp-r2/lib/libutee/tee_api.c:49
     ff0:	fa28 f202 	lsr.w	r2, r8, r2
/home/lubuntu/Dokument/GitHub/STM32-Computer/Firmware/STM32-Computer-Firmware/CA7/optee-os-3.19.0-r2/optee-os-stm32mp-3.19.0-stm32mp-r2/lib/libutee/tee_api.c:48
     ff4:	f843 b026 	str.w	fp, [r3, r6, lsl #2]
/home/lubuntu/Dokument/GitHub/STM32-Computer/Firmware/STM32-Computer-Firmware/CA7/optee-os-3.19.0-r2/optee-os-stm32mp-3.19.0-stm32mp-r2/lib/libutee/tee_api.c:49
     ff8:	f002 020f 	and.w	r2, r2, #15
     ffc:	3a05      	subs	r2, #5
     ffe:	2a02      	cmp	r2, #2
    1000:	d812      	bhi.n	1028 <copy_param+0x60>
/home/lubuntu/Dokument/GitHub/STM32-Computer/Firmware/STM32-Computer-Firmware/CA7/optee-os-3.19.0-r2/optee-os-stm32mp-3.19.0-stm32mp-r2/lib/libutee/tee_api.c:53
    1002:	f857 1036 	ldr.w	r1, [r7, r6, lsl #3]
/home/lubuntu/Dokument/GitHub/STM32-Computer/Firmware/STM32-Computer-Firmware/CA7/optee-os-3.19.0-r2/optee-os-stm32mp-3.19.0-stm32mp-r2/lib/libutee/tee_api.c:64
    1006:	b179      	cbz	r1, 1028 <copy_param+0x60>
/home/lubuntu/Dokument/GitHub/STM32-Computer/Firmware/STM32-Computer-Firmware/CA7/optee-os-3.19.0-r2/optee-os-stm32mp-3.19.0-stm32mp-r2/lib/libutee/tee_api.c:54 (discriminator 1)
    1008:	f85a 2036 	ldr.w	r2, [sl, r6, lsl #3]
/home/lubuntu/Dokument/GitHub/STM32-Computer/Firmware/STM32-Computer-Firmware/CA7/optee-os-3.19.0-r2/optee-os-stm32mp-3.19.0-stm32mp-r2/lib/libutee/tee_api.c:64 (discriminator 1)
    100c:	b162      	cbz	r2, 1028 <copy_param+0x60>
/home/lubuntu/Dokument/GitHub/STM32-Computer/Firmware/STM32-Computer-Firmware/CA7/optee-os-3.19.0-r2/optee-os-stm32mp-3.19.0-stm32mp-r2/lib/libutee/tee_api.c:65 (discriminator 2)
    100e:	9201      	str	r2, [sp, #4]
    1010:	2001      	movs	r0, #1
    1012:	f7ff ffd4 	bl	fbe <TEE_CheckMemoryAccessRights>
/home/lubuntu/Dokument/GitHub/STM32-Computer/Firmware/STM32-Computer-Firmware/CA7/optee-os-3.19.0-r2/optee-os-stm32mp-3.19.0-stm32mp-r2/lib/libutee/tee_api.c:64 (discriminator 2)
    1016:	b938      	cbnz	r0, 1028 <copy_param+0x60>
/home/lubuntu/Dokument/GitHub/STM32-Computer/Firmware/STM32-Computer-Firmware/CA7/optee-os-3.19.0-r2/optee-os-stm32mp-3.19.0-stm32mp-r2/lib/libutee/tee_api.c:67
    1018:	9a01      	ldr	r2, [sp, #4]
/home/lubuntu/Dokument/GitHub/STM32-Computer/Firmware/STM32-Computer-Firmware/CA7/optee-os-3.19.0-r2/optee-os-stm32mp-3.19.0-stm32mp-r2/lib/libutee/tee_api.c:66
    101a:	a903      	add	r1, sp, #12
    101c:	2001      	movs	r0, #1
    101e:	5470      	strb	r0, [r6, r1]
/home/lubuntu/Dokument/GitHub/STM32-Computer/Firmware/STM32-Computer-Firmware/CA7/optee-os-3.19.0-r2/optee-os-stm32mp-3.19.0-stm32mp-r2/lib/libutee/tee_api.c:67
    1020:	3207      	adds	r2, #7
    1022:	f022 0207 	bic.w	r2, r2, #7
    1026:	4415      	add	r5, r2
/home/lubuntu/Dokument/GitHub/STM32-Computer/Firmware/STM32-Computer-Firmware/CA7/optee-os-3.19.0-r2/optee-os-stm32mp-3.19.0-stm32mp-r2/lib/libutee/tee_api.c:47 (discriminator 2)
    1028:	3601      	adds	r6, #1
    102a:	2e04      	cmp	r6, #4
    102c:	d1de      	bne.n	fec <copy_param+0x24>
/home/lubuntu/Dokument/GitHub/STM32-Computer/Firmware/STM32-Computer-Firmware/CA7/optee-os-3.19.0-r2/optee-os-stm32mp-3.19.0-stm32mp-r2/lib/libutee/tee_api.c:75
    102e:	b315      	cbz	r5, 1076 <copy_param+0xae>
/home/lubuntu/Dokument/GitHub/STM32-Computer/Firmware/STM32-Computer-Firmware/CA7/optee-os-3.19.0-r2/optee-os-stm32mp-3.19.0-stm32mp-r2/lib/libutee/tee_api.c:76
    1030:	4631      	mov	r1, r6
    1032:	4628      	mov	r0, r5
    1034:	f002 ffda 	bl	3fec <tee_map_zi>
/home/lubuntu/Dokument/GitHub/STM32-Computer/Firmware/STM32-Computer-Firmware/CA7/optee-os-3.19.0-r2/optee-os-stm32mp-3.19.0-stm32mp-r2/lib/libutee/tee_api.c:77
    1038:	4603      	mov	r3, r0
    103a:	2800      	cmp	r0, #0
    103c:	d052      	beq.n	10e4 <copy_param+0x11c>
/home/lubuntu/Dokument/GitHub/STM32-Computer/Firmware/STM32-Computer-Firmware/CA7/optee-os-3.19.0-r2/optee-os-stm32mp-3.19.0-stm32mp-r2/lib/libutee/tee_api.c:80
    103e:	9a10      	ldr	r2, [sp, #64]	@ 0x40
/home/lubuntu/Dokument/GitHub/STM32-Computer/Firmware/STM32-Computer-Firmware/CA7/optee-os-3.19.0-r2/optee-os-stm32mp-3.19.0-stm32mp-r2/lib/libutee/tee_api.c:79
    1040:	f8c9 0000 	str.w	r0, [r9]
/home/lubuntu/Dokument/GitHub/STM32-Computer/Firmware/STM32-Computer-Firmware/CA7/optee-os-3.19.0-r2/optee-os-stm32mp-3.19.0-stm32mp-r2/lib/libutee/tee_api.c:80
    1044:	6015      	str	r5, [r2, #0]
/home/lubuntu/Dokument/GitHub/STM32-Computer/Firmware/STM32-Computer-Firmware/CA7/optee-os-3.19.0-r2/optee-os-stm32mp-3.19.0-stm32mp-r2/lib/libutee/tee_api.c:109
    1046:	ef80 8010 	vmov.i32	d8, #0	@ 0x00000000
/home/lubuntu/Dokument/GitHub/STM32-Computer/Firmware/STM32-Computer-Firmware/CA7/optee-os-3.19.0-r2/optee-os-stm32mp-3.19.0-stm32mp-r2/lib/libutee/tee_api.c:83
    104a:	2500      	movs	r5, #0
    104c:	463e      	mov	r6, r7
/home/lubuntu/Dokument/GitHub/STM32-Computer/Firmware/STM32-Computer-Firmware/CA7/optee-os-3.19.0-r2/optee-os-stm32mp-3.19.0-stm32mp-r2/lib/libutee/tee_api.c:88
    104e:	46a9      	mov	r9, r5
/home/lubuntu/Dokument/GitHub/STM32-Computer/Firmware/STM32-Computer-Firmware/CA7/optee-os-3.19.0-r2/optee-os-stm32mp-3.19.0-stm32mp-r2/lib/libutee/tee_api.c:89
    1050:	46aa      	mov	sl, r5
/home/lubuntu/Dokument/GitHub/STM32-Computer/Firmware/STM32-Computer-Firmware/CA7/optee-os-3.19.0-r2/optee-os-stm32mp-3.19.0-stm32mp-r2/lib/libutee/tee_api.c:83
    1052:	e9c4 8500 	strd	r8, r5, [r4]
/home/lubuntu/Dokument/GitHub/STM32-Computer/Firmware/STM32-Computer-Firmware/CA7/optee-os-3.19.0-r2/optee-os-stm32mp-3.19.0-stm32mp-r2/lib/libutee/tee_api.c:85
    1056:	00a9      	lsls	r1, r5, #2
    1058:	fa28 f101 	lsr.w	r1, r8, r1
    105c:	f001 020f 	and.w	r2, r1, #15
    1060:	2a03      	cmp	r2, #3
    1062:	d021      	beq.n	10a8 <copy_param+0xe0>
    1064:	f011 0f0c 	tst.w	r1, #12
    1068:	d107      	bne.n	107a <copy_param+0xb2>
    106a:	2a01      	cmp	r2, #1
    106c:	d01c      	beq.n	10a8 <copy_param+0xe0>
/home/lubuntu/Dokument/GitHub/STM32-Computer/Firmware/STM32-Computer-Firmware/CA7/optee-os-3.19.0-r2/optee-os-stm32mp-3.19.0-stm32mp-r2/lib/libutee/tee_api.c:111
    106e:	2200      	movs	r2, #0
/home/lubuntu/Dokument/GitHub/STM32-Computer/Firmware/STM32-Computer-Firmware/CA7/optee-os-3.19.0-r2/optee-os-stm32mp-3.19.0-stm32mp-r2/lib/libutee/tee_api.c:109
    1070:	ed84 8b02 	vstr	d8, [r4, #8]
/home/lubuntu/Dokument/GitHub/STM32-Computer/Firmware/STM32-Computer-Firmware/CA7/optee-os-3.19.0-r2/optee-os-stm32mp-3.19.0-stm32mp-r2/lib/libutee/tee_api.c:111
    1074:	e01d      	b.n	10b2 <copy_param+0xea>
/home/lubuntu/Dokument/GitHub/STM32-Computer/Firmware/STM32-Computer-Firmware/CA7/optee-os-3.19.0-r2/optee-os-stm32mp-3.19.0-stm32mp-r2/lib/libutee/tee_api.c:31
    1076:	462b      	mov	r3, r5
    1078:	e7e5      	b.n	1046 <copy_param+0x7e>
/home/lubuntu/Dokument/GitHub/STM32-Computer/Firmware/STM32-Computer-Firmware/CA7/optee-os-3.19.0-r2/optee-os-stm32mp-3.19.0-stm32mp-r2/lib/libutee/tee_api.c:85
    107a:	1f51      	subs	r1, r2, #5
    107c:	2902      	cmp	r1, #2
    107e:	d8f6      	bhi.n	106e <copy_param+0xa6>
/home/lubuntu/Dokument/GitHub/STM32-Computer/Firmware/STM32-Computer-Firmware/CA7/optee-os-3.19.0-r2/optee-os-stm32mp-3.19.0-stm32mp-r2/lib/libutee/tee_api.c:94
    1080:	f8d6 b004 	ldr.w	fp, [r6, #4]
/home/lubuntu/Dokument/GitHub/STM32-Computer/Firmware/STM32-Computer-Firmware/CA7/optee-os-3.19.0-r2/optee-os-stm32mp-3.19.0-stm32mp-r2/lib/libutee/tee_api.c:95
    1084:	a903      	add	r1, sp, #12
    1086:	5c69      	ldrb	r1, [r5, r1]
    1088:	b349      	cbz	r1, 10de <copy_param+0x116>
/home/lubuntu/Dokument/GitHub/STM32-Computer/Firmware/STM32-Computer-Firmware/CA7/optee-os-3.19.0-r2/optee-os-stm32mp-3.19.0-stm32mp-r2/lib/libutee/tee_api.c:97
    108a:	9911      	ldr	r1, [sp, #68]	@ 0x44
/home/lubuntu/Dokument/GitHub/STM32-Computer/Firmware/STM32-Computer-Firmware/CA7/optee-os-3.19.0-r2/optee-os-stm32mp-3.19.0-stm32mp-r2/lib/libutee/tee_api.c:99
    108c:	2a06      	cmp	r2, #6
/home/lubuntu/Dokument/GitHub/STM32-Computer/Firmware/STM32-Computer-Firmware/CA7/optee-os-3.19.0-r2/optee-os-stm32mp-3.19.0-stm32mp-r2/lib/libutee/tee_api.c:97
    108e:	f841 3025 	str.w	r3, [r1, r5, lsl #2]
/home/lubuntu/Dokument/GitHub/STM32-Computer/Firmware/STM32-Computer-Firmware/CA7/optee-os-3.19.0-r2/optee-os-stm32mp-3.19.0-stm32mp-r2/lib/libutee/tee_api.c:99
    1092:	d11c      	bne.n	10ce <copy_param+0x106>
/home/lubuntu/Dokument/GitHub/STM32-Computer/Firmware/STM32-Computer-Firmware/CA7/optee-os-3.19.0-r2/optee-os-stm32mp-3.19.0-stm32mp-r2/lib/libutee/tee_api.c:98
    1094:	f10b 0207 	add.w	r2, fp, #7
    1098:	4619      	mov	r1, r3
    109a:	f022 0207 	bic.w	r2, r2, #7
    109e:	4413      	add	r3, r2
/home/lubuntu/Dokument/GitHub/STM32-Computer/Firmware/STM32-Computer-Firmware/CA7/optee-os-3.19.0-r2/optee-os-stm32mp-3.19.0-stm32mp-r2/lib/libutee/tee_api.c:106
    10a0:	465a      	mov	r2, fp
/home/lubuntu/Dokument/GitHub/STM32-Computer/Firmware/STM32-Computer-Firmware/CA7/optee-os-3.19.0-r2/optee-os-stm32mp-3.19.0-stm32mp-r2/lib/libutee/tee_api.c:105
    10a2:	e9c4 1902 	strd	r1, r9, [r4, #8]
/home/lubuntu/Dokument/GitHub/STM32-Computer/Firmware/STM32-Computer-Firmware/CA7/optee-os-3.19.0-r2/optee-os-stm32mp-3.19.0-stm32mp-r2/lib/libutee/tee_api.c:107
    10a6:	e004      	b.n	10b2 <copy_param+0xea>
/home/lubuntu/Dokument/GitHub/STM32-Computer/Firmware/STM32-Computer-Firmware/CA7/optee-os-3.19.0-r2/optee-os-stm32mp-3.19.0-stm32mp-r2/lib/libutee/tee_api.c:88
    10a8:	f857 2035 	ldr.w	r2, [r7, r5, lsl #3]
    10ac:	e9c4 2902 	strd	r2, r9, [r4, #8]
/home/lubuntu/Dokument/GitHub/STM32-Computer/Firmware/STM32-Computer-Firmware/CA7/optee-os-3.19.0-r2/optee-os-stm32mp-3.19.0-stm32mp-r2/lib/libutee/tee_api.c:89
    10b0:	6872      	ldr	r2, [r6, #4]
/home/lubuntu/Dokument/GitHub/STM32-Computer/Firmware/STM32-Computer-Firmware/CA7/optee-os-3.19.0-r2/optee-os-stm32mp-3.19.0-stm32mp-r2/lib/libutee/tee_api.c:84 (discriminator 2)
    10b2:	3501      	adds	r5, #1
    10b4:	3608      	adds	r6, #8
    10b6:	2d04      	cmp	r5, #4
/home/lubuntu/Dokument/GitHub/STM32-Computer/Firmware/STM32-Computer-Firmware/CA7/optee-os-3.19.0-r2/optee-os-stm32mp-3.19.0-stm32mp-r2/lib/libutee/tee_api.c:110 (discriminator 2)
    10b8:	e9c4 2a04 	strd	r2, sl, [r4, #16]
/home/lubuntu/Dokument/GitHub/STM32-Computer/Firmware/STM32-Computer-Firmware/CA7/optee-os-3.19.0-r2/optee-os-stm32mp-3.19.0-stm32mp-r2/lib/libutee/tee_api.c:84 (discriminator 2)
    10bc:	f104 0410 	add.w	r4, r4, #16
    10c0:	d1c9      	bne.n	1056 <copy_param+0x8e>
/home/lubuntu/Dokument/GitHub/STM32-Computer/Firmware/STM32-Computer-Firmware/CA7/optee-os-3.19.0-r2/optee-os-stm32mp-3.19.0-stm32mp-r2/lib/libutee/tee_api.c:115
    10c2:	2000      	movs	r0, #0
/home/lubuntu/Dokument/GitHub/STM32-Computer/Firmware/STM32-Computer-Firmware/CA7/optee-os-3.19.0-r2/optee-os-stm32mp-3.19.0-stm32mp-r2/lib/libutee/tee_api.c:116
    10c4:	b005      	add	sp, #20
    10c6:	ecbd 8b02 	vpop	{d8}
    10ca:	e8bd 8ff0 	ldmia.w	sp!, {r4, r5, r6, r7, r8, r9, sl, fp, pc}
/home/lubuntu/Dokument/GitHub/STM32-Computer/Firmware/STM32-Computer-Firmware/CA7/optee-os-3.19.0-r2/optee-os-stm32mp-3.19.0-stm32mp-r2/lib/libutee/tee_api.c:101
    10ce:	f857 1035 	ldr.w	r1, [r7, r5, lsl #3]
    10d2:	4618      	mov	r0, r3
    10d4:	465a      	mov	r2, fp
    10d6:	f7ff f9b1 	bl	43c <memcpy>
    10da:	4603      	mov	r3, r0
    10dc:	e7da      	b.n	1094 <copy_param+0xcc>
/home/lubuntu/Dokument/GitHub/STM32-Computer/Firmware/STM32-Computer-Firmware/CA7/optee-os-3.19.0-r2/optee-os-stm32mp-3.19.0-stm32mp-r2/lib/libutee/tee_api.c:103
    10de:	f857 1035 	ldr.w	r1, [r7, r5, lsl #3]
    10e2:	e7dd      	b.n	10a0 <copy_param+0xd8>
/home/lubuntu/Dokument/GitHub/STM32-Computer/Firmware/STM32-Computer-Firmware/CA7/optee-os-3.19.0-r2/optee-os-stm32mp-3.19.0-stm32mp-r2/lib/libutee/tee_api.c:78
    10e4:	4800      	ldr	r0, [pc, #0]	@ (10e8 <copy_param+0x120>)
    10e6:	e7ed      	b.n	10c4 <copy_param+0xfc>
    10e8:	ffff000c 	.word	0xffff000c

000010ec <TEE_OpenTASession>:
TEE_OpenTASession():
/home/lubuntu/Dokument/GitHub/STM32-Computer/Firmware/STM32-Computer-Firmware/CA7/optee-os-3.19.0-r2/optee-os-stm32mp-3.19.0-stm32mp-r2/lib/libutee/tee_api.c:160
    10ec:	efc0 0010 	vmov.i32	d16, #0	@ 0x00000000
/home/lubuntu/Dokument/GitHub/STM32-Computer/Firmware/STM32-Computer-Firmware/CA7/optee-os-3.19.0-r2/optee-os-stm32mp-3.19.0-stm32mp-r2/lib/libutee/tee_api.c:154
    10f0:	e92d 47f0 	stmdb	sp!, {r4, r5, r6, r7, r8, r9, sl, lr}
    10f4:	b09c      	sub	sp, #112	@ 0x70
    10f6:	461d      	mov	r5, r3
/home/lubuntu/Dokument/GitHub/STM32-Computer/Firmware/STM32-Computer-Firmware/CA7/optee-os-3.19.0-r2/optee-os-stm32mp-3.19.0-stm32mp-r2/lib/libutee/tee_api.c:157
    10f8:	2300      	movs	r3, #0
/home/lubuntu/Dokument/GitHub/STM32-Computer/Firmware/STM32-Computer-Firmware/CA7/optee-os-3.19.0-r2/optee-os-stm32mp-3.19.0-stm32mp-r2/lib/libutee/tee_api.c:154
    10fa:	f8dd 9090 	ldr.w	r9, [sp, #144]	@ 0x90
/home/lubuntu/Dokument/GitHub/STM32-Computer/Firmware/STM32-Computer-Firmware/CA7/optee-os-3.19.0-r2/optee-os-stm32mp-3.19.0-stm32mp-r2/lib/libutee/tee_api.c:160
    10fe:	ae06      	add	r6, sp, #24
    1100:	edcd 0b06 	vstr	d16, [sp, #24]
/home/lubuntu/Dokument/GitHub/STM32-Computer/Firmware/STM32-Computer-Firmware/CA7/optee-os-3.19.0-r2/optee-os-stm32mp-3.19.0-stm32mp-r2/lib/libutee/tee_api.c:157
    1104:	9303      	str	r3, [sp, #12]
/home/lubuntu/Dokument/GitHub/STM32-Computer/Firmware/STM32-Computer-Firmware/CA7/optee-os-3.19.0-r2/optee-os-stm32mp-3.19.0-stm32mp-r2/lib/libutee/tee_api.c:154
    1106:	4607      	mov	r7, r0
    1108:	4688      	mov	r8, r1
/home/lubuntu/Dokument/GitHub/STM32-Computer/Firmware/STM32-Computer-Firmware/CA7/optee-os-3.19.0-r2/optee-os-stm32mp-3.19.0-stm32mp-r2/lib/libutee/tee_api.c:162
    110a:	4614      	mov	r4, r2
/home/lubuntu/Dokument/GitHub/STM32-Computer/Firmware/STM32-Computer-Firmware/CA7/optee-os-3.19.0-r2/optee-os-stm32mp-3.19.0-stm32mp-r2/lib/libutee/tee_api.c:160
    110c:	edc6 0b02 	vstr	d16, [r6, #8]
/home/lubuntu/Dokument/GitHub/STM32-Computer/Firmware/STM32-Computer-Firmware/CA7/optee-os-3.19.0-r2/optee-os-stm32mp-3.19.0-stm32mp-r2/lib/libutee/tee_api.c:162
    1110:	b11a      	cbz	r2, 111a <TEE_OpenTASession+0x2e>
/home/lubuntu/Dokument/GitHub/STM32-Computer/Firmware/STM32-Computer-Firmware/CA7/optee-os-3.19.0-r2/optee-os-stm32mp-3.19.0-stm32mp-r2/lib/libutee/tee_api.c:163
    1112:	2120      	movs	r1, #32
    1114:	4628      	mov	r0, r5
    1116:	f002 fc03 	bl	3920 <__utee_check_inout_annotation>
/home/lubuntu/Dokument/GitHub/STM32-Computer/Firmware/STM32-Computer-Firmware/CA7/optee-os-3.19.0-r2/optee-os-stm32mp-3.19.0-stm32mp-r2/lib/libutee/tee_api.c:166
    111a:	2104      	movs	r1, #4
    111c:	4648      	mov	r0, r9
/home/lubuntu/Dokument/GitHub/STM32-Computer/Firmware/STM32-Computer-Firmware/CA7/optee-os-3.19.0-r2/optee-os-stm32mp-3.19.0-stm32mp-r2/lib/libutee/tee_api.c:168
    111e:	f10d 0a28 	add.w	sl, sp, #40	@ 0x28
/home/lubuntu/Dokument/GitHub/STM32-Computer/Firmware/STM32-Computer-Firmware/CA7/optee-os-3.19.0-r2/optee-os-stm32mp-3.19.0-stm32mp-r2/lib/libutee/tee_api.c:166
    1122:	f002 fbe6 	bl	38f2 <__utee_check_out_annotation>
/home/lubuntu/Dokument/GitHub/STM32-Computer/Firmware/STM32-Computer-Firmware/CA7/optee-os-3.19.0-r2/optee-os-stm32mp-3.19.0-stm32mp-r2/lib/libutee/tee_api.c:168
    1126:	9601      	str	r6, [sp, #4]
    1128:	ab05      	add	r3, sp, #20
    112a:	9300      	str	r3, [sp, #0]
    112c:	4621      	mov	r1, r4
    112e:	ab04      	add	r3, sp, #16
    1130:	462a      	mov	r2, r5
    1132:	4650      	mov	r0, sl
    1134:	f7ff ff48 	bl	fc8 <copy_param>
/home/lubuntu/Dokument/GitHub/STM32-Computer/Firmware/STM32-Computer-Firmware/CA7/optee-os-3.19.0-r2/optee-os-stm32mp-3.19.0-stm32mp-r2/lib/libutee/tee_api.c:169
    1138:	4604      	mov	r4, r0
    113a:	b9b0      	cbnz	r0, 116a <TEE_OpenTASession+0x7e>
/home/lubuntu/Dokument/GitHub/STM32-Computer/Firmware/STM32-Computer-Firmware/CA7/optee-os-3.19.0-r2/optee-os-stm32mp-3.19.0-stm32mp-r2/lib/libutee/tee_api.c:171
    113c:	9b25      	ldr	r3, [sp, #148]	@ 0x94
    113e:	4652      	mov	r2, sl
    1140:	4641      	mov	r1, r8
    1142:	4638      	mov	r0, r7
    1144:	9300      	str	r3, [sp, #0]
    1146:	ab03      	add	r3, sp, #12
    1148:	f003 e814 	blx	4174 <_utee_open_ta_session>
    114c:	4604      	mov	r4, r0
/home/lubuntu/Dokument/GitHub/STM32-Computer/Firmware/STM32-Computer-Firmware/CA7/optee-os-3.19.0-r2/optee-os-stm32mp-3.19.0-stm32mp-r2/lib/libutee/tee_api.c:173
    114e:	4652      	mov	r2, sl
    1150:	4628      	mov	r0, r5
    1152:	4631      	mov	r1, r6
    1154:	f7ff fecc 	bl	ef0 <update_out_param>
/home/lubuntu/Dokument/GitHub/STM32-Computer/Firmware/STM32-Computer-Firmware/CA7/optee-os-3.19.0-r2/optee-os-stm32mp-3.19.0-stm32mp-r2/lib/libutee/tee_api.c:174
    1158:	9804      	ldr	r0, [sp, #16]
    115a:	b128      	cbz	r0, 1168 <TEE_OpenTASession+0x7c>
/home/lubuntu/Dokument/GitHub/STM32-Computer/Firmware/STM32-Computer-Firmware/CA7/optee-os-3.19.0-r2/optee-os-stm32mp-3.19.0-stm32mp-r2/lib/libutee/tee_api.c:175
    115c:	9905      	ldr	r1, [sp, #20]
    115e:	f002 ff60 	bl	4022 <tee_unmap>
/home/lubuntu/Dokument/GitHub/STM32-Computer/Firmware/STM32-Computer-Firmware/CA7/optee-os-3.19.0-r2/optee-os-stm32mp-3.19.0-stm32mp-r2/lib/libutee/tee_api.c:177
    1162:	b108      	cbz	r0, 1168 <TEE_OpenTASession+0x7c>
/home/lubuntu/Dokument/GitHub/STM32-Computer/Firmware/STM32-Computer-Firmware/CA7/optee-os-3.19.0-r2/optee-os-stm32mp-3.19.0-stm32mp-r2/lib/libutee/tee_api.c:178
    1164:	f002 fb9a 	bl	389c <TEE_Panic>
/home/lubuntu/Dokument/GitHub/STM32-Computer/Firmware/STM32-Computer-Firmware/CA7/optee-os-3.19.0-r2/optee-os-stm32mp-3.19.0-stm32mp-r2/lib/libutee/tee_api.c:187
    1168:	b10c      	cbz	r4, 116e <TEE_OpenTASession+0x82>
/home/lubuntu/Dokument/GitHub/STM32-Computer/Firmware/STM32-Computer-Firmware/CA7/optee-os-3.19.0-r2/optee-os-stm32mp-3.19.0-stm32mp-r2/lib/libutee/tee_api.c:188
    116a:	2300      	movs	r3, #0
    116c:	9303      	str	r3, [sp, #12]
/home/lubuntu/Dokument/GitHub/STM32-Computer/Firmware/STM32-Computer-Firmware/CA7/optee-os-3.19.0-r2/optee-os-stm32mp-3.19.0-stm32mp-r2/lib/libutee/tee_api.c:190
    116e:	9b03      	ldr	r3, [sp, #12]
/home/lubuntu/Dokument/GitHub/STM32-Computer/Firmware/STM32-Computer-Firmware/CA7/optee-os-3.19.0-r2/optee-os-stm32mp-3.19.0-stm32mp-r2/lib/libutee/tee_api.c:192
    1170:	4620      	mov	r0, r4
/home/lubuntu/Dokument/GitHub/STM32-Computer/Firmware/STM32-Computer-Firmware/CA7/optee-os-3.19.0-r2/optee-os-stm32mp-3.19.0-stm32mp-r2/lib/libutee/tee_api.c:190
    1172:	f8c9 3000 	str.w	r3, [r9]
/home/lubuntu/Dokument/GitHub/STM32-Computer/Firmware/STM32-Computer-Firmware/CA7/optee-os-3.19.0-r2/optee-os-stm32mp-3.19.0-stm32mp-r2/lib/libutee/tee_api.c:192
    1176:	b01c      	add	sp, #112	@ 0x70
    1178:	e8bd 87f0 	ldmia.w	sp!, {r4, r5, r6, r7, r8, r9, sl, pc}

0000117c <TEE_InvokeTACommand>:
TEE_InvokeTACommand():
/home/lubuntu/Dokument/GitHub/STM32-Computer/Firmware/STM32-Computer-Firmware/CA7/optee-os-3.19.0-r2/optee-os-stm32mp-3.19.0-stm32mp-r2/lib/libutee/tee_api.c:215
    117c:	efc0 0010 	vmov.i32	d16, #0	@ 0x00000000
/home/lubuntu/Dokument/GitHub/STM32-Computer/Firmware/STM32-Computer-Firmware/CA7/optee-os-3.19.0-r2/optee-os-stm32mp-3.19.0-stm32mp-r2/lib/libutee/tee_api.c:209
    1180:	e92d 4ff0 	stmdb	sp!, {r4, r5, r6, r7, r8, r9, sl, fp, lr}
    1184:	b09d      	sub	sp, #116	@ 0x74
    1186:	4693      	mov	fp, r2
/home/lubuntu/Dokument/GitHub/STM32-Computer/Firmware/STM32-Computer-Firmware/CA7/optee-os-3.19.0-r2/optee-os-stm32mp-3.19.0-stm32mp-r2/lib/libutee/tee_api.c:211
    1188:	2203      	movs	r2, #3
    118a:	9203      	str	r2, [sp, #12]
/home/lubuntu/Dokument/GitHub/STM32-Computer/Firmware/STM32-Computer-Firmware/CA7/optee-os-3.19.0-r2/optee-os-stm32mp-3.19.0-stm32mp-r2/lib/libutee/tee_api.c:215
    118c:	af06      	add	r7, sp, #24
    118e:	edcd 0b06 	vstr	d16, [sp, #24]
/home/lubuntu/Dokument/GitHub/STM32-Computer/Firmware/STM32-Computer-Firmware/CA7/optee-os-3.19.0-r2/optee-os-stm32mp-3.19.0-stm32mp-r2/lib/libutee/tee_api.c:209
    1192:	4681      	mov	r9, r0
    1194:	468a      	mov	sl, r1
    1196:	e9dd 6526 	ldrd	r6, r5, [sp, #152]	@ 0x98
/home/lubuntu/Dokument/GitHub/STM32-Computer/Firmware/STM32-Computer-Firmware/CA7/optee-os-3.19.0-r2/optee-os-stm32mp-3.19.0-stm32mp-r2/lib/libutee/tee_api.c:217
    119a:	461c      	mov	r4, r3
/home/lubuntu/Dokument/GitHub/STM32-Computer/Firmware/STM32-Computer-Firmware/CA7/optee-os-3.19.0-r2/optee-os-stm32mp-3.19.0-stm32mp-r2/lib/libutee/tee_api.c:215
    119c:	edc7 0b02 	vstr	d16, [r7, #8]
/home/lubuntu/Dokument/GitHub/STM32-Computer/Firmware/STM32-Computer-Firmware/CA7/optee-os-3.19.0-r2/optee-os-stm32mp-3.19.0-stm32mp-r2/lib/libutee/tee_api.c:217
    11a0:	b11b      	cbz	r3, 11aa <TEE_InvokeTACommand+0x2e>
/home/lubuntu/Dokument/GitHub/STM32-Computer/Firmware/STM32-Computer-Firmware/CA7/optee-os-3.19.0-r2/optee-os-stm32mp-3.19.0-stm32mp-r2/lib/libutee/tee_api.c:218
    11a2:	2120      	movs	r1, #32
    11a4:	4630      	mov	r0, r6
    11a6:	f002 fbbb 	bl	3920 <__utee_check_inout_annotation>
/home/lubuntu/Dokument/GitHub/STM32-Computer/Firmware/STM32-Computer-Firmware/CA7/optee-os-3.19.0-r2/optee-os-stm32mp-3.19.0-stm32mp-r2/lib/libutee/tee_api.c:221
    11aa:	b11d      	cbz	r5, 11b4 <TEE_InvokeTACommand+0x38>
/home/lubuntu/Dokument/GitHub/STM32-Computer/Firmware/STM32-Computer-Firmware/CA7/optee-os-3.19.0-r2/optee-os-stm32mp-3.19.0-stm32mp-r2/lib/libutee/tee_api.c:222
    11ac:	2104      	movs	r1, #4
    11ae:	4628      	mov	r0, r5
    11b0:	f002 fb9f 	bl	38f2 <__utee_check_out_annotation>
/home/lubuntu/Dokument/GitHub/STM32-Computer/Firmware/STM32-Computer-Firmware/CA7/optee-os-3.19.0-r2/optee-os-stm32mp-3.19.0-stm32mp-r2/lib/libutee/tee_api.c:225
    11b4:	9701      	str	r7, [sp, #4]
    11b6:	ab05      	add	r3, sp, #20
    11b8:	9300      	str	r3, [sp, #0]
    11ba:	f10d 0828 	add.w	r8, sp, #40	@ 0x28
    11be:	4621      	mov	r1, r4
    11c0:	ab04      	add	r3, sp, #16
    11c2:	4632      	mov	r2, r6
    11c4:	4640      	mov	r0, r8
    11c6:	f7ff feff 	bl	fc8 <copy_param>
/home/lubuntu/Dokument/GitHub/STM32-Computer/Firmware/STM32-Computer-Firmware/CA7/optee-os-3.19.0-r2/optee-os-stm32mp-3.19.0-stm32mp-r2/lib/libutee/tee_api.c:226
    11ca:	4604      	mov	r4, r0
    11cc:	b140      	cbz	r0, 11e0 <TEE_InvokeTACommand+0x64>
/home/lubuntu/Dokument/GitHub/STM32-Computer/Firmware/STM32-Computer-Firmware/CA7/optee-os-3.19.0-r2/optee-os-stm32mp-3.19.0-stm32mp-r2/lib/libutee/tee_api.c:241
    11ce:	9b03      	ldr	r3, [sp, #12]
/home/lubuntu/Dokument/GitHub/STM32-Computer/Firmware/STM32-Computer-Firmware/CA7/optee-os-3.19.0-r2/optee-os-stm32mp-3.19.0-stm32mp-r2/lib/libutee/tee_api.c:240
    11d0:	b105      	cbz	r5, 11d4 <TEE_InvokeTACommand+0x58>
/home/lubuntu/Dokument/GitHub/STM32-Computer/Firmware/STM32-Computer-Firmware/CA7/optee-os-3.19.0-r2/optee-os-stm32mp-3.19.0-stm32mp-r2/lib/libutee/tee_api.c:241
    11d2:	602b      	str	r3, [r5, #0]
/home/lubuntu/Dokument/GitHub/STM32-Computer/Firmware/STM32-Computer-Firmware/CA7/optee-os-3.19.0-r2/optee-os-stm32mp-3.19.0-stm32mp-r2/lib/libutee/tee_api.c:243
    11d4:	2b04      	cmp	r3, #4
    11d6:	d120      	bne.n	121a <TEE_InvokeTACommand+0x9e>
/home/lubuntu/Dokument/GitHub/STM32-Computer/Firmware/STM32-Computer-Firmware/CA7/optee-os-3.19.0-r2/optee-os-stm32mp-3.19.0-stm32mp-r2/lib/libutee/tee_api.c:252
    11d8:	4620      	mov	r0, r4
    11da:	b01d      	add	sp, #116	@ 0x74
    11dc:	e8bd 8ff0 	ldmia.w	sp!, {r4, r5, r6, r7, r8, r9, sl, fp, pc}
/home/lubuntu/Dokument/GitHub/STM32-Computer/Firmware/STM32-Computer-Firmware/CA7/optee-os-3.19.0-r2/optee-os-stm32mp-3.19.0-stm32mp-r2/lib/libutee/tee_api.c:228
    11e0:	ab03      	add	r3, sp, #12
    11e2:	465a      	mov	r2, fp
    11e4:	9300      	str	r3, [sp, #0]
    11e6:	4651      	mov	r1, sl
    11e8:	4643      	mov	r3, r8
    11ea:	4648      	mov	r0, r9
    11ec:	f002 efd8 	blx	41a0 <_utee_invoke_ta_command>
    11f0:	4604      	mov	r4, r0
/home/lubuntu/Dokument/GitHub/STM32-Computer/Firmware/STM32-Computer-Firmware/CA7/optee-os-3.19.0-r2/optee-os-stm32mp-3.19.0-stm32mp-r2/lib/libutee/tee_api.c:231
    11f2:	4642      	mov	r2, r8
    11f4:	4630      	mov	r0, r6
    11f6:	4639      	mov	r1, r7
    11f8:	f7ff fe7a 	bl	ef0 <update_out_param>
/home/lubuntu/Dokument/GitHub/STM32-Computer/Firmware/STM32-Computer-Firmware/CA7/optee-os-3.19.0-r2/optee-os-stm32mp-3.19.0-stm32mp-r2/lib/libutee/tee_api.c:232
    11fc:	9804      	ldr	r0, [sp, #16]
    11fe:	b128      	cbz	r0, 120c <TEE_InvokeTACommand+0x90>
/home/lubuntu/Dokument/GitHub/STM32-Computer/Firmware/STM32-Computer-Firmware/CA7/optee-os-3.19.0-r2/optee-os-stm32mp-3.19.0-stm32mp-r2/lib/libutee/tee_api.c:233
    1200:	9905      	ldr	r1, [sp, #20]
    1202:	f002 ff0e 	bl	4022 <tee_unmap>
/home/lubuntu/Dokument/GitHub/STM32-Computer/Firmware/STM32-Computer-Firmware/CA7/optee-os-3.19.0-r2/optee-os-stm32mp-3.19.0-stm32mp-r2/lib/libutee/tee_api.c:235
    1206:	b108      	cbz	r0, 120c <TEE_InvokeTACommand+0x90>
/home/lubuntu/Dokument/GitHub/STM32-Computer/Firmware/STM32-Computer-Firmware/CA7/optee-os-3.19.0-r2/optee-os-stm32mp-3.19.0-stm32mp-r2/lib/libutee/tee_api.c:236
    1208:	f002 fb48 	bl	389c <TEE_Panic>
/home/lubuntu/Dokument/GitHub/STM32-Computer/Firmware/STM32-Computer-Firmware/CA7/optee-os-3.19.0-r2/optee-os-stm32mp-3.19.0-stm32mp-r2/lib/libutee/tee_api.c:241
    120c:	9b03      	ldr	r3, [sp, #12]
/home/lubuntu/Dokument/GitHub/STM32-Computer/Firmware/STM32-Computer-Firmware/CA7/optee-os-3.19.0-r2/optee-os-stm32mp-3.19.0-stm32mp-r2/lib/libutee/tee_api.c:240
    120e:	b105      	cbz	r5, 1212 <TEE_InvokeTACommand+0x96>
/home/lubuntu/Dokument/GitHub/STM32-Computer/Firmware/STM32-Computer-Firmware/CA7/optee-os-3.19.0-r2/optee-os-stm32mp-3.19.0-stm32mp-r2/lib/libutee/tee_api.c:241
    1210:	602b      	str	r3, [r5, #0]
/home/lubuntu/Dokument/GitHub/STM32-Computer/Firmware/STM32-Computer-Firmware/CA7/optee-os-3.19.0-r2/optee-os-stm32mp-3.19.0-stm32mp-r2/lib/libutee/tee_api.c:243
    1212:	2b04      	cmp	r3, #4
    1214:	d0e0      	beq.n	11d8 <TEE_InvokeTACommand+0x5c>
/home/lubuntu/Dokument/GitHub/STM32-Computer/Firmware/STM32-Computer-Firmware/CA7/optee-os-3.19.0-r2/optee-os-stm32mp-3.19.0-stm32mp-r2/lib/libutee/tee_api.c:246
    1216:	2c00      	cmp	r4, #0
    1218:	d0de      	beq.n	11d8 <TEE_InvokeTACommand+0x5c>
/home/lubuntu/Dokument/GitHub/STM32-Computer/Firmware/STM32-Computer-Firmware/CA7/optee-os-3.19.0-r2/optee-os-stm32mp-3.19.0-stm32mp-r2/lib/libutee/tee_api.c:246 (discriminator 1)
    121a:	4b05      	ldr	r3, [pc, #20]	@ (1230 <TEE_InvokeTACommand+0xb4>)
    121c:	429c      	cmp	r4, r3
    121e:	d0db      	beq.n	11d8 <TEE_InvokeTACommand+0x5c>
/home/lubuntu/Dokument/GitHub/STM32-Computer/Firmware/STM32-Computer-Firmware/CA7/optee-os-3.19.0-r2/optee-os-stm32mp-3.19.0-stm32mp-r2/lib/libutee/tee_api.c:247
    1220:	4b04      	ldr	r3, [pc, #16]	@ (1234 <TEE_InvokeTACommand+0xb8>)
    1222:	429c      	cmp	r4, r3
    1224:	d0d8      	beq.n	11d8 <TEE_InvokeTACommand+0x5c>
/home/lubuntu/Dokument/GitHub/STM32-Computer/Firmware/STM32-Computer-Firmware/CA7/optee-os-3.19.0-r2/optee-os-stm32mp-3.19.0-stm32mp-r2/lib/libutee/tee_api.c:249
    1226:	4620      	mov	r0, r4
    1228:	f002 fb38 	bl	389c <TEE_Panic>
    122c:	e7d4      	b.n	11d8 <TEE_InvokeTACommand+0x5c>
    122e:	bf00      	nop
    1230:	ffff000c 	.word	0xffff000c
    1234:	ffff3024 	.word	0xffff3024

00001238 <TEE_SetInstanceData>:
TEE_SetInstanceData():
/home/lubuntu/Dokument/GitHub/STM32-Computer/Firmware/STM32-Computer-Firmware/CA7/optee-os-3.19.0-r2/optee-os-stm32mp-3.19.0-stm32mp-r2/lib/libutee/tee_api.c:313
    1238:	4b01      	ldr	r3, [pc, #4]	@ (1240 <TEE_SetInstanceData+0x8>)
    123a:	447b      	add	r3, pc
    123c:	6018      	str	r0, [r3, #0]
/home/lubuntu/Dokument/GitHub/STM32-Computer/Firmware/STM32-Computer-Firmware/CA7/optee-os-3.19.0-r2/optee-os-stm32mp-3.19.0-stm32mp-r2/lib/libutee/tee_api.c:314
    123e:	4770      	bx	lr
    1240:	0000c14a 	.word	0x0000c14a

00001244 <TEE_GetInstanceData>:
TEE_GetInstanceData():
/home/lubuntu/Dokument/GitHub/STM32-Computer/Firmware/STM32-Computer-Firmware/CA7/optee-os-3.19.0-r2/optee-os-stm32mp-3.19.0-stm32mp-r2/lib/libutee/tee_api.c:319
    1244:	4b01      	ldr	r3, [pc, #4]	@ (124c <TEE_GetInstanceData+0x8>)
    1246:	447b      	add	r3, pc
    1248:	6818      	ldr	r0, [r3, #0]
    124a:	4770      	bx	lr
    124c:	0000c13e 	.word	0x0000c13e

00001250 <TEE_MemMove>:
TEE_MemMove():
/home/lubuntu/Dokument/GitHub/STM32-Computer/Firmware/STM32-Computer-Firmware/CA7/optee-os-3.19.0-r2/optee-os-stm32mp-3.19.0-stm32mp-r2/lib/libutee/tee_api.c:323
    1250:	f008 bd12 	b.w	9c78 <memmove>

00001254 <TEE_MemCompare>:
TEE_MemCompare():
/home/lubuntu/Dokument/GitHub/STM32-Computer/Firmware/STM32-Computer-Firmware/CA7/optee-os-3.19.0-r2/optee-os-stm32mp-3.19.0-stm32mp-r2/lib/libutee/tee_api.c:328
    1254:	f008 bd4a 	b.w	9cec <consttime_memcmp>

00001258 <TEE_MemFill>:
TEE_MemFill():
/home/lubuntu/Dokument/GitHub/STM32-Computer/Firmware/STM32-Computer-Firmware/CA7/optee-os-3.19.0-r2/optee-os-stm32mp-3.19.0-stm32mp-r2/lib/libutee/tee_api.c:333
    1258:	f008 ba11 	b.w	967e <memset>

0000125c <TEE_GetSystemTime>:
TEE_GetSystemTime():
/home/lubuntu/Dokument/GitHub/STM32-Computer/Firmware/STM32-Computer-Firmware/CA7/optee-os-3.19.0-r2/optee-os-stm32mp-3.19.0-stm32mp-r2/lib/libutee/tee_api.c:339
    125c:	4601      	mov	r1, r0
/home/lubuntu/Dokument/GitHub/STM32-Computer/Firmware/STM32-Computer-Firmware/CA7/optee-os-3.19.0-r2/optee-os-stm32mp-3.19.0-stm32mp-r2/lib/libutee/tee_api.c:340
    125e:	2000      	movs	r0, #0
/home/lubuntu/Dokument/GitHub/STM32-Computer/Firmware/STM32-Computer-Firmware/CA7/optee-os-3.19.0-r2/optee-os-stm32mp-3.19.0-stm32mp-r2/lib/libutee/tee_api.c:339
    1260:	b508      	push	{r3, lr}
/home/lubuntu/Dokument/GitHub/STM32-Computer/Firmware/STM32-Computer-Firmware/CA7/optee-os-3.19.0-r2/optee-os-stm32mp-3.19.0-stm32mp-r2/lib/libutee/tee_api.c:340
    1262:	f002 efdc 	blx	421c <_utee_get_time>
/home/lubuntu/Dokument/GitHub/STM32-Computer/Firmware/STM32-Computer-Firmware/CA7/optee-os-3.19.0-r2/optee-os-stm32mp-3.19.0-stm32mp-r2/lib/libutee/tee_api.c:342
    1266:	b118      	cbz	r0, 1270 <TEE_GetSystemTime+0x14>
/home/lubuntu/Dokument/GitHub/STM32-Computer/Firmware/STM32-Computer-Firmware/CA7/optee-os-3.19.0-r2/optee-os-stm32mp-3.19.0-stm32mp-r2/lib/libutee/tee_api.c:344
    1268:	e8bd 4008 	ldmia.w	sp!, {r3, lr}
/home/lubuntu/Dokument/GitHub/STM32-Computer/Firmware/STM32-Computer-Firmware/CA7/optee-os-3.19.0-r2/optee-os-stm32mp-3.19.0-stm32mp-r2/lib/libutee/tee_api.c:343
    126c:	f002 bb16 	b.w	389c <TEE_Panic>
/home/lubuntu/Dokument/GitHub/STM32-Computer/Firmware/STM32-Computer-Firmware/CA7/optee-os-3.19.0-r2/optee-os-stm32mp-3.19.0-stm32mp-r2/lib/libutee/tee_api.c:344
    1270:	bd08      	pop	{r3, pc}

00001272 <TEE_Wait>:
TEE_Wait():
/home/lubuntu/Dokument/GitHub/STM32-Computer/Firmware/STM32-Computer-Firmware/CA7/optee-os-3.19.0-r2/optee-os-stm32mp-3.19.0-stm32mp-r2/lib/libutee/tee_api.c:347
    1272:	b510      	push	{r4, lr}
/home/lubuntu/Dokument/GitHub/STM32-Computer/Firmware/STM32-Computer-Firmware/CA7/optee-os-3.19.0-r2/optee-os-stm32mp-3.19.0-stm32mp-r2/lib/libutee/tee_api.c:348
    1274:	f002 efc8 	blx	4208 <_utee_wait>
/home/lubuntu/Dokument/GitHub/STM32-Computer/Firmware/STM32-Computer-Firmware/CA7/optee-os-3.19.0-r2/optee-os-stm32mp-3.19.0-stm32mp-r2/lib/libutee/tee_api.c:350
    1278:	4604      	mov	r4, r0
    127a:	b120      	cbz	r0, 1286 <TEE_Wait+0x14>
/home/lubuntu/Dokument/GitHub/STM32-Computer/Firmware/STM32-Computer-Firmware/CA7/optee-os-3.19.0-r2/optee-os-stm32mp-3.19.0-stm32mp-r2/lib/libutee/tee_api.c:350 (discriminator 1)
    127c:	4b03      	ldr	r3, [pc, #12]	@ (128c <TEE_Wait+0x1a>)
    127e:	4298      	cmp	r0, r3
    1280:	d001      	beq.n	1286 <TEE_Wait+0x14>
/home/lubuntu/Dokument/GitHub/STM32-Computer/Firmware/STM32-Computer-Firmware/CA7/optee-os-3.19.0-r2/optee-os-stm32mp-3.19.0-stm32mp-r2/lib/libutee/tee_api.c:351
    1282:	f002 fb0b 	bl	389c <TEE_Panic>
/home/lubuntu/Dokument/GitHub/STM32-Computer/Firmware/STM32-Computer-Firmware/CA7/optee-os-3.19.0-r2/optee-os-stm32mp-3.19.0-stm32mp-r2/lib/libutee/tee_api.c:354
    1286:	4620      	mov	r0, r4
    1288:	bd10      	pop	{r4, pc}
    128a:	bf00      	nop
    128c:	ffff0002 	.word	0xffff0002

00001290 <TEE_GetTAPersistentTime>:
TEE_GetTAPersistentTime():
/home/lubuntu/Dokument/GitHub/STM32-Computer/Firmware/STM32-Computer-Firmware/CA7/optee-os-3.19.0-r2/optee-os-stm32mp-3.19.0-stm32mp-r2/lib/libutee/tee_api.c:357
    1290:	b538      	push	{r3, r4, r5, lr}
/home/lubuntu/Dokument/GitHub/STM32-Computer/Firmware/STM32-Computer-Firmware/CA7/optee-os-3.19.0-r2/optee-os-stm32mp-3.19.0-stm32mp-r2/lib/libutee/tee_api.c:360
    1292:	4601      	mov	r1, r0
/home/lubuntu/Dokument/GitHub/STM32-Computer/Firmware/STM32-Computer-Firmware/CA7/optee-os-3.19.0-r2/optee-os-stm32mp-3.19.0-stm32mp-r2/lib/libutee/tee_api.c:357
    1294:	4605      	mov	r5, r0
/home/lubuntu/Dokument/GitHub/STM32-Computer/Firmware/STM32-Computer-Firmware/CA7/optee-os-3.19.0-r2/optee-os-stm32mp-3.19.0-stm32mp-r2/lib/libutee/tee_api.c:360
    1296:	2001      	movs	r0, #1
    1298:	f002 efc0 	blx	421c <_utee_get_time>
    129c:	4604      	mov	r4, r0
/home/lubuntu/Dokument/GitHub/STM32-Computer/Firmware/STM32-Computer-Firmware/CA7/optee-os-3.19.0-r2/optee-os-stm32mp-3.19.0-stm32mp-r2/lib/libutee/tee_api.c:362
    129e:	b170      	cbz	r0, 12be <TEE_GetTAPersistentTime+0x2e>
/home/lubuntu/Dokument/GitHub/STM32-Computer/Firmware/STM32-Computer-Firmware/CA7/optee-os-3.19.0-r2/optee-os-stm32mp-3.19.0-stm32mp-r2/lib/libutee/tee_api.c:362 (discriminator 1)
    12a0:	4b08      	ldr	r3, [pc, #32]	@ (12c4 <TEE_GetTAPersistentTime+0x34>)
    12a2:	4298      	cmp	r0, r3
    12a4:	d00b      	beq.n	12be <TEE_GetTAPersistentTime+0x2e>
/home/lubuntu/Dokument/GitHub/STM32-Computer/Firmware/STM32-Computer-Firmware/CA7/optee-os-3.19.0-r2/optee-os-stm32mp-3.19.0-stm32mp-r2/lib/libutee/tee_api.c:363
    12a6:	2300      	movs	r3, #0
    12a8:	602b      	str	r3, [r5, #0]
/home/lubuntu/Dokument/GitHub/STM32-Computer/Firmware/STM32-Computer-Firmware/CA7/optee-os-3.19.0-r2/optee-os-stm32mp-3.19.0-stm32mp-r2/lib/libutee/tee_api.c:364
    12aa:	606b      	str	r3, [r5, #4]
/home/lubuntu/Dokument/GitHub/STM32-Computer/Firmware/STM32-Computer-Firmware/CA7/optee-os-3.19.0-r2/optee-os-stm32mp-3.19.0-stm32mp-r2/lib/libutee/tee_api.c:367
    12ac:	f500 4330 	add.w	r3, r0, #45056	@ 0xb000
    12b0:	2b01      	cmp	r3, #1
    12b2:	d904      	bls.n	12be <TEE_GetTAPersistentTime+0x2e>
/home/lubuntu/Dokument/GitHub/STM32-Computer/Firmware/STM32-Computer-Firmware/CA7/optee-os-3.19.0-r2/optee-os-stm32mp-3.19.0-stm32mp-r2/lib/libutee/tee_api.c:370
    12b4:	4b04      	ldr	r3, [pc, #16]	@ (12c8 <TEE_GetTAPersistentTime+0x38>)
    12b6:	4298      	cmp	r0, r3
    12b8:	d001      	beq.n	12be <TEE_GetTAPersistentTime+0x2e>
/home/lubuntu/Dokument/GitHub/STM32-Computer/Firmware/STM32-Computer-Firmware/CA7/optee-os-3.19.0-r2/optee-os-stm32mp-3.19.0-stm32mp-r2/lib/libutee/tee_api.c:372
    12ba:	f002 faef 	bl	389c <TEE_Panic>
/home/lubuntu/Dokument/GitHub/STM32-Computer/Firmware/STM32-Computer-Firmware/CA7/optee-os-3.19.0-r2/optee-os-stm32mp-3.19.0-stm32mp-r2/lib/libutee/tee_api.c:375
    12be:	4620      	mov	r0, r4
    12c0:	bd38      	pop	{r3, r4, r5, pc}
    12c2:	bf00      	nop
    12c4:	ffff300f 	.word	0xffff300f
    12c8:	ffff000c 	.word	0xffff000c

000012cc <TEE_SetTAPersistentTime>:
TEE_SetTAPersistentTime():
/home/lubuntu/Dokument/GitHub/STM32-Computer/Firmware/STM32-Computer-Firmware/CA7/optee-os-3.19.0-r2/optee-os-stm32mp-3.19.0-stm32mp-r2/lib/libutee/tee_api.c:378
    12cc:	b510      	push	{r4, lr}
/home/lubuntu/Dokument/GitHub/STM32-Computer/Firmware/STM32-Computer-Firmware/CA7/optee-os-3.19.0-r2/optee-os-stm32mp-3.19.0-stm32mp-r2/lib/libutee/tee_api.c:381
    12ce:	f002 efb0 	blx	4230 <_utee_set_ta_time>
/home/lubuntu/Dokument/GitHub/STM32-Computer/Firmware/STM32-Computer-Firmware/CA7/optee-os-3.19.0-r2/optee-os-stm32mp-3.19.0-stm32mp-r2/lib/libutee/tee_api.c:383
    12d2:	4604      	mov	r4, r0
    12d4:	b138      	cbz	r0, 12e6 <TEE_SetTAPersistentTime+0x1a>
/home/lubuntu/Dokument/GitHub/STM32-Computer/Firmware/STM32-Computer-Firmware/CA7/optee-os-3.19.0-r2/optee-os-stm32mp-3.19.0-stm32mp-r2/lib/libutee/tee_api.c:383 (discriminator 1)
    12d6:	4b05      	ldr	r3, [pc, #20]	@ (12ec <TEE_SetTAPersistentTime+0x20>)
    12d8:	4298      	cmp	r0, r3
    12da:	d004      	beq.n	12e6 <TEE_SetTAPersistentTime+0x1a>
/home/lubuntu/Dokument/GitHub/STM32-Computer/Firmware/STM32-Computer-Firmware/CA7/optee-os-3.19.0-r2/optee-os-stm32mp-3.19.0-stm32mp-r2/lib/libutee/tee_api.c:384
    12dc:	4b04      	ldr	r3, [pc, #16]	@ (12f0 <TEE_SetTAPersistentTime+0x24>)
    12de:	4298      	cmp	r0, r3
    12e0:	d001      	beq.n	12e6 <TEE_SetTAPersistentTime+0x1a>
/home/lubuntu/Dokument/GitHub/STM32-Computer/Firmware/STM32-Computer-Firmware/CA7/optee-os-3.19.0-r2/optee-os-stm32mp-3.19.0-stm32mp-r2/lib/libutee/tee_api.c:386
    12e2:	f002 fadb 	bl	389c <TEE_Panic>
/home/lubuntu/Dokument/GitHub/STM32-Computer/Firmware/STM32-Computer-Firmware/CA7/optee-os-3.19.0-r2/optee-os-stm32mp-3.19.0-stm32mp-r2/lib/libutee/tee_api.c:389
    12e6:	4620      	mov	r0, r4
    12e8:	bd10      	pop	{r4, pc}
    12ea:	bf00      	nop
    12ec:	ffff000c 	.word	0xffff000c
    12f0:	ffff3041 	.word	0xffff3041

000012f4 <TEE_GetREETime>:
TEE_GetREETime():
/home/lubuntu/Dokument/GitHub/STM32-Computer/Firmware/STM32-Computer-Firmware/CA7/optee-os-3.19.0-r2/optee-os-stm32mp-3.19.0-stm32mp-r2/lib/libutee/tee_api.c:392
    12f4:	4601      	mov	r1, r0
/home/lubuntu/Dokument/GitHub/STM32-Computer/Firmware/STM32-Computer-Firmware/CA7/optee-os-3.19.0-r2/optee-os-stm32mp-3.19.0-stm32mp-r2/lib/libutee/tee_api.c:393
    12f6:	2002      	movs	r0, #2
/home/lubuntu/Dokument/GitHub/STM32-Computer/Firmware/STM32-Computer-Firmware/CA7/optee-os-3.19.0-r2/optee-os-stm32mp-3.19.0-stm32mp-r2/lib/libutee/tee_api.c:392
    12f8:	b508      	push	{r3, lr}
/home/lubuntu/Dokument/GitHub/STM32-Computer/Firmware/STM32-Computer-Firmware/CA7/optee-os-3.19.0-r2/optee-os-stm32mp-3.19.0-stm32mp-r2/lib/libutee/tee_api.c:393
    12fa:	f002 ef90 	blx	421c <_utee_get_time>
/home/lubuntu/Dokument/GitHub/STM32-Computer/Firmware/STM32-Computer-Firmware/CA7/optee-os-3.19.0-r2/optee-os-stm32mp-3.19.0-stm32mp-r2/lib/libutee/tee_api.c:395
    12fe:	b118      	cbz	r0, 1308 <TEE_GetREETime+0x14>
/home/lubuntu/Dokument/GitHub/STM32-Computer/Firmware/STM32-Computer-Firmware/CA7/optee-os-3.19.0-r2/optee-os-stm32mp-3.19.0-stm32mp-r2/lib/libutee/tee_api.c:397
    1300:	e8bd 4008 	ldmia.w	sp!, {r3, lr}
/home/lubuntu/Dokument/GitHub/STM32-Computer/Firmware/STM32-Computer-Firmware/CA7/optee-os-3.19.0-r2/optee-os-stm32mp-3.19.0-stm32mp-r2/lib/libutee/tee_api.c:396
    1304:	f002 baca 	b.w	389c <TEE_Panic>
/home/lubuntu/Dokument/GitHub/STM32-Computer/Firmware/STM32-Computer-Firmware/CA7/optee-os-3.19.0-r2/optee-os-stm32mp-3.19.0-stm32mp-r2/lib/libutee/tee_api.c:397
    1308:	bd08      	pop	{r3, pc}

0000130a <TEE_Malloc>:
TEE_Malloc():
/home/lubuntu/Dokument/GitHub/STM32-Computer/Firmware/STM32-Computer-Firmware/CA7/optee-os-3.19.0-r2/optee-os-stm32mp-3.19.0-stm32mp-r2/lib/libutee/tee_api.c:400
    130a:	460b      	mov	r3, r1
    130c:	b507      	push	{r0, r1, r2, lr}
/home/lubuntu/Dokument/GitHub/STM32-Computer/Firmware/STM32-Computer-Firmware/CA7/optee-os-3.19.0-r2/optee-os-stm32mp-3.19.0-stm32mp-r2/lib/libutee/tee_api.c:401
    130e:	4601      	mov	r1, r0
    1310:	b1f0      	cbz	r0, 1350 <TEE_Malloc+0x46>
/home/lubuntu/Dokument/GitHub/STM32-Computer/Firmware/STM32-Computer-Firmware/CA7/optee-os-3.19.0-r2/optee-os-stm32mp-3.19.0-stm32mp-r2/lib/libutee/tee_api.c:404
    1312:	b92b      	cbnz	r3, 1320 <TEE_Malloc+0x16>
/home/lubuntu/Dokument/GitHub/STM32-Computer/Firmware/STM32-Computer-Firmware/CA7/optee-os-3.19.0-r2/optee-os-stm32mp-3.19.0-stm32mp-r2/lib/libutee/tee_api.c:405
    1314:	2001      	movs	r0, #1
/home/lubuntu/Dokument/GitHub/STM32-Computer/Firmware/STM32-Computer-Firmware/CA7/optee-os-3.19.0-r2/optee-os-stm32mp-3.19.0-stm32mp-r2/lib/libutee/tee_api.c:412
    1316:	b003      	add	sp, #12
    1318:	f85d eb04 	ldr.w	lr, [sp], #4
/home/lubuntu/Dokument/GitHub/STM32-Computer/Firmware/STM32-Computer-Firmware/CA7/optee-os-3.19.0-r2/optee-os-stm32mp-3.19.0-stm32mp-r2/lib/libutee/tee_api.c:405
    131c:	f008 b846 	b.w	93ac <calloc>
/home/lubuntu/Dokument/GitHub/STM32-Computer/Firmware/STM32-Computer-Firmware/CA7/optee-os-3.19.0-r2/optee-os-stm32mp-3.19.0-stm32mp-r2/lib/libutee/tee_api.c:406
    1320:	f1b3 4f00 	cmp.w	r3, #2147483648	@ 0x80000000
    1324:	d104      	bne.n	1330 <TEE_Malloc+0x26>
/home/lubuntu/Dokument/GitHub/STM32-Computer/Firmware/STM32-Computer-Firmware/CA7/optee-os-3.19.0-r2/optee-os-stm32mp-3.19.0-stm32mp-r2/lib/libutee/tee_api.c:412
    1326:	b003      	add	sp, #12
    1328:	f85d eb04 	ldr.w	lr, [sp], #4
/home/lubuntu/Dokument/GitHub/STM32-Computer/Firmware/STM32-Computer-Firmware/CA7/optee-os-3.19.0-r2/optee-os-stm32mp-3.19.0-stm32mp-r2/lib/libutee/tee_api.c:407
    132c:	f008 b834 	b.w	9398 <malloc>
/home/lubuntu/Dokument/GitHub/STM32-Computer/Firmware/STM32-Computer-Firmware/CA7/optee-os-3.19.0-r2/optee-os-stm32mp-3.19.0-stm32mp-r2/lib/libutee/tee_api.c:409
    1330:	9301      	str	r3, [sp, #4]
    1332:	f240 1199 	movw	r1, #409	@ 0x199
    1336:	4b07      	ldr	r3, [pc, #28]	@ (1354 <TEE_Malloc+0x4a>)
    1338:	4807      	ldr	r0, [pc, #28]	@ (1358 <TEE_Malloc+0x4e>)
    133a:	447b      	add	r3, pc
    133c:	9300      	str	r3, [sp, #0]
    133e:	2301      	movs	r3, #1
    1340:	4478      	add	r0, pc
    1342:	461a      	mov	r2, r3
    1344:	f7ff f99c 	bl	680 <trace_printf>
/home/lubuntu/Dokument/GitHub/STM32-Computer/Firmware/STM32-Computer-Firmware/CA7/optee-os-3.19.0-r2/optee-os-stm32mp-3.19.0-stm32mp-r2/lib/libutee/tee_api.c:411
    1348:	2000      	movs	r0, #0
/home/lubuntu/Dokument/GitHub/STM32-Computer/Firmware/STM32-Computer-Firmware/CA7/optee-os-3.19.0-r2/optee-os-stm32mp-3.19.0-stm32mp-r2/lib/libutee/tee_api.c:412
    134a:	b003      	add	sp, #12
    134c:	f85d fb04 	ldr.w	pc, [sp], #4
/home/lubuntu/Dokument/GitHub/STM32-Computer/Firmware/STM32-Computer-Firmware/CA7/optee-os-3.19.0-r2/optee-os-stm32mp-3.19.0-stm32mp-r2/lib/libutee/tee_api.c:402
    1350:	2001      	movs	r0, #1
    1352:	e7fa      	b.n	134a <TEE_Malloc+0x40>
    1354:	00009005 	.word	0x00009005
    1358:	00009010 	.word	0x00009010

0000135c <TEE_Free>:
TEE_Free():
/home/lubuntu/Dokument/GitHub/STM32-Computer/Firmware/STM32-Computer-Firmware/CA7/optee-os-3.19.0-r2/optee-os-stm32mp-3.19.0-stm32mp-r2/lib/libutee/tee_api.c:429
    135c:	2801      	cmp	r0, #1
    135e:	d001      	beq.n	1364 <TEE_Free+0x8>
/home/lubuntu/Dokument/GitHub/STM32-Computer/Firmware/STM32-Computer-Firmware/CA7/optee-os-3.19.0-r2/optee-os-stm32mp-3.19.0-stm32mp-r2/lib/libutee/tee_api.c:430
    1360:	f008 b85d 	b.w	941e <free>
/home/lubuntu/Dokument/GitHub/STM32-Computer/Firmware/STM32-Computer-Firmware/CA7/optee-os-3.19.0-r2/optee-os-stm32mp-3.19.0-stm32mp-r2/lib/libutee/tee_api.c:431
    1364:	4770      	bx	lr

00001366 <TEE_Realloc>:
TEE_Realloc():
/home/lubuntu/Dokument/GitHub/STM32-Computer/Firmware/STM32-Computer-Firmware/CA7/optee-os-3.19.0-r2/optee-os-stm32mp-3.19.0-stm32mp-r2/lib/libutee/tee_api.c:415
    1366:	b508      	push	{r3, lr}
/home/lubuntu/Dokument/GitHub/STM32-Computer/Firmware/STM32-Computer-Firmware/CA7/optee-os-3.19.0-r2/optee-os-stm32mp-3.19.0-stm32mp-r2/lib/libutee/tee_api.c:416
    1368:	b149      	cbz	r1, 137e <TEE_Realloc+0x18>
/home/lubuntu/Dokument/GitHub/STM32-Computer/Firmware/STM32-Computer-Firmware/CA7/optee-os-3.19.0-r2/optee-os-stm32mp-3.19.0-stm32mp-r2/lib/libutee/tee_api.c:421
    136a:	2801      	cmp	r0, #1
    136c:	d103      	bne.n	1376 <TEE_Realloc+0x10>
/home/lubuntu/Dokument/GitHub/STM32-Computer/Firmware/STM32-Computer-Firmware/CA7/optee-os-3.19.0-r2/optee-os-stm32mp-3.19.0-stm32mp-r2/lib/libutee/tee_api.c:425
    136e:	e8bd 4008 	ldmia.w	sp!, {r3, lr}
/home/lubuntu/Dokument/GitHub/STM32-Computer/Firmware/STM32-Computer-Firmware/CA7/optee-os-3.19.0-r2/optee-os-stm32mp-3.19.0-stm32mp-r2/lib/libutee/tee_api.c:422
    1372:	f008 b81b 	b.w	93ac <calloc>
/home/lubuntu/Dokument/GitHub/STM32-Computer/Firmware/STM32-Computer-Firmware/CA7/optee-os-3.19.0-r2/optee-os-stm32mp-3.19.0-stm32mp-r2/lib/libutee/tee_api.c:425
    1376:	e8bd 4008 	ldmia.w	sp!, {r3, lr}
/home/lubuntu/Dokument/GitHub/STM32-Computer/Firmware/STM32-Computer-Firmware/CA7/optee-os-3.19.0-r2/optee-os-stm32mp-3.19.0-stm32mp-r2/lib/libutee/tee_api.c:424
    137a:	f008 b827 	b.w	93cc <realloc>
/home/lubuntu/Dokument/GitHub/STM32-Computer/Firmware/STM32-Computer-Firmware/CA7/optee-os-3.19.0-r2/optee-os-stm32mp-3.19.0-stm32mp-r2/lib/libutee/tee_api.c:417
    137e:	f7ff ffed 	bl	135c <TEE_Free>
/home/lubuntu/Dokument/GitHub/STM32-Computer/Firmware/STM32-Computer-Firmware/CA7/optee-os-3.19.0-r2/optee-os-stm32mp-3.19.0-stm32mp-r2/lib/libutee/tee_api.c:425
    1382:	2001      	movs	r0, #1
    1384:	bd08      	pop	{r3, pc}

00001386 <TEE_CacheClean>:
TEE_CacheClean():
/home/lubuntu/Dokument/GitHub/STM32-Computer/Firmware/STM32-Computer-Firmware/CA7/optee-os-3.19.0-r2/optee-os-stm32mp-3.19.0-stm32mp-r2/lib/libutee/tee_api.c:436
    1386:	2200      	movs	r2, #0
    1388:	f008 bce6 	b.w	9d58 <___utee_cache_operation_from_thumb>

0000138c <TEE_CacheFlush>:
TEE_CacheFlush():
/home/lubuntu/Dokument/GitHub/STM32-Computer/Firmware/STM32-Computer-Firmware/CA7/optee-os-3.19.0-r2/optee-os-stm32mp-3.19.0-stm32mp-r2/lib/libutee/tee_api.c:440
    138c:	2201      	movs	r2, #1
    138e:	f008 bce3 	b.w	9d58 <___utee_cache_operation_from_thumb>

00001392 <TEE_CacheInvalidate>:
TEE_CacheInvalidate():
/home/lubuntu/Dokument/GitHub/STM32-Computer/Firmware/STM32-Computer-Firmware/CA7/optee-os-3.19.0-r2/optee-os-stm32mp-3.19.0-stm32mp-r2/lib/libutee/tee_api.c:445
    1392:	2202      	movs	r2, #2
    1394:	f008 bce0 	b.w	9d58 <___utee_cache_operation_from_thumb>

00001398 <__utee_from_attr>:
__utee_from_attr():
/home/lubuntu/Dokument/GitHub/STM32-Computer/Firmware/STM32-Computer-Firmware/CA7/optee-os-3.19.0-r2/optee-os-stm32mp-3.19.0-stm32mp-r2/lib/libutee/tee_api_objects.c:19
    1398:	2318      	movs	r3, #24
    139a:	fb03 0202 	mla	r2, r3, r2, r0
/home/lubuntu/Dokument/GitHub/STM32-Computer/Firmware/STM32-Computer-Firmware/CA7/optee-os-3.19.0-r2/optee-os-stm32mp-3.19.0-stm32mp-r2/lib/libutee/tee_api_objects.c:23
    139e:	2300      	movs	r3, #0
/home/lubuntu/Dokument/GitHub/STM32-Computer/Firmware/STM32-Computer-Firmware/CA7/optee-os-3.19.0-r2/optee-os-stm32mp-3.19.0-stm32mp-r2/lib/libutee/tee_api_objects.c:16
    13a0:	b530      	push	{r4, r5, lr}
/home/lubuntu/Dokument/GitHub/STM32-Computer/Firmware/STM32-Computer-Firmware/CA7/optee-os-3.19.0-r2/optee-os-stm32mp-3.19.0-stm32mp-r2/lib/libutee/tee_api_objects.c:19 (discriminator 1)
    13a2:	4290      	cmp	r0, r2
    13a4:	d100      	bne.n	13a8 <__utee_from_attr+0x10>
/home/lubuntu/Dokument/GitHub/STM32-Computer/Firmware/STM32-Computer-Firmware/CA7/optee-os-3.19.0-r2/optee-os-stm32mp-3.19.0-stm32mp-r2/lib/libutee/tee_api_objects.c:29
    13a6:	bd30      	pop	{r4, r5, pc}
/home/lubuntu/Dokument/GitHub/STM32-Computer/Firmware/STM32-Computer-Firmware/CA7/optee-os-3.19.0-r2/optee-os-stm32mp-3.19.0-stm32mp-r2/lib/libutee/tee_api_objects.c:20
    13a8:	680c      	ldr	r4, [r1, #0]
    13aa:	310c      	adds	r1, #12
    13ac:	6104      	str	r4, [r0, #16]
/home/lubuntu/Dokument/GitHub/STM32-Computer/Firmware/STM32-Computer-Firmware/CA7/optee-os-3.19.0-r2/optee-os-stm32mp-3.19.0-stm32mp-r2/lib/libutee/tee_api_objects.c:23
    13ae:	f851 4c04 	ldr.w	r4, [r1, #-4]
/home/lubuntu/Dokument/GitHub/STM32-Computer/Firmware/STM32-Computer-Firmware/CA7/optee-os-3.19.0-r2/optee-os-stm32mp-3.19.0-stm32mp-r2/lib/libutee/tee_api_objects.c:22
    13b2:	f851 5c08 	ldr.w	r5, [r1, #-8]
/home/lubuntu/Dokument/GitHub/STM32-Computer/Firmware/STM32-Computer-Firmware/CA7/optee-os-3.19.0-r2/optee-os-stm32mp-3.19.0-stm32mp-r2/lib/libutee/tee_api_objects.c:23
    13b6:	e9c0 4302 	strd	r4, r3, [r0, #8]
/home/lubuntu/Dokument/GitHub/STM32-Computer/Firmware/STM32-Computer-Firmware/CA7/optee-os-3.19.0-r2/optee-os-stm32mp-3.19.0-stm32mp-r2/lib/libutee/tee_api_objects.c:22
    13ba:	e9c0 5300 	strd	r5, r3, [r0]
    13be:	3018      	adds	r0, #24
    13c0:	e7ef      	b.n	13a2 <__utee_from_attr+0xa>

000013c2 <TEE_GetObjectInfo>:
TEE_GetObjectInfo():
/home/lubuntu/Dokument/GitHub/STM32-Computer/Firmware/STM32-Computer-Firmware/CA7/optee-os-3.19.0-r2/optee-os-stm32mp-3.19.0-stm32mp-r2/lib/libutee/tee_api_objects.c:39
    13c2:	b510      	push	{r4, lr}
    13c4:	460c      	mov	r4, r1
/home/lubuntu/Dokument/GitHub/STM32-Computer/Firmware/STM32-Computer-Firmware/CA7/optee-os-3.19.0-r2/optee-os-stm32mp-3.19.0-stm32mp-r2/lib/libutee/tee_api_objects.c:42
    13c6:	f002 efa0 	blx	4308 <_utee_cryp_obj_get_info>
/home/lubuntu/Dokument/GitHub/STM32-Computer/Firmware/STM32-Computer-Firmware/CA7/optee-os-3.19.0-r2/optee-os-stm32mp-3.19.0-stm32mp-r2/lib/libutee/tee_api_objects.c:44
    13ca:	b108      	cbz	r0, 13d0 <TEE_GetObjectInfo+0xe>
