
/home/lubuntu/Dokument/GitHub/STM32-Computer/Firmware/STM32-Computer-Firmware/CA7/tf-a-2.8.15-r2/tf-a-stm32mp-v2.8.15-stm32mp-r2/../build/optee-sdcard-stm32mp15-stm32mp157c-ev1/bl2/bl2.elf:     file format elf32-littlearm
/home/lubuntu/Dokument/GitHub/STM32-Computer/Firmware/STM32-Computer-Firmware/CA7/tf-a-2.8.15-r2/tf-a-stm32mp-v2.8.15-stm32mp-r2/../build/optee-sdcard-stm32mp15-stm32mp157c-ev1/bl2/bl2.elf
architecture: armv7, flags 0x00000112:
EXEC_P, HAS_SYMS, D_PAGED
start address 0x2ffe9000

Program Header:
    LOAD off    0x00001000 vaddr 0x2ffe9000 paddr 0x2ffe9000 align 2**12
         filesz 0x00011000 memsz 0x00011000 flags r-x
    LOAD off    0x00012000 vaddr 0x2fffa000 paddr 0x2fffa000 align 2**12
         filesz 0x000005c2 memsz 0x00005000 flags rw-
   STACK off    0x00000000 vaddr 0x00000000 paddr 0x00000000 align 2**4
         filesz 0x00000000 memsz 0x00000000 flags rw-
private flags = 0x5000200: [Version5 EABI] [soft-float ABI]

Sections:
Idx Name          Size      VMA       LMA       File off  Algn
  0 ro            00011000  2ffe9000  2ffe9000  00001000  2**5
                  CONTENTS, ALLOC, LOAD, READONLY, CODE
  1 .data         000005c2  2fffa000  2fffa000  00012000  2**3
                  CONTENTS, ALLOC, LOAD, DATA
  2 stacks        00000c00  2fffa600  2fffa600  000125c2  2**6
                  ALLOC
  3 .bss          00001220  2fffb200  2fffb200  000125c2  2**9
                  ALLOC
  4 xlat_table    00002000  2fffd000  2fffd000  000125c2  2**12
                  ALLOC
  5 .debug_info   000455bf  00000000  00000000  000125c2  2**0
                  CONTENTS, READONLY, DEBUGGING, OCTETS
  6 .debug_abbrev 0000d6e7  00000000  00000000  00057b81  2**0
                  CONTENTS, READONLY, DEBUGGING, OCTETS
  7 .debug_aranges 00001ed0  00000000  00000000  00065268  2**3
                  CONTENTS, READONLY, DEBUGGING, OCTETS
  8 .debug_line   0001f6bb  00000000  00000000  00067138  2**0
                  CONTENTS, READONLY, DEBUGGING, OCTETS
  9 .debug_str    000099bf  00000000  00000000  000867f3  2**0
                  CONTENTS, READONLY, DEBUGGING, OCTETS
 10 .comment      00000012  00000000  00000000  000901b2  2**0
                  CONTENTS, READONLY
 11 .ARM.attributes 00000035  00000000  00000000  000901c4  2**0
                  CONTENTS, READONLY
 12 .debug_ranges 00005430  00000000  00000000  00090200  2**3
                  CONTENTS, READONLY, DEBUGGING, OCTETS
 13 .debug_frame  00004e60  00000000  00000000  00095630  2**2
                  CONTENTS, READONLY, DEBUGGING, OCTETS
 14 .debug_loc    0002bd8b  00000000  00000000  0009a490  2**0
                  CONTENTS, READONLY, DEBUGGING, OCTETS
SYMBOL TABLE:
2ffe9000 l    d  ro	00000000 ro
2fffa000 l    d  .data	00000000 .data
2fffa600 l    d  stacks	00000000 stacks
2fffb200 l    d  .bss	00000000 .bss
2fffd000 l    d  xlat_table	00000000 xlat_table
00000000 l    d  .debug_info	00000000 .debug_info
00000000 l    d  .debug_abbrev	00000000 .debug_abbrev
00000000 l    d  .debug_aranges	00000000 .debug_aranges
00000000 l    d  .debug_line	00000000 .debug_line
00000000 l    d  .debug_str	00000000 .debug_str
00000000 l    d  .comment	00000000 .comment
00000000 l    d  .ARM.attributes	00000000 .ARM.attributes
00000000 l    d  .debug_ranges	00000000 .debug_ranges
00000000 l    d  .debug_frame	00000000 .debug_frame
00000000 l    d  .debug_loc	00000000 .debug_loc
00000000 l    df *ABS*	00000000 bl2_el3_entrypoint.o
2ffe90f0 l       ro	00000000 do_primary_cold_boot
00000000 l    df *ABS*	00000000 bl2_run_next_image.o
00000000 l    df *ABS*	00000000 cpu_helpers.o
2ffe9228 l       ro	00000000 error_exit
00000000 l    df *ABS*	00000000 spinlock.o
00000000 l    df *ABS*	00000000 platform_up_stack.o
2fffa600 l       stacks	00000000 platform_normal_stacks
00000006 l       *ABS*	00000000 TZ_COUNT
00000000 l    df *ABS*	00000000 stm32mp1_critic_power_wrapper.o
2fffa5b4 l       .data	00000000 saved_sp
2fffa5b8 l       .data	00000000 saved_vbar
2fffa5bc l       .data	00000000 saved_mvbar
00000000 l    df *ABS*	00000000 debug.o
2fff96de l       ro	00000000 assert_msg1
2fff96ec l       ro	00000000 assert_msg2
2ffe9374 l       ro	00000000 _assert_loop
2ffe9354 l       ro	00000000 dec_print_loop
2fff96f3 l       ro	00000000 panic_msg
2fff9704 l       ro	00000000 panic_end
2ffe9408 l       ro	00000000 _panic_handler
00000000 l    df *ABS*	00000000 cache_helpers.o
2ffe9484 l       ro	00000000 exit_loop_cimvac
2ffe9470 l       ro	00000000 loop_cimvac
2ffe94c0 l       ro	00000000 exit_loop_cmvac
2ffe94ac l       ro	00000000 loop_cmvac
2ffe94fc l       ro	00000000 exit_loop_imvac
2ffe94e8 l       ro	00000000 loop_imvac
2ffe9500 l     F ro	000000c8 do_dcsw_op
2ffe95b0 l       ro	00000000 dcsw_loop_table
2ffe9514 l       ro	00000000 loop1
2ffe958c l       ro	00000000 level_done
2ffe9558 l       ro	00000000 loop2
2ffe9570 l       ro	00000000 loop3
00000000 l    df *ABS*	00000000 misc_helpers.o
2ffe9644 l       ro	00000000 do_disable_mmu
00000000 l    df *ABS*	00000000 enable_mmu.o
00000000 l    df *ABS*	00000000 stm32_console.o
2ffe978c l       ro	00000000 core_init_fail
2ffe9770 l       ro	00000000 teack_loop
2ffe97e0 l       ro	00000000 register_fail
2ffe982c l       ro	00000000 putc_error
2ffe97f8 l       ro	00000000 txe_loop
2ffe9814 l       ro	00000000 tc_loop
2ffe9878 l       ro	00000000 txe_loop_3
00000000 l    df *ABS*	00000000 cortex_a7.o
2ffe98b8 l     F ro	00000014 cortex_a7_enable_smp
2ffe98cc l     F ro	00000004 cortex_a7_reset_func
2fff9757 l       ro	00000000 cortex_a7_errata_list_start
2fff9757 l       ro	00000000 cortex_a7_errata_list_end
00000000 l    df *ABS*	00000000 stm32mp1_helper.o
2ffe98f8 l       ro	00000000 other_exception_lbl
2fff9781 l       ro	00000000 undefined_str
2ffe9918 l       ro	00000000 print_exception_info
2fff979f l       ro	00000000 exception_start_str
2fff97b2 l       ro	00000000 exception_end_str
2fff97e6 l       ro	00000000 end_error_str
2fff9757 l       ro	00000000 prefetch_abort_str
2fff97d0 l       ro	00000000 ifsr_str
2fff97db l       ro	00000000 ifar_str
2fff976e l       ro	00000000 data_abort_str
2fff97ba l       ro	00000000 dfsr_str
2fff97c5 l       ro	00000000 dfar_str
00000000 l    df *ABS*	00000000 bl2_image_load_v2.c
00000000 l    df *ABS*	00000000 bl2_main.c
00000000 l    df *ABS*	00000000 desc_image_load.c
2fffb980 l     O .bss	0000000c next_bl_params
2fffb98c l     O .bss	0000000c bl_load_info
2fff6aa7 l     O ro	00000003 CSWTCH.28
00000000 l    df *ABS*	00000000 fdt_wrappers.c
2fff3bd0 l     F ro	00000004 fdt32_to_cpu
2fff3bd0 l     F ro	00000004 cpu_to_fdt32
00000000 l    df *ABS*	00000000 fwu.c
2ffea070 l     F ro	00000178 fwu_metadata_load
2fffc105 l     O .bss	00000078 metadata
2fffc104 l     O .bss	00000001 is_metadata_initialized
00000000 l    df *ABS*	00000000 io_block.c
2fff3c28 l     F ro	00000008 block_close
2ffea2f8 l     F ro	00000054 block_seek
2ffea34c l     F ro	0000004c block_open
2ffea398 l     F ro	00000118 block_write
2ffea4b0 l     F ro	000000e8 block_read
2ffea598 l     F ro	00000048 block_dev_close
2fffb610 l     O .bss	00000018 state_pool
2fffb998 l     O .bss	00000004 block_dev_count
2ffea5e0 l     F ro	00000078 block_dev_open
2fffb99c l     O .bss	00000008 dev_info_pool
2fff5730 l     O ro	00000024 block_dev_funcs
2fff5754 l     O ro	00000004 block_dev_connector
00000000 l    df *ABS*	00000000 io_fip.c
2fff3c30 l     F ro	00000004 device_type_fip
2ffea684 l     F ro	00000020 fip_file_close
2fffb628 l     O .bss	00000030 current_fip_file
2ffea6a4 l     F ro	0000009c fip_dev_init
2fffb9b8 l     O .bss	00000004 backend_image_spec
2fffb9bc l     O .bss	00000004 backend_dev_handle
2ffea740 l     F ro	000000b4 fip_file_read
2ffea7f4 l     F ro	00000024 fip_file_len
2ffea818 l     F ro	000000f0 fip_file_open
2fff6fc2 l     O ro	00000010 uuid_null.0
2ffea908 l     F ro	00000050 fip_dev_close
2fffb9b0 l     O .bss	00000008 state_pool
2fffb9a4 l     O .bss	00000004 fip_dev_count
2ffea958 l     F ro	0000004c fip_dev_open
2fffb9a8 l     O .bss	00000008 dev_info_pool
2fff5758 l     O ro	00000024 fip_dev_funcs
2fff577c l     O ro	00000004 fip_dev_connector
00000000 l    df *ABS*	00000000 io_storage.c
2fff3c34 l     F ro	00000018 is_valid_dev
2fff3c4c l     F ro	00000010 is_valid_entity
2ffea9d0 l     F ro	00000040 free_entity.isra.0
2fffb9c8 l     O .bss	00000010 entity_map
2fffb9c4 l     O .bss	00000004 entity_count
2fffb9c0 l     O .bss	00000004 dev_count
2fffb9d8 l     O .bss	00000020 entity_pool
00000000 l    df *ABS*	00000000 mmc.c
2ffeac50 l     F ro	00000040 mmc_send_cmd
2fffba18 l     O .bss	00000004 ops
2ffeac90 l     F ro	00000048 mmc_device_state
2fffb9f8 l     O .bss	00000004 rca
2fffb410 l     O .bss	00000200 mmc_ext_csd
2fff3c5c l     F ro	0000001c mmc_reset_to_idle
2ffeacd8 l     F ro	00000044 sd_switch.constprop.0
2fffc0c0 l     O .bss	00000040 sd_switch_func_status
2fffba00 l     O .bss	00000004 mmc_flags
2fffba14 l     O .bss	00000004 mmc_ocr_value
2fffb9fc l     O .bss	00000004 mmc_dev_info
2fffba04 l     O .bss	00000010 mmc_csd
2fffb400 l     O .bss	00000008 scr
2fff70c1 l     O ro	00000010 tran_speed_base
2fff70b1 l     O ro	00000010 sd_tran_speed_base
00000000 l    df *ABS*	00000000 gpt.c
00000000 l    df *ABS*	00000000 partition.c
2fffc17d l     O .bss	00000200 mbr_sector
2fffb658 l     O .bss	00000218 list
00000000 l    df *ABS*	00000000 stm32mp1_ddr.c
2fff3c7c l     F ro	00000022 stm32mp1_mode_register_write.isra.0
2fff3c9e l     F ro	0000003a stm32mp1_ddrphy_idone_wait
2fff3cd8 l     F ro	0000007e stm32mp1_wait_operating_mode
2fff5780 l     O ro	00000060 ddr_registers
2fff625c l     O ro	00000064 ddr_reg
2fff622c l     O ro	00000030 ddr_timing
2fff61c4 l     O ro	00000044 ddr_perf
2fff6208 l     O ro	00000024 ddr_map
2fff6198 l     O ro	0000002c ddrphy_reg
2fff6170 l     O ro	00000028 ddrphy_timing
00000000 l    df *ABS*	00000000 stm32mp1_ram.c
2ffeba9c l     F ro	0000015c stm32mp1_ddr_setup
2fff72d5 l     O ro	00000013 __func__.0
2fffb870 l     O .bss	00000020 ddr_priv_data
2fffc37d l     O .bss	00000001 ddr_self_refresh
00000000 l    df *ABS*	00000000 stm32mp_ram.c
2fff7373 l     O ro	00000019 __func__.0
00000000 l    df *ABS*	00000000 stm32_sdmmc2.c
2fff3e42 l     F ro	00000004 stm32_sdmmc2_write
2ffebd28 l     F ro	00000078 stm32_sdmmc2_set_ios
2fffba1c l     O .bss	00000034 sdmmc2_params
2ffebda0 l     F ro	0000008c stm32_sdmmc2_init
2ffebe2c l     F ro	000002f4 stm32_sdmmc2_send_cmd
2fff3e46 l     F ro	00000020 stm32_sdmmc2_stop_transfer
2fffc37e l     O .bss	00000001 next_cmd_is_acmd
2fff752d l     O ro	0000001a __func__.0
2ffec120 l     F ro	000000f8 stm32_sdmmc2_read
2fff7547 l     O ro	00000012 __func__.1
2ffec218 l     F ro	000000b4 stm32_sdmmc2_prepare
2fff7559 l     O ro	00000016 __func__.2
2fff5828 l     O ro	00000018 stm32_sdmmc2_ops
00000000 l    df *ABS*	00000000 fconf.c
00000000 l    df *ABS*	00000000 fconf_dyn_cfg_getter.c
2fffa048 l     O .data	00000010 dtb_info_pool
2fffba50 l     O .bss	00000060 dtb_infos
2fff9840 l     O ro	0000000c dyn_cfg__populator
00000000 l    df *ABS*	00000000 optee_utils.c
2ffec66c l     F ro	00000060 parse_optee_image
00000000 l    df *ABS*	00000000 crc32.c
2fff5840 l     O ro	00000400 crc_table
00000000 l    df *ABS*	00000000 bl2_io_storage.c
2fffbabc l     O .bss	00000004 fip_dev_con
2fffb890 l     O .bss	00000018 mmc_info
2fffbab8 l     O .bss	00000004 mmc_dev_con
2fffa05c l     O .data	00000014 mmc_block_dev_spec
2fffc37f l     O .bss	00000001 gpt_init_done.3
2fffa058 l     O .data	00000004 boot_idx.0
2fffb200 l     O .bss	00000200 block_buffer
00000000 l    df *ABS*	00000000 stm32mp_fconf_io.c
2fff5c40 l     O ro	00000038 load_info
2fffa070 l     O .data	00000010 fconf_stm32mp_uuids_pool
2fff984c l     O ro	0000000c stm32mp_io__populator
2fffc380 l     O .bss	00000070 fconf_stm32mp_uuids
2fffa294 l     O .data	00000008 gpt_block_spec
2fffbac8 l     O .bss	00000008 metadata_block_spec
00000000 l    df *ABS*	00000000 bl2_plat_setup.c
2fff7fdc l     O ro	000001d5 debug_msg
00000000 l    df *ABS*	00000000 plat_ddr.c
00000000 l    df *ABS*	00000000 stm32mp1_critic_power.c
00000000 l    df *ABS*	00000000 stm32mp1_fconf_firewall.c
2fff3eba l     F ro	00000004 fdt32_to_cpu
2ffed574 l     F ro	000000cc fconf_populate_stm32mp1_firewall
2fffbad0 l     O .bss	00000004 nb_regions
2fff9858 l     O ro	0000000c stm32mp1_firewall__populator
00000000 l    df *ABS*	00000000 bl_common.c
00000000 l    df *ABS*	00000000 tf_log.c
2fffa528 l     O .data	00000004 max_log_level
00000000 l    df *ABS*	00000000 multi_console.c
00000000 l    df *ABS*	00000000 plat_log_common.c
2fff5c88 l     O ro	00000014 plat_prefix_str
00000000 l    df *ABS*	00000000 uuid.c
2fff40a2 l     F ro	0000002e hex_val
2fff40d0 l     F ro	0000003a read_hex.part.0
00000000 l    df *ABS*	00000000 stm32mp_common.c
2fff410a l     F ro	00000032 stm32_nvmem_cell_clrset.isra.0
2ffeda64 l     F ro	00000034 stm32_get_bootinfo_cell.isra.0
2fffbb0c l     O .bss	00000004 boot_ctx_address
2fffc100 l     O .bss	00000002 boot_itf_selected
2fffbb08 l     O .bss	00000004 boot_action_saved
2fffbb10 l     O .bss	00000004 lock
2fffbb14 l     O .bss	00000018 console
2fffc3f3 l     O .bss	00000001 initialized.7
2fffbafc l     O .bss	0000000c s_magic_number.6
2fffc3f2 l     O .bss	00000001 initialized.5
2fffbaf0 l     O .bss	0000000c s_core1_branch_address.4
2fffc3f1 l     O .bss	00000001 initialized.3
2fffbae4 l     O .bss	0000000c s_fwu_info.2
2fffc3f0 l     O .bss	00000001 initialized.1
2fffbad8 l     O .bss	0000000c s_boot_mode.0
00000000 l    df *ABS*	00000000 xlat_tables_arch.c
00000000 l    df *ABS*	00000000 xlat_tables_context.c
2fffa000 l     O .data	00000048 tf_xlat_ctx
2fffb8a8 l     O .bss	000000c0 tf_mmap
2fffd000 l     O xlat_table	00002000 tf_xlat_tables
2fffbb2c l     O .bss	00000008 tf_mapped_regions
2fffc400 l     O .bss	00000020 tf_base_xlat_table
00000000 l    df *ABS*	00000000 xlat_tables_core.c
2fff429a l     F ro	00000124 mmap_add_region_check
2fff43be l     F ro	0000001a xlat_clean_dcache_range
2ffedffc l     F ro	00000028 xlat_table_get_index
2ffee024 l     F ro	0000013c xlat_tables_unmap_region
2ffee224 l     F ro	000001d8 xlat_tables_map_region
00000000 l    df *ABS*	00000000 clk.c
2fffbb34 l     O .bss	00000004 ops
00000000 l    df *ABS*	00000000 delay_timer.c
2fffbb38 l     O .bss	00000004 timer_ops
00000000 l    df *ABS*	00000000 generic_delay_timer.c
2fff43fe l     F ro	00000008 get_timer_value
2fffbb3c l     O .bss	0000000c ops
00000000 l    df *ABS*	00000000 stm32mp_clkfunc.c
00000000 l    df *ABS*	00000000 stm32mp_ddr.c
2fffc3f5 l     O .bss	00000001 axi_port_reenable_request
2fffc3f4 l     O .bss	00000001 host_interface_reenable_request
00000000 l    df *ABS*	00000000 stm32_gpio.c
2fff455c l     F ro	00000004 fdt32_to_cpu
2ffeed50 l     F ro	000000f0 set_gpio.constprop.0
00000000 l    df *ABS*	00000000 nvmem.c
2fffbb48 l     O .bss	0000000c nvmem_dev_array
2fff877b l     O ro	00000012 __func__.0
00000000 l    df *ABS*	00000000 stm32mp_tamp_nvram_core.c
2fff4588 l     F ro	00000004 fdt32_to_cpu
2ffef160 l     F ro	00000064 stm32_tamp_nvram_write_bkp
2ffef1c4 l     F ro	00000064 stm32_tamp_nvram_read_bkp.constprop.0.isra.0
2ffef228 l     F ro	000000a4 stm32_tamp_nvram_read_cell
2ffef2cc l     F ro	000000c4 stm32_tamp_nvram_write_cell
2fffbb60 l     O .bss	0000002c nvram_drv_data
2fffbb54 l     O .bss	0000000c static_bkpreg_zones_end.0
2fff5c9c l     O ro	00000008 stm32_tamp_nvram_nvmem_ops
00000000 l    df *ABS*	00000000 regulator_core.c
2fff45e6 l     F ro	00000004 fdt32_to_cpu
2fff45ea l     F ro	0000000a unlock_driver.isra.0
2fff45f4 l     F ro	0000000a lock_driver.isra.0
2fff8b01 l     O ro	00000016 __func__.1
2fffbb8c l     O .bss	0000017c rdev_array
2fff8ae8 l     O ro	00000019 __func__.0
00000000 l    df *ABS*	00000000 regulator_fixed.c
2fff4604 l     F ro	00000004 fixed_set_state
2fff4608 l     F ro	00000004 fixed_get_state
2fffbd08 l     O .bss	00000068 data
2fffa52c l     O .data	00000020 fixed_ops
2fff8b6c l     O ro	00000019 __func__.0
00000000 l    df *ABS*	00000000 stm32mp_dt.c
2fff460c l     F ro	00000004 fdt32_to_cpu
2ffefab0 l     F ro	00000024 fdt_get_node_parent_address_cells
2fffbd74 l     O .bss	00000004 fdt
2fffbd70 l     O .bss	00000004 size.1
2fff8c7e l     O ro	00000010 __func__.0
00000000 l    df *ABS*	00000000 stm32mp_fconf_fuse.c
2ffefee0 l     F ro	00000128 fconf_populate_stm32mp_fuse_provisioning
2fff9864 l     O ro	0000000c stm32mp_fuse__populator
00000000 l    df *ABS*	00000000 stm32mp1_private.c
2fff56e8 l     O ro	00000048 stm32mp1_mmap
2fff00d4 l     F ro	00000034 get_part_number
2fffbd78 l     O .bss	00000004 part_number.1
2fff5cb4 l     O ro	00000010 CSWTCH.27
2fff5ca4 l     O ro	00000010 CSWTCH.28
2fffa54c l     O .data	00000004 skip.0
00000000 l    df *ABS*	00000000 tzc400.c
2fffbd7c l     O .bss	00000008 tzc400
00000000 l    df *ABS*	00000000 bsec2.c
2fff05cc l     F ro	00000028 is_otp_invalid_mode
2fff05f4 l     F ro	00000018 bsec_lock
2fffbd84 l     O .bss	00000004 bsec_spinlock
2fff060c l     F ro	00000018 bsec_unlock
2fff0624 l     F ro	00000058 bsec_power_safmem
2fff067c l     F ro	00000018 otp_bank_offset
2fff0694 l     F ro	00000034 bsec_check_error
00000000 l    df *ABS*	00000000 stm32mp1_ddr_helpers.c
2fff9020 l     O ro	0000000a CSWTCH.37
00000000 l    df *ABS*	00000000 stm32_i2c.c
2fff4864 l     F ro	00000044 i2c_wait_flag
2fff0d84 l     F ro	0000002c i2c_transfer_config.isra.0
2fff48a8 l     F ro	0000008c i2c_ack_failed
2fff4934 l     F ro	00000042 i2c_wait_txis
2fff4976 l     F ro	00000042 i2c_wait_stop
2fff0db0 l     F ro	000001f0 i2c_read.constprop.0
2fff0fa0 l     F ro	00000218 i2c_write
2fff5cc4 l     O ro	00000060 i2c_specs
00000000 l    df *ABS*	00000000 stm32_iwdg.c
2fffbd88 l     O .bss	00000018 stm32_iwdg
00000000 l    df *ABS*	00000000 stm32mp_pmic.c
2fff1870 l     F ro	00000024 dt_get_pmic_node
2fffa554 l     O .data	00000004 node.2
2fff49e6 l     F ro	00000006 pmic_list_voltages
2fff49ec l     F ro	00000006 pmic_get_voltage
2fff49f2 l     F ro	00000006 pmic_set_voltage
2fff49f8 l     F ro	0000000a pmic_get_state
2fff4a02 l     F ro	00000044 pmic_set_flag
2fff4a46 l     F ro	0000000c pmic_set_state
2fffa558 l     O .data	00000004 status.3
2fffa550 l     O .data	00000004 i2c_node.1
2fffbda0 l     O .bss	00000004 pmic_i2c_addr
2fffbda4 l     O .bss	00000024 i2c_handle
2fff5d24 l     O ro	00000118 pmic_regs
2fff92d4 l     O ro	0000000e __func__.0
2fff5e3c l     O ro	00000020 pmic_ops
00000000 l    df *ABS*	00000000 stpmic1.c
2fff1af4 l     F ro	00000044 get_regulator_data
2fff5e5c l     O ro	00000118 regulators_table
2fffc3f6 l     O .bss	00000001 ldo3_special_mode
2fff6336 l     O ro	00000002 ldo3_special_mode_table
2fffc102 l     O .bss	00000002 pmic_i2c_addr
2fffbdc8 l     O .bss	00000004 pmic_i2c_handle
2fff650e l     O ro	00000080 buck1_voltage_table
2fff64c4 l     O ro	0000004a buck2_voltage_table
2fff6454 l     O ro	00000070 buck3_voltage_table
2fff63da l     O ro	0000007a buck4_voltage_table
2fff63a8 l     O ro	00000032 ldo1_voltage_table
2fff6376 l     O ro	00000032 ldo2_voltage_table
2fff6338 l     O ro	0000003e ldo3_voltage_table
2fff62c4 l     O ro	00000002 ldo4_voltage_table
2fff62f8 l     O ro	0000003e ldo5_voltage_table
2fff62c6 l     O ro	00000032 ldo6_voltage_table
2fff62c2 l     O ro	00000002 vref_ddr_voltage_table
2fff62c0 l     O ro	00000002 fixed_5v_voltage_table
00000000 l    df *ABS*	00000000 stm32mp1_reset.c
00000000 l    df *ABS*	00000000 stm32mp1_context.c
00000000 l    df *ABS*	00000000 stm32mp1_dbgmcu.c
2fff1f9c l     F ro	00000030 stm32mp1_dbgmcu_init
00000000 l    df *ABS*	00000000 stm32mp1_syscfg.c
00000000 l    df *ABS*	00000000 stm32mp_tamp_nvram_mp1.c
2fff5f74 l     O ro	00000008 stm32mp1_tamp_nvram
2fffa55c l     O .data	0000000c mp1_bkpreg_access
2fff5f7c l     O ro	00000018 mp1_zone_cfg_fields
00000000 l    df *ABS*	00000000 stm32mp1_clk.c
2fff4be2 l     F ro	00000020 clock_is_always_on
2fff2134 l     F ro	000000fc stm32mp1_check_pll_conf
2fff5fa8 l     O ro	00000080 stm32mp1_clk_pll
2fffc0a4 l     O .bss	00000018 stm32mp1_osc
2fff95ef l     O ro	00000004 stm32mp1_pll
2fff2230 l     F ro	00000034 stm32mp1_pll_config_output
2fff4c02 l     F ro	00000016 stm32mp1_clk_lock
2fff4c18 l     F ro	00000016 stm32mp1_clk_unlock
2fff4c2e l     F ro	00000036 stm32_clk_parse_fdt_by_name
2fff2264 l     F ro	00000034 stm32mp1_clk_get_gated_id
2fff658e l     O ro	000001d8 stm32mp1_clk_gate
2fff95b2 l     O ro	0000001a __func__.0
2fff2298 l     F ro	00000078 stm32mp1_clk_get_parent
2fff9642 l     O ro	00000023 parent_id_clock_id
2fff6028 l     O ro	00000108 stm32mp1_clk_sel
2fff2310 l     F ro	00000040 stm32mp_clk_is_enabled
2fff2350 l     F ro	00000090 stm32mp_clk_disable
2fffbfb0 l     O .bss	00000004 refcount_lock
2fffbfb4 l     O .bss	000000ec gate_refcounts
2fff23e0 l     F ro	0000008c stm32mp_clk_enable
2fff246c l     F ro	00000090 stm32_clk_configure_mux
2fff4c64 l     F ro	00000018 stm32mp1_pll_configure_src
2fff24fc l     F ro	000000ac stm32mp1_read_pll_freq
2fff95ec l     O ro	00000003 pllncfgr2
2fff25a8 l     F ro	00000228 stm32mp_clk_get_rate
2fff95d4 l     O ro	00000008 stm32mp1_mpu_apbx_div
2fff95cc l     O ro	00000008 stm32mp1_axi_div
2fff95dc l     O ro	00000010 stm32mp1_mcu_div
2fff27d0 l     F ro	00000054 stm32mp1_osc_wait.isra.0
2fffc0a0 l     O .bss	00000004 reg_lock
2fffc0bc l     O .bss	00000004 stm32_clock_data
2fffa568 l     O .data	00000018 stm32mp15_clock_data
2fff5f94 l     O ro	00000014 stm32mp_clk_ops
2fff6766 l     O ro	00000108 parent_mp15
2fff686e l     O ro	00000096 dividers_mp15
2fff963e l     O ro	00000004 i2c12_parents
2fff963a l     O ro	00000004 i2c35_parents
2fff9638 l     O ro	00000002 stgen_parents
2fff9634 l     O ro	00000004 i2c46_parents
2fff962e l     O ro	00000006 spi6_parents
2fff9628 l     O ro	00000006 usart1_parents
2fff9624 l     O ro	00000004 rng1_parents
2fff961f l     O ro	00000005 uart6_parents
2fff961a l     O ro	00000005 uart234578_parents
2fff9616 l     O ro	00000004 sdmmc12_parents
2fff9612 l     O ro	00000004 sdmmc3_parents
2fff960e l     O ro	00000004 qspi_parents
2fff960a l     O ro	00000004 fmc_parents
2fff9607 l     O ro	00000003 axiss_parents
2fff9603 l     O ro	00000004 mcuss_parents
2fff9600 l     O ro	00000003 usbphy_parents
2fff95fe l     O ro	00000002 usbo_parents
2fff95fa l     O ro	00000004 mpu_parents
2fff95f7 l     O ro	00000003 per_parents
2fff95f3 l     O ro	00000004 rtc_parents
00000000 l    df *ABS*	00000000 aeabi_uldivmod.o
00000000 l    df *ABS*	00000000 fdt.c
2fff4c7c l     F ro	00000018 fdt32_ld
00000000 l    df *ABS*	00000000 fdt_addresses.c
2fff4ebe l     F ro	0000002a fdt_cells
00000000 l    df *ABS*	00000000 fdt_ro.c
2fff4ee8 l     F ro	00000018 fdt32_ld
2fff4f00 l     F ro	00000032 nextprop_
2fff4f32 l     F ro	00000004 fdt32_ld_.isra.0
2fff4f36 l     F ro	00000034 fdt_get_property_by_offset_
2fff5094 l     F ro	0000007c fdt_get_property_namelen_
00000000 l    df *ABS*	00000000 assert.c
00000000 l    df *ABS*	00000000 printf.c
2fff54aa l     F ro	00000082 unsigned_num_print.part.0
00000000 l    df *ABS*	00000000 snprintf.c
2fff5546 l     F ro	000000ca unsigned_num_print
00000000 l    df *ABS*	00000000 bl2_arch_setup.c
00000000 l    df *ABS*	00000000 stm32mp_ddr_test.c
00000000 l    df *ABS*	00000000 tf_gunzip.c
00000000 l    df *ABS*	00000000 plat_image_load.c
00000000 l    df *ABS*	00000000 plat_bl_common.c
00000000 l    df *ABS*	00000000 popcountsi2.c
00000000 l    df *ABS*	00000000 ctzdi2.c
00000000 l    df *ABS*	00000000 udivmoddi4.c
00000000 l    df *ABS*	00000000 xlat_tables_utils.c
00000000 l    df *ABS*	00000000 memchr.c
00000000 l    df *ABS*	00000000 memcmp.c
00000000 l    df *ABS*	00000000 memcpy.c
00000000 l    df *ABS*	00000000 memmove.c
00000000 l    df *ABS*	00000000 memset.c
00000000 l    df *ABS*	00000000 strchr.c
00000000 l    df *ABS*	00000000 strcmp.c
00000000 l    df *ABS*	00000000 strlcpy.c
00000000 l    df *ABS*	00000000 strlen.c
00000000 l    df *ABS*	00000000 strncmp.c
00000000 l    df *ABS*	00000000 strnlen.c
00000000 l    df *ABS*	00000000 strrchr.c
00000000 l    df *ABS*	00000000 <stdin>
00000000 l    df *ABS*	00000000 bl2_el3_exceptions.o
00000000 l    df *ABS*	00000000 plat_bl2_mem_params_desc.c
2fffa2a4 l     O .data	00000284 bl2_mem_params_descs
2fff98a0 l     F ro	00000008 __spin_lock_from_thumb
2fff98a8 l     F ro	00000008 __enable_mmu_direct_svc_mon_from_thumb
2fff98b0 l     F ro	00000008 __bl2_run_next_image_from_thumb
2fff98b8 l     F ro	00000008 __spin_unlock_from_thumb
2fff98c0 l     F ro	00000008 __clean_dcache_range_from_thumb
2fff98c8 l     F ro	00000008 __flush_dcache_range_from_thumb
2fff98d0 l     F ro	00000008 __console_register_from_arm
2fff3ebe g     F ro	00000014 putchar
2fff09a0 g     F ro	000001dc ddr_sw_self_refresh_exit
2fff4232 g     F ro	0000001e stm32_clear_fwu_trial_boot_cnt
2ffef6f8 g     F ro	000000e0 regulator_list_voltages
2ffed8dc g     F ro	0000001c console_set_scope
2fff35c8 g     F ro	0000001c fdt_address_cells
2fff43f4 g     F ro	0000000a mdelay
2ffedb14 g     F ro	00000018 stm32mp_pwr_regs_lock
2fff4cbe g     F ro	00000054 fdt_offset_ptr
2fff49d4 g     F ro	00000012 stm32_i2c_mem_read
2fffc400 g       .bss	00000000 __PMF_TIMESTAMP_START__
2ffef5d4 g     F ro	00000030 regulator_enable
2ffea1e8 g     F ro	000000a4 fwu_get_alternate_boot_bank
2fff1f3c g     F ro	00000038 stm32_pm_context_is_valid
2fffa59c g     O .data	00000018 stm32mp_osc_node_label
2ffed89c g     F ro	00000040 console_register
2ffe91a8 g     F ro	00000034 reset_handler
2fff3d70 g     F ro	0000001e stm32mp_ddr_test_data_bus
2ffe95dc g     F ro	00000064 zeromem
2fff6904 g     O ro	00000034 version_string
2fff0710 g     F ro	00000034 bsec_read_sr_lock
2ffeb374 g     F ro	00000214 load_partition_table
2fff43d8 g     F ro	00000018 mmap_add_ctx
2ffed7f8 g     F ro	00000020 print_entry_point_info
2fffbee0 g     O .bss	000000d0 mp15_pll
2fff552c g     F ro	0000001a printf
2fff4a56 g     F ro	00000016 pmic_switch_off
2ffee8ec g     F ro	00000024 clk_is_enabled
2ffee4e8 g     F ro	00000154 mmap_add_dynamic_region_ctx
2ffedad8 g     F ro	0000000c stm32mp_get_boot_ctx_address
2fffb968 g     O .bss	00000018 mmu_cfg_params
2fff43f2 g     F ro	00000002 xlat_tables_print
2ffef514 g     F ro	0000004c regulator_get_by_name
2fffa000 g       ro	00000000 __RW_START__
2ffec644 g     F ro	00000028 dyn_cfg_dtb_info_getter
2fff0744 g     F ro	00000034 bsec_read_sw_lock
2fff1780 g     F ro	00000040 stm32_iwdg_refresh
2fffd000 g       xlat_table	00000000 __XLAT_TABLE_START__
2fffa080 g     O .data	00000214 policies
2fff5110 g     F ro	00000040 fdt_getprop_namelen
2fff0008 g     F ro	0000001c configure_mmu
2fff5064 g     F ro	00000018 fdt_first_property_offset
2fff3e84 g     F ro	00000004 bl2_el3_early_platform_setup
2ffedf54 g     F ro	00000028 mmap_add_dynamic_region
2ffe9310 g     F ro	0000006c asm_assert
2ffef0a4 g     F ro	00000090 nvmem_get_cell_by_index
2ffec624 g     F ro	00000020 dyn_cfg_dtb_info_get_index
2fff0778 g     F ro	0000004c bsec_write_otp
2ffe93dc g     F ro	00000034 do_panic
2ffedc90 g     F ro	00000030 stm32_get_magic_number_cell
2ffe943c g     F ro	00000010 report_data_abort
2fff543c g     F ro	0000002c memmove
2fff52aa g     F ro	00000020 fdt_parent_offset
2fff3e66  w    F ro	00000004 plat_sdmmc2_use_dma
2ffed4c4 g     F ro	000000b0 stm32_pwr_down_wfi_load
2ffede74 g     F ro	000000ac setup_mmu_cfg
2fff5610 g     F ro	0000001a snprintf
2fff4642 g     F ro	00000046 stm32mp_is_wakeup_from_standby
2ffee63c g     F ro	00000104 mmap_remove_dynamic_region_ctx
2ffeee40 g     F ro	00000240 dt_set_pinctrl_config
2fff057c g     F ro	00000050 tzc400_disable_filters
2fff5206 g     F ro	0000001a fdt_path_offset
2fffbac0 g     O .bss	00000004 storage_dev_handle
2fff4bc6 g     F ro	0000001c stm32_get_zdata_from_context
2ffed978  w    F ro	00000024 plat_log_get_prefix
2fff1b78 g     F ro	00000028 stpmic1_register_read
2fff4632 g     F ro	00000010 stm32mp1_addr_inside_backupsram
2ffe98d4 g     F ro	00000054 plat_report_exception
2ffec518 g     F ro	0000010c fconf_populate_dtb_registry
2fff6938 g     O ro	0000001e build_message
2ffef454 g     F ro	000000c0 stm32_tamp_nvram_init
2ffedf8c g     F ro	0000003c init_xlat_tables
2fffa000 g       .data	00000000 __DATA_START__
2fff006c g     F ro	00000020 stm32_get_gpio_bank_clock
2ffe9d04 g     F ro	00000030 get_bl_mem_params_node
2fff35e4 g     F ro	000000b0 fdt_get_string
2fff0704 g     F ro	0000000c bsec_read_debug_conf
2ffe9794 g     F ro	00000050 console_stm32_register
2ffedae4 g     F ro	0000000c stm32mp_get_boot_itf_selected
2ffea28c g     F ro	00000024 fwu_get_metadata
2ffedda0 g     F ro	00000028 xlat_arch_regime_get_xn_desc
2fff18c8 g     F ro	0000010c initialize_pmic_i2c
2ffeec1c g     F ro	00000010 stm32mp_stgen_restore_rate
2fff28c4 g     F ro	0000000c stm32mp1_clk_rcc_regs_unlock
2fff4510 g     F ro	0000004c stm32mp_ddr_wait_refresh_update_done_ack
2fff53b8 g     F ro	00000036 fdt_node_offset_by_compatible
2ffecd5c g     F ro	00000074 bl2_platform_setup
2ffea658 g     F ro	0000002c register_io_dev_block
2ffecc04 g     F ro	00000080 plat_fwu_set_metadata_image_source
2fff3e14 g     F ro	0000002e stm32mp_ddr_check_size
2ffeeb38 g     F ro	00000064 fdt_clk_read_uint32_default
2ffebbf8 g     F ro	00000044 stm32mp1_ddr_clk_enable
2ffe9b04 g       ro	00000000 __TEXT_RESIDENT_END__
2fff5426 g     F ro	00000016 memcpy
2ffecb80 g     F ro	00000084 plat_fwu_set_images_source
2ffedb04 g     F ro	00000008 stm32mp_ddrphyc_base
2ffe9ca4 g     F ro	0000001c flush_bl_params_desc
2ffe95dc g     F ro	00000064 zero_normalmem
2ffe9f20 g     F ro	00000088 fdtw_read_string
2fff3464 g     F ro	00000024 __aeabi_uldivmod
2ffef868 g     F ro	00000180 regulator_register
2fff19d4 g     F ro	000000f0 initialize_pmic
2fff1dc4 g     F ro	00000014 stpmic1_bind_i2c
2ffe98d0 g     F ro	00000004 platform_mem_init
2fff45b6 g     F ro	00000030 stm32_tamp_nvram_reg_field_read
2ffe942c g     F ro	00000010 report_prefetch_abort
2fff06c8 g     F ro	0000003c bsec_probe
2fff4688 g     F ro	0000002c bsec_read_otp
2fff38f0 g     F ro	000002d0 vsnprintf
2ffedf48 g     F ro	0000000c mmap_add
2fff1fcc g     F ro	0000002c stm32mp1_dbgmcu_get_chip_version
2fff4a9a g     F ro	0000002e stpmic1_register_update
2ffedb0c g     F ro	00000008 stm32mp_pwr_base
2fff413c g     F ro	00000006 plat_get_syscnt_freq2
2ffecb14 g     F ro	0000006c plat_fwu_get_boot_idx
2fff004c g     F ro	00000020 stm32_get_gpio_bank_offset
2ffe9af0 g     F ro	00000014 plat_panic_handler
2fff3e88 g     F ro	00000004 plat_flush_next_bl_params
2fff9840 g       ro	00000000 __RT_SVC_DESCS_START__
2fff4fcc g     F ro	0000007a fdt_subnode_offset_namelen
2fff0b7c g     F ro	00000018 ddr_read_sr_mode
2fffb200 g       stacks	00000000 __STACKS_END__
2fff528c g     F ro	0000001e fdt_node_depth
2fffc400 g       .bss	00000000 __PERCPU_BAKERY_LOCK_END__
2fff02bc g     F ro	00000028 stm32_iwdg_get_instance
2fff3f22 g     F ro	00000180 __udivmoddi4
2ffe9488 g     F ro	0000003c clean_dcache_range
2ffedd50 g     F ro	00000050 stm32_get_and_dec_fwu_trial_boot_cnt
2ffefbb0 g     F ro	00000088 dt_fill_device_info
2ffefb90 g     F ro	00000020 dt_set_stdout_pinctrl
2fff4406 g     F ro	0000000e stm32mp_ddr_start_sw_done
2ffeec2c g     F ro	00000048 stm32mp_ddr_set_reg
2fffa2a0 g     O .data	00000004 bl_mem_params_desc_ptr
2ffeaba4 g     F ro	00000034 io_size
2fff4cae g     F ro	00000010 fdt_header_size
2fffbdcc g     O .bss	00000064 mp15_clkdiv
2ffecc84 g     F ro	000000d8 fconf_populate_stm32mp_io_policies
2fff444e g     F ro	0000001a stm32mp_ddr_enable_axi_port
2ffef640 g     F ro	0000004c regulator_get_voltage
2ffeaa38 g     F ro	00000028 io_dev_open
2ffe9990 g     F ro	00000048 plat_report_data_abort
2ffe9278  w    F ro	0000000c plat_set_my_stack
2fff9840 g       ro	00000000 __RT_SVC_DESCS_END__
2fff4db8 g     F ro	00000024 fdt_check_node_offset_
2ffef560 g     F ro	00000074 regulator_get_by_supply_name
2ffe9cc0 g     F ro	00000044 get_bl_params_node_index
2ffe9288 g     F ro	00000074 stm32_pwr_down_wfi_wrapper
2ffe93a8 g     F ro	00000034 asm_print_hex
2ffeeccc g     F ro	0000004c stm32mp_ddr_set_qd3_update_conditions
2fff4414 g     F ro	0000003a stm32mp_ddr_wait_sw_done_ack
00001220 g       *ABS*	00000000 __BSS_SIZE__
2ffe938c g     F ro	0000001c asm_print_str
2ffec2cc g     F ro	00000184 stm32_sdmmc2_mmc_init
2ffef080 g     F ro	00000024 nvmem_driver_register
2ffe9ad8 g     F ro	00000008 plat_crash_console_flush
2fffbe30 g     O .bss	000000b0 mp15_clksrc
2fff0340 g     F ro	00000020 stm32mp_bkpram_get_access
2fff3ed2  w    F ro	00000004 plat_error_handler
2ffedafc g     F ro	00000008 stm32mp_ddrctrl_base
2fff56b8 g     F ro	00000014 strnlen
2fff5150 g     F ro	00000022 fdt_getprop
2fffbab0 g     O .bss	00000008 image_block_spec
2fff3250 g     F ro	00000214 stm32mp1_clk_probe
2ffed1a8 g     F ro	0000020c bl2_plat_handle_post_image_load
2fff98d8 g       ro	00000000 __RO_END_UNALIGNED__
2ffeea44 g     F ro	0000008c fdt_osc_read_freq
2ffed8f8 g     F ro	00000058 console_putc
2ffe99f4 g     F ro	00000004 plat_secondary_cold_boot_setup
2ffeb5f4 g     F ro	000004a8 stm32mp1_ddr_init
2ffedc64 g     F ro	0000002c stm32_display_board_info
2fff56cc g     F ro	0000001a strrchr
2fff4b8e g     F ro	00000014 stm32mp_system_reset
2fff4578 g     F ro	00000010 nvmem_cell_write
2ffe9a18 g     F ro	000000a0 plat_crash_console_init
2ffe944c g     F ro	0000003c flush_dcache_range
2fff1650 g     F ro	00000130 stm32_i2c_is_device_ready
2ffec6cc g     F ro	00000024 optee_header_is_valid
2ffee9b0 g     F ro	00000028 timer_init
2ffe9d88 g     F ro	000000c0 get_next_bl_params_from_mem_params_desc
2fff530c g     F ro	00000046 fdt_stringlist_contains
2fff4560 g     F ro	00000018 nvmem_cell_read
2fff4adc g     F ro	00000014 stpmic1_regulator_enable
2fff9870 g       ro	00000000 __PMF_SVC_DESCS_END__
2fff4268 g     F ro	00000006 xlat_get_min_virt_addr_space_size
2fffa5c4 g       .data	00000000 __RELA_END__
2fffa5c4 g       .data	00000000 __RELA_START__
2ffeb5bc g     F ro	00000038 get_partition_entry_by_guid
2fff2824 g     F ro	00000094 clk_stm32_set_div
2ffec8d0 g     F ro	00000010 open_fip
2fff44bc g     F ro	0000004a stm32mp_ddr_disable_host_interface
2fff1ba0 g     F ro	00000090 stpmic1_regulator_voltage_get
2fff3744 g     F ro	000001ac vprintf
2fff3ed8 g     F ro	0000002a __popcountsi2
2ffe9eb0 g     F ro	00000070 fdt_read_uint32_array
2fffa580 g     O .data	0000001c stm32mp15_clock_pdata
2ffeead0 g     F ro	00000068 fdt_clk_read_bool
2fff426e g     F ro	0000001c is_dcache_enabled
2ffeed18 g     F ro	00000038 stm32mp_ddr_unset_qd3_update_conditions
2ffeadf4 g     F ro	000004d0 mmc_init
2ffe95c8 g     F ro	00000014 dcsw_op_all
2ffe99e8 g     F ro	00000004 plat_reset_handler
2fff5046 g     F ro	0000001e fdt_subnode_offset
2ffec804 g     F ro	000000cc crc32_z
2ffe91e0 g     F ro	0000004c get_cpu_ops_ptr
2fff3e8c g     F ro	00000004 plat_get_bl_image_load_info
2ffeda98 g     F ro	00000040 stm32mp_save_boot_ctx_address
2ffed6d0 g     F ro	00000128 load_auth_image
2fff53ee g     F ro	0000001c memchr
2fff4b70 g     F ro	0000001e stpmic1_get_version
2fff1b38 g     F ro	00000040 stpmic1_regulator_levels_mv
2fff3e6a g     F ro	00000004 crc32
2ffff000 g       xlat_table	00000000 __BL2_END__
2ffeddf8 g     F ro	0000003c xlat_arch_current_el
2ffeebd0 g     F ro	0000004c stm32mp_stgen_config
2fff5220 g     F ro	0000006c fdt_supernode_atdepth_offset
2ffefd80 g     F ro	00000030 dt_get_board_model
2fff3be4 g     F ro	00000018 fdt_read_uint32_default
00000000 g       *ABS*	00000000 __PERCPU_BAKERY_LOCK_SIZE__
2fff4250 g     F ro	00000010 xlat_arch_get_pas
2fff458c g     F ro	0000002a stm32_tamp_nvram_reg_get_zone
2fff4e94 g     F ro	0000002a fdt_next_subnode
2ffedb64 g     F ro	00000030 stm32_get_otp_value_from_idx
2fff2124 g     F ro	00000008 stm32_tamp_nvram_get_cdata
2fffa5c2 g       .data	00000000 __DATA_RAM_END__
2ffec450 g     F ro	00000088 fconf_populate
2ffefdb0 g     F ro	000000a8 dt_find_otp_name
2fffc400 g       .bss	00000000 __PMF_PERCPU_TIMESTAMP_END__
2fff5658 g     F ro	00000028 strlcpy
2ffe9c1c g     F ro	00000054 bl2_main
2fff5690 g     F ro	00000028 strncmp
2fffa5c2 g       .data	00000000 __DATA_END__
2ffe93ac g       ro	00000000 asm_print_hex_bits
2ffef7f8 g     F ro	00000070 regulator_set_flag
2fffc400 g       .bss	00000000 __BASE_XLAT_TABLE_START__
2fff9870 g       ro	00000000 __CPU_OPS_START__
2fff1d58 g     F ro	00000030 stpmic1_regulator_bypass_mode_set
2ffee940 g     F ro	00000070 udelay
2ffefc60 g     F ro	00000028 dt_get_stdout_uart_info
2fff4ddc g     F ro	00000024 fdt_check_prop_offset_
2ffe94c4 g     F ro	0000003c inv_dcache_range
2fffa5c0 g     O .data	00000001 console_state
2ffe97ec g     F ro	00000048 console_stm32_core_putc
2fff3e76 g     F ro	0000000e plat_fwu_is_enabled
2fff1f74 g     F ro	00000028 stm32_restore_ddr_training_area
2ffe9000 g     F ro	00000140 bl2_entrypoint
2ffea2b0 g     F ro	00000048 fwu_init
2ffe9854 g     F ro	0000003c console_stm32_core_flush
2ffee9f0 g     F ro	00000054 generic_delay_timer_init
2ffed3b4 g     F ro	00000030 bl2_el3_plat_prepare_exit
2ffedaf0 g     F ro	0000000c stm32mp_get_boot_action
2ffee9d8 g     F ro	00000018 generic_delay_timer_init_args
2fffc400 g       .bss	00000000 __BAKERY_LOCK_END__
2fff540a g     F ro	0000001c memcmp
2fff4142 g     F ro	00000006 stm32mp_rcc_base
2ffebc3c g     F ro	0000000c stm32mp1_ddr_is_restored
2fff1d88 g     F ro	0000003c stpmic1_active_discharge_mode_set
2fff4610 g     F ro	00000022 dt_get_pwr_vdd_voltage
2ffee160 g     F ro	000000c4 xlat_desc
2fff5172 g     F ro	00000094 fdt_path_offset_namelen
2fff507c g     F ro	00000018 fdt_next_property_offset
2fff1ff8 g     F ro	00000030 stm32mp1_dbgmcu_get_chip_dev_id
2ffe99f8 g     F ro	0000001c plat_is_my_cpu_primary
2ffefc38 g     F ro	00000028 dt_get_node
2fffc420 g       .bss	00000000 __BSS_END__
2fff9880 g       ro	00000000 __CPU_OPS_END__
2ffed640 g     F ro	00000034 stm32mp1_arch_security_setup
2fff0514 g     F ro	00000068 tzc400_enable_filters
2fff4b4c g     F ro	00000024 stpmic1_regulator_icc_set
2ffe99ec g     F ro	00000008 plat_get_my_entrypoint
2ffeab58 g     F ro	0000004c io_seek
2fff52ca g     F ro	00000042 fdt_node_offset_by_phandle
2ffeac20 g     F ro	00000030 io_close
2fff3f02 g     F ro	00000020 __ctzdi2
2ffeeb9c g     F ro	00000034 fdt_get_clock_id
2fff04d0 g     F ro	00000044 tzc400_update_filters
2fff040c g     F ro	000000c4 tzc400_configure_region
2ffefad4 g     F ro	00000014 dt_open_and_check
2ffe965c g     F ro	00000008 disable_mmu_icache_secure
2fff20d4 g     F ro	00000050 stm32mp_syscfg_enable_io_compensation_finish
2fff9880 g       ro	00000000 __GOT_END__
2fff5468 g     F ro	00000042 memset
2fff3c78 g     F ro	00000004 partition_init
2fff44ae g     F ro	0000000e stm32mp_ddr_enable_host_interface
2fff9870 g       ro	00000000 __PARSER_LIB_DESCS_END__
2fffc400 g       .bss	00000000 __BAKERY_LOCK_START__
2ffecdd0 g     F ro	000003d8 bl2_el3_plat_arch_setup
2fff9880 g       ro	00000000 bl2_vector_table
2ffe9160 g     F ro	00000048 bl2_run_next_image
2ffef9e8 g     F ro	000000c8 fixed_regulator_register
2fff3bfc g     F ro	00000028 fdt_read_uint64
2ffe9834 g     F ro	0000001c console_stm32_putc
2fffa29c g     O .data	00000004 bl_mem_params_desc_num
2fff0314 g     F ro	0000002c stm32mp_skip_boot_device_after_standby
2fff2028 g     F ro	00000018 stm32mp_syscfg_enable_io_compensation_start
2fff3ed6  w    F ro	00000002 bl2_plat_preload_setup
2fff46d6 g     F ro	00000010 ddr_get_io_calibration_val
2fff4260 g     F ro	00000008 xlat_arch_get_max_supported_pa
2ffe9b04 g     F ro	00000118 bl2_load_images
2ffedfc8 g     F ro	00000034 enable_mmu_svc_mon
2fff0b94 g     F ro	000001f0 ddr_set_sr_mode
2fff4506 g     F ro	0000000a stm32mp_ddr_sw_selfref_exit
2fff3bc0 g     F ro	00000002 bl2_arch_setup
2fff9880 g       ro	00000000 __GOT_START__
2ffebcd4 g     F ro	00000054 stm32mp_ddr_dt_get_param
2fff3694 g     F ro	00000044 fdt_get_phandle
00000000 g       *ABS*	00000000 __PERCPU_TIMESTAMP_SIZE__
2fff5640 g     F ro	00000018 strcmp
2fff17c0 g     F ro	000000b0 stm32_iwdg_init
2ffef7d8 g     F ro	00000020 regulator_get_range
2ffec4d8 g     F ro	00000040 set_config_info
2ffed3e4 g     F ro	000000e0 stm32mp_board_ddr_power_init
2fff0360 g     F ro	00000024 tzc400_set_action
2fff1c90 g     F ro	00000098 stpmic1_regulator_voltage_set
2fff3d56 g     F ro	0000001a stm32mp_ddr_test_rw_access
2fff4ac8 g     F ro	0000000a stpmic1_powerctrl_on
2fff9870 g       ro	00000000 __FCONF_POPULATOR_END__
2ffe96e8 g     F ro	000000ac console_stm32_core_init
2ffe9c70 g     F ro	00000034 flush_bl_params_desc_args
2fff1e98 g     F ro	00000050 stm32_pm_get_optee_ep
2ffee8c8 g     F ro	00000024 clk_get_rate
2ffe9640 g     F ro	0000001c disable_mmu_secure
2fff11b8 g     F ro	00000064 stm32_i2c_get_setup_from_fdt
2ffedcc0 g     F ro	00000030 stm32_get_core1_branch_address_cell
2fff1c30 g     F ro	00000060 stpmic1_register_write
2ffebc84 g     F ro	00000050 stm32mp_ddr_dt_get_info
2fff4a6c g     F ro	0000002e stpmic1_is_regulator_enabled
2ffe9894 g     F ro	0000001c console_stm32_flush
2ffed99c g     F ro	000000c8 read_uuid
2fffc420 g       .bss	00000000 __BASE_XLAT_TABLE_END__
2fff34fc g     F ro	000000cc fdt_check_header
2ffef134 g     F ro	0000002c nvmem_get_cell_by_name
2ffed950 g     F ro	00000028 console_flush
2fff4158 g     F ro	0000001e stm32mp_map_ddr_non_cacheable
2fff428a g     F ro	00000010 xlat_arch_tlbi_va_sync
2fffa000 g       ro	00000000 __RO_END__
2ffeaa60 g     F ro	00000034 io_dev_init
2fff1d28 g     F ro	00000030 stpmic1_regulator_sink_mode_set
2ffec8e0 g     F ro	00000010 open_storage
2fff4f6a g     F ro	00000062 fdt_get_name
2ffefd50 g     F ro	00000030 dt_get_vdd_regulator
2ffefafc g     F ro	00000020 fdt_check_node
2ffeabd8 g     F ro	00000048 io_read
2ffe9ffc g     F ro	00000074 fdt_get_stdout_node_offset
2ffe9260 g     F ro	00000018 spin_unlock
2fff4e6e g     F ro	00000026 fdt_first_subnode
2fffb200 g       .bss	00000000 __BSS_START__
2fff4212 g     F ro	00000020 stm32_set_max_fwu_trial_boot_cnt
2fffa000 g       .data	00000000 __DATA_RAM_START__
2ffe9000 g       ro	00000000 __RO_START__
2fff4b28 g     F ro	00000024 stpmic1_regulator_mask_reset_set
2fff3d8e g     F ro	00000086 stm32mp_ddr_test_addr_bus
2ffee3fc g     F ro	000000ec mmap_add_region_ctx
2fff00b0 g     F ro	00000024 stm32mp_get_chip_dev_id
2fff9870 g       ro	00000000 __PMF_SVC_DESCS_START__
2ffe9ae4 g     F ro	00000008 plat_crash_console_putc
2fff07f8 g     F ro	000000f0 bsec_program_otp
2ffeaac4 g     F ro	00000094 io_open
2fff4e00 g     F ro	0000006e fdt_next_node
2fff0290 g     F ro	0000002c stm32mp_check_closed_device
2fff4ad2 g     F ro	0000000a stpmic1_switch_off
2ffead1c g     F ro	000000d8 mmc_read_blocks
2fff3bc2 g     F ro	0000000e bl2_el3_setup
2fff1e38 g     F ro	00000060 stm32mp_reset_deassert
2ffefae8 g     F ro	00000014 fdt_get_address
2ffe923c g     F ro	00000024 spin_lock
2ffed874 g     F ro	00000028 console_is_registered
2ffee910 g     F ro	00000030 clk_register
2ffedb2c g     F ro	00000018 stm32mp_pwr_regs_unlock
2ffefc88 g     F ro	00000070 dt_match_instance_by_compatible
2fff46b4 g     F ro	00000022 ddr_enable_clock
2fff41ec g     F ro	00000026 stm32_fwu_set_boot_idx
2ffefcf8 g     F ro	00000058 dt_get_ddr_size
2ffede34 g     F ro	00000040 is_mmu_enabled_ctx
2fff08e8 g     F ro	000000b8 bsec_shadow_read_otp
2ffecad0 g     F ro	00000044 plat_get_image_source
2ffee8a4 g     F ro	00000024 clk_disable
2ffedcf0 g     F ro	00000030 stm32_get_fwu_info_cell
2fff0384 g     F ro	0000005c tzc400_init
2ffed818 g     F ro	0000005c tf_log
2fffbac4 g     O .bss	00000004 fip_dev_handle
2ffeaa10 g     F ro	00000028 io_register_device
2fff1ee8 g     F ro	00000054 stm32_context_save_bl2_param
2fff9840 g       ro	00000000 __FCONF_POPULATOR_START__
2fff46e6 g     F ro	0000017e ddr_standby_sr_entry
2ffec6f0 g     F ro	00000114 parse_optee_header
2fff4a52 g     F ro	00000004 pmic_voltages_init
2ffe9e48 g     F ro	00000068 populate_next_bl_params_config
2ffff000 g       xlat_table	00000000 __RW_END__
2fff0024 g     F ro	00000028 stm32_get_gpio_bank_base
2ffefb1c g     F ro	00000074 fdt_get_status
2fff3ea0 g     F ro	0000001a stm32_pwr_cstop_critic_exit
2fff1dd8 g     F ro	00000060 stm32mp_reset_assert
2fff28b8 g     F ro	0000000c stm32mp1_clk_rcc_regs_lock
2fff4182 g     F ro	0000006a stm32_save_boot_info
2ffe9938 g     F ro	00000048 plat_report_prefetch_abort
2fff3bd4 g     F ro	00000010 fdt_read_uint32
2ffe9d34 g     F ro	00000054 get_bl_load_info_from_mem_params_desc
2fffa600 g       stacks	00000000 __STACKS_START__
2ffed674 g     F ro	0000005c stm32mp1_security_setup
2ffe9fa8 g     F ro	00000054 fdtw_read_uuid
2fff0108 g     F ro	00000148 stm32mp_get_soc_name
2ffef604 g     F ro	0000003c regulator_disable
2fff3e6e g     F ro	00000004 tf_crc32
2fff4d12 g     F ro	000000a6 fdt_next_tag
2fffc400 g       .bss	00000000 __PMF_TIMESTAMP_END__
2fff0250 g     F ro	0000001c stm32mp_print_cpuinfo
2ffe9000 g       ro	00000000 __TEXT_RESIDENT_START__
2ffeb2c4 g     F ro	000000b0 parse_gpt_entry
2ffeec74 g     F ro	00000058 stm32mp_ddr_sw_selfref_entry
2fff212c g     F ro	00000008 stm32_tamp_nvram_get_access_rights
2ffee740 g     F ro	00000140 init_xlat_tables_ctx
2fff1ac4 g     F ro	00000030 print_pmic_info_and_debug
2fff121c g     F ro	00000434 stm32_i2c_init
2fff49b8 g     F ro	0000001c stm32_i2c_mem_write
2ffff000 g       xlat_table	00000000 __XLAT_TABLE_END__
2ffeca70 g     F ro	00000060 bl2_plat_handle_pre_image_load
2fff36d8 g     F ro	0000002c fdt_get_alias_namelen
2ffef390 g     F ro	000000c4 stm32_tamp_nvram_update_rights
2fff4148 g     F ro	00000010 stm32mp_lock_available
2fff008c g     F ro	00000024 stm32mp_get_chip_version
2fff5680 g     F ro	00000010 strlen
2fff28d0 g     F ro	00000980 stm32mp1_clk_init
2ffe9418 g     F ro	00000014 report_exception
2ffedb44 g     F ro	00000020 stm32_get_otp_index
2ffeddc8 g     F ro	00000030 xlat_arch_tlbi_va
2fff02e4 g     F ro	00000030 stm32_iwdg_get_otp_config
2fff1894 g     F ro	00000034 dt_pmic_status
2ffeaa94 g     F ro	00000030 io_dev_close
2fff372c g     F ro	00000018 __assert
2fff562a g     F ro	00000016 strchr
2fff43f0 g     F ro	00000002 xlat_mmap_print
2ffea9a4 g     F ro	0000002c register_io_dev_fip
2fff4468 g     F ro	00000046 stm32mp_ddr_disable_axi_port
2fff4af0 g     F ro	00000014 stpmic1_regulator_disable
2ffebc48 g     F ro	0000003c stm32mp1_ddr_probe
2fff4b04 g     F ro	00000024 stpmic1_regulator_pull_down_set
2ffe9668 g     F ro	00000074 enable_mmu_direct_svc_mon
2fff03e0 g     F ro	0000002c tzc400_configure_region0
2ffedbd8 g     F ro	0000008c stm32mp_uart_console_setup
2fff3488 g     F ro	00000074 fdt_ro_probe_
2fff5352 g     F ro	00000066 fdt_stringlist_search
2ffee880 g     F ro	00000024 clk_enable
2ffef68c g     F ro	0000006c regulator_set_voltage
2fff3704 g     F ro	00000028 fdt_node_check_compatible
2ffec8f0 g     F ro	00000180 stm32mp_io_setup
2fff4ba2 g     F ro	00000024 stm32_clean_context
2ffedd20 g     F ro	00000030 stm32_get_boot_mode_cell
2ffedf7c g     F ro	00000010 mmap_remove_dynamic_region
2ffedb94 g     F ro	00000044 stm32_get_otp_value
2ffefe58 g     F ro	00000088 dt_get_otp_by_phandle
2fffbad4 g     O .bss	00000004 console_list
2fff3c24 g     F ro	00000004 device_type_block
2fff4176 g     F ro	0000000c stm32mp_unmap_ddr
2fff026c g     F ro	00000024 stm32mp_print_boardinfo
2fff3e90 g     F ro	00000010 plat_get_next_bl_params
2fff4c94 g     F ro	0000001a fdt_header_size_
2fff45fe g     F ro	00000006 regulator_set_min_voltage
2ffeb588 g     F ro	00000034 get_partition_entry
2fff3e72 g     F ro	00000004 plat_try_backup_partitions
2fff07c4 g     F ro	00000034 bsec_read_sp_lock
2fffc400 g       .bss	00000000 __PERCPU_BAKERY_LOCK_START__
2ffedf20 g     F ro	00000028 mmap_add_region
2fff2040 g     F ro	00000094 stm32mp_syscfg_init
2fff9870 g       ro	00000000 __PARSER_LIB_DESCS_START__



Disassembly of section ro:

2ffe9000 <bl2_entrypoint>:
2ffe9000:	e1a09000 	mov	r9, r0
2ffe9004:	e1a0a001 	mov	sl, r1
2ffe9008:	e1a0b002 	mov	fp, r2
2ffe900c:	e1a0c003 	mov	ip, r3
2ffe9010:	ee110f11 	mrc	15, 0, r0, cr1, cr1, {0}
2ffe9014:	e3100001 	tst	r0, #1
2ffe9018:	0a000002 	beq	2ffe9028 <bl2_entrypoint+0x28>
2ffe901c:	e59f011c 	ldr	r0, [pc, #284]	@ 2ffe9140 <do_primary_cold_boot+0x50>
2ffe9020:	e3a010f7 	mov	r1, #247	@ 0xf7
2ffe9024:	ea0000b9 	b	2ffe9310 <asm_assert>
2ffe9028:	e59f0114 	ldr	r0, [pc, #276]	@ 2ffe9144 <do_primary_cold_boot+0x54>
2ffe902c:	ee010f10 	mcr	15, 0, r0, cr1, cr0, {0}
2ffe9030:	f57ff06f 	isb	sy
2ffe9034:	f1020016 	cps	#22
2ffe9038:	f57ff06f 	isb	sy
2ffe903c:	eb00026a 	bl	2ffe99ec <plat_get_my_entrypoint>
2ffe9040:	e3500000 	cmp	r0, #0
2ffe9044:	112fff10 	bxne	r0
2ffe9048:	e59f00f8 	ldr	r0, [pc, #248]	@ 2ffe9148 <do_primary_cold_boot+0x58>
2ffe904c:	ee0c0f10 	mcr	15, 0, r0, cr12, cr0, {0}
2ffe9050:	ee0c0f30 	mcr	15, 0, r0, cr12, cr0, {1}
2ffe9054:	f57ff06f 	isb	sy
2ffe9058:	eb000052 	bl	2ffe91a8 <reset_handler>
2ffe905c:	e59f10e8 	ldr	r1, [pc, #232]	@ 2ffe914c <do_primary_cold_boot+0x5c>
2ffe9060:	ee110f10 	mrc	15, 0, r0, cr1, cr0, {0}
2ffe9064:	e1800001 	orr	r0, r0, r1
2ffe9068:	ee010f10 	mcr	15, 0, r0, cr1, cr0, {0}
2ffe906c:	f57ff06f 	isb	sy
2ffe9070:	e3a00c02 	mov	r0, #512	@ 0x200
2ffe9074:	ee010f11 	mcr	15, 0, r0, cr1, cr1, {0}
2ffe9078:	f1080100 	cpsie	a
2ffe907c:	f57ff06f 	isb	sy
2ffe9080:	ee110f51 	mrc	15, 0, r0, cr1, cr1, {2}
2ffe9084:	e2000807 	and	r0, r0, #458752	@ 0x70000
2ffe9088:	e3800b03 	orr	r0, r0, #3072	@ 0xc00
2ffe908c:	ee101f51 	mrc	15, 0, r1, cr0, cr1, {2}
2ffe9090:	e7e31651 	ubfx	r1, r1, #12, #4
2ffe9094:	e3510001 	cmp	r1, #1
2ffe9098:	1a000000 	bne	2ffe90a0 <bl2_entrypoint+0xa0>
2ffe909c:	e3800601 	orr	r0, r0, #1048576	@ 0x100000
2ffe90a0:	ee010f51 	mcr	15, 0, r0, cr1, cr1, {2}
2ffe90a4:	f57ff06f 	isb	sy
2ffe90a8:	e3a0060f 	mov	r0, #15728640	@ 0xf00000
2ffe90ac:	ee010f50 	mcr	15, 0, r0, cr1, cr0, {2}
2ffe90b0:	f57ff06f 	isb	sy
2ffe90b4:	e3a00020 	mov	r0, #32
2ffe90b8:	ee090f1c 	mcr	15, 0, r0, cr9, cr12, {0}
2ffe90bc:	ee100f11 	mrc	15, 0, r0, cr0, cr1, {0}
2ffe90c0:	e200040f 	and	r0, r0, #251658240	@ 0xf000000
2ffe90c4:	e3500401 	cmp	r0, #16777216	@ 0x1000000
2ffe90c8:	1a000002 	bne	2ffe90d8 <bl2_entrypoint+0xd8>
2ffe90cc:	e10f0000 	mrs	r0, CPSR
2ffe90d0:	e3800602 	orr	r0, r0, #2097152	@ 0x200000
2ffe90d4:	e12ff000 	msr	CPSR_fsxc, r0
2ffe90d8:	eb000246 	bl	2ffe99f8 <plat_is_my_cpu_primary>
2ffe90dc:	e3500000 	cmp	r0, #0
2ffe90e0:	1a000002 	bne	2ffe90f0 <do_primary_cold_boot>
2ffe90e4:	eb000242 	bl	2ffe99f4 <plat_secondary_cold_boot_setup>
2ffe90e8:	eb000280 	bl	2ffe9af0 <plat_panic_handler>
2ffe90ec:	e320f000 	nop	{0}

2ffe90f0 <do_primary_cold_boot>:
2ffe90f0:	eb0001f6 	bl	2ffe98d0 <platform_mem_init>
2ffe90f4:	e59f0054 	ldr	r0, [pc, #84]	@ 2ffe9150 <do_primary_cold_boot+0x60>
2ffe90f8:	e59f1054 	ldr	r1, [pc, #84]	@ 2ffe9154 <do_primary_cold_boot+0x64>
2ffe90fc:	e0411000 	sub	r1, r1, r0
2ffe9100:	eb0000ef 	bl	2ffe94c4 <inv_dcache_range>
2ffe9104:	e1a0700c 	mov	r7, ip
2ffe9108:	e59f0048 	ldr	r0, [pc, #72]	@ 2ffe9158 <do_primary_cold_boot+0x68>
2ffe910c:	e59f1048 	ldr	r1, [pc, #72]	@ 2ffe915c <do_primary_cold_boot+0x6c>
2ffe9110:	e0411000 	sub	r1, r1, r0
2ffe9114:	eb000130 	bl	2ffe95dc <zero_normalmem>
2ffe9118:	e1a0c007 	mov	ip, r7
2ffe911c:	eb000055 	bl	2ffe9278 <plat_set_my_stack>
2ffe9120:	e1a00009 	mov	r0, r9
2ffe9124:	e1a0100a 	mov	r1, sl
2ffe9128:	e1a0200b 	mov	r2, fp
2ffe912c:	e1a0300c 	mov	r3, ip
2ffe9130:	fb002aa2 	blx	2fff3bc2 <bl2_el3_setup>
2ffe9134:	fa0002b8 	blx	2ffe9c1c <bl2_main>
2ffe9138:	eb00026c 	bl	2ffe9af0 <plat_panic_handler>
2ffe913c:	e320f000 	nop	{0}
2ffe9140:	2fff9696 	.word	0x2fff9696
2ffe9144:	00c50038 	.word	0x00c50038
2ffe9148:	2fff9880 	.word	0x2fff9880
2ffe914c:	00001002 	.word	0x00001002
2ffe9150:	2fffa000 	.word	0x2fffa000
2ffe9154:	2ffff000 	.word	0x2ffff000
2ffe9158:	2fffb200 	.word	0x2fffb200
2ffe915c:	2fffc420 	.word	0x2fffc420

2ffe9160 <bl2_run_next_image>:
2ffe9160:	e1a08000 	mov	r8, r0
2ffe9164:	eb00013c 	bl	2ffe965c <disable_mmu_icache_secure>
2ffe9168:	ee080f17 	mcr	15, 0, r0, cr8, cr7, {0}
2ffe916c:	f57ff04f 	dsb	sy
2ffe9170:	f57ff06f 	isb	sy
2ffe9174:	e1a00008 	mov	r0, r8
2ffe9178:	fa00108d 	blx	2ffed3b4 <bl2_el3_plat_prepare_exit>
2ffe917c:	e598e008 	ldr	lr, [r8, #8]
2ffe9180:	e598100c 	ldr	r1, [r8, #12]
2ffe9184:	e163f001 	msr	SPSR_xc, r1
2ffe9188:	f1020013 	cps	#19
2ffe918c:	e598e010 	ldr	lr, [r8, #16]
2ffe9190:	f1020016 	cps	#22
2ffe9194:	e2888014 	add	r8, r8, #20
2ffe9198:	e898000f 	ldm	r8, {r0, r1, r2, r3}
2ffe919c:	e160006e 	eret
2ffe91a0:	f57ff047 	dsb	un
2ffe91a4:	f57ff06f 	isb	sy

2ffe91a8 <reset_handler>:
2ffe91a8:	e1a0800e 	mov	r8, lr
2ffe91ac:	eb00020d 	bl	2ffe99e8 <plat_reset_handler>
2ffe91b0:	eb00000a 	bl	2ffe91e0 <get_cpu_ops_ptr>
2ffe91b4:	e3500000 	cmp	r0, #0
2ffe91b8:	1a000002 	bne	2ffe91c8 <reset_handler+0x20>
2ffe91bc:	e59f0018 	ldr	r0, [pc, #24]	@ 2ffe91dc <reset_handler+0x34>
2ffe91c0:	e3a01024 	mov	r1, #36	@ 0x24
2ffe91c4:	ea000051 	b	2ffe9310 <asm_assert>
2ffe91c8:	e5901004 	ldr	r1, [r0, #4]
2ffe91cc:	e3510000 	cmp	r1, #0
2ffe91d0:	e1a0e008 	mov	lr, r8
2ffe91d4:	112fff11 	bxne	r1
2ffe91d8:	e12fff1e 	bx	lr
2ffe91dc:	2fff96bf 	.word	0x2fff96bf

2ffe91e0 <get_cpu_ops_ptr>:
2ffe91e0:	e59f4044 	ldr	r4, [pc, #68]	@ 2ffe922c <error_exit+0x4>
2ffe91e4:	e59f5044 	ldr	r5, [pc, #68]	@ 2ffe9230 <error_exit+0x8>
2ffe91e8:	e3a00000 	mov	r0, #0
2ffe91ec:	ee102f10 	mrc	15, 0, r2, cr0, cr0, {0}
2ffe91f0:	e59f303c 	ldr	r3, [pc, #60]	@ 2ffe9234 <error_exit+0xc>
2ffe91f4:	e0022003 	and	r2, r2, r3
2ffe91f8:	e1540005 	cmp	r4, r5
2ffe91fc:	2a000009 	bcs	2ffe9228 <error_exit>
2ffe9200:	e4941010 	ldr	r1, [r4], #16
2ffe9204:	e0011003 	and	r1, r1, r3
2ffe9208:	e1510002 	cmp	r1, r2
2ffe920c:	1afffff9 	bne	2ffe91f8 <get_cpu_ops_ptr+0x18>
2ffe9210:	e2440010 	sub	r0, r4, #16
2ffe9214:	e3500000 	cmp	r0, #0
2ffe9218:	1a000002 	bne	2ffe9228 <error_exit>
2ffe921c:	e59f0014 	ldr	r0, [pc, #20]	@ 2ffe9238 <error_exit+0x10>
2ffe9220:	e3a0109c 	mov	r1, #156	@ 0x9c
2ffe9224:	ea000039 	b	2ffe9310 <asm_assert>

2ffe9228 <error_exit>:
2ffe9228:	e12fff1e 	bx	lr
2ffe922c:	2fff9870 	.word	0x2fff9870
2ffe9230:	2fff9880 	.word	0x2fff9880
2ffe9234:	ff00fff0 	.word	0xff00fff0
2ffe9238:	2fff96bf 	.word	0x2fff96bf

2ffe923c <spin_lock>:
2ffe923c:	e3a02001 	mov	r2, #1
2ffe9240:	e1901f9f 	ldrex	r1, [r0]
2ffe9244:	e3510000 	cmp	r1, #0
2ffe9248:	1320f002 	wfene
2ffe924c:	01801f92 	strexeq	r1, r2, [r0]
2ffe9250:	03510000 	cmpeq	r1, #0
2ffe9254:	1afffff9 	bne	2ffe9240 <spin_lock+0x4>
2ffe9258:	f57ff05f 	dmb	sy
2ffe925c:	e12fff1e 	bx	lr

2ffe9260 <spin_unlock>:
2ffe9260:	e3a01000 	mov	r1, #0
2ffe9264:	f57ff05f 	dmb	sy
2ffe9268:	e5801000 	str	r1, [r0]
2ffe926c:	f57ff04f 	dsb	sy
2ffe9270:	e320f004 	sev
2ffe9274:	e12fff1e 	bx	lr

2ffe9278 <plat_set_my_stack>:
2ffe9278:	e59f0004 	ldr	r0, [pc, #4]	@ 2ffe9284 <plat_set_my_stack+0xc>
2ffe927c:	e1a0d000 	mov	sp, r0
2ffe9280:	e12fff1e 	bx	lr
2ffe9284:	2fffb200 	.word	0x2fffb200

2ffe9288 <stm32_pwr_down_wfi_wrapper>:
2ffe9288:	e92d4070 	push	{r4, r5, r6, lr}
2ffe928c:	e1a02000 	mov	r2, r0
2ffe9290:	e1a03001 	mov	r3, r1
2ffe9294:	e59f1060 	ldr	r1, [pc, #96]	@ 2ffe92fc <stm32_pwr_down_wfi_wrapper+0x74>
2ffe9298:	e581d000 	str	sp, [r1]
2ffe929c:	e59f105c 	ldr	r1, [pc, #92]	@ 2ffe9300 <stm32_pwr_down_wfi_wrapper+0x78>
2ffe92a0:	ee1c0f10 	mrc	15, 0, r0, cr12, cr0, {0}
2ffe92a4:	e5810000 	str	r0, [r1]
2ffe92a8:	e59f1054 	ldr	r1, [pc, #84]	@ 2ffe9304 <stm32_pwr_down_wfi_wrapper+0x7c>
2ffe92ac:	ee1c0f30 	mrc	15, 0, r0, cr12, cr0, {1}
2ffe92b0:	e5810000 	str	r0, [r1]
2ffe92b4:	e59f104c 	ldr	r1, [pc, #76]	@ 2ffe9308 <stm32_pwr_down_wfi_wrapper+0x80>
2ffe92b8:	ee0c1f10 	mcr	15, 0, r1, cr12, cr0, {0}
2ffe92bc:	ee0c1f30 	mcr	15, 0, r1, cr12, cr0, {1}
2ffe92c0:	e59fd044 	ldr	sp, [pc, #68]	@ 2ffe930c <stm32_pwr_down_wfi_wrapper+0x84>
2ffe92c4:	e1a00002 	mov	r0, r2
2ffe92c8:	e1a01003 	mov	r1, r3
2ffe92cc:	fa00107c 	blx	2ffed4c4 <stm32_pwr_down_wfi_load>
2ffe92d0:	e59f1024 	ldr	r1, [pc, #36]	@ 2ffe92fc <stm32_pwr_down_wfi_wrapper+0x74>
2ffe92d4:	e591d000 	ldr	sp, [r1]
2ffe92d8:	e59f1020 	ldr	r1, [pc, #32]	@ 2ffe9300 <stm32_pwr_down_wfi_wrapper+0x78>
2ffe92dc:	e5910000 	ldr	r0, [r1]
2ffe92e0:	ee0c0f10 	mcr	15, 0, r0, cr12, cr0, {0}
2ffe92e4:	e59f1018 	ldr	r1, [pc, #24]	@ 2ffe9304 <stm32_pwr_down_wfi_wrapper+0x7c>
2ffe92e8:	e5910000 	ldr	r0, [r1]
2ffe92ec:	ee0c0f30 	mcr	15, 0, r0, cr12, cr0, {1}
2ffe92f0:	f57ff04f 	dsb	sy
2ffe92f4:	f57ff06f 	isb	sy
2ffe92f8:	e8bd8070 	pop	{r4, r5, r6, pc}
2ffe92fc:	2fffa5b4 	.word	0x2fffa5b4
2ffe9300:	2fffa5b8 	.word	0x2fffa5b8
2ffe9304:	2fffa5bc 	.word	0x2fffa5bc
2ffe9308:	2fff9880 	.word	0x2fff9880
2ffe930c:	2fffb200 	.word	0x2fffb200

2ffe9310 <asm_assert>:
2ffe9310:	e1a05000 	mov	r5, r0
2ffe9314:	e1a06001 	mov	r6, r1
2ffe9318:	eb0001be 	bl	2ffe9a18 <plat_crash_console_init>
2ffe931c:	e3500000 	cmp	r0, #0
2ffe9320:	0a000013 	beq	2ffe9374 <_assert_loop>
2ffe9324:	e59f4050 	ldr	r4, [pc, #80]	@ 2ffe937c <_assert_loop+0x8>
2ffe9328:	eb000017 	bl	2ffe938c <asm_print_str>
2ffe932c:	e1a04005 	mov	r4, r5
2ffe9330:	eb000015 	bl	2ffe938c <asm_print_str>
2ffe9334:	e59f4044 	ldr	r4, [pc, #68]	@ 2ffe9380 <_assert_loop+0xc>
2ffe9338:	eb000013 	bl	2ffe938c <asm_print_str>
2ffe933c:	e59f4040 	ldr	r4, [pc, #64]	@ 2ffe9384 <_assert_loop+0x10>
2ffe9340:	e1160004 	tst	r6, r4
2ffe9344:	1a00000a 	bne	2ffe9374 <_assert_loop>
2ffe9348:	e1a04006 	mov	r4, r6
2ffe934c:	e3a0600a 	mov	r6, #10
2ffe9350:	e59f5030 	ldr	r5, [pc, #48]	@ 2ffe9388 <_assert_loop+0x14>

2ffe9354 <dec_print_loop>:
2ffe9354:	e730f514 	udiv	r0, r4, r5
2ffe9358:	e0644590 	mls	r4, r0, r5, r4
2ffe935c:	e2800030 	add	r0, r0, #48	@ 0x30
2ffe9360:	eb0001df 	bl	2ffe9ae4 <plat_crash_console_putc>
2ffe9364:	e735f615 	udiv	r5, r5, r6
2ffe9368:	e3550000 	cmp	r5, #0
2ffe936c:	1afffff8 	bne	2ffe9354 <dec_print_loop>
2ffe9370:	eb0001d8 	bl	2ffe9ad8 <plat_crash_console_flush>

2ffe9374 <_assert_loop>:
2ffe9374:	eb0001dd 	bl	2ffe9af0 <plat_panic_handler>
2ffe9378:	e320f000 	nop	{0}
2ffe937c:	2fff96de 	.word	0x2fff96de
2ffe9380:	2fff96ec 	.word	0x2fff96ec
2ffe9384:	ffff0000 	.word	0xffff0000
2ffe9388:	00002710 	.word	0x00002710

2ffe938c <asm_print_str>:
2ffe938c:	e1a0700e 	mov	r7, lr
2ffe9390:	e4d40001 	ldrb	r0, [r4], #1
2ffe9394:	e3500000 	cmp	r0, #0
2ffe9398:	0a000001 	beq	2ffe93a4 <asm_print_str+0x18>
2ffe939c:	eb0001d0 	bl	2ffe9ae4 <plat_crash_console_putc>
2ffe93a0:	eafffffa 	b	2ffe9390 <asm_print_str+0x4>
2ffe93a4:	e12fff17 	bx	r7

2ffe93a8 <asm_print_hex>:
2ffe93a8:	e3a05020 	mov	r5, #32

2ffe93ac <asm_print_hex_bits>:
2ffe93ac:	e1a0700e 	mov	r7, lr
2ffe93b0:	e2455004 	sub	r5, r5, #4
2ffe93b4:	e1a00534 	lsr	r0, r4, r5
2ffe93b8:	e200000f 	and	r0, r0, #15
2ffe93bc:	e350000a 	cmp	r0, #10
2ffe93c0:	3a000000 	bcc	2ffe93c8 <asm_print_hex_bits+0x1c>
2ffe93c4:	e2800027 	add	r0, r0, #39	@ 0x27
2ffe93c8:	e2800030 	add	r0, r0, #48	@ 0x30
2ffe93cc:	eb0001c4 	bl	2ffe9ae4 <plat_crash_console_putc>
2ffe93d0:	e3550000 	cmp	r5, #0
2ffe93d4:	1afffff5 	bne	2ffe93b0 <asm_print_hex_bits+0x4>
2ffe93d8:	e12fff17 	bx	r7

2ffe93dc <do_panic>:
2ffe93dc:	e24e6004 	sub	r6, lr, #4
2ffe93e0:	eb00018c 	bl	2ffe9a18 <plat_crash_console_init>
2ffe93e4:	e3500000 	cmp	r0, #0
2ffe93e8:	0a000006 	beq	2ffe9408 <_panic_handler>
2ffe93ec:	e59f401c 	ldr	r4, [pc, #28]	@ 2ffe9410 <_panic_handler+0x8>
2ffe93f0:	ebffffe5 	bl	2ffe938c <asm_print_str>
2ffe93f4:	e1a04006 	mov	r4, r6
2ffe93f8:	ebffffea 	bl	2ffe93a8 <asm_print_hex>
2ffe93fc:	e59f4010 	ldr	r4, [pc, #16]	@ 2ffe9414 <_panic_handler+0xc>
2ffe9400:	ebffffe1 	bl	2ffe938c <asm_print_str>
2ffe9404:	eb0001b3 	bl	2ffe9ad8 <plat_crash_console_flush>

2ffe9408 <_panic_handler>:
2ffe9408:	e1a0e006 	mov	lr, r6
2ffe940c:	ea0001b7 	b	2ffe9af0 <plat_panic_handler>
2ffe9410:	2fff96f3 	.word	0x2fff96f3
2ffe9414:	2fff9704 	.word	0x2fff9704

2ffe9418 <report_exception>:
2ffe9418:	e10f0000 	mrs	r0, CPSR
2ffe941c:	e200001f 	and	r0, r0, #31
2ffe9420:	eb00012b 	bl	2ffe98d4 <plat_report_exception>
2ffe9424:	eb0001b1 	bl	2ffe9af0 <plat_panic_handler>
2ffe9428:	e320f000 	nop	{0}

2ffe942c <report_prefetch_abort>:
2ffe942c:	e1040300 	mrs	r0, LR_abt
2ffe9430:	eb000140 	bl	2ffe9938 <plat_report_prefetch_abort>
2ffe9434:	eb0001ad 	bl	2ffe9af0 <plat_panic_handler>
2ffe9438:	e320f000 	nop	{0}

2ffe943c <report_data_abort>:
2ffe943c:	e1040300 	mrs	r0, LR_abt
2ffe9440:	eb000152 	bl	2ffe9990 <plat_report_data_abort>
2ffe9444:	eb0001a9 	bl	2ffe9af0 <plat_panic_handler>
2ffe9448:	e320f000 	nop	{0}

2ffe944c <flush_dcache_range>:
2ffe944c:	e3510000 	cmp	r1, #0
2ffe9450:	0a00000b 	beq	2ffe9484 <exit_loop_cimvac>
2ffe9454:	ee103f30 	mrc	15, 0, r3, cr0, cr0, {1}
2ffe9458:	e7e33853 	ubfx	r3, r3, #16, #4
2ffe945c:	e3a02004 	mov	r2, #4
2ffe9460:	e1a02312 	lsl	r2, r2, r3
2ffe9464:	e0801001 	add	r1, r0, r1
2ffe9468:	e2423001 	sub	r3, r2, #1
2ffe946c:	e1c00003 	bic	r0, r0, r3

2ffe9470 <loop_cimvac>:
2ffe9470:	ee070f3e 	mcr	15, 0, r0, cr7, cr14, {1}
2ffe9474:	e0800002 	add	r0, r0, r2
2ffe9478:	e1500001 	cmp	r0, r1
2ffe947c:	3afffffb 	bcc	2ffe9470 <loop_cimvac>
2ffe9480:	f57ff04f 	dsb	sy

2ffe9484 <exit_loop_cimvac>:
2ffe9484:	e12fff1e 	bx	lr

2ffe9488 <clean_dcache_range>:
2ffe9488:	e3510000 	cmp	r1, #0
2ffe948c:	0a00000b 	beq	2ffe94c0 <exit_loop_cmvac>
2ffe9490:	ee103f30 	mrc	15, 0, r3, cr0, cr0, {1}
2ffe9494:	e7e33853 	ubfx	r3, r3, #16, #4
2ffe9498:	e3a02004 	mov	r2, #4
2ffe949c:	e1a02312 	lsl	r2, r2, r3
2ffe94a0:	e0801001 	add	r1, r0, r1
2ffe94a4:	e2423001 	sub	r3, r2, #1
2ffe94a8:	e1c00003 	bic	r0, r0, r3

2ffe94ac <loop_cmvac>:
2ffe94ac:	ee070f3a 	mcr	15, 0, r0, cr7, cr10, {1}
2ffe94b0:	e0800002 	add	r0, r0, r2
2ffe94b4:	e1500001 	cmp	r0, r1
2ffe94b8:	3afffffb 	bcc	2ffe94ac <loop_cmvac>
2ffe94bc:	f57ff04f 	dsb	sy

2ffe94c0 <exit_loop_cmvac>:
2ffe94c0:	e12fff1e 	bx	lr

2ffe94c4 <inv_dcache_range>:
2ffe94c4:	e3510000 	cmp	r1, #0
2ffe94c8:	0a00000b 	beq	2ffe94fc <exit_loop_imvac>
2ffe94cc:	ee103f30 	mrc	15, 0, r3, cr0, cr0, {1}
2ffe94d0:	e7e33853 	ubfx	r3, r3, #16, #4
2ffe94d4:	e3a02004 	mov	r2, #4
2ffe94d8:	e1a02312 	lsl	r2, r2, r3
2ffe94dc:	e0801001 	add	r1, r0, r1
2ffe94e0:	e2423001 	sub	r3, r2, #1
2ffe94e4:	e1c00003 	bic	r0, r0, r3

2ffe94e8 <loop_imvac>:
2ffe94e8:	ee070f36 	mcr	15, 0, r0, cr7, cr6, {1}
2ffe94ec:	e0800002 	add	r0, r0, r2
2ffe94f0:	e1500001 	cmp	r0, r1
2ffe94f4:	3afffffb 	bcc	2ffe94e8 <loop_imvac>
2ffe94f8:	f57ff04f 	dsb	sy

2ffe94fc <exit_loop_imvac>:
2ffe94fc:	e12fff1e 	bx	lr

2ffe9500 <do_dcsw_op>:
2ffe9500:	e92d5ff0 	push	{r4, r5, r6, r7, r8, r9, sl, fp, ip, lr}
2ffe9504:	ee108fd2 	mrc	15, 0, r8, cr0, cr2, {6}
2ffe9508:	e7e38c58 	ubfx	r8, r8, #24, #4
2ffe950c:	e28fb09c 	add	fp, pc, #156	@ 0x9c
2ffe9510:	e08b6180 	add	r6, fp, r0, lsl #3

2ffe9514 <loop1>:
2ffe9514:	e081a0a1 	add	sl, r1, r1, lsr #1
2ffe9518:	e1a0ca32 	lsr	ip, r2, sl
2ffe951c:	e20cc007 	and	ip, ip, #7
2ffe9520:	e35c0002 	cmp	ip, #2
2ffe9524:	3a000018 	bcc	2ffe958c <level_done>
2ffe9528:	ee401f10 	mcr	15, 2, r1, cr0, cr0, {0}
2ffe952c:	f57ff06f 	isb	sy
2ffe9530:	ee30cf10 	mrc	15, 1, ip, cr0, cr0, {0}
2ffe9534:	e20ca007 	and	sl, ip, #7
2ffe9538:	e28aa004 	add	sl, sl, #4
2ffe953c:	e3580000 	cmp	r8, #0
2ffe9540:	0a000001 	beq	2ffe954c <loop1+0x38>
2ffe9544:	e7f441dc 	ubfx	r4, ip, #3, #21
2ffe9548:	ea000000 	b	2ffe9550 <loop1+0x3c>
2ffe954c:	e7e941dc 	ubfx	r4, ip, #3, #10
2ffe9550:	e16f5f14 	clz	r5, r4
2ffe9554:	e1a09004 	mov	r9, r4

2ffe9558 <loop2>:
2ffe9558:	e3580000 	cmp	r8, #0
2ffe955c:	0a000002 	beq	2ffe956c <loop2+0x14>
2ffe9560:	ee30cf50 	mrc	15, 1, ip, cr0, cr0, {2}
2ffe9564:	e7f7705c 	ubfx	r7, ip, #0, #24
2ffe9568:	ea000000 	b	2ffe9570 <loop3>
2ffe956c:	e7ee76dc 	ubfx	r7, ip, #13, #15

2ffe9570 <loop3>:
2ffe9570:	e1810519 	orr	r0, r1, r9, lsl r5
2ffe9574:	e1800a17 	orr	r0, r0, r7, lsl sl
2ffe9578:	e12fff36 	blx	r6
2ffe957c:	e2577001 	subs	r7, r7, #1
2ffe9580:	2afffffa 	bcs	2ffe9570 <loop3>
2ffe9584:	e2599001 	subs	r9, r9, #1
2ffe9588:	2afffff2 	bcs	2ffe9558 <loop2>

2ffe958c <level_done>:
2ffe958c:	e2811002 	add	r1, r1, #2
2ffe9590:	e1530001 	cmp	r3, r1
2ffe9594:	f57ff04f 	dsb	sy
2ffe9598:	8affffdd 	bhi	2ffe9514 <loop1>
2ffe959c:	e3a06000 	mov	r6, #0
2ffe95a0:	ee406f10 	mcr	15, 2, r6, cr0, cr0, {0}
2ffe95a4:	f57ff04f 	dsb	sy
2ffe95a8:	f57ff06f 	isb	sy
2ffe95ac:	e8bd9ff0 	pop	{r4, r5, r6, r7, r8, r9, sl, fp, ip, pc}

2ffe95b0 <dcsw_loop_table>:
2ffe95b0:	ee070f56 	mcr	15, 0, r0, cr7, cr6, {2}
2ffe95b4:	e12fff1e 	bx	lr
2ffe95b8:	ee070f5e 	mcr	15, 0, r0, cr7, cr14, {2}
2ffe95bc:	e12fff1e 	bx	lr
2ffe95c0:	ee070f5a 	mcr	15, 0, r0, cr7, cr10, {2}
2ffe95c4:	e12fff1e 	bx	lr

2ffe95c8 <dcsw_op_all>:
2ffe95c8:	ee302f30 	mrc	15, 1, r2, cr0, cr0, {1}
2ffe95cc:	e7e23c52 	ubfx	r3, r2, #24, #3
2ffe95d0:	e1a03083 	lsl	r3, r3, #1
2ffe95d4:	e3a01000 	mov	r1, #0
2ffe95d8:	eaffffc8 	b	2ffe9500 <do_dcsw_op>

2ffe95dc <zero_normalmem>:
2ffe95dc:	e3a02000 	mov	r2, #0
2ffe95e0:	e0801001 	add	r1, r0, r1
2ffe95e4:	e3100007 	tst	r0, #7
2ffe95e8:	0a000007 	beq	2ffe960c <zero_normalmem+0x30>
2ffe95ec:	e380c007 	orr	ip, r0, #7
2ffe95f0:	e29cc001 	adds	ip, ip, #1
2ffe95f4:	0a00000b 	beq	2ffe9628 <zero_normalmem+0x4c>
2ffe95f8:	e15c0001 	cmp	ip, r1
2ffe95fc:	2a000009 	bcs	2ffe9628 <zero_normalmem+0x4c>
2ffe9600:	e4c02001 	strb	r2, [r0], #1
2ffe9604:	e150000c 	cmp	r0, ip
2ffe9608:	1afffffc 	bne	2ffe9600 <zero_normalmem+0x24>
2ffe960c:	e3c1c007 	bic	ip, r1, #7
2ffe9610:	e150000c 	cmp	r0, ip
2ffe9614:	2a000003 	bcs	2ffe9628 <zero_normalmem+0x4c>
2ffe9618:	e3a03000 	mov	r3, #0
2ffe961c:	e8a0000c 	stmia	r0!, {r2, r3}
2ffe9620:	e150000c 	cmp	r0, ip
2ffe9624:	3afffffc 	bcc	2ffe961c <zero_normalmem+0x40>
2ffe9628:	e1500001 	cmp	r0, r1
2ffe962c:	0a000002 	beq	2ffe963c <zero_normalmem+0x60>
2ffe9630:	e4c02001 	strb	r2, [r0], #1
2ffe9634:	e1500001 	cmp	r0, r1
2ffe9638:	1afffffc 	bne	2ffe9630 <zero_normalmem+0x54>
2ffe963c:	e12fff1e 	bx	lr

2ffe9640 <disable_mmu_secure>:
2ffe9640:	e3a01005 	mov	r1, #5

2ffe9644 <do_disable_mmu>:
2ffe9644:	ee110f10 	mrc	15, 0, r0, cr1, cr0, {0}
2ffe9648:	e1c00001 	bic	r0, r0, r1
2ffe964c:	ee010f10 	mcr	15, 0, r0, cr1, cr0, {0}
2ffe9650:	f57ff06f 	isb	sy
2ffe9654:	f57ff04f 	dsb	sy
2ffe9658:	e12fff1e 	bx	lr

2ffe965c <disable_mmu_icache_secure>:
2ffe965c:	e51f1000 	ldr	r1, [pc, #-0]	@ 2ffe9664 <disable_mmu_icache_secure+0x8>
2ffe9660:	eafffff7 	b	2ffe9644 <do_disable_mmu>
2ffe9664:	00001005 	.word	0x00001005

2ffe9668 <enable_mmu_direct_svc_mon>:
2ffe9668:	ee111f10 	mrc	15, 0, r1, cr1, cr0, {0}
2ffe966c:	e3110001 	tst	r1, #1
2ffe9670:	0a000002 	beq	2ffe9680 <enable_mmu_direct_svc_mon+0x18>
2ffe9674:	e59f0060 	ldr	r0, [pc, #96]	@ 2ffe96dc <enable_mmu_direct_svc_mon+0x74>
2ffe9678:	e3a01014 	mov	r1, #20
2ffe967c:	eaffff23 	b	2ffe9310 <asm_assert>
2ffe9680:	ee080f17 	mcr	15, 0, r0, cr8, cr7, {0}
2ffe9684:	e1a03000 	mov	r3, r0
2ffe9688:	e59f0050 	ldr	r0, [pc, #80]	@ 2ffe96e0 <enable_mmu_direct_svc_mon+0x78>
2ffe968c:	e5901000 	ldr	r1, [r0]
2ffe9690:	ee0a1f12 	mcr	15, 0, r1, cr10, cr2, {0}
2ffe9694:	e5902008 	ldr	r2, [r0, #8]
2ffe9698:	ee022f50 	mcr	15, 0, r2, cr2, cr0, {2}
2ffe969c:	e5901010 	ldr	r1, [r0, #16]
2ffe96a0:	e5902014 	ldr	r2, [r0, #20]
2ffe96a4:	ec421f02 	mcrr	15, 0, r1, r2, cr2
2ffe96a8:	e3a01000 	mov	r1, #0
2ffe96ac:	e3a02000 	mov	r2, #0
2ffe96b0:	ec421f12 	mcrr	15, 1, r1, r2, cr2
2ffe96b4:	f57ff04b 	dsb	ish
2ffe96b8:	f57ff06f 	isb	sy
2ffe96bc:	ee111f10 	mrc	15, 0, r1, cr1, cr0, {0}
2ffe96c0:	e59f201c 	ldr	r2, [pc, #28]	@ 2ffe96e4 <enable_mmu_direct_svc_mon+0x7c>
2ffe96c4:	e1811002 	orr	r1, r1, r2
2ffe96c8:	e3130001 	tst	r3, #1
2ffe96cc:	13c11004 	bicne	r1, r1, #4
2ffe96d0:	ee011f10 	mcr	15, 0, r1, cr1, cr0, {0}
2ffe96d4:	f57ff06f 	isb	sy
2ffe96d8:	e12fff1e 	bx	lr
2ffe96dc:	2fff9707 	.word	0x2fff9707
2ffe96e0:	2fffb968 	.word	0x2fffb968
2ffe96e4:	00080005 	.word	0x00080005

2ffe96e8 <console_stm32_core_init>:
2ffe96e8:	e3500000 	cmp	r0, #0
2ffe96ec:	0a000026 	beq	2ffe978c <core_init_fail>
2ffe96f0:	e3510000 	cmp	r1, #0
2ffe96f4:	0a000024 	beq	2ffe978c <core_init_fail>
2ffe96f8:	e3520000 	cmp	r2, #0
2ffe96fc:	0a000022 	beq	2ffe978c <core_init_fail>
2ffe9700:	e5903000 	ldr	r3, [r0]
2ffe9704:	e3c33001 	bic	r3, r3, #1
2ffe9708:	e5803000 	str	r3, [r0]
2ffe970c:	e3833282 	orr	r3, r3, #536870920	@ 0x20000008
2ffe9710:	e5803000 	str	r3, [r0]
2ffe9714:	e5903004 	ldr	r3, [r0, #4]
2ffe9718:	e3c33a03 	bic	r3, r3, #12288	@ 0x3000
2ffe971c:	e5803004 	str	r3, [r0, #4]
2ffe9720:	e1a030a2 	lsr	r3, r2, #1
2ffe9724:	e0813003 	add	r3, r1, r3
2ffe9728:	e733f213 	udiv	r3, r3, r2
2ffe972c:	e3530010 	cmp	r3, #16
2ffe9730:	8a000009 	bhi	2ffe975c <console_stm32_core_init+0x74>
2ffe9734:	e1a030a2 	lsr	r3, r2, #1
2ffe9738:	e0833081 	add	r3, r3, r1, lsl #1
2ffe973c:	e733f213 	udiv	r3, r3, r2
2ffe9740:	e203100f 	and	r1, r3, #15
2ffe9744:	e1a010a1 	lsr	r1, r1, #1
2ffe9748:	e3c3300f 	bic	r3, r3, #15
2ffe974c:	e1833001 	orr	r3, r3, r1
2ffe9750:	e5901000 	ldr	r1, [r0]
2ffe9754:	e3811902 	orr	r1, r1, #32768	@ 0x8000
2ffe9758:	e5801000 	str	r1, [r0]
2ffe975c:	e580300c 	str	r3, [r0, #12]
2ffe9760:	e5903000 	ldr	r3, [r0]
2ffe9764:	e3833001 	orr	r3, r3, #1
2ffe9768:	e5803000 	str	r3, [r0]
2ffe976c:	e3a02a01 	mov	r2, #4096	@ 0x1000

2ffe9770 <teack_loop>:
2ffe9770:	e2522001 	subs	r2, r2, #1
2ffe9774:	0a000004 	beq	2ffe978c <core_init_fail>
2ffe9778:	e590301c 	ldr	r3, [r0, #28]
2ffe977c:	e3130602 	tst	r3, #2097152	@ 0x200000
2ffe9780:	0afffffa 	beq	2ffe9770 <teack_loop>
2ffe9784:	e3a00001 	mov	r0, #1
2ffe9788:	e12fff1e 	bx	lr

2ffe978c <core_init_fail>:
2ffe978c:	e3a00000 	mov	r0, #0
2ffe9790:	e12fff1e 	bx	lr

2ffe9794 <console_stm32_register>:
2ffe9794:	e92d4010 	push	{r4, lr}
2ffe9798:	e1a04003 	mov	r4, r3
2ffe979c:	e3540000 	cmp	r4, #0
2ffe97a0:	0a00000e 	beq	2ffe97e0 <register_fail>
2ffe97a4:	e5840014 	str	r0, [r4, #20]
2ffe97a8:	ebffffce 	bl	2ffe96e8 <console_stm32_core_init>
2ffe97ac:	e3500000 	cmp	r0, #0
2ffe97b0:	0a00000a 	beq	2ffe97e0 <register_fail>
2ffe97b4:	e1a00004 	mov	r0, r4
2ffe97b8:	e8bd4010 	pop	{r4, lr}
2ffe97bc:	e59f1020 	ldr	r1, [pc, #32]	@ 2ffe97e4 <register_fail+0x4>
2ffe97c0:	e5801008 	str	r1, [r0, #8]
2ffe97c4:	e3a01000 	mov	r1, #0
2ffe97c8:	e580100c 	str	r1, [r0, #12]
2ffe97cc:	e59f1014 	ldr	r1, [pc, #20]	@ 2ffe97e8 <register_fail+0x8>
2ffe97d0:	e5801010 	str	r1, [r0, #16]
2ffe97d4:	e3a01005 	mov	r1, #5
2ffe97d8:	e5801004 	str	r1, [r0, #4]
2ffe97dc:	ea00403b 	b	2fff98d0 <__console_register_from_arm>

2ffe97e0 <register_fail>:
2ffe97e0:	e8bd8010 	pop	{r4, pc}
2ffe97e4:	2ffe9834 	.word	0x2ffe9834
2ffe97e8:	2ffe9894 	.word	0x2ffe9894

2ffe97ec <console_stm32_core_putc>:
2ffe97ec:	e3510000 	cmp	r1, #0
2ffe97f0:	0a00000d 	beq	2ffe982c <putc_error>
2ffe97f4:	e3a03a01 	mov	r3, #4096	@ 0x1000

2ffe97f8 <txe_loop>:
2ffe97f8:	e2533001 	subs	r3, r3, #1
2ffe97fc:	0a00000a 	beq	2ffe982c <putc_error>
2ffe9800:	e591201c 	ldr	r2, [r1, #28]
2ffe9804:	e3120080 	tst	r2, #128	@ 0x80
2ffe9808:	0afffffa 	beq	2ffe97f8 <txe_loop>
2ffe980c:	e5810028 	str	r0, [r1, #40]	@ 0x28
2ffe9810:	e3a03a01 	mov	r3, #4096	@ 0x1000

2ffe9814 <tc_loop>:
2ffe9814:	e2533001 	subs	r3, r3, #1
2ffe9818:	0a000003 	beq	2ffe982c <putc_error>
2ffe981c:	e591201c 	ldr	r2, [r1, #28]
2ffe9820:	e3120040 	tst	r2, #64	@ 0x40
2ffe9824:	0afffffa 	beq	2ffe9814 <tc_loop>
2ffe9828:	e12fff1e 	bx	lr

2ffe982c <putc_error>:
2ffe982c:	e3e00000 	mvn	r0, #0
2ffe9830:	e12fff1e 	bx	lr

2ffe9834 <console_stm32_putc>:
2ffe9834:	e3510000 	cmp	r1, #0
2ffe9838:	1a000002 	bne	2ffe9848 <console_stm32_putc+0x14>
2ffe983c:	e59f000c 	ldr	r0, [pc, #12]	@ 2ffe9850 <console_stm32_putc+0x1c>
2ffe9840:	e3a010ca 	mov	r1, #202	@ 0xca
2ffe9844:	eafffeb1 	b	2ffe9310 <asm_assert>
2ffe9848:	e5911014 	ldr	r1, [r1, #20]
2ffe984c:	eaffffe6 	b	2ffe97ec <console_stm32_core_putc>
2ffe9850:	2fff972f 	.word	0x2fff972f

2ffe9854 <console_stm32_core_flush>:
2ffe9854:	e3500000 	cmp	r0, #0
2ffe9858:	1a000002 	bne	2ffe9868 <console_stm32_core_flush+0x14>
2ffe985c:	e59f002c 	ldr	r0, [pc, #44]	@ 2ffe9890 <txe_loop_3+0x18>
2ffe9860:	e3a010ef 	mov	r1, #239	@ 0xef
2ffe9864:	eafffea9 	b	2ffe9310 <asm_assert>
2ffe9868:	e5901000 	ldr	r1, [r0]
2ffe986c:	e3110001 	tst	r1, #1
2ffe9870:	0a000005 	beq	2ffe988c <txe_loop_3+0x14>
2ffe9874:	e3a02a01 	mov	r2, #4096	@ 0x1000

2ffe9878 <txe_loop_3>:
2ffe9878:	e2522001 	subs	r2, r2, #1
2ffe987c:	0a000002 	beq	2ffe988c <txe_loop_3+0x14>
2ffe9880:	e590101c 	ldr	r1, [r0, #28]
2ffe9884:	e3110080 	tst	r1, #128	@ 0x80
2ffe9888:	0afffffa 	beq	2ffe9878 <txe_loop_3>
2ffe988c:	e12fff1e 	bx	lr
2ffe9890:	2fff972f 	.word	0x2fff972f

2ffe9894 <console_stm32_flush>:
2ffe9894:	e3500000 	cmp	r0, #0
2ffe9898:	1a000002 	bne	2ffe98a8 <console_stm32_flush+0x14>
2ffe989c:	e59f000c 	ldr	r0, [pc, #12]	@ 2ffe98b0 <console_stm32_flush+0x1c>
2ffe98a0:	e59f100c 	ldr	r1, [pc, #12]	@ 2ffe98b4 <console_stm32_flush+0x20>
2ffe98a4:	eafffe99 	b	2ffe9310 <asm_assert>
2ffe98a8:	e5900014 	ldr	r0, [r0, #20]
2ffe98ac:	eaffffe8 	b	2ffe9854 <console_stm32_core_flush>
2ffe98b0:	2fff972f 	.word	0x2fff972f
2ffe98b4:	0000010d 	.word	0x0000010d

2ffe98b8 <cortex_a7_enable_smp>:
2ffe98b8:	ee110f30 	mrc	15, 0, r0, cr1, cr0, {1}
2ffe98bc:	e3800040 	orr	r0, r0, #64	@ 0x40
2ffe98c0:	ee010f30 	mcr	15, 0, r0, cr1, cr0, {1}
2ffe98c4:	f57ff06f 	isb	sy
2ffe98c8:	e12fff1e 	bx	lr

2ffe98cc <cortex_a7_reset_func>:
2ffe98cc:	eafffff9 	b	2ffe98b8 <cortex_a7_enable_smp>

2ffe98d0 <platform_mem_init>:
2ffe98d0:	e12fff1e 	bx	lr

2ffe98d4 <plat_report_exception>:
2ffe98d4:	e1a0800e 	mov	r8, lr
2ffe98d8:	e3500017 	cmp	r0, #23
2ffe98dc:	0a000010 	beq	2ffe9924 <print_exception_info+0xc>
2ffe98e0:	e350001b 	cmp	r0, #27
2ffe98e4:	1a000003 	bne	2ffe98f8 <other_exception_lbl>
2ffe98e8:	e59f4038 	ldr	r4, [pc, #56]	@ 2ffe9928 <print_exception_info+0x10>
2ffe98ec:	ebfffea6 	bl	2ffe938c <asm_print_str>
2ffe98f0:	e1064300 	mrs	r4, LR_und
2ffe98f4:	ea000007 	b	2ffe9918 <print_exception_info>

2ffe98f8 <other_exception_lbl>:
2ffe98f8:	e1a09000 	mov	r9, r0
2ffe98fc:	e59f4028 	ldr	r4, [pc, #40]	@ 2ffe992c <print_exception_info+0x14>
2ffe9900:	ebfffea1 	bl	2ffe938c <asm_print_str>
2ffe9904:	e1a04009 	mov	r4, r9
2ffe9908:	ebfffea6 	bl	2ffe93a8 <asm_print_hex>
2ffe990c:	e59f401c 	ldr	r4, [pc, #28]	@ 2ffe9930 <print_exception_info+0x18>
2ffe9910:	ebfffe9d 	bl	2ffe938c <asm_print_str>
2ffe9914:	e1a04006 	mov	r4, r6

2ffe9918 <print_exception_info>:
2ffe9918:	ebfffea2 	bl	2ffe93a8 <asm_print_hex>
2ffe991c:	e59f4010 	ldr	r4, [pc, #16]	@ 2ffe9934 <print_exception_info+0x1c>
2ffe9920:	ebfffe99 	bl	2ffe938c <asm_print_str>
2ffe9924:	e12fff18 	bx	r8
2ffe9928:	2fff9781 	.word	0x2fff9781
2ffe992c:	2fff979f 	.word	0x2fff979f
2ffe9930:	2fff97b2 	.word	0x2fff97b2
2ffe9934:	2fff97e6 	.word	0x2fff97e6

2ffe9938 <plat_report_prefetch_abort>:
2ffe9938:	e1a0800e 	mov	r8, lr
2ffe993c:	e1a09000 	mov	r9, r0
2ffe9940:	e59f4038 	ldr	r4, [pc, #56]	@ 2ffe9980 <plat_report_prefetch_abort+0x48>
2ffe9944:	ebfffe90 	bl	2ffe938c <asm_print_str>
2ffe9948:	e1a04009 	mov	r4, r9
2ffe994c:	e2444004 	sub	r4, r4, #4
2ffe9950:	ebfffe94 	bl	2ffe93a8 <asm_print_hex>
2ffe9954:	e59f4028 	ldr	r4, [pc, #40]	@ 2ffe9984 <plat_report_prefetch_abort+0x4c>
2ffe9958:	ebfffe8b 	bl	2ffe938c <asm_print_str>
2ffe995c:	ee154f30 	mrc	15, 0, r4, cr5, cr0, {1}
2ffe9960:	ebfffe90 	bl	2ffe93a8 <asm_print_hex>
2ffe9964:	e59f401c 	ldr	r4, [pc, #28]	@ 2ffe9988 <plat_report_prefetch_abort+0x50>
2ffe9968:	ebfffe87 	bl	2ffe938c <asm_print_str>
2ffe996c:	ee164f50 	mrc	15, 0, r4, cr6, cr0, {2}
2ffe9970:	ebfffe8c 	bl	2ffe93a8 <asm_print_hex>
2ffe9974:	e59f4010 	ldr	r4, [pc, #16]	@ 2ffe998c <plat_report_prefetch_abort+0x54>
2ffe9978:	ebfffe83 	bl	2ffe938c <asm_print_str>
2ffe997c:	e12fff18 	bx	r8
2ffe9980:	2fff9757 	.word	0x2fff9757
2ffe9984:	2fff97d0 	.word	0x2fff97d0
2ffe9988:	2fff97db 	.word	0x2fff97db
2ffe998c:	2fff97e6 	.word	0x2fff97e6

2ffe9990 <plat_report_data_abort>:
2ffe9990:	e1a0800e 	mov	r8, lr
2ffe9994:	e1a09000 	mov	r9, r0
2ffe9998:	e59f4038 	ldr	r4, [pc, #56]	@ 2ffe99d8 <plat_report_data_abort+0x48>
2ffe999c:	ebfffe7a 	bl	2ffe938c <asm_print_str>
2ffe99a0:	e1a04009 	mov	r4, r9
2ffe99a4:	e2444008 	sub	r4, r4, #8
2ffe99a8:	ebfffe7e 	bl	2ffe93a8 <asm_print_hex>
2ffe99ac:	e59f4028 	ldr	r4, [pc, #40]	@ 2ffe99dc <plat_report_data_abort+0x4c>
2ffe99b0:	ebfffe75 	bl	2ffe938c <asm_print_str>
2ffe99b4:	ee154f10 	mrc	15, 0, r4, cr5, cr0, {0}
2ffe99b8:	ebfffe7a 	bl	2ffe93a8 <asm_print_hex>
2ffe99bc:	e59f401c 	ldr	r4, [pc, #28]	@ 2ffe99e0 <plat_report_data_abort+0x50>
2ffe99c0:	ebfffe71 	bl	2ffe938c <asm_print_str>
2ffe99c4:	ee164f10 	mrc	15, 0, r4, cr6, cr0, {0}
2ffe99c8:	ebfffe76 	bl	2ffe93a8 <asm_print_hex>
2ffe99cc:	e59f4010 	ldr	r4, [pc, #16]	@ 2ffe99e4 <plat_report_data_abort+0x54>
2ffe99d0:	ebfffe6d 	bl	2ffe938c <asm_print_str>
2ffe99d4:	e12fff18 	bx	r8
2ffe99d8:	2fff976e 	.word	0x2fff976e
2ffe99dc:	2fff97ba 	.word	0x2fff97ba
2ffe99e0:	2fff97c5 	.word	0x2fff97c5
2ffe99e4:	2fff97e6 	.word	0x2fff97e6

2ffe99e8 <plat_reset_handler>:
2ffe99e8:	e12fff1e 	bx	lr

2ffe99ec <plat_get_my_entrypoint>:
2ffe99ec:	e3a00000 	mov	r0, #0
2ffe99f0:	e12fff1e 	bx	lr

2ffe99f4 <plat_secondary_cold_boot_setup>:
2ffe99f4:	eafffffe 	b	2ffe99f4 <plat_secondary_cold_boot_setup>

2ffe99f8 <plat_is_my_cpu_primary>:
2ffe99f8:	ee100fb0 	mrc	15, 0, r0, cr0, cr0, {5}
2ffe99fc:	e59f1010 	ldr	r1, [pc, #16]	@ 2ffe9a14 <plat_is_my_cpu_primary+0x1c>
2ffe9a00:	e0000001 	and	r0, r0, r1
2ffe9a04:	e3500000 	cmp	r0, #0
2ffe9a08:	03a00001 	moveq	r0, #1
2ffe9a0c:	13a00000 	movne	r0, #0
2ffe9a10:	e12fff1e 	bx	lr
2ffe9a14:	0000ffff 	.word	0x0000ffff

2ffe9a18 <plat_crash_console_init>:
2ffe9a18:	e59f1098 	ldr	r1, [pc, #152]	@ 2ffe9ab8 <plat_crash_console_init+0xa0>
2ffe9a1c:	e3a02801 	mov	r2, #65536	@ 0x10000
2ffe9a20:	e5812000 	str	r2, [r1]
2ffe9a24:	e5910000 	ldr	r0, [r1]
2ffe9a28:	e0102002 	ands	r2, r0, r2
2ffe9a2c:	0afffffc 	beq	2ffe9a24 <plat_crash_console_init+0xc>
2ffe9a30:	e5812004 	str	r2, [r1, #4]
2ffe9a34:	e5910000 	ldr	r0, [r1]
2ffe9a38:	e0102002 	ands	r2, r0, r2
2ffe9a3c:	1afffffc 	bne	2ffe9a34 <plat_crash_console_init+0x1c>
2ffe9a40:	e59f1074 	ldr	r1, [pc, #116]	@ 2ffe9abc <plat_crash_console_init+0xa4>
2ffe9a44:	e5912000 	ldr	r2, [r1]
2ffe9a48:	e3822040 	orr	r2, r2, #64	@ 0x40
2ffe9a4c:	e5812000 	str	r2, [r1]
2ffe9a50:	e59f1068 	ldr	r1, [pc, #104]	@ 2ffe9ac0 <plat_crash_console_init+0xa8>
2ffe9a54:	e5912000 	ldr	r2, [r1]
2ffe9a58:	e3c22503 	bic	r2, r2, #12582912	@ 0xc00000
2ffe9a5c:	e3822502 	orr	r2, r2, #8388608	@ 0x800000
2ffe9a60:	e5812000 	str	r2, [r1]
2ffe9a64:	e5912008 	ldr	r2, [r1, #8]
2ffe9a68:	e3c22503 	bic	r2, r2, #12582912	@ 0xc00000
2ffe9a6c:	e5812008 	str	r2, [r1, #8]
2ffe9a70:	e591200c 	ldr	r2, [r1, #12]
2ffe9a74:	e3c22503 	bic	r2, r2, #12582912	@ 0xc00000
2ffe9a78:	e581200c 	str	r2, [r1, #12]
2ffe9a7c:	e5912024 	ldr	r2, [r1, #36]	@ 0x24
2ffe9a80:	e3c22a0f 	bic	r2, r2, #61440	@ 0xf000
2ffe9a84:	e3822a06 	orr	r2, r2, #24576	@ 0x6000
2ffe9a88:	e5812024 	str	r2, [r1, #36]	@ 0x24
2ffe9a8c:	e59f1030 	ldr	r1, [pc, #48]	@ 2ffe9ac4 <plat_crash_console_init+0xac>
2ffe9a90:	e3a02002 	mov	r2, #2
2ffe9a94:	e5812000 	str	r2, [r1]
2ffe9a98:	e59f1028 	ldr	r1, [pc, #40]	@ 2ffe9ac8 <plat_crash_console_init+0xb0>
2ffe9a9c:	e5912000 	ldr	r2, [r1]
2ffe9aa0:	e3822801 	orr	r2, r2, #65536	@ 0x10000
2ffe9aa4:	e5812000 	str	r2, [r1]
2ffe9aa8:	e59f001c 	ldr	r0, [pc, #28]	@ 2ffe9acc <plat_crash_console_init+0xb4>
2ffe9aac:	e59f101c 	ldr	r1, [pc, #28]	@ 2ffe9ad0 <plat_crash_console_init+0xb8>
2ffe9ab0:	e59f201c 	ldr	r2, [pc, #28]	@ 2ffe9ad4 <plat_crash_console_init+0xbc>
2ffe9ab4:	eaffff0b 	b	2ffe96e8 <console_stm32_core_init>
2ffe9ab8:	50000980 	.word	0x50000980
2ffe9abc:	50000a28 	.word	0x50000a28
2ffe9ac0:	50008000 	.word	0x50008000
2ffe9ac4:	500008e8 	.word	0x500008e8
2ffe9ac8:	50000a00 	.word	0x50000a00
2ffe9acc:	40010000 	.word	0x40010000
2ffe9ad0:	03d09000 	.word	0x03d09000
2ffe9ad4:	0001c200 	.word	0x0001c200

2ffe9ad8 <plat_crash_console_flush>:
2ffe9ad8:	e51f0000 	ldr	r0, [pc, #-0]	@ 2ffe9ae0 <plat_crash_console_flush+0x8>
2ffe9adc:	eaffff5c 	b	2ffe9854 <console_stm32_core_flush>
2ffe9ae0:	40010000 	.word	0x40010000

2ffe9ae4 <plat_crash_console_putc>:
2ffe9ae4:	e51f1000 	ldr	r1, [pc, #-0]	@ 2ffe9aec <plat_crash_console_putc+0x8>
2ffe9ae8:	eaffff3f 	b	2ffe97ec <console_stm32_core_putc>
2ffe9aec:	40010000 	.word	0x40010000

2ffe9af0 <plat_panic_handler>:
2ffe9af0:	e10f0000 	mrs	r0, CPSR
2ffe9af4:	e200001f 	and	r0, r0, #31
2ffe9af8:	ebffff75 	bl	2ffe98d4 <plat_report_exception>
2ffe9afc:	e1a0e006 	mov	lr, r6
2ffe9b00:	eafffffe 	b	2ffe9b00 <plat_panic_handler+0x10>

2ffe9b04 <bl2_load_images>:
2ffe9b04:	e92d 43f8 	stmdb	sp!, {r3, r4, r5, r6, r7, r8, r9, lr}
2ffe9b08:	f00a f9c0 	bl	2fff3e8c <plat_get_bl_image_load_info>
2ffe9b0c:	b918      	cbnz	r0, 2ffe9b16 <bl2_load_images+0x12>
2ffe9b0e:	2125      	movs	r1, #37	@ 0x25
2ffe9b10:	483a      	ldr	r0, [pc, #232]	@ (2ffe9bfc <bl2_load_images+0xf8>)
2ffe9b12:	f009 fe0b 	bl	2fff372c <__assert>
2ffe9b16:	6884      	ldr	r4, [r0, #8]
2ffe9b18:	b90c      	cbnz	r4, 2ffe9b1e <bl2_load_images+0x1a>
2ffe9b1a:	2126      	movs	r1, #38	@ 0x26
2ffe9b1c:	e7f8      	b.n	2ffe9b10 <bl2_load_images+0xc>
2ffe9b1e:	7803      	ldrb	r3, [r0, #0]
2ffe9b20:	2b04      	cmp	r3, #4
2ffe9b22:	d11b      	bne.n	2ffe9b5c <bl2_load_images+0x58>
2ffe9b24:	7843      	ldrb	r3, [r0, #1]
2ffe9b26:	2b01      	cmp	r3, #1
2ffe9b28:	d91a      	bls.n	2ffe9b60 <bl2_load_images+0x5c>
2ffe9b2a:	4f35      	ldr	r7, [pc, #212]	@ (2ffe9c00 <bl2_load_images+0xfc>)
2ffe9b2c:	2600      	movs	r6, #0
2ffe9b2e:	f8df 80d4 	ldr.w	r8, [pc, #212]	@ 2ffe9c04 <bl2_load_images+0x100>
2ffe9b32:	f8df 90d4 	ldr.w	r9, [pc, #212]	@ 2ffe9c08 <bl2_load_images+0x104>
2ffe9b36:	6863      	ldr	r3, [r4, #4]
2ffe9b38:	685b      	ldr	r3, [r3, #4]
2ffe9b3a:	075a      	lsls	r2, r3, #29
2ffe9b3c:	d504      	bpl.n	2ffe9b48 <bl2_load_images+0x44>
2ffe9b3e:	b18e      	cbz	r6, 2ffe9b64 <bl2_load_images+0x60>
2ffe9b40:	4640      	mov	r0, r8
2ffe9b42:	f003 fe69 	bl	2ffed818 <tf_log>
2ffe9b46:	2601      	movs	r6, #1
2ffe9b48:	6820      	ldr	r0, [r4, #0]
2ffe9b4a:	f002 ff91 	bl	2ffeca70 <bl2_plat_handle_pre_image_load>
2ffe9b4e:	4605      	mov	r5, r0
2ffe9b50:	b170      	cbz	r0, 2ffe9b70 <bl2_load_images+0x6c>
2ffe9b52:	4601      	mov	r1, r0
2ffe9b54:	482d      	ldr	r0, [pc, #180]	@ (2ffe9c0c <bl2_load_images+0x108>)
2ffe9b56:	f003 fe5f 	bl	2ffed818 <tf_log>
2ffe9b5a:	e01c      	b.n	2ffe9b96 <bl2_load_images+0x92>
2ffe9b5c:	2127      	movs	r1, #39	@ 0x27
2ffe9b5e:	e7d7      	b.n	2ffe9b10 <bl2_load_images+0xc>
2ffe9b60:	2128      	movs	r1, #40	@ 0x28
2ffe9b62:	e7d5      	b.n	2ffe9b10 <bl2_load_images+0xc>
2ffe9b64:	4638      	mov	r0, r7
2ffe9b66:	f003 fe57 	bl	2ffed818 <tf_log>
2ffe9b6a:	f003 f8f7 	bl	2ffecd5c <bl2_platform_setup>
2ffe9b6e:	e7ea      	b.n	2ffe9b46 <bl2_load_images+0x42>
2ffe9b70:	e9d4 1300 	ldrd	r1, r3, [r4]
2ffe9b74:	685b      	ldr	r3, [r3, #4]
2ffe9b76:	079b      	lsls	r3, r3, #30
2ffe9b78:	d410      	bmi.n	2ffe9b9c <bl2_load_images+0x98>
2ffe9b7a:	4825      	ldr	r0, [pc, #148]	@ (2ffe9c10 <bl2_load_images+0x10c>)
2ffe9b7c:	f003 fe4c 	bl	2ffed818 <tf_log>
2ffe9b80:	e9d4 0100 	ldrd	r0, r1, [r4]
2ffe9b84:	f003 fda4 	bl	2ffed6d0 <load_auth_image>
2ffe9b88:	4605      	mov	r5, r0
2ffe9b8a:	b150      	cbz	r0, 2ffe9ba2 <bl2_load_images+0x9e>
2ffe9b8c:	6821      	ldr	r1, [r4, #0]
2ffe9b8e:	4602      	mov	r2, r0
2ffe9b90:	4820      	ldr	r0, [pc, #128]	@ (2ffe9c14 <bl2_load_images+0x110>)
2ffe9b92:	f003 fe41 	bl	2ffed818 <tf_log>
2ffe9b96:	4628      	mov	r0, r5
2ffe9b98:	f00a f99b 	bl	2fff3ed2 <plat_error_handler>
2ffe9b9c:	4648      	mov	r0, r9
2ffe9b9e:	f003 fe3b 	bl	2ffed818 <tf_log>
2ffe9ba2:	6820      	ldr	r0, [r4, #0]
2ffe9ba4:	f003 fb00 	bl	2ffed1a8 <bl2_plat_handle_post_image_load>
2ffe9ba8:	4605      	mov	r5, r0
2ffe9baa:	b110      	cbz	r0, 2ffe9bb2 <bl2_load_images+0xae>
2ffe9bac:	4601      	mov	r1, r0
2ffe9bae:	481a      	ldr	r0, [pc, #104]	@ (2ffe9c18 <bl2_load_images+0x114>)
2ffe9bb0:	e7d1      	b.n	2ffe9b56 <bl2_load_images+0x52>
2ffe9bb2:	68a4      	ldr	r4, [r4, #8]
2ffe9bb4:	2c00      	cmp	r4, #0
2ffe9bb6:	d1be      	bne.n	2ffe9b36 <bl2_load_images+0x32>
2ffe9bb8:	f00a f96a 	bl	2fff3e90 <plat_get_next_bl_params>
2ffe9bbc:	4604      	mov	r4, r0
2ffe9bbe:	b908      	cbnz	r0, 2ffe9bc4 <bl2_load_images+0xc0>
2ffe9bc0:	215f      	movs	r1, #95	@ 0x5f
2ffe9bc2:	e7a5      	b.n	2ffe9b10 <bl2_load_images+0xc>
2ffe9bc4:	6883      	ldr	r3, [r0, #8]
2ffe9bc6:	b90b      	cbnz	r3, 2ffe9bcc <bl2_load_images+0xc8>
2ffe9bc8:	2160      	movs	r1, #96	@ 0x60
2ffe9bca:	e7a1      	b.n	2ffe9b10 <bl2_load_images+0xc>
2ffe9bcc:	7802      	ldrb	r2, [r0, #0]
2ffe9bce:	2a05      	cmp	r2, #5
2ffe9bd0:	d001      	beq.n	2ffe9bd6 <bl2_load_images+0xd2>
2ffe9bd2:	2161      	movs	r1, #97	@ 0x61
2ffe9bd4:	e79c      	b.n	2ffe9b10 <bl2_load_images+0xc>
2ffe9bd6:	7842      	ldrb	r2, [r0, #1]
2ffe9bd8:	2a01      	cmp	r2, #1
2ffe9bda:	d801      	bhi.n	2ffe9be0 <bl2_load_images+0xdc>
2ffe9bdc:	2162      	movs	r1, #98	@ 0x62
2ffe9bde:	e797      	b.n	2ffe9b10 <bl2_load_images+0xc>
2ffe9be0:	689b      	ldr	r3, [r3, #8]
2ffe9be2:	b90b      	cbnz	r3, 2ffe9be8 <bl2_load_images+0xe4>
2ffe9be4:	2163      	movs	r1, #99	@ 0x63
2ffe9be6:	e793      	b.n	2ffe9b10 <bl2_load_images+0xc>
2ffe9be8:	695a      	ldr	r2, [r3, #20]
2ffe9bea:	b902      	cbnz	r2, 2ffe9bee <bl2_load_images+0xea>
2ffe9bec:	6158      	str	r0, [r3, #20]
2ffe9bee:	f00a f94b 	bl	2fff3e88 <plat_flush_next_bl_params>
2ffe9bf2:	68a3      	ldr	r3, [r4, #8]
2ffe9bf4:	6898      	ldr	r0, [r3, #8]
2ffe9bf6:	e8bd 83f8 	ldmia.w	sp!, {r3, r4, r5, r6, r7, r8, r9, pc}
2ffe9bfa:	bf00      	nop
2ffe9bfc:	2fff6956 	.word	0x2fff6956
2ffe9c00:	2fff6993 	.word	0x2fff6993
2ffe9c04:	2fff696e 	.word	0x2fff696e
2ffe9c08:	2fff6a20 	.word	0x2fff6a20
2ffe9c0c:	2fff69af 	.word	0x2fff69af
2ffe9c10:	2fff69de 	.word	0x2fff69de
2ffe9c14:	2fff69f9 	.word	0x2fff69f9
2ffe9c18:	2fff6a40 	.word	0x2fff6a40

2ffe9c1c <bl2_main>:
2ffe9c1c:	b510      	push	{r4, lr}
2ffe9c1e:	4910      	ldr	r1, [pc, #64]	@ (2ffe9c60 <bl2_main+0x44>)
2ffe9c20:	4810      	ldr	r0, [pc, #64]	@ (2ffe9c64 <bl2_main+0x48>)
2ffe9c22:	f003 fdf9 	bl	2ffed818 <tf_log>
2ffe9c26:	4910      	ldr	r1, [pc, #64]	@ (2ffe9c68 <bl2_main+0x4c>)
2ffe9c28:	480e      	ldr	r0, [pc, #56]	@ (2ffe9c64 <bl2_main+0x48>)
2ffe9c2a:	f003 fdf5 	bl	2ffed818 <tf_log>
2ffe9c2e:	f009 ffc7 	bl	2fff3bc0 <bl2_arch_setup>
2ffe9c32:	f00a f920 	bl	2fff3e76 <plat_fwu_is_enabled>
2ffe9c36:	b108      	cbz	r0, 2ffe9c3c <bl2_main+0x20>
2ffe9c38:	f000 fb3a 	bl	2ffea2b0 <fwu_init>
2ffe9c3c:	f00a f94b 	bl	2fff3ed6 <bl2_plat_preload_setup>
2ffe9c40:	f7ff ff60 	bl	2ffe9b04 <bl2_load_images>
2ffe9c44:	4604      	mov	r4, r0
2ffe9c46:	4809      	ldr	r0, [pc, #36]	@ (2ffe9c6c <bl2_main+0x50>)
2ffe9c48:	f003 fde6 	bl	2ffed818 <tf_log>
2ffe9c4c:	4620      	mov	r0, r4
2ffe9c4e:	f003 fdd3 	bl	2ffed7f8 <print_entry_point_info>
2ffe9c52:	f003 fe7d 	bl	2ffed950 <console_flush>
2ffe9c56:	4620      	mov	r0, r4
2ffe9c58:	e8bd 4010 	ldmia.w	sp!, {r4, lr}
2ffe9c5c:	f00f be28 	b.w	2fff98b0 <__bl2_run_next_image_from_thumb>
2ffe9c60:	2fff6904 	.word	0x2fff6904
2ffe9c64:	2fff6a70 	.word	0x2fff6a70
2ffe9c68:	2fff6938 	.word	0x2fff6938
2ffe9c6c:	2fff6a7a 	.word	0x2fff6a7a

2ffe9c70 <flush_bl_params_desc_args>:
2ffe9c70:	b510      	push	{r4, lr}
2ffe9c72:	4614      	mov	r4, r2
2ffe9c74:	b918      	cbnz	r0, 2ffe9c7e <flush_bl_params_desc_args+0xe>
2ffe9c76:	2125      	movs	r1, #37	@ 0x25
2ffe9c78:	4809      	ldr	r0, [pc, #36]	@ (2ffe9ca0 <flush_bl_params_desc_args+0x30>)
2ffe9c7a:	f009 fd57 	bl	2fff372c <__assert>
2ffe9c7e:	b909      	cbnz	r1, 2ffe9c84 <flush_bl_params_desc_args+0x14>
2ffe9c80:	2126      	movs	r1, #38	@ 0x26
2ffe9c82:	e7f9      	b.n	2ffe9c78 <flush_bl_params_desc_args+0x8>
2ffe9c84:	b90a      	cbnz	r2, 2ffe9c8a <flush_bl_params_desc_args+0x1a>
2ffe9c86:	2127      	movs	r1, #39	@ 0x27
2ffe9c88:	e7f6      	b.n	2ffe9c78 <flush_bl_params_desc_args+0x8>
2ffe9c8a:	235c      	movs	r3, #92	@ 0x5c
2ffe9c8c:	4359      	muls	r1, r3
2ffe9c8e:	f7ff ebde 	blx	2ffe944c <flush_dcache_range>
2ffe9c92:	4620      	mov	r0, r4
2ffe9c94:	210c      	movs	r1, #12
2ffe9c96:	e8bd 4010 	ldmia.w	sp!, {r4, lr}
2ffe9c9a:	f00f be15 	b.w	2fff98c8 <__flush_dcache_range_from_thumb>
2ffe9c9e:	bf00      	nop
2ffe9ca0:	2fff6a8e 	.word	0x2fff6a8e

2ffe9ca4 <flush_bl_params_desc>:
2ffe9ca4:	4b03      	ldr	r3, [pc, #12]	@ (2ffe9cb4 <flush_bl_params_desc+0x10>)
2ffe9ca6:	4a04      	ldr	r2, [pc, #16]	@ (2ffe9cb8 <flush_bl_params_desc+0x14>)
2ffe9ca8:	6819      	ldr	r1, [r3, #0]
2ffe9caa:	4b04      	ldr	r3, [pc, #16]	@ (2ffe9cbc <flush_bl_params_desc+0x18>)
2ffe9cac:	6818      	ldr	r0, [r3, #0]
2ffe9cae:	f7ff bfdf 	b.w	2ffe9c70 <flush_bl_params_desc_args>
2ffe9cb2:	bf00      	nop
2ffe9cb4:	2fffa29c 	.word	0x2fffa29c
2ffe9cb8:	2fffb980 	.word	0x2fffb980
2ffe9cbc:	2fffa2a0 	.word	0x2fffa2a0

2ffe9cc0 <get_bl_params_node_index>:
2ffe9cc0:	b538      	push	{r3, r4, r5, lr}
2ffe9cc2:	1c43      	adds	r3, r0, #1
2ffe9cc4:	d00a      	beq.n	2ffe9cdc <get_bl_params_node_index+0x1c>
2ffe9cc6:	4b0c      	ldr	r3, [pc, #48]	@ (2ffe9cf8 <get_bl_params_node_index+0x38>)
2ffe9cc8:	245c      	movs	r4, #92	@ 0x5c
2ffe9cca:	681a      	ldr	r2, [r3, #0]
2ffe9ccc:	4b0b      	ldr	r3, [pc, #44]	@ (2ffe9cfc <get_bl_params_node_index+0x3c>)
2ffe9cce:	6819      	ldr	r1, [r3, #0]
2ffe9cd0:	2300      	movs	r3, #0
2ffe9cd2:	429a      	cmp	r2, r3
2ffe9cd4:	d106      	bne.n	2ffe9ce4 <get_bl_params_node_index+0x24>
2ffe9cd6:	f04f 30ff 	mov.w	r0, #4294967295	@ 0xffffffff
2ffe9cda:	e009      	b.n	2ffe9cf0 <get_bl_params_node_index+0x30>
2ffe9cdc:	4808      	ldr	r0, [pc, #32]	@ (2ffe9d00 <get_bl_params_node_index+0x40>)
2ffe9cde:	2138      	movs	r1, #56	@ 0x38
2ffe9ce0:	f009 fd24 	bl	2fff372c <__assert>
2ffe9ce4:	fb04 f503 	mul.w	r5, r4, r3
2ffe9ce8:	594d      	ldr	r5, [r1, r5]
2ffe9cea:	4285      	cmp	r5, r0
2ffe9cec:	d101      	bne.n	2ffe9cf2 <get_bl_params_node_index+0x32>
2ffe9cee:	4618      	mov	r0, r3
2ffe9cf0:	bd38      	pop	{r3, r4, r5, pc}
2ffe9cf2:	3301      	adds	r3, #1
2ffe9cf4:	e7ed      	b.n	2ffe9cd2 <get_bl_params_node_index+0x12>
2ffe9cf6:	bf00      	nop
2ffe9cf8:	2fffa29c 	.word	0x2fffa29c
2ffe9cfc:	2fffa2a0 	.word	0x2fffa2a0
2ffe9d00:	2fff6a8e 	.word	0x2fff6a8e

2ffe9d04 <get_bl_mem_params_node>:
2ffe9d04:	b508      	push	{r3, lr}
2ffe9d06:	1c43      	adds	r3, r0, #1
2ffe9d08:	d103      	bne.n	2ffe9d12 <get_bl_mem_params_node+0xe>
2ffe9d0a:	4808      	ldr	r0, [pc, #32]	@ (2ffe9d2c <get_bl_mem_params_node+0x28>)
2ffe9d0c:	214a      	movs	r1, #74	@ 0x4a
2ffe9d0e:	f009 fd0d 	bl	2fff372c <__assert>
2ffe9d12:	f7ff ffd5 	bl	2ffe9cc0 <get_bl_params_node_index>
2ffe9d16:	1e03      	subs	r3, r0, #0
2ffe9d18:	bfb1      	iteee	lt
2ffe9d1a:	2000      	movlt	r0, #0
2ffe9d1c:	4a04      	ldrge	r2, [pc, #16]	@ (2ffe9d30 <get_bl_mem_params_node+0x2c>)
2ffe9d1e:	6810      	ldrge	r0, [r2, #0]
2ffe9d20:	225c      	movge	r2, #92	@ 0x5c
2ffe9d22:	bfa8      	it	ge
2ffe9d24:	fb02 0003 	mlage	r0, r2, r3, r0
2ffe9d28:	bd08      	pop	{r3, pc}
2ffe9d2a:	bf00      	nop
2ffe9d2c:	2fff6a8e 	.word	0x2fff6a8e
2ffe9d30:	2fffa2a0 	.word	0x2fffa2a0

2ffe9d34 <get_bl_load_info_from_mem_params_desc>:
2ffe9d34:	4b10      	ldr	r3, [pc, #64]	@ (2ffe9d78 <get_bl_load_info_from_mem_params_desc+0x44>)
2ffe9d36:	b510      	push	{r4, lr}
2ffe9d38:	6818      	ldr	r0, [r3, #0]
2ffe9d3a:	b1d8      	cbz	r0, 2ffe9d74 <get_bl_load_info_from_mem_params_desc+0x40>
2ffe9d3c:	4b0f      	ldr	r3, [pc, #60]	@ (2ffe9d7c <get_bl_load_info_from_mem_params_desc+0x48>)
2ffe9d3e:	4c10      	ldr	r4, [pc, #64]	@ (2ffe9d80 <get_bl_load_info_from_mem_params_desc+0x4c>)
2ffe9d40:	681b      	ldr	r3, [r3, #0]
2ffe9d42:	4a10      	ldr	r2, [pc, #64]	@ (2ffe9d84 <get_bl_load_info_from_mem_params_desc+0x50>)
2ffe9d44:	f103 0140 	add.w	r1, r3, #64	@ 0x40
2ffe9d48:	3304      	adds	r3, #4
2ffe9d4a:	6022      	str	r2, [r4, #0]
2ffe9d4c:	2200      	movs	r2, #0
2ffe9d4e:	60a1      	str	r1, [r4, #8]
2ffe9d50:	6062      	str	r2, [r4, #4]
2ffe9d52:	f853 4c04 	ldr.w	r4, [r3, #-4]
2ffe9d56:	3201      	adds	r2, #1
2ffe9d58:	4290      	cmp	r0, r2
2ffe9d5a:	600c      	str	r4, [r1, #0]
2ffe9d5c:	604b      	str	r3, [r1, #4]
2ffe9d5e:	d905      	bls.n	2ffe9d6c <get_bl_load_info_from_mem_params_desc+0x38>
2ffe9d60:	f103 0498 	add.w	r4, r3, #152	@ 0x98
2ffe9d64:	335c      	adds	r3, #92	@ 0x5c
2ffe9d66:	608c      	str	r4, [r1, #8]
2ffe9d68:	4621      	mov	r1, r4
2ffe9d6a:	e7f2      	b.n	2ffe9d52 <get_bl_load_info_from_mem_params_desc+0x1e>
2ffe9d6c:	d001      	beq.n	2ffe9d72 <get_bl_load_info_from_mem_params_desc+0x3e>
2ffe9d6e:	335c      	adds	r3, #92	@ 0x5c
2ffe9d70:	e7ef      	b.n	2ffe9d52 <get_bl_load_info_from_mem_params_desc+0x1e>
2ffe9d72:	4803      	ldr	r0, [pc, #12]	@ (2ffe9d80 <get_bl_load_info_from_mem_params_desc+0x4c>)
2ffe9d74:	bd10      	pop	{r4, pc}
2ffe9d76:	bf00      	nop
2ffe9d78:	2fffa29c 	.word	0x2fffa29c
2ffe9d7c:	2fffa2a0 	.word	0x2fffa2a0
2ffe9d80:	2fffb98c 	.word	0x2fffb98c
2ffe9d84:	000c0204 	.word	0x000c0204

2ffe9d88 <get_next_bl_params_from_mem_params_desc>:
2ffe9d88:	4b2a      	ldr	r3, [pc, #168]	@ (2ffe9e34 <get_next_bl_params_from_mem_params_desc+0xac>)
2ffe9d8a:	e92d 41f0 	stmdb	sp!, {r4, r5, r6, r7, r8, lr}
2ffe9d8e:	681c      	ldr	r4, [r3, #0]
2ffe9d90:	2c00      	cmp	r4, #0
2ffe9d92:	d049      	beq.n	2ffe9e28 <get_next_bl_params_from_mem_params_desc+0xa0>
2ffe9d94:	4b28      	ldr	r3, [pc, #160]	@ (2ffe9e38 <get_next_bl_params_from_mem_params_desc+0xb0>)
2ffe9d96:	2000      	movs	r0, #0
2ffe9d98:	215c      	movs	r1, #92	@ 0x5c
2ffe9d9a:	681d      	ldr	r5, [r3, #0]
2ffe9d9c:	fb01 5300 	mla	r3, r1, r0, r5
2ffe9da0:	69da      	ldr	r2, [r3, #28]
2ffe9da2:	f002 0218 	and.w	r2, r2, #24
2ffe9da6:	2a18      	cmp	r2, #24
2ffe9da8:	d112      	bne.n	2ffe9dd0 <get_next_bl_params_from_mem_params_desc+0x48>
2ffe9daa:	4a24      	ldr	r2, [pc, #144]	@ (2ffe9e3c <get_next_bl_params_from_mem_params_desc+0xb4>)
2ffe9dac:	334c      	adds	r3, #76	@ 0x4c
2ffe9dae:	6093      	str	r3, [r2, #8]
2ffe9db0:	4b22      	ldr	r3, [pc, #136]	@ (2ffe9e3c <get_next_bl_params_from_mem_params_desc+0xb4>)
2ffe9db2:	f04f 085c 	mov.w	r8, #92	@ 0x5c
2ffe9db6:	4a22      	ldr	r2, [pc, #136]	@ (2ffe9e40 <get_next_bl_params_from_mem_params_desc+0xb8>)
2ffe9db8:	601a      	str	r2, [r3, #0]
2ffe9dba:	2200      	movs	r2, #0
2ffe9dbc:	605a      	str	r2, [r3, #4]
2ffe9dbe:	4616      	mov	r6, r2
2ffe9dc0:	fb08 f000 	mul.w	r0, r8, r0
2ffe9dc4:	182b      	adds	r3, r5, r0
2ffe9dc6:	69d9      	ldr	r1, [r3, #28]
2ffe9dc8:	0709      	lsls	r1, r1, #28
2ffe9dca:	d40f      	bmi.n	2ffe9dec <get_next_bl_params_from_mem_params_desc+0x64>
2ffe9dcc:	21ab      	movs	r1, #171	@ 0xab
2ffe9dce:	e006      	b.n	2ffe9dde <get_next_bl_params_from_mem_params_desc+0x56>
2ffe9dd0:	3001      	adds	r0, #1
2ffe9dd2:	4284      	cmp	r4, r0
2ffe9dd4:	d1e2      	bne.n	2ffe9d9c <get_next_bl_params_from_mem_params_desc+0x14>
2ffe9dd6:	4b19      	ldr	r3, [pc, #100]	@ (2ffe9e3c <get_next_bl_params_from_mem_params_desc+0xb4>)
2ffe9dd8:	689b      	ldr	r3, [r3, #8]
2ffe9dda:	b91b      	cbnz	r3, 2ffe9de4 <get_next_bl_params_from_mem_params_desc+0x5c>
2ffe9ddc:	219d      	movs	r1, #157	@ 0x9d
2ffe9dde:	4819      	ldr	r0, [pc, #100]	@ (2ffe9e44 <get_next_bl_params_from_mem_params_desc+0xbc>)
2ffe9de0:	f009 fca4 	bl	2fff372c <__assert>
2ffe9de4:	2000      	movs	r0, #0
2ffe9de6:	e7e3      	b.n	2ffe9db0 <get_next_bl_params_from_mem_params_desc+0x28>
2ffe9de8:	463a      	mov	r2, r7
2ffe9dea:	e7e9      	b.n	2ffe9dc0 <get_next_bl_params_from_mem_params_desc+0x38>
2ffe9dec:	5829      	ldr	r1, [r5, r0]
2ffe9dee:	f103 074c 	add.w	r7, r3, #76	@ 0x4c
2ffe9df2:	64d9      	str	r1, [r3, #76]	@ 0x4c
2ffe9df4:	1d19      	adds	r1, r3, #4
2ffe9df6:	6519      	str	r1, [r3, #80]	@ 0x50
2ffe9df8:	f103 0118 	add.w	r1, r3, #24
2ffe9dfc:	6559      	str	r1, [r3, #84]	@ 0x54
2ffe9dfe:	b122      	cbz	r2, 2ffe9e0a <get_next_bl_params_from_mem_params_desc+0x82>
2ffe9e00:	68d1      	ldr	r1, [r2, #12]
2ffe9e02:	b109      	cbz	r1, 2ffe9e08 <get_next_bl_params_from_mem_params_desc+0x80>
2ffe9e04:	21b7      	movs	r1, #183	@ 0xb7
2ffe9e06:	e7ea      	b.n	2ffe9dde <get_next_bl_params_from_mem_params_desc+0x56>
2ffe9e08:	60d7      	str	r7, [r2, #12]
2ffe9e0a:	6bd8      	ldr	r0, [r3, #60]	@ 0x3c
2ffe9e0c:	1c43      	adds	r3, r0, #1
2ffe9e0e:	d00e      	beq.n	2ffe9e2e <get_next_bl_params_from_mem_params_desc+0xa6>
2ffe9e10:	f7ff ff56 	bl	2ffe9cc0 <get_bl_params_node_index>
2ffe9e14:	b108      	cbz	r0, 2ffe9e1a <get_next_bl_params_from_mem_params_desc+0x92>
2ffe9e16:	4284      	cmp	r4, r0
2ffe9e18:	d801      	bhi.n	2ffe9e1e <get_next_bl_params_from_mem_params_desc+0x96>
2ffe9e1a:	21c7      	movs	r1, #199	@ 0xc7
2ffe9e1c:	e7df      	b.n	2ffe9dde <get_next_bl_params_from_mem_params_desc+0x56>
2ffe9e1e:	3601      	adds	r6, #1
2ffe9e20:	42b4      	cmp	r4, r6
2ffe9e22:	d1e1      	bne.n	2ffe9de8 <get_next_bl_params_from_mem_params_desc+0x60>
2ffe9e24:	21cc      	movs	r1, #204	@ 0xcc
2ffe9e26:	e7da      	b.n	2ffe9dde <get_next_bl_params_from_mem_params_desc+0x56>
2ffe9e28:	4620      	mov	r0, r4
2ffe9e2a:	e8bd 81f0 	ldmia.w	sp!, {r4, r5, r6, r7, r8, pc}
2ffe9e2e:	4803      	ldr	r0, [pc, #12]	@ (2ffe9e3c <get_next_bl_params_from_mem_params_desc+0xb4>)
2ffe9e30:	e7fb      	b.n	2ffe9e2a <get_next_bl_params_from_mem_params_desc+0xa2>
2ffe9e32:	bf00      	nop
2ffe9e34:	2fffa29c 	.word	0x2fffa29c
2ffe9e38:	2fffa2a0 	.word	0x2fffa2a0
2ffe9e3c:	2fffb980 	.word	0x2fffb980
2ffe9e40:	000c0205 	.word	0x000c0205
2ffe9e44:	2fff6a8e 	.word	0x2fff6a8e

2ffe9e48 <populate_next_bl_params_config>:
2ffe9e48:	b5f8      	push	{r3, r4, r5, r6, r7, lr}
2ffe9e4a:	4605      	mov	r5, r0
2ffe9e4c:	b918      	cbnz	r0, 2ffe9e56 <populate_next_bl_params_config+0xe>
2ffe9e4e:	4816      	ldr	r0, [pc, #88]	@ (2ffe9ea8 <populate_next_bl_params_config+0x60>)
2ffe9e50:	21dd      	movs	r1, #221	@ 0xdd
2ffe9e52:	f009 fc6b 	bl	2fff372c <__assert>
2ffe9e56:	2002      	movs	r0, #2
2ffe9e58:	f7ff ff54 	bl	2ffe9d04 <get_bl_mem_params_node>
2ffe9e5c:	4604      	mov	r4, r0
2ffe9e5e:	b100      	cbz	r0, 2ffe9e62 <populate_next_bl_params_config+0x1a>
2ffe9e60:	68c4      	ldr	r4, [r0, #12]
2ffe9e62:	68ae      	ldr	r6, [r5, #8]
2ffe9e64:	4f11      	ldr	r7, [pc, #68]	@ (2ffe9eac <populate_next_bl_params_config+0x64>)
2ffe9e66:	4635      	mov	r5, r6
2ffe9e68:	b905      	cbnz	r5, 2ffe9e6c <populate_next_bl_params_config+0x24>
2ffe9e6a:	bdf8      	pop	{r3, r4, r5, r6, r7, pc}
2ffe9e6c:	682b      	ldr	r3, [r5, #0]
2ffe9e6e:	3b03      	subs	r3, #3
2ffe9e70:	2b02      	cmp	r3, #2
2ffe9e72:	d80f      	bhi.n	2ffe9e94 <populate_next_bl_params_config+0x4c>
2ffe9e74:	5cf8      	ldrb	r0, [r7, r3]
2ffe9e76:	f7ff ff45 	bl	2ffe9d04 <get_bl_mem_params_node>
2ffe9e7a:	b100      	cbz	r0, 2ffe9e7e <populate_next_bl_params_config+0x36>
2ffe9e7c:	68c0      	ldr	r0, [r0, #12]
2ffe9e7e:	68ab      	ldr	r3, [r5, #8]
2ffe9e80:	42b5      	cmp	r5, r6
2ffe9e82:	699a      	ldr	r2, [r3, #24]
2ffe9e84:	d108      	bne.n	2ffe9e98 <populate_next_bl_params_config+0x50>
2ffe9e86:	b902      	cbnz	r2, 2ffe9e8a <populate_next_bl_params_config+0x42>
2ffe9e88:	6198      	str	r0, [r3, #24]
2ffe9e8a:	69da      	ldr	r2, [r3, #28]
2ffe9e8c:	b902      	cbnz	r2, 2ffe9e90 <populate_next_bl_params_config+0x48>
2ffe9e8e:	61dc      	str	r4, [r3, #28]
2ffe9e90:	68ed      	ldr	r5, [r5, #12]
2ffe9e92:	e7e9      	b.n	2ffe9e68 <populate_next_bl_params_config+0x20>
2ffe9e94:	2000      	movs	r0, #0
2ffe9e96:	e7f2      	b.n	2ffe9e7e <populate_next_bl_params_config+0x36>
2ffe9e98:	6959      	ldr	r1, [r3, #20]
2ffe9e9a:	b901      	cbnz	r1, 2ffe9e9e <populate_next_bl_params_config+0x56>
2ffe9e9c:	6158      	str	r0, [r3, #20]
2ffe9e9e:	2a00      	cmp	r2, #0
2ffe9ea0:	d1f6      	bne.n	2ffe9e90 <populate_next_bl_params_config+0x48>
2ffe9ea2:	619c      	str	r4, [r3, #24]
2ffe9ea4:	e7f4      	b.n	2ffe9e90 <populate_next_bl_params_config+0x48>
2ffe9ea6:	bf00      	nop
2ffe9ea8:	2fff6a8e 	.word	0x2fff6a8e
2ffe9eac:	2fff6aa7 	.word	0x2fff6aa7

2ffe9eb0 <fdt_read_uint32_array>:
2ffe9eb0:	b5f7      	push	{r0, r1, r2, r4, r5, r6, r7, lr}
2ffe9eb2:	461c      	mov	r4, r3
2ffe9eb4:	9d08      	ldr	r5, [sp, #32]
2ffe9eb6:	b918      	cbnz	r0, 2ffe9ec0 <fdt_read_uint32_array+0x10>
2ffe9eb8:	2120      	movs	r1, #32
2ffe9eba:	4817      	ldr	r0, [pc, #92]	@ (2ffe9f18 <fdt_read_uint32_array+0x68>)
2ffe9ebc:	f009 fc36 	bl	2fff372c <__assert>
2ffe9ec0:	b90a      	cbnz	r2, 2ffe9ec6 <fdt_read_uint32_array+0x16>
2ffe9ec2:	2121      	movs	r1, #33	@ 0x21
2ffe9ec4:	e7f9      	b.n	2ffe9eba <fdt_read_uint32_array+0xa>
2ffe9ec6:	b90d      	cbnz	r5, 2ffe9ecc <fdt_read_uint32_array+0x1c>
2ffe9ec8:	2122      	movs	r1, #34	@ 0x22
2ffe9eca:	e7f6      	b.n	2ffe9eba <fdt_read_uint32_array+0xa>
2ffe9ecc:	2900      	cmp	r1, #0
2ffe9ece:	da01      	bge.n	2ffe9ed4 <fdt_read_uint32_array+0x24>
2ffe9ed0:	2123      	movs	r1, #35	@ 0x23
2ffe9ed2:	e7f2      	b.n	2ffe9eba <fdt_read_uint32_array+0xa>
2ffe9ed4:	ab01      	add	r3, sp, #4
2ffe9ed6:	f00b f93b 	bl	2fff5150 <fdt_getprop>
2ffe9eda:	4602      	mov	r2, r0
2ffe9edc:	b1c0      	cbz	r0, 2ffe9f10 <fdt_read_uint32_array+0x60>
2ffe9ede:	9b01      	ldr	r3, [sp, #4]
2ffe9ee0:	ebb4 0f93 	cmp.w	r4, r3, lsr #2
2ffe9ee4:	d806      	bhi.n	2ffe9ef4 <fdt_read_uint32_array+0x44>
2ffe9ee6:	eb00 0484 	add.w	r4, r0, r4, lsl #2
2ffe9eea:	3d04      	subs	r5, #4
2ffe9eec:	42a2      	cmp	r2, r4
2ffe9eee:	d108      	bne.n	2ffe9f02 <fdt_read_uint32_array+0x52>
2ffe9ef0:	2000      	movs	r0, #0
2ffe9ef2:	e004      	b.n	2ffe9efe <fdt_read_uint32_array+0x4e>
2ffe9ef4:	4809      	ldr	r0, [pc, #36]	@ (2ffe9f1c <fdt_read_uint32_array+0x6c>)
2ffe9ef6:	f003 fc8f 	bl	2ffed818 <tf_log>
2ffe9efa:	f06f 000e 	mvn.w	r0, #14
2ffe9efe:	b003      	add	sp, #12
2ffe9f00:	bdf0      	pop	{r4, r5, r6, r7, pc}
2ffe9f02:	f852 0b04 	ldr.w	r0, [r2], #4
2ffe9f06:	f009 fe63 	bl	2fff3bd0 <cpu_to_fdt32>
2ffe9f0a:	f845 0f04 	str.w	r0, [r5, #4]!
2ffe9f0e:	e7ed      	b.n	2ffe9eec <fdt_read_uint32_array+0x3c>
2ffe9f10:	f04f 30ff 	mov.w	r0, #4294967295	@ 0xffffffff
2ffe9f14:	e7f3      	b.n	2ffe9efe <fdt_read_uint32_array+0x4e>
2ffe9f16:	bf00      	nop
2ffe9f18:	2fff6aaa 	.word	0x2fff6aaa
2ffe9f1c:	2fff6ac0 	.word	0x2fff6ac0

2ffe9f20 <fdtw_read_string>:
2ffe9f20:	e92d 43f7 	stmdb	sp!, {r0, r1, r2, r4, r5, r6, r7, r8, r9, lr}
2ffe9f24:	4689      	mov	r9, r1
2ffe9f26:	f8dd 8028 	ldr.w	r8, [sp, #40]	@ 0x28
2ffe9f2a:	4614      	mov	r4, r2
2ffe9f2c:	461e      	mov	r6, r3
2ffe9f2e:	4607      	mov	r7, r0
2ffe9f30:	b918      	cbnz	r0, 2ffe9f3a <fdtw_read_string+0x1a>
2ffe9f32:	2196      	movs	r1, #150	@ 0x96
2ffe9f34:	4819      	ldr	r0, [pc, #100]	@ (2ffe9f9c <fdtw_read_string+0x7c>)
2ffe9f36:	f009 fbf9 	bl	2fff372c <__assert>
2ffe9f3a:	2900      	cmp	r1, #0
2ffe9f3c:	da01      	bge.n	2ffe9f42 <fdtw_read_string+0x22>
2ffe9f3e:	2197      	movs	r1, #151	@ 0x97
2ffe9f40:	e7f8      	b.n	2ffe9f34 <fdtw_read_string+0x14>
2ffe9f42:	b90a      	cbnz	r2, 2ffe9f48 <fdtw_read_string+0x28>
2ffe9f44:	2198      	movs	r1, #152	@ 0x98
2ffe9f46:	e7f5      	b.n	2ffe9f34 <fdtw_read_string+0x14>
2ffe9f48:	b90b      	cbnz	r3, 2ffe9f4e <fdtw_read_string+0x2e>
2ffe9f4a:	2199      	movs	r1, #153	@ 0x99
2ffe9f4c:	e7f2      	b.n	2ffe9f34 <fdtw_read_string+0x14>
2ffe9f4e:	f1b8 0f00 	cmp.w	r8, #0
2ffe9f52:	d101      	bne.n	2ffe9f58 <fdtw_read_string+0x38>
2ffe9f54:	219a      	movs	r1, #154	@ 0x9a
2ffe9f56:	e7ed      	b.n	2ffe9f34 <fdtw_read_string+0x14>
2ffe9f58:	4610      	mov	r0, r2
2ffe9f5a:	2500      	movs	r5, #0
2ffe9f5c:	f00b fb90 	bl	2fff5680 <strlen>
2ffe9f60:	9500      	str	r5, [sp, #0]
2ffe9f62:	4603      	mov	r3, r0
2ffe9f64:	4649      	mov	r1, r9
2ffe9f66:	4622      	mov	r2, r4
2ffe9f68:	4638      	mov	r0, r7
2ffe9f6a:	f00b f8d1 	bl	2fff5110 <fdt_getprop_namelen>
2ffe9f6e:	4601      	mov	r1, r0
2ffe9f70:	b940      	cbnz	r0, 2ffe9f84 <fdtw_read_string+0x64>
2ffe9f72:	480b      	ldr	r0, [pc, #44]	@ (2ffe9fa0 <fdtw_read_string+0x80>)
2ffe9f74:	4621      	mov	r1, r4
2ffe9f76:	f003 fc4f 	bl	2ffed818 <tf_log>
2ffe9f7a:	f04f 30ff 	mov.w	r0, #4294967295	@ 0xffffffff
2ffe9f7e:	b003      	add	sp, #12
2ffe9f80:	e8bd 83f0 	ldmia.w	sp!, {r4, r5, r6, r7, r8, r9, pc}
2ffe9f84:	4642      	mov	r2, r8
2ffe9f86:	4630      	mov	r0, r6
2ffe9f88:	f00b fb66 	bl	2fff5658 <strlcpy>
2ffe9f8c:	4580      	cmp	r8, r0
2ffe9f8e:	d802      	bhi.n	2ffe9f96 <fdtw_read_string+0x76>
2ffe9f90:	4804      	ldr	r0, [pc, #16]	@ (2ffe9fa4 <fdtw_read_string+0x84>)
2ffe9f92:	4621      	mov	r1, r4
2ffe9f94:	e7ef      	b.n	2ffe9f76 <fdtw_read_string+0x56>
2ffe9f96:	4628      	mov	r0, r5
2ffe9f98:	e7f1      	b.n	2ffe9f7e <fdtw_read_string+0x5e>
2ffe9f9a:	bf00      	nop
2ffe9f9c:	2fff6aaa 	.word	0x2fff6aaa
2ffe9fa0:	2fff6adb 	.word	0x2fff6adb
2ffe9fa4:	2fff6afe 	.word	0x2fff6afe

2ffe9fa8 <fdtw_read_uuid>:
2ffe9fa8:	b570      	push	{r4, r5, r6, lr}
2ffe9faa:	b08c      	sub	sp, #48	@ 0x30
2ffe9fac:	9e10      	ldr	r6, [sp, #64]	@ 0x40
2ffe9fae:	b918      	cbnz	r0, 2ffe9fb8 <fdtw_read_uuid+0x10>
2ffe9fb0:	21b6      	movs	r1, #182	@ 0xb6
2ffe9fb2:	4811      	ldr	r0, [pc, #68]	@ (2ffe9ff8 <fdtw_read_uuid+0x50>)
2ffe9fb4:	f009 fbba 	bl	2fff372c <__assert>
2ffe9fb8:	b90a      	cbnz	r2, 2ffe9fbe <fdtw_read_uuid+0x16>
2ffe9fba:	21b7      	movs	r1, #183	@ 0xb7
2ffe9fbc:	e7f9      	b.n	2ffe9fb2 <fdtw_read_uuid+0xa>
2ffe9fbe:	b90e      	cbnz	r6, 2ffe9fc4 <fdtw_read_uuid+0x1c>
2ffe9fc0:	21b8      	movs	r1, #184	@ 0xb8
2ffe9fc2:	e7f6      	b.n	2ffe9fb2 <fdtw_read_uuid+0xa>
2ffe9fc4:	2900      	cmp	r1, #0
2ffe9fc6:	da01      	bge.n	2ffe9fcc <fdtw_read_uuid+0x24>
2ffe9fc8:	21b9      	movs	r1, #185	@ 0xb9
2ffe9fca:	e7f2      	b.n	2ffe9fb2 <fdtw_read_uuid+0xa>
2ffe9fcc:	2b0f      	cmp	r3, #15
2ffe9fce:	d90f      	bls.n	2ffe9ff0 <fdtw_read_uuid+0x48>
2ffe9fd0:	2325      	movs	r3, #37	@ 0x25
2ffe9fd2:	9300      	str	r3, [sp, #0]
2ffe9fd4:	ab02      	add	r3, sp, #8
2ffe9fd6:	f7ff ffa3 	bl	2ffe9f20 <fdtw_read_string>
2ffe9fda:	b938      	cbnz	r0, 2ffe9fec <fdtw_read_uuid+0x44>
2ffe9fdc:	a902      	add	r1, sp, #8
2ffe9fde:	4630      	mov	r0, r6
2ffe9fe0:	f003 fcdc 	bl	2ffed99c <read_uuid>
2ffe9fe4:	2800      	cmp	r0, #0
2ffe9fe6:	bf18      	it	ne
2ffe9fe8:	f06f 000e 	mvnne.w	r0, #14
2ffe9fec:	b00c      	add	sp, #48	@ 0x30
2ffe9fee:	bd70      	pop	{r4, r5, r6, pc}
2ffe9ff0:	f06f 0015 	mvn.w	r0, #21
2ffe9ff4:	e7fa      	b.n	2ffe9fec <fdtw_read_uuid+0x44>
2ffe9ff6:	bf00      	nop
2ffe9ff8:	2fff6aaa 	.word	0x2fff6aaa

2ffe9ffc <fdt_get_stdout_node_offset>:
2ffe9ffc:	4919      	ldr	r1, [pc, #100]	@ (2ffea064 <fdt_get_stdout_node_offset+0x68>)
2ffe9ffe:	b538      	push	{r3, r4, r5, lr}
2ffea000:	4605      	mov	r5, r0
2ffea002:	f00b f900 	bl	2fff5206 <fdt_path_offset>
2ffea006:	1e01      	subs	r1, r0, #0
2ffea008:	da05      	bge.n	2ffea016 <fdt_get_stdout_node_offset+0x1a>
2ffea00a:	4917      	ldr	r1, [pc, #92]	@ (2ffea068 <fdt_get_stdout_node_offset+0x6c>)
2ffea00c:	4628      	mov	r0, r5
2ffea00e:	f00b f8fa 	bl	2fff5206 <fdt_path_offset>
2ffea012:	1e01      	subs	r1, r0, #0
2ffea014:	db22      	blt.n	2ffea05c <fdt_get_stdout_node_offset+0x60>
2ffea016:	4a15      	ldr	r2, [pc, #84]	@ (2ffea06c <fdt_get_stdout_node_offset+0x70>)
2ffea018:	2300      	movs	r3, #0
2ffea01a:	4628      	mov	r0, r5
2ffea01c:	f00b f898 	bl	2fff5150 <fdt_getprop>
2ffea020:	4604      	mov	r4, r0
2ffea022:	b1d8      	cbz	r0, 2ffea05c <fdt_get_stdout_node_offset+0x60>
2ffea024:	213a      	movs	r1, #58	@ 0x3a
2ffea026:	f00b fb00 	bl	2fff562a <strchr>
2ffea02a:	b960      	cbnz	r0, 2ffea046 <fdt_get_stdout_node_offset+0x4a>
2ffea02c:	4620      	mov	r0, r4
2ffea02e:	f00b fb27 	bl	2fff5680 <strlen>
2ffea032:	4602      	mov	r2, r0
2ffea034:	7823      	ldrb	r3, [r4, #0]
2ffea036:	4621      	mov	r1, r4
2ffea038:	4628      	mov	r0, r5
2ffea03a:	2b2f      	cmp	r3, #47	@ 0x2f
2ffea03c:	d105      	bne.n	2ffea04a <fdt_get_stdout_node_offset+0x4e>
2ffea03e:	e8bd 4038 	ldmia.w	sp!, {r3, r4, r5, lr}
2ffea042:	f00b b896 	b.w	2fff5172 <fdt_path_offset_namelen>
2ffea046:	1b02      	subs	r2, r0, r4
2ffea048:	e7f4      	b.n	2ffea034 <fdt_get_stdout_node_offset+0x38>
2ffea04a:	f009 fb45 	bl	2fff36d8 <fdt_get_alias_namelen>
2ffea04e:	4601      	mov	r1, r0
2ffea050:	b120      	cbz	r0, 2ffea05c <fdt_get_stdout_node_offset+0x60>
2ffea052:	4628      	mov	r0, r5
2ffea054:	e8bd 4038 	ldmia.w	sp!, {r3, r4, r5, lr}
2ffea058:	f00b b8d5 	b.w	2fff5206 <fdt_path_offset>
2ffea05c:	f04f 30ff 	mov.w	r0, #4294967295	@ 0xffffffff
2ffea060:	bd38      	pop	{r3, r4, r5, pc}
2ffea062:	bf00      	nop
2ffea064:	2fff6b30 	.word	0x2fff6b30
2ffea068:	2fff6b3f 	.word	0x2fff6b3f
2ffea06c:	2fff6b47 	.word	0x2fff6b47

2ffea070 <fwu_metadata_load>:
2ffea070:	b57f      	push	{r0, r1, r2, r3, r4, r5, r6, lr}
2ffea072:	aa02      	add	r2, sp, #8
2ffea074:	4669      	mov	r1, sp
2ffea076:	4606      	mov	r6, r0
2ffea078:	f002 fdc4 	bl	2ffecc04 <plat_fwu_set_metadata_image_source>
2ffea07c:	4605      	mov	r5, r0
2ffea07e:	b138      	cbz	r0, 2ffea090 <fwu_metadata_load+0x20>
2ffea080:	4602      	mov	r2, r0
2ffea082:	4631      	mov	r1, r6
2ffea084:	4849      	ldr	r0, [pc, #292]	@ (2ffea1ac <fwu_metadata_load+0x13c>)
2ffea086:	f003 fbc7 	bl	2ffed818 <tf_log>
2ffea08a:	4628      	mov	r0, r5
2ffea08c:	b004      	add	sp, #16
2ffea08e:	bd70      	pop	{r4, r5, r6, pc}
2ffea090:	9902      	ldr	r1, [sp, #8]
2ffea092:	aa01      	add	r2, sp, #4
2ffea094:	9800      	ldr	r0, [sp, #0]
2ffea096:	f000 fd15 	bl	2ffeaac4 <io_open>
2ffea09a:	4605      	mov	r5, r0
2ffea09c:	b118      	cbz	r0, 2ffea0a6 <fwu_metadata_load+0x36>
2ffea09e:	4602      	mov	r2, r0
2ffea0a0:	4631      	mov	r1, r6
2ffea0a2:	4843      	ldr	r0, [pc, #268]	@ (2ffea1b0 <fwu_metadata_load+0x140>)
2ffea0a4:	e7ef      	b.n	2ffea086 <fwu_metadata_load+0x16>
2ffea0a6:	4c43      	ldr	r4, [pc, #268]	@ (2ffea1b4 <fwu_metadata_load+0x144>)
2ffea0a8:	ab03      	add	r3, sp, #12
2ffea0aa:	9801      	ldr	r0, [sp, #4]
2ffea0ac:	2278      	movs	r2, #120	@ 0x78
2ffea0ae:	4621      	mov	r1, r4
2ffea0b0:	f000 fd92 	bl	2ffeabd8 <io_read>
2ffea0b4:	4605      	mov	r5, r0
2ffea0b6:	b140      	cbz	r0, 2ffea0ca <fwu_metadata_load+0x5a>
2ffea0b8:	4602      	mov	r2, r0
2ffea0ba:	4631      	mov	r1, r6
2ffea0bc:	483e      	ldr	r0, [pc, #248]	@ (2ffea1b8 <fwu_metadata_load+0x148>)
2ffea0be:	f003 fbab 	bl	2ffed818 <tf_log>
2ffea0c2:	9801      	ldr	r0, [sp, #4]
2ffea0c4:	f000 fdac 	bl	2ffeac20 <io_close>
2ffea0c8:	e7df      	b.n	2ffea08a <fwu_metadata_load+0x1a>
2ffea0ca:	9903      	ldr	r1, [sp, #12]
2ffea0cc:	2978      	cmp	r1, #120	@ 0x78
2ffea0ce:	d006      	beq.n	2ffea0de <fwu_metadata_load+0x6e>
2ffea0d0:	483a      	ldr	r0, [pc, #232]	@ (2ffea1bc <fwu_metadata_load+0x14c>)
2ffea0d2:	2278      	movs	r2, #120	@ 0x78
2ffea0d4:	f003 fba0 	bl	2ffed818 <tf_log>
2ffea0d8:	f04f 35ff 	mov.w	r5, #4294967295	@ 0xffffffff
2ffea0dc:	e7f1      	b.n	2ffea0c2 <fwu_metadata_load+0x52>
2ffea0de:	7963      	ldrb	r3, [r4, #5]
2ffea0e0:	7922      	ldrb	r2, [r4, #4]
2ffea0e2:	ea42 2203 	orr.w	r2, r2, r3, lsl #8
2ffea0e6:	79a3      	ldrb	r3, [r4, #6]
2ffea0e8:	ea42 4203 	orr.w	r2, r2, r3, lsl #16
2ffea0ec:	79e3      	ldrb	r3, [r4, #7]
2ffea0ee:	ea42 6203 	orr.w	r2, r2, r3, lsl #24
2ffea0f2:	2a02      	cmp	r2, #2
2ffea0f4:	d004      	beq.n	2ffea100 <fwu_metadata_load+0x90>
2ffea0f6:	4832      	ldr	r0, [pc, #200]	@ (2ffea1c0 <fwu_metadata_load+0x150>)
2ffea0f8:	4611      	mov	r1, r2
2ffea0fa:	f003 fb8d 	bl	2ffed818 <tf_log>
2ffea0fe:	e00e      	b.n	2ffea11e <fwu_metadata_load+0xae>
2ffea100:	7a63      	ldrb	r3, [r4, #9]
2ffea102:	7a21      	ldrb	r1, [r4, #8]
2ffea104:	ea41 2103 	orr.w	r1, r1, r3, lsl #8
2ffea108:	7aa3      	ldrb	r3, [r4, #10]
2ffea10a:	ea41 4103 	orr.w	r1, r1, r3, lsl #16
2ffea10e:	7ae3      	ldrb	r3, [r4, #11]
2ffea110:	ea41 6103 	orr.w	r1, r1, r3, lsl #24
2ffea114:	2901      	cmp	r1, #1
2ffea116:	d909      	bls.n	2ffea12c <fwu_metadata_load+0xbc>
2ffea118:	482a      	ldr	r0, [pc, #168]	@ (2ffea1c4 <fwu_metadata_load+0x154>)
2ffea11a:	f003 fb7d 	bl	2ffed818 <tf_log>
2ffea11e:	492a      	ldr	r1, [pc, #168]	@ (2ffea1c8 <fwu_metadata_load+0x158>)
2ffea120:	f06f 0515 	mvn.w	r5, #21
2ffea124:	4829      	ldr	r0, [pc, #164]	@ (2ffea1cc <fwu_metadata_load+0x15c>)
2ffea126:	f003 fb77 	bl	2ffed818 <tf_log>
2ffea12a:	e7ca      	b.n	2ffea0c2 <fwu_metadata_load+0x52>
2ffea12c:	7b63      	ldrb	r3, [r4, #13]
2ffea12e:	7b21      	ldrb	r1, [r4, #12]
2ffea130:	ea41 2103 	orr.w	r1, r1, r3, lsl #8
2ffea134:	7ba3      	ldrb	r3, [r4, #14]
2ffea136:	ea41 4103 	orr.w	r1, r1, r3, lsl #16
2ffea13a:	7be3      	ldrb	r3, [r4, #15]
2ffea13c:	ea41 6103 	orr.w	r1, r1, r3, lsl #24
2ffea140:	2901      	cmp	r1, #1
2ffea142:	d901      	bls.n	2ffea148 <fwu_metadata_load+0xd8>
2ffea144:	4822      	ldr	r0, [pc, #136]	@ (2ffea1d0 <fwu_metadata_load+0x160>)
2ffea146:	e7e8      	b.n	2ffea11a <fwu_metadata_load+0xaa>
2ffea148:	f894 1020 	ldrb.w	r1, [r4, #32]
2ffea14c:	2902      	cmp	r1, #2
2ffea14e:	d001      	beq.n	2ffea154 <fwu_metadata_load+0xe4>
2ffea150:	4820      	ldr	r0, [pc, #128]	@ (2ffea1d4 <fwu_metadata_load+0x164>)
2ffea152:	e7e2      	b.n	2ffea11a <fwu_metadata_load+0xaa>
2ffea154:	f894 1022 	ldrb.w	r1, [r4, #34]	@ 0x22
2ffea158:	f894 3023 	ldrb.w	r3, [r4, #35]	@ 0x23
2ffea15c:	ea41 2103 	orr.w	r1, r1, r3, lsl #8
2ffea160:	2901      	cmp	r1, #1
2ffea162:	d002      	beq.n	2ffea16a <fwu_metadata_load+0xfa>
2ffea164:	481c      	ldr	r0, [pc, #112]	@ (2ffea1d8 <fwu_metadata_load+0x168>)
2ffea166:	2201      	movs	r2, #1
2ffea168:	e7d7      	b.n	2ffea11a <fwu_metadata_load+0xaa>
2ffea16a:	7d21      	ldrb	r1, [r4, #20]
2ffea16c:	7d63      	ldrb	r3, [r4, #21]
2ffea16e:	ea41 2103 	orr.w	r1, r1, r3, lsl #8
2ffea172:	2920      	cmp	r1, #32
2ffea174:	d001      	beq.n	2ffea17a <fwu_metadata_load+0x10a>
2ffea176:	4819      	ldr	r0, [pc, #100]	@ (2ffea1dc <fwu_metadata_load+0x16c>)
2ffea178:	e7bf      	b.n	2ffea0fa <fwu_metadata_load+0x8a>
2ffea17a:	4e19      	ldr	r6, [pc, #100]	@ (2ffea1e0 <fwu_metadata_load+0x170>)
2ffea17c:	2274      	movs	r2, #116	@ 0x74
2ffea17e:	2000      	movs	r0, #0
2ffea180:	4631      	mov	r1, r6
2ffea182:	f009 fe74 	bl	2fff3e6e <tf_crc32>
2ffea186:	7862      	ldrb	r2, [r4, #1]
2ffea188:	f816 3c04 	ldrb.w	r3, [r6, #-4]
2ffea18c:	ea43 2302 	orr.w	r3, r3, r2, lsl #8
2ffea190:	78a2      	ldrb	r2, [r4, #2]
2ffea192:	ea43 4302 	orr.w	r3, r3, r2, lsl #16
2ffea196:	78e2      	ldrb	r2, [r4, #3]
2ffea198:	ea43 6302 	orr.w	r3, r3, r2, lsl #24
2ffea19c:	4298      	cmp	r0, r3
2ffea19e:	d090      	beq.n	2ffea0c2 <fwu_metadata_load+0x52>
2ffea1a0:	4909      	ldr	r1, [pc, #36]	@ (2ffea1c8 <fwu_metadata_load+0x158>)
2ffea1a2:	4810      	ldr	r0, [pc, #64]	@ (2ffea1e4 <fwu_metadata_load+0x174>)
2ffea1a4:	f003 fb38 	bl	2ffed818 <tf_log>
2ffea1a8:	e796      	b.n	2ffea0d8 <fwu_metadata_load+0x68>
2ffea1aa:	bf00      	nop
2ffea1ac:	2fff6b53 	.word	0x2fff6b53
2ffea1b0:	2fff6b81 	.word	0x2fff6b81
2ffea1b4:	2fffc105 	.word	0x2fffc105
2ffea1b8:	2fff6ba6 	.word	0x2fff6ba6
2ffea1bc:	2fff6bc8 	.word	0x2fff6bc8
2ffea1c0:	2fff6bfb 	.word	0x2fff6bfb
2ffea1c4:	2fff6c22 	.word	0x2fff6c22
2ffea1c8:	2fff6d82 	.word	0x2fff6d82
2ffea1cc:	2fff6d9f 	.word	0x2fff6d9f
2ffea1d0:	2fff6c60 	.word	0x2fff6c60
2ffea1d4:	2fff6ca7 	.word	0x2fff6ca7
2ffea1d8:	2fff6cf4 	.word	0x2fff6cf4
2ffea1dc:	2fff6d42 	.word	0x2fff6d42
2ffea1e0:	2fffc109 	.word	0x2fffc109
2ffea1e4:	2fff6dab 	.word	0x2fff6dab

2ffea1e8 <fwu_get_alternate_boot_bank>:
2ffea1e8:	4927      	ldr	r1, [pc, #156]	@ (2ffea288 <fwu_get_alternate_boot_bank+0xa0>)
2ffea1ea:	b510      	push	{r4, lr}
2ffea1ec:	7b4b      	ldrb	r3, [r1, #13]
2ffea1ee:	7b08      	ldrb	r0, [r1, #12]
2ffea1f0:	ea40 2003 	orr.w	r0, r0, r3, lsl #8
2ffea1f4:	7b8b      	ldrb	r3, [r1, #14]
2ffea1f6:	ea40 4003 	orr.w	r0, r0, r3, lsl #16
2ffea1fa:	7bcb      	ldrb	r3, [r1, #15]
2ffea1fc:	ea40 6003 	orr.w	r0, r0, r3, lsl #24
2ffea200:	180b      	adds	r3, r1, r0
2ffea202:	7e1a      	ldrb	r2, [r3, #24]
2ffea204:	2afc      	cmp	r2, #252	@ 0xfc
2ffea206:	d011      	beq.n	2ffea22c <fwu_get_alternate_boot_bank+0x44>
2ffea208:	7a4c      	ldrb	r4, [r1, #9]
2ffea20a:	7a0b      	ldrb	r3, [r1, #8]
2ffea20c:	ea43 2304 	orr.w	r3, r3, r4, lsl #8
2ffea210:	7a8c      	ldrb	r4, [r1, #10]
2ffea212:	ea43 4304 	orr.w	r3, r3, r4, lsl #16
2ffea216:	7acc      	ldrb	r4, [r1, #11]
2ffea218:	ea53 6304 	orrs.w	r3, r3, r4, lsl #24
2ffea21c:	d107      	bne.n	2ffea22e <fwu_get_alternate_boot_bank+0x46>
2ffea21e:	2801      	cmp	r0, #1
2ffea220:	d023      	beq.n	2ffea26a <fwu_get_alternate_boot_bank+0x82>
2ffea222:	7e4b      	ldrb	r3, [r1, #25]
2ffea224:	2bfc      	cmp	r3, #252	@ 0xfc
2ffea226:	d02a      	beq.n	2ffea27e <fwu_get_alternate_boot_bank+0x96>
2ffea228:	2afe      	cmp	r2, #254	@ 0xfe
2ffea22a:	d117      	bne.n	2ffea25c <fwu_get_alternate_boot_bank+0x74>
2ffea22c:	bd10      	pop	{r4, pc}
2ffea22e:	b938      	cbnz	r0, 2ffea240 <fwu_get_alternate_boot_bank+0x58>
2ffea230:	2b01      	cmp	r3, #1
2ffea232:	d1f6      	bne.n	2ffea222 <fwu_get_alternate_boot_bank+0x3a>
2ffea234:	f1b2 00fe 	subs.w	r0, r2, #254	@ 0xfe
2ffea238:	bf18      	it	ne
2ffea23a:	f04f 30ff 	movne.w	r0, #4294967295	@ 0xffffffff
2ffea23e:	e7f5      	b.n	2ffea22c <fwu_get_alternate_boot_bank+0x44>
2ffea240:	7e0c      	ldrb	r4, [r1, #24]
2ffea242:	2cfc      	cmp	r4, #252	@ 0xfc
2ffea244:	d01d      	beq.n	2ffea282 <fwu_get_alternate_boot_bank+0x9a>
2ffea246:	2b01      	cmp	r3, #1
2ffea248:	d014      	beq.n	2ffea274 <fwu_get_alternate_boot_bank+0x8c>
2ffea24a:	2801      	cmp	r0, #1
2ffea24c:	d012      	beq.n	2ffea274 <fwu_get_alternate_boot_bank+0x8c>
2ffea24e:	7e4b      	ldrb	r3, [r1, #25]
2ffea250:	2bfc      	cmp	r3, #252	@ 0xfc
2ffea252:	d014      	beq.n	2ffea27e <fwu_get_alternate_boot_bank+0x96>
2ffea254:	2afe      	cmp	r2, #254	@ 0xfe
2ffea256:	d0e9      	beq.n	2ffea22c <fwu_get_alternate_boot_bank+0x44>
2ffea258:	2cfe      	cmp	r4, #254	@ 0xfe
2ffea25a:	d012      	beq.n	2ffea282 <fwu_get_alternate_boot_bank+0x9a>
2ffea25c:	7e4b      	ldrb	r3, [r1, #25]
2ffea25e:	2bfe      	cmp	r3, #254	@ 0xfe
2ffea260:	bf14      	ite	ne
2ffea262:	f04f 30ff 	movne.w	r0, #4294967295	@ 0xffffffff
2ffea266:	2001      	moveq	r0, #1
2ffea268:	e7e0      	b.n	2ffea22c <fwu_get_alternate_boot_bank+0x44>
2ffea26a:	2afe      	cmp	r2, #254	@ 0xfe
2ffea26c:	bf18      	it	ne
2ffea26e:	f04f 30ff 	movne.w	r0, #4294967295	@ 0xffffffff
2ffea272:	e7db      	b.n	2ffea22c <fwu_get_alternate_boot_bank+0x44>
2ffea274:	2afe      	cmp	r2, #254	@ 0xfe
2ffea276:	d0d9      	beq.n	2ffea22c <fwu_get_alternate_boot_bank+0x44>
2ffea278:	f1b4 00fe 	subs.w	r0, r4, #254	@ 0xfe
2ffea27c:	e7dc      	b.n	2ffea238 <fwu_get_alternate_boot_bank+0x50>
2ffea27e:	2001      	movs	r0, #1
2ffea280:	e7d4      	b.n	2ffea22c <fwu_get_alternate_boot_bank+0x44>
2ffea282:	2000      	movs	r0, #0
2ffea284:	e7d2      	b.n	2ffea22c <fwu_get_alternate_boot_bank+0x44>
2ffea286:	bf00      	nop
2ffea288:	2fffc105 	.word	0x2fffc105

2ffea28c <fwu_get_metadata>:
2ffea28c:	b508      	push	{r3, lr}
2ffea28e:	4b05      	ldr	r3, [pc, #20]	@ (2ffea2a4 <fwu_get_metadata+0x18>)
2ffea290:	781b      	ldrb	r3, [r3, #0]
2ffea292:	b923      	cbnz	r3, 2ffea29e <fwu_get_metadata+0x12>
2ffea294:	4804      	ldr	r0, [pc, #16]	@ (2ffea2a8 <fwu_get_metadata+0x1c>)
2ffea296:	f240 1107 	movw	r1, #263	@ 0x107
2ffea29a:	f009 fa47 	bl	2fff372c <__assert>
2ffea29e:	4803      	ldr	r0, [pc, #12]	@ (2ffea2ac <fwu_get_metadata+0x20>)
2ffea2a0:	bd08      	pop	{r3, pc}
2ffea2a2:	bf00      	nop
2ffea2a4:	2fffc104 	.word	0x2fffc104
2ffea2a8:	2fff6db4 	.word	0x2fff6db4
2ffea2ac:	2fffc105 	.word	0x2fffc105

2ffea2b0 <fwu_init>:
2ffea2b0:	b508      	push	{r3, lr}
2ffea2b2:	200c      	movs	r0, #12
2ffea2b4:	f7ff fedc 	bl	2ffea070 <fwu_metadata_load>
2ffea2b8:	b168      	cbz	r0, 2ffea2d6 <fwu_init+0x26>
2ffea2ba:	480b      	ldr	r0, [pc, #44]	@ (2ffea2e8 <fwu_init+0x38>)
2ffea2bc:	f003 faac 	bl	2ffed818 <tf_log>
2ffea2c0:	200d      	movs	r0, #13
2ffea2c2:	f7ff fed5 	bl	2ffea070 <fwu_metadata_load>
2ffea2c6:	b130      	cbz	r0, 2ffea2d6 <fwu_init+0x26>
2ffea2c8:	4808      	ldr	r0, [pc, #32]	@ (2ffea2ec <fwu_init+0x3c>)
2ffea2ca:	f003 faa5 	bl	2ffed818 <tf_log>
2ffea2ce:	f003 fb3f 	bl	2ffed950 <console_flush>
2ffea2d2:	f7ff e884 	blx	2ffe93dc <do_panic>
2ffea2d6:	4b06      	ldr	r3, [pc, #24]	@ (2ffea2f0 <fwu_init+0x40>)
2ffea2d8:	2201      	movs	r2, #1
2ffea2da:	4806      	ldr	r0, [pc, #24]	@ (2ffea2f4 <fwu_init+0x44>)
2ffea2dc:	701a      	strb	r2, [r3, #0]
2ffea2de:	e8bd 4008 	ldmia.w	sp!, {r3, lr}
2ffea2e2:	f002 bc4d 	b.w	2ffecb80 <plat_fwu_set_images_source>
2ffea2e6:	bf00      	nop
2ffea2e8:	2fff6dc6 	.word	0x2fff6dc6
2ffea2ec:	2fff6e00 	.word	0x2fff6e00
2ffea2f0:	2fffc104 	.word	0x2fffc104
2ffea2f4:	2fffc105 	.word	0x2fffc105

2ffea2f8 <block_seek>:
2ffea2f8:	6840      	ldr	r0, [r0, #4]
2ffea2fa:	b570      	push	{r4, r5, r6, lr}
2ffea2fc:	b918      	cbnz	r0, 2ffea306 <block_seek+0xe>
2ffea2fe:	219b      	movs	r1, #155	@ 0x9b
2ffea300:	4811      	ldr	r0, [pc, #68]	@ (2ffea348 <block_seek+0x50>)
2ffea302:	f009 fa13 	bl	2fff372c <__assert>
2ffea306:	2b00      	cmp	r3, #0
2ffea308:	db05      	blt.n	2ffea316 <block_seek+0x1e>
2ffea30a:	e9d0 5404 	ldrd	r5, r4, [r0, #16]
2ffea30e:	42aa      	cmp	r2, r5
2ffea310:	eb73 0604 	sbcs.w	r6, r3, r4
2ffea314:	d301      	bcc.n	2ffea31a <block_seek+0x22>
2ffea316:	219e      	movs	r1, #158	@ 0x9e
2ffea318:	e7f2      	b.n	2ffea300 <block_seek+0x8>
2ffea31a:	2901      	cmp	r1, #1
2ffea31c:	d004      	beq.n	2ffea328 <block_seek+0x30>
2ffea31e:	2903      	cmp	r1, #3
2ffea320:	d006      	beq.n	2ffea330 <block_seek+0x38>
2ffea322:	f06f 0015 	mvn.w	r0, #21
2ffea326:	bd70      	pop	{r4, r5, r6, pc}
2ffea328:	e9c0 2302 	strd	r2, r3, [r0, #8]
2ffea32c:	2000      	movs	r0, #0
2ffea32e:	e7fa      	b.n	2ffea326 <block_seek+0x2e>
2ffea330:	e9d0 1602 	ldrd	r1, r6, [r0, #8]
2ffea334:	1852      	adds	r2, r2, r1
2ffea336:	eb43 0306 	adc.w	r3, r3, r6
2ffea33a:	42aa      	cmp	r2, r5
2ffea33c:	e9c0 2302 	strd	r2, r3, [r0, #8]
2ffea340:	41a3      	sbcs	r3, r4
2ffea342:	d3f3      	bcc.n	2ffea32c <block_seek+0x34>
2ffea344:	21aa      	movs	r1, #170	@ 0xaa
2ffea346:	e7db      	b.n	2ffea300 <block_seek+0x8>
2ffea348:	2fff6e26 	.word	0x2fff6e26

2ffea34c <block_open>:
2ffea34c:	b538      	push	{r3, r4, r5, lr}
2ffea34e:	6843      	ldr	r3, [r0, #4]
2ffea350:	b113      	cbz	r3, 2ffea358 <block_open+0xc>
2ffea352:	b109      	cbz	r1, 2ffea358 <block_open+0xc>
2ffea354:	6850      	ldr	r0, [r2, #4]
2ffea356:	b118      	cbz	r0, 2ffea360 <block_open+0x14>
2ffea358:	2185      	movs	r1, #133	@ 0x85
2ffea35a:	480e      	ldr	r0, [pc, #56]	@ (2ffea394 <block_open+0x48>)
2ffea35c:	f009 f9e6 	bl	2fff372c <__assert>
2ffea360:	6818      	ldr	r0, [r3, #0]
2ffea362:	680d      	ldr	r5, [r1, #0]
2ffea364:	6904      	ldr	r4, [r0, #16]
2ffea366:	fbb5 f0f4 	udiv	r0, r5, r4
2ffea36a:	fb04 5010 	mls	r0, r4, r0, r5
2ffea36e:	b928      	cbnz	r0, 2ffea37c <block_open+0x30>
2ffea370:	6849      	ldr	r1, [r1, #4]
2ffea372:	fbb1 f0f4 	udiv	r0, r1, r4
2ffea376:	fb04 1010 	mls	r0, r4, r0, r1
2ffea37a:	b108      	cbz	r0, 2ffea380 <block_open+0x34>
2ffea37c:	218b      	movs	r1, #139	@ 0x8b
2ffea37e:	e7ec      	b.n	2ffea35a <block_open+0xe>
2ffea380:	605d      	str	r5, [r3, #4]
2ffea382:	2400      	movs	r4, #0
2ffea384:	2500      	movs	r5, #0
2ffea386:	e9c3 1004 	strd	r1, r0, [r3, #16]
2ffea38a:	e9c3 4502 	strd	r4, r5, [r3, #8]
2ffea38e:	6053      	str	r3, [r2, #4]
2ffea390:	bd38      	pop	{r3, r4, r5, pc}
2ffea392:	bf00      	nop
2ffea394:	2fff6e26 	.word	0x2fff6e26

2ffea398 <block_write>:
2ffea398:	e92d 4ff0 	stmdb	sp!, {r4, r5, r6, r7, r8, r9, sl, fp, lr}
2ffea39c:	b087      	sub	sp, #28
2ffea39e:	6846      	ldr	r6, [r0, #4]
2ffea3a0:	4690      	mov	r8, r2
2ffea3a2:	9104      	str	r1, [sp, #16]
2ffea3a4:	9305      	str	r3, [sp, #20]
2ffea3a6:	b926      	cbnz	r6, 2ffea3b2 <block_write+0x1a>
2ffea3a8:	f240 117b 	movw	r1, #379	@ 0x17b
2ffea3ac:	483f      	ldr	r0, [pc, #252]	@ (2ffea4ac <block_write+0x114>)
2ffea3ae:	f009 f9bd 	bl	2fff372c <__assert>
2ffea3b2:	e9d6 2304 	ldrd	r2, r3, [r6, #16]
2ffea3b6:	6837      	ldr	r7, [r6, #0]
2ffea3b8:	4542      	cmp	r2, r8
2ffea3ba:	f173 0300 	sbcs.w	r3, r3, #0
2ffea3be:	f8d7 a010 	ldr.w	sl, [r7, #16]
2ffea3c2:	d306      	bcc.n	2ffea3d2 <block_write+0x3a>
2ffea3c4:	f1b8 0f00 	cmp.w	r8, #0
2ffea3c8:	d003      	beq.n	2ffea3d2 <block_write+0x3a>
2ffea3ca:	68bb      	ldr	r3, [r7, #8]
2ffea3cc:	b10b      	cbz	r3, 2ffea3d2 <block_write+0x3a>
2ffea3ce:	68fb      	ldr	r3, [r7, #12]
2ffea3d0:	b913      	cbnz	r3, 2ffea3d8 <block_write+0x40>
2ffea3d2:	f44f 71c0 	mov.w	r1, #384	@ 0x180
2ffea3d6:	e7e9      	b.n	2ffea3ac <block_write+0x14>
2ffea3d8:	f10a 33ff 	add.w	r3, sl, #4294967295	@ 0xffffffff
2ffea3dc:	4645      	mov	r5, r8
2ffea3de:	9301      	str	r3, [sp, #4]
2ffea3e0:	f04f 0900 	mov.w	r9, #0
2ffea3e4:	f1ca 0300 	rsb	r3, sl, #0
2ffea3e8:	9303      	str	r3, [sp, #12]
2ffea3ea:	e9d6 3102 	ldrd	r3, r1, [r6, #8]
2ffea3ee:	6870      	ldr	r0, [r6, #4]
2ffea3f0:	9a01      	ldr	r2, [sp, #4]
2ffea3f2:	18c0      	adds	r0, r0, r3
2ffea3f4:	ea02 0403 	and.w	r4, r2, r3
2ffea3f8:	4652      	mov	r2, sl
2ffea3fa:	f141 0100 	adc.w	r1, r1, #0
2ffea3fe:	2300      	movs	r3, #0
2ffea400:	f009 e830 	blx	2fff3464 <__aeabi_uldivmod>
2ffea404:	9002      	str	r0, [sp, #8]
2ffea406:	6878      	ldr	r0, [r7, #4]
2ffea408:	1963      	adds	r3, r4, r5
2ffea40a:	4283      	cmp	r3, r0
2ffea40c:	6839      	ldr	r1, [r7, #0]
2ffea40e:	bf9f      	itttt	ls
2ffea410:	9a01      	ldrls	r2, [sp, #4]
2ffea412:	189b      	addls	r3, r3, r2
2ffea414:	9a03      	ldrls	r2, [sp, #12]
2ffea416:	ea03 0002 	andls.w	r0, r3, r2
2ffea41a:	1b02      	subs	r2, r0, r4
2ffea41c:	42aa      	cmp	r2, r5
2ffea41e:	bf8c      	ite	hi
2ffea420:	1b53      	subhi	r3, r2, r5
2ffea422:	2300      	movls	r3, #0
2ffea424:	4323      	orrs	r3, r4
2ffea426:	d03a      	beq.n	2ffea49e <block_write+0x106>
2ffea428:	68bb      	ldr	r3, [r7, #8]
2ffea42a:	4602      	mov	r2, r0
2ffea42c:	9802      	ldr	r0, [sp, #8]
2ffea42e:	4798      	blx	r3
2ffea430:	9b03      	ldr	r3, [sp, #12]
2ffea432:	ea03 0b00 	and.w	fp, r3, r0
2ffea436:	455c      	cmp	r4, fp
2ffea438:	d304      	bcc.n	2ffea444 <block_write+0xac>
2ffea43a:	f06f 0004 	mvn.w	r0, #4
2ffea43e:	b007      	add	sp, #28
2ffea440:	e8bd 8ff0 	ldmia.w	sp!, {r4, r5, r6, r7, r8, r9, sl, fp, pc}
2ffea444:	ebab 0204 	sub.w	r2, fp, r4
2ffea448:	42aa      	cmp	r2, r5
2ffea44a:	bf8c      	ite	hi
2ffea44c:	1b53      	subhi	r3, r2, r5
2ffea44e:	2300      	movls	r3, #0
2ffea450:	1ad2      	subs	r2, r2, r3
2ffea452:	9b04      	ldr	r3, [sp, #16]
2ffea454:	6838      	ldr	r0, [r7, #0]
2ffea456:	eb03 0109 	add.w	r1, r3, r9
2ffea45a:	4420      	add	r0, r4
2ffea45c:	f00a ffe3 	bl	2fff5426 <memcpy>
2ffea460:	68fb      	ldr	r3, [r7, #12]
2ffea462:	465a      	mov	r2, fp
2ffea464:	6839      	ldr	r1, [r7, #0]
2ffea466:	9802      	ldr	r0, [sp, #8]
2ffea468:	4798      	blx	r3
2ffea46a:	4284      	cmp	r4, r0
2ffea46c:	d2e5      	bcs.n	2ffea43a <block_write+0xa2>
2ffea46e:	1b03      	subs	r3, r0, r4
2ffea470:	42ab      	cmp	r3, r5
2ffea472:	bf8c      	ite	hi
2ffea474:	1b59      	subhi	r1, r3, r5
2ffea476:	2100      	movls	r1, #0
2ffea478:	68b2      	ldr	r2, [r6, #8]
2ffea47a:	1a5b      	subs	r3, r3, r1
2ffea47c:	f8d6 c00c 	ldr.w	ip, [r6, #12]
2ffea480:	1a24      	subs	r4, r4, r0
2ffea482:	18d2      	adds	r2, r2, r3
2ffea484:	442c      	add	r4, r5
2ffea486:	f14c 0c00 	adc.w	ip, ip, #0
2ffea48a:	1865      	adds	r5, r4, r1
2ffea48c:	4499      	add	r9, r3
2ffea48e:	e9c6 2c02 	strd	r2, ip, [r6, #8]
2ffea492:	d1aa      	bne.n	2ffea3ea <block_write+0x52>
2ffea494:	45c8      	cmp	r8, r9
2ffea496:	d004      	beq.n	2ffea4a2 <block_write+0x10a>
2ffea498:	f44f 71f4 	mov.w	r1, #488	@ 0x1e8
2ffea49c:	e786      	b.n	2ffea3ac <block_write+0x14>
2ffea49e:	4693      	mov	fp, r2
2ffea4a0:	e7d7      	b.n	2ffea452 <block_write+0xba>
2ffea4a2:	9b05      	ldr	r3, [sp, #20]
2ffea4a4:	4628      	mov	r0, r5
2ffea4a6:	f8c3 8000 	str.w	r8, [r3]
2ffea4aa:	e7c8      	b.n	2ffea43e <block_write+0xa6>
2ffea4ac:	2fff6e26 	.word	0x2fff6e26

2ffea4b0 <block_read>:
2ffea4b0:	e92d 4ff0 	stmdb	sp!, {r4, r5, r6, r7, r8, r9, sl, fp, lr}
2ffea4b4:	b087      	sub	sp, #28
2ffea4b6:	6844      	ldr	r4, [r0, #4]
2ffea4b8:	4617      	mov	r7, r2
2ffea4ba:	9101      	str	r1, [sp, #4]
2ffea4bc:	9302      	str	r3, [sp, #8]
2ffea4be:	b924      	cbnz	r4, 2ffea4ca <block_read+0x1a>
2ffea4c0:	f240 110b 	movw	r1, #267	@ 0x10b
2ffea4c4:	4833      	ldr	r0, [pc, #204]	@ (2ffea594 <block_read+0xe4>)
2ffea4c6:	f009 f931 	bl	2fff372c <__assert>
2ffea4ca:	e9d4 2304 	ldrd	r2, r3, [r4, #16]
2ffea4ce:	f8d4 8000 	ldr.w	r8, [r4]
2ffea4d2:	42ba      	cmp	r2, r7
2ffea4d4:	f173 0300 	sbcs.w	r3, r3, #0
2ffea4d8:	f8d8 b010 	ldr.w	fp, [r8, #16]
2ffea4dc:	d303      	bcc.n	2ffea4e6 <block_read+0x36>
2ffea4de:	b117      	cbz	r7, 2ffea4e6 <block_read+0x36>
2ffea4e0:	f8d8 3008 	ldr.w	r3, [r8, #8]
2ffea4e4:	b913      	cbnz	r3, 2ffea4ec <block_read+0x3c>
2ffea4e6:	f44f 7188 	mov.w	r1, #272	@ 0x110
2ffea4ea:	e7eb      	b.n	2ffea4c4 <block_read+0x14>
2ffea4ec:	f10b 33ff 	add.w	r3, fp, #4294967295	@ 0xffffffff
2ffea4f0:	463e      	mov	r6, r7
2ffea4f2:	9300      	str	r3, [sp, #0]
2ffea4f4:	f04f 0a00 	mov.w	sl, #0
2ffea4f8:	f1cb 0300 	rsb	r3, fp, #0
2ffea4fc:	9303      	str	r3, [sp, #12]
2ffea4fe:	e9d4 3102 	ldrd	r3, r1, [r4, #8]
2ffea502:	6860      	ldr	r0, [r4, #4]
2ffea504:	9a00      	ldr	r2, [sp, #0]
2ffea506:	18c0      	adds	r0, r0, r3
2ffea508:	ea02 0503 	and.w	r5, r2, r3
2ffea50c:	465a      	mov	r2, fp
2ffea50e:	f141 0100 	adc.w	r1, r1, #0
2ffea512:	2300      	movs	r3, #0
2ffea514:	f008 efa6 	blx	2fff3464 <__aeabi_uldivmod>
2ffea518:	f8d8 2004 	ldr.w	r2, [r8, #4]
2ffea51c:	19ab      	adds	r3, r5, r6
2ffea51e:	4293      	cmp	r3, r2
2ffea520:	f8d8 1000 	ldr.w	r1, [r8]
2ffea524:	bf9f      	itttt	ls
2ffea526:	9a00      	ldrls	r2, [sp, #0]
2ffea528:	189b      	addls	r3, r3, r2
2ffea52a:	9a03      	ldrls	r2, [sp, #12]
2ffea52c:	401a      	andls	r2, r3
2ffea52e:	f8d8 3008 	ldr.w	r3, [r8, #8]
2ffea532:	4798      	blx	r3
2ffea534:	4285      	cmp	r5, r0
2ffea536:	4681      	mov	r9, r0
2ffea538:	d229      	bcs.n	2ffea58e <block_read+0xde>
2ffea53a:	1b42      	subs	r2, r0, r5
2ffea53c:	42b2      	cmp	r2, r6
2ffea53e:	bf8c      	ite	hi
2ffea540:	1b93      	subhi	r3, r2, r6
2ffea542:	2300      	movls	r3, #0
2ffea544:	1ad2      	subs	r2, r2, r3
2ffea546:	f8d8 1000 	ldr.w	r1, [r8]
2ffea54a:	9305      	str	r3, [sp, #20]
2ffea54c:	9b01      	ldr	r3, [sp, #4]
2ffea54e:	4429      	add	r1, r5
2ffea550:	eb03 000a 	add.w	r0, r3, sl
2ffea554:	9204      	str	r2, [sp, #16]
2ffea556:	f00a ff66 	bl	2fff5426 <memcpy>
2ffea55a:	e9d4 1002 	ldrd	r1, r0, [r4, #8]
2ffea55e:	9a04      	ldr	r2, [sp, #16]
2ffea560:	eba5 0509 	sub.w	r5, r5, r9
2ffea564:	9b05      	ldr	r3, [sp, #20]
2ffea566:	1889      	adds	r1, r1, r2
2ffea568:	4435      	add	r5, r6
2ffea56a:	f140 0000 	adc.w	r0, r0, #0
2ffea56e:	18ee      	adds	r6, r5, r3
2ffea570:	4492      	add	sl, r2
2ffea572:	e9c4 1002 	strd	r1, r0, [r4, #8]
2ffea576:	d1c2      	bne.n	2ffea4fe <block_read+0x4e>
2ffea578:	4557      	cmp	r7, sl
2ffea57a:	d002      	beq.n	2ffea582 <block_read+0xd2>
2ffea57c:	f44f 71ac 	mov.w	r1, #344	@ 0x158
2ffea580:	e7a0      	b.n	2ffea4c4 <block_read+0x14>
2ffea582:	9b02      	ldr	r3, [sp, #8]
2ffea584:	4630      	mov	r0, r6
2ffea586:	601f      	str	r7, [r3, #0]
2ffea588:	b007      	add	sp, #28
2ffea58a:	e8bd 8ff0 	ldmia.w	sp!, {r4, r5, r6, r7, r8, r9, sl, fp, pc}
2ffea58e:	f06f 0004 	mvn.w	r0, #4
2ffea592:	e7f9      	b.n	2ffea588 <block_read+0xd8>
2ffea594:	2fff6e26 	.word	0x2fff6e26

2ffea598 <block_dev_close>:
2ffea598:	b510      	push	{r4, lr}
2ffea59a:	4604      	mov	r4, r0
2ffea59c:	b918      	cbnz	r0, 2ffea5a6 <block_dev_close+0xe>
2ffea59e:	480d      	ldr	r0, [pc, #52]	@ (2ffea5d4 <block_dev_close+0x3c>)
2ffea5a0:	2171      	movs	r1, #113	@ 0x71
2ffea5a2:	f009 f8c3 	bl	2fff372c <__assert>
2ffea5a6:	6840      	ldr	r0, [r0, #4]
2ffea5a8:	4b0b      	ldr	r3, [pc, #44]	@ (2ffea5d8 <block_dev_close+0x40>)
2ffea5aa:	6802      	ldr	r2, [r0, #0]
2ffea5ac:	681b      	ldr	r3, [r3, #0]
2ffea5ae:	429a      	cmp	r2, r3
2ffea5b0:	d10c      	bne.n	2ffea5cc <block_dev_close+0x34>
2ffea5b2:	2118      	movs	r1, #24
2ffea5b4:	f7ff e812 	blx	2ffe95dc <zero_normalmem>
2ffea5b8:	4620      	mov	r0, r4
2ffea5ba:	2108      	movs	r1, #8
2ffea5bc:	f7ff e80e 	blx	2ffe95dc <zero_normalmem>
2ffea5c0:	4a06      	ldr	r2, [pc, #24]	@ (2ffea5dc <block_dev_close+0x44>)
2ffea5c2:	2000      	movs	r0, #0
2ffea5c4:	6813      	ldr	r3, [r2, #0]
2ffea5c6:	3b01      	subs	r3, #1
2ffea5c8:	6013      	str	r3, [r2, #0]
2ffea5ca:	bd10      	pop	{r4, pc}
2ffea5cc:	f06f 0001 	mvn.w	r0, #1
2ffea5d0:	e7fb      	b.n	2ffea5ca <block_dev_close+0x32>
2ffea5d2:	bf00      	nop
2ffea5d4:	2fff6e26 	.word	0x2fff6e26
2ffea5d8:	2fffb610 	.word	0x2fffb610
2ffea5dc:	2fffb998 	.word	0x2fffb998

2ffea5e0 <block_dev_open>:
2ffea5e0:	b538      	push	{r3, r4, r5, lr}
2ffea5e2:	b921      	cbnz	r1, 2ffea5ee <block_dev_open+0xe>
2ffea5e4:	f44f 71fe 	mov.w	r1, #508	@ 0x1fc
2ffea5e8:	4816      	ldr	r0, [pc, #88]	@ (2ffea644 <block_dev_open+0x64>)
2ffea5ea:	f009 f89f 	bl	2fff372c <__assert>
2ffea5ee:	4a16      	ldr	r2, [pc, #88]	@ (2ffea648 <block_dev_open+0x68>)
2ffea5f0:	6813      	ldr	r3, [r2, #0]
2ffea5f2:	bb1b      	cbnz	r3, 2ffea63c <block_dev_open+0x5c>
2ffea5f4:	4b15      	ldr	r3, [pc, #84]	@ (2ffea64c <block_dev_open+0x6c>)
2ffea5f6:	681c      	ldr	r4, [r3, #0]
2ffea5f8:	b95c      	cbnz	r4, 2ffea612 <block_dev_open+0x32>
2ffea5fa:	4c15      	ldr	r4, [pc, #84]	@ (2ffea650 <block_dev_open+0x70>)
2ffea5fc:	4d15      	ldr	r5, [pc, #84]	@ (2ffea654 <block_dev_open+0x74>)
2ffea5fe:	6063      	str	r3, [r4, #4]
2ffea600:	6018      	str	r0, [r3, #0]
2ffea602:	6903      	ldr	r3, [r0, #16]
2ffea604:	6025      	str	r5, [r4, #0]
2ffea606:	2501      	movs	r5, #1
2ffea608:	6015      	str	r5, [r2, #0]
2ffea60a:	b923      	cbnz	r3, 2ffea616 <block_dev_open+0x36>
2ffea60c:	f240 2106 	movw	r1, #518	@ 0x206
2ffea610:	e7ea      	b.n	2ffea5e8 <block_dev_open+0x8>
2ffea612:	215f      	movs	r1, #95	@ 0x5f
2ffea614:	e7e8      	b.n	2ffea5e8 <block_dev_open+0x8>
2ffea616:	1e5a      	subs	r2, r3, #1
2ffea618:	421a      	tst	r2, r3
2ffea61a:	d1f7      	bne.n	2ffea60c <block_dev_open+0x2c>
2ffea61c:	6802      	ldr	r2, [r0, #0]
2ffea61e:	fbb2 f5f3 	udiv	r5, r2, r3
2ffea622:	fb03 2215 	mls	r2, r3, r5, r2
2ffea626:	2a00      	cmp	r2, #0
2ffea628:	d1f0      	bne.n	2ffea60c <block_dev_open+0x2c>
2ffea62a:	6840      	ldr	r0, [r0, #4]
2ffea62c:	fbb0 f2f3 	udiv	r2, r0, r3
2ffea630:	fb03 0012 	mls	r0, r3, r2, r0
2ffea634:	2800      	cmp	r0, #0
2ffea636:	d1e9      	bne.n	2ffea60c <block_dev_open+0x2c>
2ffea638:	600c      	str	r4, [r1, #0]
2ffea63a:	bd38      	pop	{r3, r4, r5, pc}
2ffea63c:	f06f 0001 	mvn.w	r0, #1
2ffea640:	e7fb      	b.n	2ffea63a <block_dev_open+0x5a>
2ffea642:	bf00      	nop
2ffea644:	2fff6e26 	.word	0x2fff6e26
2ffea648:	2fffb998 	.word	0x2fffb998
2ffea64c:	2fffb610 	.word	0x2fffb610
2ffea650:	2fffb99c 	.word	0x2fffb99c
2ffea654:	2fff5730 	.word	0x2fff5730

2ffea658 <register_io_dev_block>:
2ffea658:	b510      	push	{r4, lr}
2ffea65a:	4604      	mov	r4, r0
2ffea65c:	b920      	cbnz	r0, 2ffea668 <register_io_dev_block+0x10>
2ffea65e:	4806      	ldr	r0, [pc, #24]	@ (2ffea678 <register_io_dev_block+0x20>)
2ffea660:	f240 211d 	movw	r1, #541	@ 0x21d
2ffea664:	f009 f862 	bl	2fff372c <__assert>
2ffea668:	4804      	ldr	r0, [pc, #16]	@ (2ffea67c <register_io_dev_block+0x24>)
2ffea66a:	f000 f9d1 	bl	2ffeaa10 <io_register_device>
2ffea66e:	b908      	cbnz	r0, 2ffea674 <register_io_dev_block+0x1c>
2ffea670:	4b03      	ldr	r3, [pc, #12]	@ (2ffea680 <register_io_dev_block+0x28>)
2ffea672:	6023      	str	r3, [r4, #0]
2ffea674:	bd10      	pop	{r4, pc}
2ffea676:	bf00      	nop
2ffea678:	2fff6e26 	.word	0x2fff6e26
2ffea67c:	2fffb99c 	.word	0x2fffb99c
2ffea680:	2fff5754 	.word	0x2fff5754

2ffea684 <fip_file_close>:
2ffea684:	b510      	push	{r4, lr}
2ffea686:	4604      	mov	r4, r0
2ffea688:	4805      	ldr	r0, [pc, #20]	@ (2ffea6a0 <fip_file_close+0x1c>)
2ffea68a:	e9d0 3206 	ldrd	r3, r2, [r0, #24]
2ffea68e:	4313      	orrs	r3, r2
2ffea690:	d002      	beq.n	2ffea698 <fip_file_close+0x14>
2ffea692:	2130      	movs	r1, #48	@ 0x30
2ffea694:	f7fe efa2 	blx	2ffe95dc <zero_normalmem>
2ffea698:	2000      	movs	r0, #0
2ffea69a:	6060      	str	r0, [r4, #4]
2ffea69c:	bd10      	pop	{r4, pc}
2ffea69e:	bf00      	nop
2ffea6a0:	2fffb628 	.word	0x2fffb628

2ffea6a4 <fip_dev_init>:
2ffea6a4:	b5f0      	push	{r4, r5, r6, r7, lr}
2ffea6a6:	460c      	mov	r4, r1
2ffea6a8:	b087      	sub	sp, #28
2ffea6aa:	b918      	cbnz	r0, 2ffea6b4 <fip_dev_init+0x10>
2ffea6ac:	481d      	ldr	r0, [pc, #116]	@ (2ffea724 <fip_dev_init+0x80>)
2ffea6ae:	21e1      	movs	r1, #225	@ 0xe1
2ffea6b0:	f009 f83c 	bl	2fff372c <__assert>
2ffea6b4:	4f1c      	ldr	r7, [pc, #112]	@ (2ffea728 <fip_dev_init+0x84>)
2ffea6b6:	4e1d      	ldr	r6, [pc, #116]	@ (2ffea72c <fip_dev_init+0x88>)
2ffea6b8:	6845      	ldr	r5, [r0, #4]
2ffea6ba:	463a      	mov	r2, r7
2ffea6bc:	4631      	mov	r1, r6
2ffea6be:	4620      	mov	r0, r4
2ffea6c0:	f002 fa06 	bl	2ffecad0 <plat_get_image_source>
2ffea6c4:	4602      	mov	r2, r0
2ffea6c6:	b140      	cbz	r0, 2ffea6da <fip_dev_init+0x36>
2ffea6c8:	4819      	ldr	r0, [pc, #100]	@ (2ffea730 <fip_dev_init+0x8c>)
2ffea6ca:	4621      	mov	r1, r4
2ffea6cc:	f06f 0401 	mvn.w	r4, #1
2ffea6d0:	f003 f8a2 	bl	2ffed818 <tf_log>
2ffea6d4:	4620      	mov	r0, r4
2ffea6d6:	b007      	add	sp, #28
2ffea6d8:	bdf0      	pop	{r4, r5, r6, r7, pc}
2ffea6da:	6839      	ldr	r1, [r7, #0]
2ffea6dc:	466a      	mov	r2, sp
2ffea6de:	6830      	ldr	r0, [r6, #0]
2ffea6e0:	f000 f9f0 	bl	2ffeaac4 <io_open>
2ffea6e4:	4602      	mov	r2, r0
2ffea6e6:	b110      	cbz	r0, 2ffea6ee <fip_dev_init+0x4a>
2ffea6e8:	4812      	ldr	r0, [pc, #72]	@ (2ffea734 <fip_dev_init+0x90>)
2ffea6ea:	4621      	mov	r1, r4
2ffea6ec:	e7ee      	b.n	2ffea6cc <fip_dev_init+0x28>
2ffea6ee:	9800      	ldr	r0, [sp, #0]
2ffea6f0:	ab01      	add	r3, sp, #4
2ffea6f2:	2210      	movs	r2, #16
2ffea6f4:	a902      	add	r1, sp, #8
2ffea6f6:	f000 fa6f 	bl	2ffeabd8 <io_read>
2ffea6fa:	4604      	mov	r4, r0
2ffea6fc:	b938      	cbnz	r0, 2ffea70e <fip_dev_init+0x6a>
2ffea6fe:	4b0e      	ldr	r3, [pc, #56]	@ (2ffea738 <fip_dev_init+0x94>)
2ffea700:	9a02      	ldr	r2, [sp, #8]
2ffea702:	429a      	cmp	r2, r3
2ffea704:	d107      	bne.n	2ffea716 <fip_dev_init+0x72>
2ffea706:	9b03      	ldr	r3, [sp, #12]
2ffea708:	b12b      	cbz	r3, 2ffea716 <fip_dev_init+0x72>
2ffea70a:	9b05      	ldr	r3, [sp, #20]
2ffea70c:	80ab      	strh	r3, [r5, #4]
2ffea70e:	9800      	ldr	r0, [sp, #0]
2ffea710:	f000 fa86 	bl	2ffeac20 <io_close>
2ffea714:	e7de      	b.n	2ffea6d4 <fip_dev_init+0x30>
2ffea716:	4809      	ldr	r0, [pc, #36]	@ (2ffea73c <fip_dev_init+0x98>)
2ffea718:	f06f 0401 	mvn.w	r4, #1
2ffea71c:	f003 f87c 	bl	2ffed818 <tf_log>
2ffea720:	e7f5      	b.n	2ffea70e <fip_dev_init+0x6a>
2ffea722:	bf00      	nop
2ffea724:	2fff6e3c 	.word	0x2fff6e3c
2ffea728:	2fffb9b8 	.word	0x2fffb9b8
2ffea72c:	2fffb9bc 	.word	0x2fffb9bc
2ffea730:	2fff6e50 	.word	0x2fff6e50
2ffea734:	2fff6e81 	.word	0x2fff6e81
2ffea738:	aa640001 	.word	0xaa640001
2ffea73c:	2fff6ea5 	.word	0x2fff6ea5

2ffea740 <fip_file_read>:
2ffea740:	e92d 41f3 	stmdb	sp!, {r0, r1, r4, r5, r6, r7, r8, lr}
2ffea744:	460f      	mov	r7, r1
2ffea746:	4690      	mov	r8, r2
2ffea748:	461e      	mov	r6, r3
2ffea74a:	4604      	mov	r4, r0
2ffea74c:	b920      	cbnz	r0, 2ffea758 <fip_file_read+0x18>
2ffea74e:	f44f 71c2 	mov.w	r1, #388	@ 0x184
2ffea752:	4822      	ldr	r0, [pc, #136]	@ (2ffea7dc <fip_file_read+0x9c>)
2ffea754:	f008 ffea 	bl	2fff372c <__assert>
2ffea758:	b913      	cbnz	r3, 2ffea760 <fip_file_read+0x20>
2ffea75a:	f240 1185 	movw	r1, #389	@ 0x185
2ffea75e:	e7f8      	b.n	2ffea752 <fip_file_read+0x12>
2ffea760:	6843      	ldr	r3, [r0, #4]
2ffea762:	b913      	cbnz	r3, 2ffea76a <fip_file_read+0x2a>
2ffea764:	f44f 71c3 	mov.w	r1, #390	@ 0x186
2ffea768:	e7f3      	b.n	2ffea752 <fip_file_read+0x12>
2ffea76a:	4b1d      	ldr	r3, [pc, #116]	@ (2ffea7e0 <fip_file_read+0xa0>)
2ffea76c:	aa01      	add	r2, sp, #4
2ffea76e:	6819      	ldr	r1, [r3, #0]
2ffea770:	4b1c      	ldr	r3, [pc, #112]	@ (2ffea7e4 <fip_file_read+0xa4>)
2ffea772:	6818      	ldr	r0, [r3, #0]
2ffea774:	f000 f9a6 	bl	2ffeaac4 <io_open>
2ffea778:	4603      	mov	r3, r0
2ffea77a:	b148      	cbz	r0, 2ffea790 <fip_file_read+0x50>
2ffea77c:	4601      	mov	r1, r0
2ffea77e:	f06f 0401 	mvn.w	r4, #1
2ffea782:	4819      	ldr	r0, [pc, #100]	@ (2ffea7e8 <fip_file_read+0xa8>)
2ffea784:	f003 f848 	bl	2ffed818 <tf_log>
2ffea788:	4620      	mov	r0, r4
2ffea78a:	b002      	add	sp, #8
2ffea78c:	e8bd 81f0 	ldmia.w	sp!, {r4, r5, r6, r7, r8, pc}
2ffea790:	6865      	ldr	r5, [r4, #4]
2ffea792:	9801      	ldr	r0, [sp, #4]
2ffea794:	69a9      	ldr	r1, [r5, #24]
2ffea796:	682a      	ldr	r2, [r5, #0]
2ffea798:	440a      	add	r2, r1
2ffea79a:	2101      	movs	r1, #1
2ffea79c:	f000 f9dc 	bl	2ffeab58 <io_seek>
2ffea7a0:	b140      	cbz	r0, 2ffea7b4 <fip_file_read+0x74>
2ffea7a2:	4812      	ldr	r0, [pc, #72]	@ (2ffea7ec <fip_file_read+0xac>)
2ffea7a4:	f003 f838 	bl	2ffed818 <tf_log>
2ffea7a8:	f06f 0401 	mvn.w	r4, #1
2ffea7ac:	9801      	ldr	r0, [sp, #4]
2ffea7ae:	f000 fa37 	bl	2ffeac20 <io_close>
2ffea7b2:	e7e9      	b.n	2ffea788 <fip_file_read+0x48>
2ffea7b4:	9801      	ldr	r0, [sp, #4]
2ffea7b6:	466b      	mov	r3, sp
2ffea7b8:	4642      	mov	r2, r8
2ffea7ba:	4639      	mov	r1, r7
2ffea7bc:	f000 fa0c 	bl	2ffeabd8 <io_read>
2ffea7c0:	4604      	mov	r4, r0
2ffea7c2:	b120      	cbz	r0, 2ffea7ce <fip_file_read+0x8e>
2ffea7c4:	4601      	mov	r1, r0
2ffea7c6:	480a      	ldr	r0, [pc, #40]	@ (2ffea7f0 <fip_file_read+0xb0>)
2ffea7c8:	f003 f826 	bl	2ffed818 <tf_log>
2ffea7cc:	e7ec      	b.n	2ffea7a8 <fip_file_read+0x68>
2ffea7ce:	9a00      	ldr	r2, [sp, #0]
2ffea7d0:	6032      	str	r2, [r6, #0]
2ffea7d2:	682b      	ldr	r3, [r5, #0]
2ffea7d4:	4413      	add	r3, r2
2ffea7d6:	602b      	str	r3, [r5, #0]
2ffea7d8:	e7e8      	b.n	2ffea7ac <fip_file_read+0x6c>
2ffea7da:	bf00      	nop
2ffea7dc:	2fff6e3c 	.word	0x2fff6e3c
2ffea7e0:	2fffb9b8 	.word	0x2fffb9b8
2ffea7e4:	2fffb9bc 	.word	0x2fffb9bc
2ffea7e8:	2fff6ed3 	.word	0x2fff6ed3
2ffea7ec:	2fff6eed 	.word	0x2fff6eed
2ffea7f0:	2fff6f0d 	.word	0x2fff6f0d

2ffea7f4 <fip_file_len>:
2ffea7f4:	b508      	push	{r3, lr}
2ffea7f6:	b920      	cbnz	r0, 2ffea802 <fip_file_len+0xe>
2ffea7f8:	f240 1171 	movw	r1, #369	@ 0x171
2ffea7fc:	4805      	ldr	r0, [pc, #20]	@ (2ffea814 <fip_file_len+0x20>)
2ffea7fe:	f008 ff95 	bl	2fff372c <__assert>
2ffea802:	b911      	cbnz	r1, 2ffea80a <fip_file_len+0x16>
2ffea804:	f44f 71b9 	mov.w	r1, #370	@ 0x172
2ffea808:	e7f8      	b.n	2ffea7fc <fip_file_len+0x8>
2ffea80a:	6843      	ldr	r3, [r0, #4]
2ffea80c:	2000      	movs	r0, #0
2ffea80e:	6a1b      	ldr	r3, [r3, #32]
2ffea810:	600b      	str	r3, [r1, #0]
2ffea812:	bd08      	pop	{r3, pc}
2ffea814:	2fff6e3c 	.word	0x2fff6e3c

2ffea818 <fip_file_open>:
2ffea818:	e92d 43f7 	stmdb	sp!, {r0, r1, r2, r4, r5, r6, r7, r8, r9, lr}
2ffea81c:	4616      	mov	r6, r2
2ffea81e:	460f      	mov	r7, r1
2ffea820:	b921      	cbnz	r1, 2ffea82c <fip_file_open+0x14>
2ffea822:	f44f 7193 	mov.w	r1, #294	@ 0x126
2ffea826:	482e      	ldr	r0, [pc, #184]	@ (2ffea8e0 <fip_file_open+0xc8>)
2ffea828:	f008 ff80 	bl	2fff372c <__assert>
2ffea82c:	b912      	cbnz	r2, 2ffea834 <fip_file_open+0x1c>
2ffea82e:	f240 1127 	movw	r1, #295	@ 0x127
2ffea832:	e7f8      	b.n	2ffea826 <fip_file_open+0xe>
2ffea834:	4d2b      	ldr	r5, [pc, #172]	@ (2ffea8e4 <fip_file_open+0xcc>)
2ffea836:	e9d5 3206 	ldrd	r3, r2, [r5, #24]
2ffea83a:	4313      	orrs	r3, r2
2ffea83c:	d008      	beq.n	2ffea850 <fip_file_open+0x38>
2ffea83e:	482a      	ldr	r0, [pc, #168]	@ (2ffea8e8 <fip_file_open+0xd0>)
2ffea840:	f06f 0416 	mvn.w	r4, #22
2ffea844:	f002 ffe8 	bl	2ffed818 <tf_log>
2ffea848:	4620      	mov	r0, r4
2ffea84a:	b003      	add	sp, #12
2ffea84c:	e8bd 83f0 	ldmia.w	sp!, {r4, r5, r6, r7, r8, r9, pc}
2ffea850:	4b26      	ldr	r3, [pc, #152]	@ (2ffea8ec <fip_file_open+0xd4>)
2ffea852:	466a      	mov	r2, sp
2ffea854:	6819      	ldr	r1, [r3, #0]
2ffea856:	4b26      	ldr	r3, [pc, #152]	@ (2ffea8f0 <fip_file_open+0xd8>)
2ffea858:	6818      	ldr	r0, [r3, #0]
2ffea85a:	f000 f933 	bl	2ffeaac4 <io_open>
2ffea85e:	4601      	mov	r1, r0
2ffea860:	b128      	cbz	r0, 2ffea86e <fip_file_open+0x56>
2ffea862:	4824      	ldr	r0, [pc, #144]	@ (2ffea8f4 <fip_file_open+0xdc>)
2ffea864:	f06f 0401 	mvn.w	r4, #1
2ffea868:	f002 ffd6 	bl	2ffed818 <tf_log>
2ffea86c:	e7ec      	b.n	2ffea848 <fip_file_open+0x30>
2ffea86e:	9800      	ldr	r0, [sp, #0]
2ffea870:	2210      	movs	r2, #16
2ffea872:	2300      	movs	r3, #0
2ffea874:	2101      	movs	r1, #1
2ffea876:	f000 f96f 	bl	2ffeab58 <io_seek>
2ffea87a:	b9b0      	cbnz	r0, 2ffea8aa <fip_file_open+0x92>
2ffea87c:	f8df 9078 	ldr.w	r9, [pc, #120]	@ 2ffea8f8 <fip_file_open+0xe0>
2ffea880:	f105 0808 	add.w	r8, r5, #8
2ffea884:	491d      	ldr	r1, [pc, #116]	@ (2ffea8fc <fip_file_open+0xe4>)
2ffea886:	ab01      	add	r3, sp, #4
2ffea888:	9800      	ldr	r0, [sp, #0]
2ffea88a:	2228      	movs	r2, #40	@ 0x28
2ffea88c:	f000 f9a4 	bl	2ffeabd8 <io_read>
2ffea890:	4604      	mov	r4, r0
2ffea892:	b980      	cbnz	r0, 2ffea8b6 <fip_file_open+0x9e>
2ffea894:	2210      	movs	r2, #16
2ffea896:	4639      	mov	r1, r7
2ffea898:	4640      	mov	r0, r8
2ffea89a:	f00a fdb6 	bl	2fff540a <memcmp>
2ffea89e:	4604      	mov	r4, r0
2ffea8a0:	b988      	cbnz	r0, 2ffea8c6 <fip_file_open+0xae>
2ffea8a2:	f848 0c08 	str.w	r0, [r8, #-8]
2ffea8a6:	6075      	str	r5, [r6, #4]
2ffea8a8:	e009      	b.n	2ffea8be <fip_file_open+0xa6>
2ffea8aa:	4815      	ldr	r0, [pc, #84]	@ (2ffea900 <fip_file_open+0xe8>)
2ffea8ac:	f002 ffb4 	bl	2ffed818 <tf_log>
2ffea8b0:	f06f 0401 	mvn.w	r4, #1
2ffea8b4:	e003      	b.n	2ffea8be <fip_file_open+0xa6>
2ffea8b6:	4601      	mov	r1, r0
2ffea8b8:	4812      	ldr	r0, [pc, #72]	@ (2ffea904 <fip_file_open+0xec>)
2ffea8ba:	f002 ffad 	bl	2ffed818 <tf_log>
2ffea8be:	9800      	ldr	r0, [sp, #0]
2ffea8c0:	f000 f9ae 	bl	2ffeac20 <io_close>
2ffea8c4:	e7c0      	b.n	2ffea848 <fip_file_open+0x30>
2ffea8c6:	2210      	movs	r2, #16
2ffea8c8:	4649      	mov	r1, r9
2ffea8ca:	4640      	mov	r0, r8
2ffea8cc:	f00a fd9d 	bl	2fff540a <memcmp>
2ffea8d0:	2800      	cmp	r0, #0
2ffea8d2:	d1d7      	bne.n	2ffea884 <fip_file_open+0x6c>
2ffea8d4:	2200      	movs	r2, #0
2ffea8d6:	2300      	movs	r3, #0
2ffea8d8:	e9c5 2306 	strd	r2, r3, [r5, #24]
2ffea8dc:	e7e8      	b.n	2ffea8b0 <fip_file_open+0x98>
2ffea8de:	bf00      	nop
2ffea8e0:	2fff6e3c 	.word	0x2fff6e3c
2ffea8e4:	2fffb628 	.word	0x2fffb628
2ffea8e8:	2fff6f2b 	.word	0x2fff6f2b
2ffea8ec:	2fffb9b8 	.word	0x2fffb9b8
2ffea8f0:	2fffb9bc 	.word	0x2fffb9bc
2ffea8f4:	2fff6f5b 	.word	0x2fff6f5b
2ffea8f8:	2fff6fc2 	.word	0x2fff6fc2
2ffea8fc:	2fffb630 	.word	0x2fffb630
2ffea900:	2fff6f88 	.word	0x2fff6f88
2ffea904:	2fff6fa8 	.word	0x2fff6fa8

2ffea908 <fip_dev_close>:
2ffea908:	4b0e      	ldr	r3, [pc, #56]	@ (2ffea944 <fip_dev_close+0x3c>)
2ffea90a:	b510      	push	{r4, lr}
2ffea90c:	2400      	movs	r4, #0
2ffea90e:	601c      	str	r4, [r3, #0]
2ffea910:	4b0d      	ldr	r3, [pc, #52]	@ (2ffea948 <fip_dev_close+0x40>)
2ffea912:	601c      	str	r4, [r3, #0]
2ffea914:	b918      	cbnz	r0, 2ffea91e <fip_dev_close+0x16>
2ffea916:	480d      	ldr	r0, [pc, #52]	@ (2ffea94c <fip_dev_close+0x44>)
2ffea918:	21ab      	movs	r1, #171	@ 0xab
2ffea91a:	f008 ff07 	bl	2fff372c <__assert>
2ffea91e:	6840      	ldr	r0, [r0, #4]
2ffea920:	4b0b      	ldr	r3, [pc, #44]	@ (2ffea950 <fip_dev_close+0x48>)
2ffea922:	6802      	ldr	r2, [r0, #0]
2ffea924:	681b      	ldr	r3, [r3, #0]
2ffea926:	429a      	cmp	r2, r3
2ffea928:	d108      	bne.n	2ffea93c <fip_dev_close+0x34>
2ffea92a:	2108      	movs	r1, #8
2ffea92c:	f7fe ee56 	blx	2ffe95dc <zero_normalmem>
2ffea930:	4a08      	ldr	r2, [pc, #32]	@ (2ffea954 <fip_dev_close+0x4c>)
2ffea932:	4620      	mov	r0, r4
2ffea934:	6813      	ldr	r3, [r2, #0]
2ffea936:	3b01      	subs	r3, #1
2ffea938:	6013      	str	r3, [r2, #0]
2ffea93a:	bd10      	pop	{r4, pc}
2ffea93c:	f06f 0001 	mvn.w	r0, #1
2ffea940:	e7fb      	b.n	2ffea93a <fip_dev_close+0x32>
2ffea942:	bf00      	nop
2ffea944:	2fffb9bc 	.word	0x2fffb9bc
2ffea948:	2fffb9b8 	.word	0x2fffb9b8
2ffea94c:	2fff6e3c 	.word	0x2fff6e3c
2ffea950:	2fffb9b0 	.word	0x2fffb9b0
2ffea954:	2fffb9a4 	.word	0x2fffb9a4

2ffea958 <fip_dev_open>:
2ffea958:	b570      	push	{r4, r5, r6, lr}
2ffea95a:	4604      	mov	r4, r0
2ffea95c:	b919      	cbnz	r1, 2ffea966 <fip_dev_open+0xe>
2ffea95e:	21c4      	movs	r1, #196	@ 0xc4
2ffea960:	480b      	ldr	r0, [pc, #44]	@ (2ffea990 <fip_dev_open+0x38>)
2ffea962:	f008 fee3 	bl	2fff372c <__assert>
2ffea966:	4d0b      	ldr	r5, [pc, #44]	@ (2ffea994 <fip_dev_open+0x3c>)
2ffea968:	682b      	ldr	r3, [r5, #0]
2ffea96a:	b96b      	cbnz	r3, 2ffea988 <fip_dev_open+0x30>
2ffea96c:	4a0a      	ldr	r2, [pc, #40]	@ (2ffea998 <fip_dev_open+0x40>)
2ffea96e:	6810      	ldr	r0, [r2, #0]
2ffea970:	b940      	cbnz	r0, 2ffea984 <fip_dev_open+0x2c>
2ffea972:	4b0a      	ldr	r3, [pc, #40]	@ (2ffea99c <fip_dev_open+0x44>)
2ffea974:	4e0a      	ldr	r6, [pc, #40]	@ (2ffea9a0 <fip_dev_open+0x48>)
2ffea976:	605a      	str	r2, [r3, #4]
2ffea978:	601e      	str	r6, [r3, #0]
2ffea97a:	2601      	movs	r6, #1
2ffea97c:	6014      	str	r4, [r2, #0]
2ffea97e:	602e      	str	r6, [r5, #0]
2ffea980:	600b      	str	r3, [r1, #0]
2ffea982:	bd70      	pop	{r4, r5, r6, pc}
2ffea984:	2198      	movs	r1, #152	@ 0x98
2ffea986:	e7eb      	b.n	2ffea960 <fip_dev_open+0x8>
2ffea988:	f06f 000b 	mvn.w	r0, #11
2ffea98c:	e7f9      	b.n	2ffea982 <fip_dev_open+0x2a>
2ffea98e:	bf00      	nop
2ffea990:	2fff6e3c 	.word	0x2fff6e3c
2ffea994:	2fffb9a4 	.word	0x2fffb9a4
2ffea998:	2fffb9b0 	.word	0x2fffb9b0
2ffea99c:	2fffb9a8 	.word	0x2fffb9a8
2ffea9a0:	2fff5758 	.word	0x2fff5758

2ffea9a4 <register_io_dev_fip>:
2ffea9a4:	b510      	push	{r4, lr}
2ffea9a6:	4604      	mov	r4, r0
2ffea9a8:	b920      	cbnz	r0, 2ffea9b4 <register_io_dev_fip+0x10>
2ffea9aa:	4806      	ldr	r0, [pc, #24]	@ (2ffea9c4 <register_io_dev_fip+0x20>)
2ffea9ac:	f44f 71e4 	mov.w	r1, #456	@ 0x1c8
2ffea9b0:	f008 febc 	bl	2fff372c <__assert>
2ffea9b4:	4804      	ldr	r0, [pc, #16]	@ (2ffea9c8 <register_io_dev_fip+0x24>)
2ffea9b6:	f000 f82b 	bl	2ffeaa10 <io_register_device>
2ffea9ba:	b908      	cbnz	r0, 2ffea9c0 <register_io_dev_fip+0x1c>
2ffea9bc:	4b03      	ldr	r3, [pc, #12]	@ (2ffea9cc <register_io_dev_fip+0x28>)
2ffea9be:	6023      	str	r3, [r4, #0]
2ffea9c0:	bd10      	pop	{r4, pc}
2ffea9c2:	bf00      	nop
2ffea9c4:	2fff6e3c 	.word	0x2fff6e3c
2ffea9c8:	2fffb9a8 	.word	0x2fffb9a8
2ffea9cc:	2fff577c 	.word	0x2fff577c

2ffea9d0 <free_entity.isra.0>:
2ffea9d0:	b510      	push	{r4, lr}
2ffea9d2:	b918      	cbnz	r0, 2ffea9dc <free_entity.isra.0+0xc>
2ffea9d4:	480b      	ldr	r0, [pc, #44]	@ (2ffeaa04 <free_entity.isra.0+0x34>)
2ffea9d6:	2182      	movs	r1, #130	@ 0x82
2ffea9d8:	f008 fea8 	bl	2fff372c <__assert>
2ffea9dc:	4a0a      	ldr	r2, [pc, #40]	@ (2ffeaa08 <free_entity.isra.0+0x38>)
2ffea9de:	2300      	movs	r3, #0
2ffea9e0:	4611      	mov	r1, r2
2ffea9e2:	f852 4b04 	ldr.w	r4, [r2], #4
2ffea9e6:	42a0      	cmp	r0, r4
2ffea9e8:	d003      	beq.n	2ffea9f2 <free_entity.isra.0+0x22>
2ffea9ea:	3301      	adds	r3, #1
2ffea9ec:	2b04      	cmp	r3, #4
2ffea9ee:	d1f8      	bne.n	2ffea9e2 <free_entity.isra.0+0x12>
2ffea9f0:	bd10      	pop	{r4, pc}
2ffea9f2:	2200      	movs	r2, #0
2ffea9f4:	f841 2023 	str.w	r2, [r1, r3, lsl #2]
2ffea9f8:	4a04      	ldr	r2, [pc, #16]	@ (2ffeaa0c <free_entity.isra.0+0x3c>)
2ffea9fa:	6813      	ldr	r3, [r2, #0]
2ffea9fc:	3b01      	subs	r3, #1
2ffea9fe:	6013      	str	r3, [r2, #0]
2ffeaa00:	e7f6      	b.n	2ffea9f0 <free_entity.isra.0+0x20>
2ffeaa02:	bf00      	nop
2ffeaa04:	2fff6fd2 	.word	0x2fff6fd2
2ffeaa08:	2fffb9c8 	.word	0x2fffb9c8
2ffeaa0c:	2fffb9c4 	.word	0x2fffb9c4

2ffeaa10 <io_register_device>:
2ffeaa10:	b508      	push	{r3, lr}
2ffeaa12:	b918      	cbnz	r0, 2ffeaa1c <io_register_device+0xc>
2ffeaa14:	4806      	ldr	r0, [pc, #24]	@ (2ffeaa30 <io_register_device+0x20>)
2ffeaa16:	2194      	movs	r1, #148	@ 0x94
2ffeaa18:	f008 fe88 	bl	2fff372c <__assert>
2ffeaa1c:	4a05      	ldr	r2, [pc, #20]	@ (2ffeaa34 <io_register_device+0x24>)
2ffeaa1e:	6813      	ldr	r3, [r2, #0]
2ffeaa20:	2b03      	cmp	r3, #3
2ffeaa22:	bf9d      	ittte	ls
2ffeaa24:	3301      	addls	r3, #1
2ffeaa26:	2000      	movls	r0, #0
2ffeaa28:	6013      	strls	r3, [r2, #0]
2ffeaa2a:	f06f 000b 	mvnhi.w	r0, #11
2ffeaa2e:	bd08      	pop	{r3, pc}
2ffeaa30:	2fff6fd2 	.word	0x2fff6fd2
2ffeaa34:	2fffb9c0 	.word	0x2fffb9c0

2ffeaa38 <io_dev_open>:
2ffeaa38:	4603      	mov	r3, r0
2ffeaa3a:	4608      	mov	r0, r1
2ffeaa3c:	b510      	push	{r4, lr}
2ffeaa3e:	4611      	mov	r1, r2
2ffeaa40:	b91a      	cbnz	r2, 2ffeaa4a <io_dev_open+0x12>
2ffeaa42:	21a4      	movs	r1, #164	@ 0xa4
2ffeaa44:	4805      	ldr	r0, [pc, #20]	@ (2ffeaa5c <io_dev_open+0x24>)
2ffeaa46:	f008 fe71 	bl	2fff372c <__assert>
2ffeaa4a:	b123      	cbz	r3, 2ffeaa56 <io_dev_open+0x1e>
2ffeaa4c:	681b      	ldr	r3, [r3, #0]
2ffeaa4e:	b113      	cbz	r3, 2ffeaa56 <io_dev_open+0x1e>
2ffeaa50:	e8bd 4010 	ldmia.w	sp!, {r4, lr}
2ffeaa54:	4718      	bx	r3
2ffeaa56:	214d      	movs	r1, #77	@ 0x4d
2ffeaa58:	e7f4      	b.n	2ffeaa44 <io_dev_open+0xc>
2ffeaa5a:	bf00      	nop
2ffeaa5c:	2fff6fd2 	.word	0x2fff6fd2

2ffeaa60 <io_dev_init>:
2ffeaa60:	b570      	push	{r4, r5, r6, lr}
2ffeaa62:	460d      	mov	r5, r1
2ffeaa64:	4604      	mov	r4, r0
2ffeaa66:	b918      	cbnz	r0, 2ffeaa70 <io_dev_init+0x10>
2ffeaa68:	21ae      	movs	r1, #174	@ 0xae
2ffeaa6a:	4809      	ldr	r0, [pc, #36]	@ (2ffeaa90 <io_dev_init+0x30>)
2ffeaa6c:	f008 fe5e 	bl	2fff372c <__assert>
2ffeaa70:	f009 f8e0 	bl	2fff3c34 <is_valid_dev>
2ffeaa74:	b908      	cbnz	r0, 2ffeaa7a <io_dev_init+0x1a>
2ffeaa76:	21af      	movs	r1, #175	@ 0xaf
2ffeaa78:	e7f7      	b.n	2ffeaa6a <io_dev_init+0xa>
2ffeaa7a:	6823      	ldr	r3, [r4, #0]
2ffeaa7c:	69db      	ldr	r3, [r3, #28]
2ffeaa7e:	b123      	cbz	r3, 2ffeaa8a <io_dev_init+0x2a>
2ffeaa80:	4629      	mov	r1, r5
2ffeaa82:	4620      	mov	r0, r4
2ffeaa84:	e8bd 4070 	ldmia.w	sp!, {r4, r5, r6, lr}
2ffeaa88:	4718      	bx	r3
2ffeaa8a:	4618      	mov	r0, r3
2ffeaa8c:	bd70      	pop	{r4, r5, r6, pc}
2ffeaa8e:	bf00      	nop
2ffeaa90:	2fff6fd2 	.word	0x2fff6fd2

2ffeaa94 <io_dev_close>:
2ffeaa94:	b510      	push	{r4, lr}
2ffeaa96:	4604      	mov	r4, r0
2ffeaa98:	b918      	cbnz	r0, 2ffeaaa2 <io_dev_close+0xe>
2ffeaa9a:	21bf      	movs	r1, #191	@ 0xbf
2ffeaa9c:	4808      	ldr	r0, [pc, #32]	@ (2ffeaac0 <io_dev_close+0x2c>)
2ffeaa9e:	f008 fe45 	bl	2fff372c <__assert>
2ffeaaa2:	f009 f8c7 	bl	2fff3c34 <is_valid_dev>
2ffeaaa6:	b908      	cbnz	r0, 2ffeaaac <io_dev_close+0x18>
2ffeaaa8:	21c0      	movs	r1, #192	@ 0xc0
2ffeaaaa:	e7f7      	b.n	2ffeaa9c <io_dev_close+0x8>
2ffeaaac:	6823      	ldr	r3, [r4, #0]
2ffeaaae:	6a1b      	ldr	r3, [r3, #32]
2ffeaab0:	b11b      	cbz	r3, 2ffeaaba <io_dev_close+0x26>
2ffeaab2:	4620      	mov	r0, r4
2ffeaab4:	e8bd 4010 	ldmia.w	sp!, {r4, lr}
2ffeaab8:	4718      	bx	r3
2ffeaaba:	4618      	mov	r0, r3
2ffeaabc:	bd10      	pop	{r4, pc}
2ffeaabe:	bf00      	nop
2ffeaac0:	2fff6fd2 	.word	0x2fff6fd2

2ffeaac4 <io_open>:
2ffeaac4:	e92d 43f8 	stmdb	sp!, {r3, r4, r5, r6, r7, r8, r9, lr}
2ffeaac8:	4606      	mov	r6, r0
2ffeaaca:	4690      	mov	r8, r2
2ffeaacc:	460d      	mov	r5, r1
2ffeaace:	b101      	cbz	r1, 2ffeaad2 <io_open+0xe>
2ffeaad0:	b91a      	cbnz	r2, 2ffeaada <io_open+0x16>
2ffeaad2:	21d4      	movs	r1, #212	@ 0xd4
2ffeaad4:	481c      	ldr	r0, [pc, #112]	@ (2ffeab48 <io_open+0x84>)
2ffeaad6:	f008 fe29 	bl	2fff372c <__assert>
2ffeaada:	f009 f8ab 	bl	2fff3c34 <is_valid_dev>
2ffeaade:	b908      	cbnz	r0, 2ffeaae4 <io_open+0x20>
2ffeaae0:	21d5      	movs	r1, #213	@ 0xd5
2ffeaae2:	e7f7      	b.n	2ffeaad4 <io_open+0x10>
2ffeaae4:	4919      	ldr	r1, [pc, #100]	@ (2ffeab4c <io_open+0x88>)
2ffeaae6:	680b      	ldr	r3, [r1, #0]
2ffeaae8:	2b03      	cmp	r3, #3
2ffeaaea:	d81b      	bhi.n	2ffeab24 <io_open+0x60>
2ffeaaec:	4a18      	ldr	r2, [pc, #96]	@ (2ffeab50 <io_open+0x8c>)
2ffeaaee:	2400      	movs	r4, #0
2ffeaaf0:	4610      	mov	r0, r2
2ffeaaf2:	f852 7b04 	ldr.w	r7, [r2], #4
2ffeaaf6:	b1c7      	cbz	r7, 2ffeab2a <io_open+0x66>
2ffeaaf8:	3401      	adds	r4, #1
2ffeaafa:	2c04      	cmp	r4, #4
2ffeaafc:	d1f9      	bne.n	2ffeaaf2 <io_open+0x2e>
2ffeaafe:	2173      	movs	r1, #115	@ 0x73
2ffeab00:	e7e8      	b.n	2ffeaad4 <io_open+0x10>
2ffeab02:	4629      	mov	r1, r5
2ffeab04:	463a      	mov	r2, r7
2ffeab06:	4630      	mov	r0, r6
2ffeab08:	4798      	blx	r3
2ffeab0a:	4605      	mov	r5, r0
2ffeab0c:	b930      	cbnz	r0, 2ffeab1c <io_open+0x58>
2ffeab0e:	f849 6034 	str.w	r6, [r9, r4, lsl #3]
2ffeab12:	f8c8 7000 	str.w	r7, [r8]
2ffeab16:	4628      	mov	r0, r5
2ffeab18:	e8bd 83f8 	ldmia.w	sp!, {r3, r4, r5, r6, r7, r8, r9, pc}
2ffeab1c:	4638      	mov	r0, r7
2ffeab1e:	f7ff ff57 	bl	2ffea9d0 <free_entity.isra.0>
2ffeab22:	e7f8      	b.n	2ffeab16 <io_open+0x52>
2ffeab24:	f06f 050b 	mvn.w	r5, #11
2ffeab28:	e7f5      	b.n	2ffeab16 <io_open+0x52>
2ffeab2a:	f8df 9028 	ldr.w	r9, [pc, #40]	@ 2ffeab54 <io_open+0x90>
2ffeab2e:	3301      	adds	r3, #1
2ffeab30:	600b      	str	r3, [r1, #0]
2ffeab32:	6833      	ldr	r3, [r6, #0]
2ffeab34:	eb09 07c4 	add.w	r7, r9, r4, lsl #3
2ffeab38:	685b      	ldr	r3, [r3, #4]
2ffeab3a:	f840 7024 	str.w	r7, [r0, r4, lsl #2]
2ffeab3e:	2b00      	cmp	r3, #0
2ffeab40:	d1df      	bne.n	2ffeab02 <io_open+0x3e>
2ffeab42:	21dd      	movs	r1, #221	@ 0xdd
2ffeab44:	e7c6      	b.n	2ffeaad4 <io_open+0x10>
2ffeab46:	bf00      	nop
2ffeab48:	2fff6fd2 	.word	0x2fff6fd2
2ffeab4c:	2fffb9c4 	.word	0x2fffb9c4
2ffeab50:	2fffb9c8 	.word	0x2fffb9c8
2ffeab54:	2fffb9d8 	.word	0x2fffb9d8

2ffeab58 <io_seek>:
2ffeab58:	e92d 41f0 	stmdb	sp!, {r4, r5, r6, r7, r8, lr}
2ffeab5c:	4604      	mov	r4, r0
2ffeab5e:	460d      	mov	r5, r1
2ffeab60:	4617      	mov	r7, r2
2ffeab62:	461e      	mov	r6, r3
2ffeab64:	f009 f872 	bl	2fff3c4c <is_valid_entity>
2ffeab68:	b110      	cbz	r0, 2ffeab70 <io_seek+0x18>
2ffeab6a:	1e6b      	subs	r3, r5, #1
2ffeab6c:	2b02      	cmp	r3, #2
2ffeab6e:	d903      	bls.n	2ffeab78 <io_seek+0x20>
2ffeab70:	480b      	ldr	r0, [pc, #44]	@ (2ffeaba0 <io_seek+0x48>)
2ffeab72:	21ee      	movs	r1, #238	@ 0xee
2ffeab74:	f008 fdda 	bl	2fff372c <__assert>
2ffeab78:	6823      	ldr	r3, [r4, #0]
2ffeab7a:	681b      	ldr	r3, [r3, #0]
2ffeab7c:	f8d3 e008 	ldr.w	lr, [r3, #8]
2ffeab80:	f1be 0f00 	cmp.w	lr, #0
2ffeab84:	d007      	beq.n	2ffeab96 <io_seek+0x3e>
2ffeab86:	463a      	mov	r2, r7
2ffeab88:	4633      	mov	r3, r6
2ffeab8a:	4629      	mov	r1, r5
2ffeab8c:	4620      	mov	r0, r4
2ffeab8e:	46f4      	mov	ip, lr
2ffeab90:	e8bd 41f0 	ldmia.w	sp!, {r4, r5, r6, r7, r8, lr}
2ffeab94:	4760      	bx	ip
2ffeab96:	f06f 0012 	mvn.w	r0, #18
2ffeab9a:	e8bd 81f0 	ldmia.w	sp!, {r4, r5, r6, r7, r8, pc}
2ffeab9e:	bf00      	nop
2ffeaba0:	2fff6fd2 	.word	0x2fff6fd2

2ffeaba4 <io_size>:
2ffeaba4:	b570      	push	{r4, r5, r6, lr}
2ffeaba6:	4604      	mov	r4, r0
2ffeaba8:	460d      	mov	r5, r1
2ffeabaa:	f009 f84f 	bl	2fff3c4c <is_valid_entity>
2ffeabae:	b100      	cbz	r0, 2ffeabb2 <io_size+0xe>
2ffeabb0:	b91d      	cbnz	r5, 2ffeabba <io_size+0x16>
2ffeabb2:	4808      	ldr	r0, [pc, #32]	@ (2ffeabd4 <io_size+0x30>)
2ffeabb4:	21ff      	movs	r1, #255	@ 0xff
2ffeabb6:	f008 fdb9 	bl	2fff372c <__assert>
2ffeabba:	6823      	ldr	r3, [r4, #0]
2ffeabbc:	681b      	ldr	r3, [r3, #0]
2ffeabbe:	68db      	ldr	r3, [r3, #12]
2ffeabc0:	b123      	cbz	r3, 2ffeabcc <io_size+0x28>
2ffeabc2:	4629      	mov	r1, r5
2ffeabc4:	4620      	mov	r0, r4
2ffeabc6:	e8bd 4070 	ldmia.w	sp!, {r4, r5, r6, lr}
2ffeabca:	4718      	bx	r3
2ffeabcc:	f06f 0012 	mvn.w	r0, #18
2ffeabd0:	bd70      	pop	{r4, r5, r6, pc}
2ffeabd2:	bf00      	nop
2ffeabd4:	2fff6fd2 	.word	0x2fff6fd2

2ffeabd8 <io_read>:
2ffeabd8:	e92d 41f0 	stmdb	sp!, {r4, r5, r6, r7, r8, lr}
2ffeabdc:	4604      	mov	r4, r0
2ffeabde:	460d      	mov	r5, r1
2ffeabe0:	4616      	mov	r6, r2
2ffeabe2:	461f      	mov	r7, r3
2ffeabe4:	f009 f832 	bl	2fff3c4c <is_valid_entity>
2ffeabe8:	b920      	cbnz	r0, 2ffeabf4 <io_read+0x1c>
2ffeabea:	480c      	ldr	r0, [pc, #48]	@ (2ffeac1c <io_read+0x44>)
2ffeabec:	f240 1113 	movw	r1, #275	@ 0x113
2ffeabf0:	f008 fd9c 	bl	2fff372c <__assert>
2ffeabf4:	6823      	ldr	r3, [r4, #0]
2ffeabf6:	681b      	ldr	r3, [r3, #0]
2ffeabf8:	f8d3 e010 	ldr.w	lr, [r3, #16]
2ffeabfc:	f1be 0f00 	cmp.w	lr, #0
2ffeac00:	d007      	beq.n	2ffeac12 <io_read+0x3a>
2ffeac02:	463b      	mov	r3, r7
2ffeac04:	4632      	mov	r2, r6
2ffeac06:	4629      	mov	r1, r5
2ffeac08:	4620      	mov	r0, r4
2ffeac0a:	46f4      	mov	ip, lr
2ffeac0c:	e8bd 41f0 	ldmia.w	sp!, {r4, r5, r6, r7, r8, lr}
2ffeac10:	4760      	bx	ip
2ffeac12:	f06f 0012 	mvn.w	r0, #18
2ffeac16:	e8bd 81f0 	ldmia.w	sp!, {r4, r5, r6, r7, r8, pc}
2ffeac1a:	bf00      	nop
2ffeac1c:	2fff6fd2 	.word	0x2fff6fd2

2ffeac20 <io_close>:
2ffeac20:	b538      	push	{r3, r4, r5, lr}
2ffeac22:	4605      	mov	r5, r0
2ffeac24:	f009 f812 	bl	2fff3c4c <is_valid_entity>
2ffeac28:	b920      	cbnz	r0, 2ffeac34 <io_close+0x14>
2ffeac2a:	4808      	ldr	r0, [pc, #32]	@ (2ffeac4c <io_close+0x2c>)
2ffeac2c:	f44f 719d 	mov.w	r1, #314	@ 0x13a
2ffeac30:	f008 fd7c 	bl	2fff372c <__assert>
2ffeac34:	682b      	ldr	r3, [r5, #0]
2ffeac36:	681b      	ldr	r3, [r3, #0]
2ffeac38:	699c      	ldr	r4, [r3, #24]
2ffeac3a:	b114      	cbz	r4, 2ffeac42 <io_close+0x22>
2ffeac3c:	4628      	mov	r0, r5
2ffeac3e:	47a0      	blx	r4
2ffeac40:	4604      	mov	r4, r0
2ffeac42:	4628      	mov	r0, r5
2ffeac44:	f7ff fec4 	bl	2ffea9d0 <free_entity.isra.0>
2ffeac48:	4620      	mov	r0, r4
2ffeac4a:	bd38      	pop	{r3, r4, r5, pc}
2ffeac4c:	2fff6fd2 	.word	0x2fff6fd2

2ffeac50 <mmc_send_cmd>:
2ffeac50:	b5f0      	push	{r4, r5, r6, r7, lr}
2ffeac52:	b089      	sub	sp, #36	@ 0x24
2ffeac54:	4607      	mov	r7, r0
2ffeac56:	460e      	mov	r6, r1
2ffeac58:	a801      	add	r0, sp, #4
2ffeac5a:	211c      	movs	r1, #28
2ffeac5c:	4615      	mov	r5, r2
2ffeac5e:	461c      	mov	r4, r3
2ffeac60:	f7fe ecbc 	blx	2ffe95dc <zero_normalmem>
2ffeac64:	4b09      	ldr	r3, [pc, #36]	@ (2ffeac8c <mmc_send_cmd+0x3c>)
2ffeac66:	a801      	add	r0, sp, #4
2ffeac68:	9701      	str	r7, [sp, #4]
2ffeac6a:	681b      	ldr	r3, [r3, #0]
2ffeac6c:	9602      	str	r6, [sp, #8]
2ffeac6e:	685b      	ldr	r3, [r3, #4]
2ffeac70:	9503      	str	r5, [sp, #12]
2ffeac72:	4798      	blx	r3
2ffeac74:	b940      	cbnz	r0, 2ffeac88 <mmc_send_cmd+0x38>
2ffeac76:	b13c      	cbz	r4, 2ffeac88 <mmc_send_cmd+0x38>
2ffeac78:	9b04      	ldr	r3, [sp, #16]
2ffeac7a:	6023      	str	r3, [r4, #0]
2ffeac7c:	9b05      	ldr	r3, [sp, #20]
2ffeac7e:	6063      	str	r3, [r4, #4]
2ffeac80:	9b06      	ldr	r3, [sp, #24]
2ffeac82:	60a3      	str	r3, [r4, #8]
2ffeac84:	9b07      	ldr	r3, [sp, #28]
2ffeac86:	60e3      	str	r3, [r4, #12]
2ffeac88:	b009      	add	sp, #36	@ 0x24
2ffeac8a:	bdf0      	pop	{r4, r5, r6, r7, pc}
2ffeac8c:	2fffba18 	.word	0x2fffba18

2ffeac90 <mmc_device_state>:
2ffeac90:	b530      	push	{r4, r5, lr}
2ffeac92:	2404      	movs	r4, #4
2ffeac94:	4d0e      	ldr	r5, [pc, #56]	@ (2ffeacd0 <mmc_device_state+0x40>)
2ffeac96:	b085      	sub	sp, #20
2ffeac98:	6829      	ldr	r1, [r5, #0]
2ffeac9a:	220d      	movs	r2, #13
2ffeac9c:	466b      	mov	r3, sp
2ffeac9e:	4610      	mov	r0, r2
2ffeaca0:	0409      	lsls	r1, r1, #16
2ffeaca2:	f7ff ffd5 	bl	2ffeac50 <mmc_send_cmd>
2ffeaca6:	9b00      	ldr	r3, [sp, #0]
2ffeaca8:	b908      	cbnz	r0, 2ffeacae <mmc_device_state+0x1e>
2ffeacaa:	0619      	lsls	r1, r3, #24
2ffeacac:	d40c      	bmi.n	2ffeacc8 <mmc_device_state+0x38>
2ffeacae:	05da      	lsls	r2, r3, #23
2ffeacb0:	f104 34ff 	add.w	r4, r4, #4294967295	@ 0xffffffff
2ffeacb4:	d502      	bpl.n	2ffeacbc <mmc_device_state+0x2c>
2ffeacb6:	f3c3 2043 	ubfx	r0, r3, #9, #4
2ffeacba:	e007      	b.n	2ffeaccc <mmc_device_state+0x3c>
2ffeacbc:	1c60      	adds	r0, r4, #1
2ffeacbe:	d1eb      	bne.n	2ffeac98 <mmc_device_state+0x8>
2ffeacc0:	4804      	ldr	r0, [pc, #16]	@ (2ffeacd4 <mmc_device_state+0x44>)
2ffeacc2:	2105      	movs	r1, #5
2ffeacc4:	f002 fda8 	bl	2ffed818 <tf_log>
2ffeacc8:	f06f 0004 	mvn.w	r0, #4
2ffeaccc:	b005      	add	sp, #20
2ffeacce:	bd30      	pop	{r4, r5, pc}
2ffeacd0:	2fffb9f8 	.word	0x2fffb9f8
2ffeacd4:	2fff6fea 	.word	0x2fff6fea

2ffeacd8 <sd_switch.constprop.0>:
2ffeacd8:	b570      	push	{r4, r5, r6, lr}
2ffeacda:	2240      	movs	r2, #64	@ 0x40
2ffeacdc:	4d0c      	ldr	r5, [pc, #48]	@ (2ffead10 <sd_switch.constprop.0+0x38>)
2ffeacde:	4604      	mov	r4, r0
2ffeace0:	490c      	ldr	r1, [pc, #48]	@ (2ffead14 <sd_switch.constprop.0+0x3c>)
2ffeace2:	2000      	movs	r0, #0
2ffeace4:	682b      	ldr	r3, [r5, #0]
2ffeace6:	68db      	ldr	r3, [r3, #12]
2ffeace8:	4798      	blx	r3
2ffeacea:	4603      	mov	r3, r0
2ffeacec:	b970      	cbnz	r0, 2ffead0c <sd_switch.constprop.0+0x34>
2ffeacee:	490a      	ldr	r1, [pc, #40]	@ (2ffead18 <sd_switch.constprop.0+0x40>)
2ffeacf0:	220d      	movs	r2, #13
2ffeacf2:	2006      	movs	r0, #6
2ffeacf4:	4321      	orrs	r1, r4
2ffeacf6:	f7ff ffab 	bl	2ffeac50 <mmc_send_cmd>
2ffeacfa:	4603      	mov	r3, r0
2ffeacfc:	b930      	cbnz	r0, 2ffead0c <sd_switch.constprop.0+0x34>
2ffeacfe:	682b      	ldr	r3, [r5, #0]
2ffead00:	2240      	movs	r2, #64	@ 0x40
2ffead02:	e8bd 4070 	ldmia.w	sp!, {r4, r5, r6, lr}
2ffead06:	691b      	ldr	r3, [r3, #16]
2ffead08:	4902      	ldr	r1, [pc, #8]	@ (2ffead14 <sd_switch.constprop.0+0x3c>)
2ffead0a:	4718      	bx	r3
2ffead0c:	4618      	mov	r0, r3
2ffead0e:	bd70      	pop	{r4, r5, r6, pc}
2ffead10:	2fffba18 	.word	0x2fffba18
2ffead14:	2fffc0c0 	.word	0x2fffc0c0
2ffead18:	00fffff1 	.word	0x00fffff1

2ffead1c <mmc_read_blocks>:
2ffead1c:	e92d 43f8 	stmdb	sp!, {r3, r4, r5, r6, r7, r8, r9, lr}
2ffead20:	4605      	mov	r5, r0
2ffead22:	f8df 90bc 	ldr.w	r9, [pc, #188]	@ 2ffeade0 <mmc_read_blocks+0xc4>
2ffead26:	460f      	mov	r7, r1
2ffead28:	4614      	mov	r4, r2
2ffead2a:	f8d9 3000 	ldr.w	r3, [r9]
2ffead2e:	b12b      	cbz	r3, 2ffead3c <mmc_read_blocks+0x20>
2ffead30:	691e      	ldr	r6, [r3, #16]
2ffead32:	b11e      	cbz	r6, 2ffead3c <mmc_read_blocks+0x20>
2ffead34:	b112      	cbz	r2, 2ffead3c <mmc_read_blocks+0x20>
2ffead36:	f3c2 0608 	ubfx	r6, r2, #0, #9
2ffead3a:	b126      	cbz	r6, 2ffead46 <mmc_read_blocks+0x2a>
2ffead3c:	4829      	ldr	r0, [pc, #164]	@ (2ffeade4 <mmc_read_blocks+0xc8>)
2ffead3e:	f44f 7116 	mov.w	r1, #600	@ 0x258
2ffead42:	f008 fcf3 	bl	2fff372c <__assert>
2ffead46:	68db      	ldr	r3, [r3, #12]
2ffead48:	4798      	blx	r3
2ffead4a:	b960      	cbnz	r0, 2ffead66 <mmc_read_blocks+0x4a>
2ffead4c:	f8df 8098 	ldr.w	r8, [pc, #152]	@ 2ffeade8 <mmc_read_blocks+0xcc>
2ffead50:	f8d8 3000 	ldr.w	r3, [r8]
2ffead54:	07db      	lsls	r3, r3, #31
2ffead56:	d509      	bpl.n	2ffead6c <mmc_read_blocks+0x50>
2ffead58:	4633      	mov	r3, r6
2ffead5a:	220d      	movs	r2, #13
2ffead5c:	0a61      	lsrs	r1, r4, #9
2ffead5e:	2017      	movs	r0, #23
2ffead60:	f7ff ff76 	bl	2ffeac50 <mmc_send_cmd>
2ffead64:	b128      	cbz	r0, 2ffead72 <mmc_read_blocks+0x56>
2ffead66:	4630      	mov	r0, r6
2ffead68:	e8bd 83f8 	ldmia.w	sp!, {r3, r4, r5, r6, r7, r8, r9, pc}
2ffead6c:	f5b4 7f00 	cmp.w	r4, #512	@ 0x200
2ffead70:	d933      	bls.n	2ffeadda <mmc_read_blocks+0xbe>
2ffead72:	2012      	movs	r0, #18
2ffead74:	4b1d      	ldr	r3, [pc, #116]	@ (2ffeadec <mmc_read_blocks+0xd0>)
2ffead76:	4629      	mov	r1, r5
2ffead78:	681b      	ldr	r3, [r3, #0]
2ffead7a:	f013 4fc0 	tst.w	r3, #1610612736	@ 0x60000000
2ffead7e:	d105      	bne.n	2ffead8c <mmc_read_blocks+0x70>
2ffead80:	4b1b      	ldr	r3, [pc, #108]	@ (2ffeadf0 <mmc_read_blocks+0xd4>)
2ffead82:	681b      	ldr	r3, [r3, #0]
2ffead84:	695b      	ldr	r3, [r3, #20]
2ffead86:	2b02      	cmp	r3, #2
2ffead88:	bf18      	it	ne
2ffead8a:	0269      	lslne	r1, r5, #9
2ffead8c:	2300      	movs	r3, #0
2ffead8e:	220d      	movs	r2, #13
2ffead90:	f7ff ff5e 	bl	2ffeac50 <mmc_send_cmd>
2ffead94:	2800      	cmp	r0, #0
2ffead96:	d1e6      	bne.n	2ffead66 <mmc_read_blocks+0x4a>
2ffead98:	f8d9 3000 	ldr.w	r3, [r9]
2ffead9c:	4622      	mov	r2, r4
2ffead9e:	4639      	mov	r1, r7
2ffeada0:	4628      	mov	r0, r5
2ffeada2:	691b      	ldr	r3, [r3, #16]
2ffeada4:	4798      	blx	r3
2ffeada6:	2800      	cmp	r0, #0
2ffeada8:	d1dd      	bne.n	2ffead66 <mmc_read_blocks+0x4a>
2ffeadaa:	f7ff ff71 	bl	2ffeac90 <mmc_device_state>
2ffeadae:	2800      	cmp	r0, #0
2ffeadb0:	dbd9      	blt.n	2ffead66 <mmc_read_blocks+0x4a>
2ffeadb2:	3804      	subs	r0, #4
2ffeadb4:	2801      	cmp	r0, #1
2ffeadb6:	d8f8      	bhi.n	2ffeadaa <mmc_read_blocks+0x8e>
2ffeadb8:	f8d8 3000 	ldr.w	r3, [r8]
2ffeadbc:	f013 0301 	ands.w	r3, r3, #1
2ffeadc0:	d109      	bne.n	2ffeadd6 <mmc_read_blocks+0xba>
2ffeadc2:	f5b4 7f00 	cmp.w	r4, #512	@ 0x200
2ffeadc6:	d906      	bls.n	2ffeadd6 <mmc_read_blocks+0xba>
2ffeadc8:	221d      	movs	r2, #29
2ffeadca:	4619      	mov	r1, r3
2ffeadcc:	200c      	movs	r0, #12
2ffeadce:	f7ff ff3f 	bl	2ffeac50 <mmc_send_cmd>
2ffeadd2:	2800      	cmp	r0, #0
2ffeadd4:	d1c7      	bne.n	2ffead66 <mmc_read_blocks+0x4a>
2ffeadd6:	4626      	mov	r6, r4
2ffeadd8:	e7c5      	b.n	2ffead66 <mmc_read_blocks+0x4a>
2ffeadda:	2011      	movs	r0, #17
2ffeaddc:	e7ca      	b.n	2ffead74 <mmc_read_blocks+0x58>
2ffeadde:	bf00      	nop
2ffeade0:	2fffba18 	.word	0x2fffba18
2ffeade4:	2fff700a 	.word	0x2fff700a
2ffeade8:	2fffba00 	.word	0x2fffba00
2ffeadec:	2fffba14 	.word	0x2fffba14
2ffeadf0:	2fffb9fc 	.word	0x2fffb9fc

2ffeadf4 <mmc_init>:
2ffeadf4:	e92d 4ff0 	stmdb	sp!, {r4, r5, r6, r7, r8, r9, sl, fp, lr}
2ffeadf8:	b089      	sub	sp, #36	@ 0x24
2ffeadfa:	4689      	mov	r9, r1
2ffeadfc:	4616      	mov	r6, r2
2ffeadfe:	9912      	ldr	r1, [sp, #72]	@ 0x48
2ffeae00:	b1a0      	cbz	r0, 2ffeae2c <mmc_init+0x38>
2ffeae02:	6802      	ldr	r2, [r0, #0]
2ffeae04:	b192      	cbz	r2, 2ffeae2c <mmc_init+0x38>
2ffeae06:	6844      	ldr	r4, [r0, #4]
2ffeae08:	b184      	cbz	r4, 2ffeae2c <mmc_init+0x38>
2ffeae0a:	6884      	ldr	r4, [r0, #8]
2ffeae0c:	b174      	cbz	r4, 2ffeae2c <mmc_init+0x38>
2ffeae0e:	68c4      	ldr	r4, [r0, #12]
2ffeae10:	b164      	cbz	r4, 2ffeae2c <mmc_init+0x38>
2ffeae12:	6904      	ldr	r4, [r0, #16]
2ffeae14:	b154      	cbz	r4, 2ffeae2c <mmc_init+0x38>
2ffeae16:	6944      	ldr	r4, [r0, #20]
2ffeae18:	b144      	cbz	r4, 2ffeae2c <mmc_init+0x38>
2ffeae1a:	b139      	cbz	r1, 2ffeae2c <mmc_init+0x38>
2ffeae1c:	f1b9 0f00 	cmp.w	r9, #0
2ffeae20:	d004      	beq.n	2ffeae2c <mmc_init+0x38>
2ffeae22:	2e02      	cmp	r6, #2
2ffeae24:	d907      	bls.n	2ffeae36 <mmc_init+0x42>
2ffeae26:	1f74      	subs	r4, r6, #5
2ffeae28:	2c01      	cmp	r4, #1
2ffeae2a:	d904      	bls.n	2ffeae36 <mmc_init+0x42>
2ffeae2c:	f44f 7151 	mov.w	r1, #836	@ 0x344
2ffeae30:	487d      	ldr	r0, [pc, #500]	@ (2ffeb028 <mmc_init+0x234>)
2ffeae32:	f008 fc7b 	bl	2fff372c <__assert>
2ffeae36:	4f7d      	ldr	r7, [pc, #500]	@ (2ffeb02c <mmc_init+0x238>)
2ffeae38:	4d7d      	ldr	r5, [pc, #500]	@ (2ffeb030 <mmc_init+0x23c>)
2ffeae3a:	6038      	str	r0, [r7, #0]
2ffeae3c:	487d      	ldr	r0, [pc, #500]	@ (2ffeb034 <mmc_init+0x240>)
2ffeae3e:	6029      	str	r1, [r5, #0]
2ffeae40:	6003      	str	r3, [r0, #0]
2ffeae42:	4790      	blx	r2
2ffeae44:	f008 ff0a 	bl	2fff3c5c <mmc_reset_to_idle>
2ffeae48:	4604      	mov	r4, r0
2ffeae4a:	2800      	cmp	r0, #0
2ffeae4c:	f040 809c 	bne.w	2ffeaf88 <mmc_init+0x194>
2ffeae50:	682b      	ldr	r3, [r5, #0]
2ffeae52:	695b      	ldr	r3, [r3, #20]
2ffeae54:	2b00      	cmp	r3, #0
2ffeae56:	f040 809b 	bne.w	2ffeaf90 <mmc_init+0x19c>
2ffeae5a:	f008 feff 	bl	2fff3c5c <mmc_reset_to_idle>
2ffeae5e:	4604      	mov	r4, r0
2ffeae60:	2800      	cmp	r0, #0
2ffeae62:	f040 8091 	bne.w	2ffeaf88 <mmc_init+0x194>
2ffeae66:	f8df a1d0 	ldr.w	sl, [pc, #464]	@ 2ffeb038 <mmc_init+0x244>
2ffeae6a:	f04f 0864 	mov.w	r8, #100	@ 0x64
2ffeae6e:	2201      	movs	r2, #1
2ffeae70:	ab04      	add	r3, sp, #16
2ffeae72:	4651      	mov	r1, sl
2ffeae74:	4610      	mov	r0, r2
2ffeae76:	f7ff feeb 	bl	2ffeac50 <mmc_send_cmd>
2ffeae7a:	4604      	mov	r4, r0
2ffeae7c:	2800      	cmp	r0, #0
2ffeae7e:	f040 8083 	bne.w	2ffeaf88 <mmc_init+0x194>
2ffeae82:	9b04      	ldr	r3, [sp, #16]
2ffeae84:	2b00      	cmp	r3, #0
2ffeae86:	da72      	bge.n	2ffeaf6e <mmc_init+0x17a>
2ffeae88:	4a6c      	ldr	r2, [pc, #432]	@ (2ffeb03c <mmc_init+0x248>)
2ffeae8a:	6013      	str	r3, [r2, #0]
2ffeae8c:	2300      	movs	r3, #0
2ffeae8e:	2207      	movs	r2, #7
2ffeae90:	4619      	mov	r1, r3
2ffeae92:	2002      	movs	r0, #2
2ffeae94:	f7ff fedc 	bl	2ffeac50 <mmc_send_cmd>
2ffeae98:	4604      	mov	r4, r0
2ffeae9a:	2800      	cmp	r0, #0
2ffeae9c:	d174      	bne.n	2ffeaf88 <mmc_init+0x194>
2ffeae9e:	682b      	ldr	r3, [r5, #0]
2ffeaea0:	695b      	ldr	r3, [r3, #20]
2ffeaea2:	2b00      	cmp	r3, #0
2ffeaea4:	f040 80b0 	bne.w	2ffeb008 <mmc_init+0x214>
2ffeaea8:	4b65      	ldr	r3, [pc, #404]	@ (2ffeb040 <mmc_init+0x24c>)
2ffeaeaa:	2206      	movs	r2, #6
2ffeaeac:	f44f 21c0 	mov.w	r1, #393216	@ 0x60000
2ffeaeb0:	601a      	str	r2, [r3, #0]
2ffeaeb2:	4603      	mov	r3, r0
2ffeaeb4:	220d      	movs	r2, #13
2ffeaeb6:	2003      	movs	r0, #3
2ffeaeb8:	f7ff feca 	bl	2ffeac50 <mmc_send_cmd>
2ffeaebc:	4604      	mov	r4, r0
2ffeaebe:	2800      	cmp	r0, #0
2ffeaec0:	d162      	bne.n	2ffeaf88 <mmc_init+0x194>
2ffeaec2:	f8df b17c 	ldr.w	fp, [pc, #380]	@ 2ffeb040 <mmc_init+0x24c>
2ffeaec6:	466b      	mov	r3, sp
2ffeaec8:	2207      	movs	r2, #7
2ffeaeca:	2009      	movs	r0, #9
2ffeaecc:	f8db 1000 	ldr.w	r1, [fp]
2ffeaed0:	0409      	lsls	r1, r1, #16
2ffeaed2:	f7ff febd 	bl	2ffeac50 <mmc_send_cmd>
2ffeaed6:	4604      	mov	r4, r0
2ffeaed8:	2800      	cmp	r0, #0
2ffeaeda:	d155      	bne.n	2ffeaf88 <mmc_init+0x194>
2ffeaedc:	4859      	ldr	r0, [pc, #356]	@ (2ffeb044 <mmc_init+0x250>)
2ffeaede:	2210      	movs	r2, #16
2ffeaee0:	4669      	mov	r1, sp
2ffeaee2:	f00a faa0 	bl	2fff5426 <memcpy>
2ffeaee6:	f8db 1000 	ldr.w	r1, [fp]
2ffeaeea:	4623      	mov	r3, r4
2ffeaeec:	220d      	movs	r2, #13
2ffeaeee:	2007      	movs	r0, #7
2ffeaef0:	0409      	lsls	r1, r1, #16
2ffeaef2:	f7ff fead 	bl	2ffeac50 <mmc_send_cmd>
2ffeaef6:	4604      	mov	r4, r0
2ffeaef8:	2800      	cmp	r0, #0
2ffeaefa:	d145      	bne.n	2ffeaf88 <mmc_init+0x194>
2ffeaefc:	f7ff fec8 	bl	2ffeac90 <mmc_device_state>
2ffeaf00:	1e04      	subs	r4, r0, #0
2ffeaf02:	db41      	blt.n	2ffeaf88 <mmc_init+0x194>
2ffeaf04:	2c04      	cmp	r4, #4
2ffeaf06:	d1f9      	bne.n	2ffeaefc <mmc_init+0x108>
2ffeaf08:	682b      	ldr	r3, [r5, #0]
2ffeaf0a:	695b      	ldr	r3, [r3, #20]
2ffeaf0c:	2b00      	cmp	r3, #0
2ffeaf0e:	f000 8122 	beq.w	2ffeb156 <mmc_init+0x362>
2ffeaf12:	2e02      	cmp	r6, #2
2ffeaf14:	f040 8086 	bne.w	2ffeb024 <mmc_init+0x230>
2ffeaf18:	484b      	ldr	r0, [pc, #300]	@ (2ffeb048 <mmc_init+0x254>)
2ffeaf1a:	f04f 0a01 	mov.w	sl, #1
2ffeaf1e:	f002 fc7b 	bl	2ffed818 <tf_log>
2ffeaf22:	683b      	ldr	r3, [r7, #0]
2ffeaf24:	2208      	movs	r2, #8
2ffeaf26:	4949      	ldr	r1, [pc, #292]	@ (2ffeb04c <mmc_init+0x258>)
2ffeaf28:	2000      	movs	r0, #0
2ffeaf2a:	68db      	ldr	r3, [r3, #12]
2ffeaf2c:	4798      	blx	r3
2ffeaf2e:	4604      	mov	r4, r0
2ffeaf30:	bb50      	cbnz	r0, 2ffeaf88 <mmc_init+0x194>
2ffeaf32:	f8db 1000 	ldr.w	r1, [fp]
2ffeaf36:	4603      	mov	r3, r0
2ffeaf38:	220d      	movs	r2, #13
2ffeaf3a:	2037      	movs	r0, #55	@ 0x37
2ffeaf3c:	0409      	lsls	r1, r1, #16
2ffeaf3e:	f7ff fe87 	bl	2ffeac50 <mmc_send_cmd>
2ffeaf42:	4604      	mov	r4, r0
2ffeaf44:	bb00      	cbnz	r0, 2ffeaf88 <mmc_init+0x194>
2ffeaf46:	f04f 0806 	mov.w	r8, #6
2ffeaf4a:	2300      	movs	r3, #0
2ffeaf4c:	220d      	movs	r2, #13
2ffeaf4e:	4619      	mov	r1, r3
2ffeaf50:	2033      	movs	r0, #51	@ 0x33
2ffeaf52:	f7ff fe7d 	bl	2ffeac50 <mmc_send_cmd>
2ffeaf56:	4604      	mov	r4, r0
2ffeaf58:	2800      	cmp	r0, #0
2ffeaf5a:	d07f      	beq.n	2ffeb05c <mmc_init+0x268>
2ffeaf5c:	f1b8 0801 	subs.w	r8, r8, #1
2ffeaf60:	d1f3      	bne.n	2ffeaf4a <mmc_init+0x156>
2ffeaf62:	4602      	mov	r2, r0
2ffeaf64:	2105      	movs	r1, #5
2ffeaf66:	483a      	ldr	r0, [pc, #232]	@ (2ffeb050 <mmc_init+0x25c>)
2ffeaf68:	f002 fc56 	bl	2ffed818 <tf_log>
2ffeaf6c:	e00c      	b.n	2ffeaf88 <mmc_init+0x194>
2ffeaf6e:	200a      	movs	r0, #10
2ffeaf70:	f009 fa40 	bl	2fff43f4 <mdelay>
2ffeaf74:	f1b8 0801 	subs.w	r8, r8, #1
2ffeaf78:	f47f af79 	bne.w	2ffeae6e <mmc_init+0x7a>
2ffeaf7c:	4835      	ldr	r0, [pc, #212]	@ (2ffeb054 <mmc_init+0x260>)
2ffeaf7e:	2164      	movs	r1, #100	@ 0x64
2ffeaf80:	f06f 0404 	mvn.w	r4, #4
2ffeaf84:	f002 fc48 	bl	2ffed818 <tf_log>
2ffeaf88:	4620      	mov	r0, r4
2ffeaf8a:	b009      	add	sp, #36	@ 0x24
2ffeaf8c:	e8bd 8ff0 	ldmia.w	sp!, {r4, r5, r6, r7, r8, r9, sl, fp, pc}
2ffeaf90:	466b      	mov	r3, sp
2ffeaf92:	220d      	movs	r2, #13
2ffeaf94:	f44f 71d5 	mov.w	r1, #426	@ 0x1aa
2ffeaf98:	2008      	movs	r0, #8
2ffeaf9a:	f7ff fe59 	bl	2ffeac50 <mmc_send_cmd>
2ffeaf9e:	4604      	mov	r4, r0
2ffeafa0:	2800      	cmp	r0, #0
2ffeafa2:	d1f1      	bne.n	2ffeaf88 <mmc_init+0x194>
2ffeafa4:	f89d 3000 	ldrb.w	r3, [sp]
2ffeafa8:	2baa      	cmp	r3, #170	@ 0xaa
2ffeafaa:	f47f af6f 	bne.w	2ffeae8c <mmc_init+0x98>
2ffeafae:	f04f 0864 	mov.w	r8, #100	@ 0x64
2ffeafb2:	2300      	movs	r3, #0
2ffeafb4:	220d      	movs	r2, #13
2ffeafb6:	4619      	mov	r1, r3
2ffeafb8:	2037      	movs	r0, #55	@ 0x37
2ffeafba:	f7ff fe49 	bl	2ffeac50 <mmc_send_cmd>
2ffeafbe:	4604      	mov	r4, r0
2ffeafc0:	2800      	cmp	r0, #0
2ffeafc2:	d1e1      	bne.n	2ffeaf88 <mmc_init+0x194>
2ffeafc4:	682b      	ldr	r3, [r5, #0]
2ffeafc6:	2201      	movs	r2, #1
2ffeafc8:	2029      	movs	r0, #41	@ 0x29
2ffeafca:	6919      	ldr	r1, [r3, #16]
2ffeafcc:	ab04      	add	r3, sp, #16
2ffeafce:	f041 4180 	orr.w	r1, r1, #1073741824	@ 0x40000000
2ffeafd2:	f7ff fe3d 	bl	2ffeac50 <mmc_send_cmd>
2ffeafd6:	4604      	mov	r4, r0
2ffeafd8:	2800      	cmp	r0, #0
2ffeafda:	d1d5      	bne.n	2ffeaf88 <mmc_init+0x194>
2ffeafdc:	9b04      	ldr	r3, [sp, #16]
2ffeafde:	2b00      	cmp	r3, #0
2ffeafe0:	da09      	bge.n	2ffeaff6 <mmc_init+0x202>
2ffeafe2:	4a16      	ldr	r2, [pc, #88]	@ (2ffeb03c <mmc_init+0x248>)
2ffeafe4:	005c      	lsls	r4, r3, #1
2ffeafe6:	6013      	str	r3, [r2, #0]
2ffeafe8:	bf48      	it	mi
2ffeafea:	2302      	movmi	r3, #2
2ffeafec:	682a      	ldr	r2, [r5, #0]
2ffeafee:	bf58      	it	pl
2ffeaff0:	2301      	movpl	r3, #1
2ffeaff2:	6153      	str	r3, [r2, #20]
2ffeaff4:	e74a      	b.n	2ffeae8c <mmc_init+0x98>
2ffeaff6:	200a      	movs	r0, #10
2ffeaff8:	f009 f9fc 	bl	2fff43f4 <mdelay>
2ffeaffc:	f1b8 0801 	subs.w	r8, r8, #1
2ffeb000:	d1d7      	bne.n	2ffeafb2 <mmc_init+0x1be>
2ffeb002:	4815      	ldr	r0, [pc, #84]	@ (2ffeb058 <mmc_init+0x264>)
2ffeb004:	2164      	movs	r1, #100	@ 0x64
2ffeb006:	e7bb      	b.n	2ffeaf80 <mmc_init+0x18c>
2ffeb008:	4601      	mov	r1, r0
2ffeb00a:	466b      	mov	r3, sp
2ffeb00c:	220d      	movs	r2, #13
2ffeb00e:	2003      	movs	r0, #3
2ffeb010:	f7ff fe1e 	bl	2ffeac50 <mmc_send_cmd>
2ffeb014:	4604      	mov	r4, r0
2ffeb016:	2800      	cmp	r0, #0
2ffeb018:	d1b6      	bne.n	2ffeaf88 <mmc_init+0x194>
2ffeb01a:	f8bd 2002 	ldrh.w	r2, [sp, #2]
2ffeb01e:	4b08      	ldr	r3, [pc, #32]	@ (2ffeb040 <mmc_init+0x24c>)
2ffeb020:	601a      	str	r2, [r3, #0]
2ffeb022:	e74e      	b.n	2ffeaec2 <mmc_init+0xce>
2ffeb024:	46b2      	mov	sl, r6
2ffeb026:	e77c      	b.n	2ffeaf22 <mmc_init+0x12e>
2ffeb028:	2fff700a 	.word	0x2fff700a
2ffeb02c:	2fffba18 	.word	0x2fffba18
2ffeb030:	2fffb9fc 	.word	0x2fffb9fc
2ffeb034:	2fffba00 	.word	0x2fffba00
2ffeb038:	40ff8080 	.word	0x40ff8080
2ffeb03c:	2fffba14 	.word	0x2fffba14
2ffeb040:	2fffb9f8 	.word	0x2fffb9f8
2ffeb044:	2fffba04 	.word	0x2fffba04
2ffeb048:	2fff705c 	.word	0x2fff705c
2ffeb04c:	2fffb400 	.word	0x2fffb400
2ffeb050:	2fff7087 	.word	0x2fff7087
2ffeb054:	2fff701c 	.word	0x2fff701c
2ffeb058:	2fff703b 	.word	0x2fff703b
2ffeb05c:	683b      	ldr	r3, [r7, #0]
2ffeb05e:	2208      	movs	r2, #8
2ffeb060:	498f      	ldr	r1, [pc, #572]	@ (2ffeb2a0 <mmc_init+0x4ac>)
2ffeb062:	691b      	ldr	r3, [r3, #16]
2ffeb064:	4798      	blx	r3
2ffeb066:	4604      	mov	r4, r0
2ffeb068:	2800      	cmp	r0, #0
2ffeb06a:	d18d      	bne.n	2ffeaf88 <mmc_init+0x194>
2ffeb06c:	4b8c      	ldr	r3, [pc, #560]	@ (2ffeb2a0 <mmc_init+0x4ac>)
2ffeb06e:	681b      	ldr	r3, [r3, #0]
2ffeb070:	f413 6880 	ands.w	r8, r3, #1024	@ 0x400
2ffeb074:	d007      	beq.n	2ffeb086 <mmc_init+0x292>
2ffeb076:	f10a 30ff 	add.w	r0, sl, #4294967295	@ 0xffffffff
2ffeb07a:	f1d0 0800 	rsbs	r8, r0, #0
2ffeb07e:	eb48 0800 	adc.w	r8, r8, r0
2ffeb082:	ea4f 0848 	mov.w	r8, r8, lsl #1
2ffeb086:	f8db 1000 	ldr.w	r1, [fp]
2ffeb08a:	2300      	movs	r3, #0
2ffeb08c:	220d      	movs	r2, #13
2ffeb08e:	2037      	movs	r0, #55	@ 0x37
2ffeb090:	0409      	lsls	r1, r1, #16
2ffeb092:	f7ff fddd 	bl	2ffeac50 <mmc_send_cmd>
2ffeb096:	4604      	mov	r4, r0
2ffeb098:	2800      	cmp	r0, #0
2ffeb09a:	f47f af75 	bne.w	2ffeaf88 <mmc_init+0x194>
2ffeb09e:	4603      	mov	r3, r0
2ffeb0a0:	220d      	movs	r2, #13
2ffeb0a2:	4641      	mov	r1, r8
2ffeb0a4:	2006      	movs	r0, #6
2ffeb0a6:	f7ff fdd3 	bl	2ffeac50 <mmc_send_cmd>
2ffeb0aa:	4604      	mov	r4, r0
2ffeb0ac:	2800      	cmp	r0, #0
2ffeb0ae:	f47f af6b 	bne.w	2ffeaf88 <mmc_init+0x194>
2ffeb0b2:	f7ff fded 	bl	2ffeac90 <mmc_device_state>
2ffeb0b6:	1e04      	subs	r4, r0, #0
2ffeb0b8:	f6ff af66 	blt.w	2ffeaf88 <mmc_init+0x194>
2ffeb0bc:	2c07      	cmp	r4, #7
2ffeb0be:	d0f8      	beq.n	2ffeb0b2 <mmc_init+0x2be>
2ffeb0c0:	683b      	ldr	r3, [r7, #0]
2ffeb0c2:	4651      	mov	r1, sl
2ffeb0c4:	4648      	mov	r0, r9
2ffeb0c6:	689b      	ldr	r3, [r3, #8]
2ffeb0c8:	4798      	blx	r3
2ffeb0ca:	4604      	mov	r4, r0
2ffeb0cc:	2800      	cmp	r0, #0
2ffeb0ce:	f47f af5b 	bne.w	2ffeaf88 <mmc_init+0x194>
2ffeb0d2:	6829      	ldr	r1, [r5, #0]
2ffeb0d4:	694b      	ldr	r3, [r1, #20]
2ffeb0d6:	2b01      	cmp	r3, #1
2ffeb0d8:	d059      	beq.n	2ffeb18e <mmc_init+0x39a>
2ffeb0da:	2b02      	cmp	r3, #2
2ffeb0dc:	f000 8087 	beq.w	2ffeb1ee <mmc_init+0x3fa>
2ffeb0e0:	2b00      	cmp	r3, #0
2ffeb0e2:	f040 80d8 	bne.w	2ffeb296 <mmc_init+0x4a2>
2ffeb0e6:	683b      	ldr	r3, [r7, #0]
2ffeb0e8:	f44f 7800 	mov.w	r8, #512	@ 0x200
2ffeb0ec:	f8c1 8008 	str.w	r8, [r1, #8]
2ffeb0f0:	4642      	mov	r2, r8
2ffeb0f2:	68db      	ldr	r3, [r3, #12]
2ffeb0f4:	496b      	ldr	r1, [pc, #428]	@ (2ffeb2a4 <mmc_init+0x4b0>)
2ffeb0f6:	f8df a1ac 	ldr.w	sl, [pc, #428]	@ 2ffeb2a4 <mmc_init+0x4b0>
2ffeb0fa:	4798      	blx	r3
2ffeb0fc:	2800      	cmp	r0, #0
2ffeb0fe:	f040 80c1 	bne.w	2ffeb284 <mmc_init+0x490>
2ffeb102:	4623      	mov	r3, r4
2ffeb104:	220d      	movs	r2, #13
2ffeb106:	4621      	mov	r1, r4
2ffeb108:	2008      	movs	r0, #8
2ffeb10a:	f7ff fda1 	bl	2ffeac50 <mmc_send_cmd>
2ffeb10e:	2800      	cmp	r0, #0
2ffeb110:	f040 80c4 	bne.w	2ffeb29c <mmc_init+0x4a8>
2ffeb114:	683b      	ldr	r3, [r7, #0]
2ffeb116:	4642      	mov	r2, r8
2ffeb118:	4651      	mov	r1, sl
2ffeb11a:	691b      	ldr	r3, [r3, #16]
2ffeb11c:	4798      	blx	r3
2ffeb11e:	2800      	cmp	r0, #0
2ffeb120:	f040 80b0 	bne.w	2ffeb284 <mmc_init+0x490>
2ffeb124:	f7ff fdb4 	bl	2ffeac90 <mmc_device_state>
2ffeb128:	2800      	cmp	r0, #0
2ffeb12a:	f2c0 80ab 	blt.w	2ffeb284 <mmc_init+0x490>
2ffeb12e:	2804      	cmp	r0, #4
2ffeb130:	d1f8      	bne.n	2ffeb124 <mmc_init+0x330>
2ffeb132:	6829      	ldr	r1, [r5, #0]
2ffeb134:	f8da 20d4 	ldr.w	r2, [sl, #212]	@ 0xd4
2ffeb138:	688b      	ldr	r3, [r1, #8]
2ffeb13a:	fba2 2303 	umull	r2, r3, r2, r3
2ffeb13e:	e9c1 2300 	strd	r2, r3, [r1]
2ffeb142:	4b59      	ldr	r3, [pc, #356]	@ (2ffeb2a8 <mmc_init+0x4b4>)
2ffeb144:	7b18      	ldrb	r0, [r3, #12]
2ffeb146:	f3c0 03c3 	ubfx	r3, r0, #3, #4
2ffeb14a:	f010 0f78 	tst.w	r0, #120	@ 0x78
2ffeb14e:	d164      	bne.n	2ffeb21a <mmc_init+0x426>
2ffeb150:	f240 115b 	movw	r1, #347	@ 0x15b
2ffeb154:	e66c      	b.n	2ffeae30 <mmc_init+0x3c>
2ffeb156:	4a54      	ldr	r2, [pc, #336]	@ (2ffeb2a8 <mmc_init+0x4b4>)
2ffeb158:	7bd2      	ldrb	r2, [r2, #15]
2ffeb15a:	f002 023c 	and.w	r2, r2, #60	@ 0x3c
2ffeb15e:	2a10      	cmp	r2, #16
2ffeb160:	d001      	beq.n	2ffeb166 <mmc_init+0x372>
2ffeb162:	46b2      	mov	sl, r6
2ffeb164:	e7ac      	b.n	2ffeb0c0 <mmc_init+0x2cc>
2ffeb166:	0230      	lsls	r0, r6, #8
2ffeb168:	221d      	movs	r2, #29
2ffeb16a:	4950      	ldr	r1, [pc, #320]	@ (2ffeb2ac <mmc_init+0x4b8>)
2ffeb16c:	b280      	uxth	r0, r0
2ffeb16e:	4301      	orrs	r1, r0
2ffeb170:	2006      	movs	r0, #6
2ffeb172:	f7ff fd6d 	bl	2ffeac50 <mmc_send_cmd>
2ffeb176:	4604      	mov	r4, r0
2ffeb178:	2800      	cmp	r0, #0
2ffeb17a:	f47f af05 	bne.w	2ffeaf88 <mmc_init+0x194>
2ffeb17e:	f7ff fd87 	bl	2ffeac90 <mmc_device_state>
2ffeb182:	1e04      	subs	r4, r0, #0
2ffeb184:	f6ff af00 	blt.w	2ffeaf88 <mmc_init+0x194>
2ffeb188:	2c07      	cmp	r4, #7
2ffeb18a:	d0f8      	beq.n	2ffeb17e <mmc_init+0x38a>
2ffeb18c:	e7e9      	b.n	2ffeb162 <mmc_init+0x36e>
2ffeb18e:	4a46      	ldr	r2, [pc, #280]	@ (2ffeb2a8 <mmc_init+0x4b4>)
2ffeb190:	7a90      	ldrb	r0, [r2, #10]
2ffeb192:	f8b2 c008 	ldrh.w	ip, [r2, #8]
2ffeb196:	f000 000f 	and.w	r0, r0, #15
2ffeb19a:	f3cc 0c09 	ubfx	ip, ip, #0, #10
2ffeb19e:	fa03 f000 	lsl.w	r0, r3, r0
2ffeb1a2:	79d3      	ldrb	r3, [r2, #7]
2ffeb1a4:	6088      	str	r0, [r1, #8]
2ffeb1a6:	099b      	lsrs	r3, r3, #6
2ffeb1a8:	ea43 038c 	orr.w	r3, r3, ip, lsl #2
2ffeb1ac:	f6a3 7cff 	subw	ip, r3, #4095	@ 0xfff
2ffeb1b0:	f1bc 0f00 	cmp.w	ip, #0
2ffeb1b4:	d102      	bne.n	2ffeb1bc <mmc_init+0x3c8>
2ffeb1b6:	f240 1139 	movw	r1, #313	@ 0x139
2ffeb1ba:	e639      	b.n	2ffeae30 <mmc_init+0x3c>
2ffeb1bc:	6852      	ldr	r2, [r2, #4]
2ffeb1be:	3301      	adds	r3, #1
2ffeb1c0:	f3c2 32c2 	ubfx	r2, r2, #15, #3
2ffeb1c4:	f102 0e02 	add.w	lr, r2, #2
2ffeb1c8:	f1a2 0c1e 	sub.w	ip, r2, #30
2ffeb1cc:	f1c2 021e 	rsb	r2, r2, #30
2ffeb1d0:	fa03 fc0c 	lsl.w	ip, r3, ip
2ffeb1d4:	fa23 f202 	lsr.w	r2, r3, r2
2ffeb1d8:	fa03 f30e 	lsl.w	r3, r3, lr
2ffeb1dc:	ea4c 0c02 	orr.w	ip, ip, r2
2ffeb1e0:	fba3 3200 	umull	r3, r2, r3, r0
2ffeb1e4:	fb00 220c 	mla	r2, r0, ip, r2
2ffeb1e8:	e9c1 3200 	strd	r3, r2, [r1]
2ffeb1ec:	e7a9      	b.n	2ffeb142 <mmc_init+0x34e>
2ffeb1ee:	4b2e      	ldr	r3, [pc, #184]	@ (2ffeb2a8 <mmc_init+0x4b4>)
2ffeb1f0:	7bda      	ldrb	r2, [r3, #15]
2ffeb1f2:	f002 02c0 	and.w	r2, r2, #192	@ 0xc0
2ffeb1f6:	2a40      	cmp	r2, #64	@ 0x40
2ffeb1f8:	d002      	beq.n	2ffeb200 <mmc_init+0x40c>
2ffeb1fa:	f44f 71a1 	mov.w	r1, #322	@ 0x142
2ffeb1fe:	e617      	b.n	2ffeae30 <mmc_init+0x3c>
2ffeb200:	f44f 7200 	mov.w	r2, #512	@ 0x200
2ffeb204:	608a      	str	r2, [r1, #8]
2ffeb206:	7a1a      	ldrb	r2, [r3, #8]
2ffeb208:	88db      	ldrh	r3, [r3, #6]
2ffeb20a:	f002 023f 	and.w	r2, r2, #63	@ 0x3f
2ffeb20e:	ea43 4302 	orr.w	r3, r3, r2, lsl #16
2ffeb212:	3301      	adds	r3, #1
2ffeb214:	0b5a      	lsrs	r2, r3, #13
2ffeb216:	04db      	lsls	r3, r3, #19
2ffeb218:	e7e6      	b.n	2ffeb1e8 <mmc_init+0x3f4>
2ffeb21a:	6829      	ldr	r1, [r5, #0]
2ffeb21c:	694a      	ldr	r2, [r1, #20]
2ffeb21e:	bb9a      	cbnz	r2, 2ffeb288 <mmc_init+0x494>
2ffeb220:	f8df c08c 	ldr.w	ip, [pc, #140]	@ 2ffeb2b0 <mmc_init+0x4bc>
2ffeb224:	f81c 3003 	ldrb.w	r3, [ip, r3]
2ffeb228:	f000 0007 	and.w	r0, r0, #7
2ffeb22c:	f04f 0c0a 	mov.w	ip, #10
2ffeb230:	bb68      	cbnz	r0, 2ffeb28e <mmc_init+0x49a>
2ffeb232:	f242 7c10 	movw	ip, #10000	@ 0x2710
2ffeb236:	fb0c f303 	mul.w	r3, ip, r3
2ffeb23a:	60cb      	str	r3, [r1, #12]
2ffeb23c:	4b1d      	ldr	r3, [pc, #116]	@ (2ffeb2b4 <mmc_init+0x4c0>)
2ffeb23e:	681b      	ldr	r3, [r3, #0]
2ffeb240:	0799      	lsls	r1, r3, #30
2ffeb242:	f57f aea1 	bpl.w	2ffeaf88 <mmc_init+0x194>
2ffeb246:	2a02      	cmp	r2, #2
2ffeb248:	f47f ae9e 	bne.w	2ffeaf88 <mmc_init+0x194>
2ffeb24c:	f7ff fd44 	bl	2ffeacd8 <sd_switch.constprop.0>
2ffeb250:	b9c0      	cbnz	r0, 2ffeb284 <mmc_init+0x490>
2ffeb252:	f8df 8064 	ldr.w	r8, [pc, #100]	@ 2ffeb2b8 <mmc_init+0x4c4>
2ffeb256:	f8b8 300c 	ldrh.w	r3, [r8, #12]
2ffeb25a:	059a      	lsls	r2, r3, #22
2ffeb25c:	f57f ae94 	bpl.w	2ffeaf88 <mmc_init+0x194>
2ffeb260:	f04f 4000 	mov.w	r0, #2147483648	@ 0x80000000
2ffeb264:	f7ff fd38 	bl	2ffeacd8 <sd_switch.constprop.0>
2ffeb268:	b960      	cbnz	r0, 2ffeb284 <mmc_init+0x490>
2ffeb26a:	f898 3010 	ldrb.w	r3, [r8, #16]
2ffeb26e:	07db      	lsls	r3, r3, #31
2ffeb270:	f57f ae8a 	bpl.w	2ffeaf88 <mmc_init+0x194>
2ffeb274:	682b      	ldr	r3, [r5, #0]
2ffeb276:	4631      	mov	r1, r6
2ffeb278:	4a10      	ldr	r2, [pc, #64]	@ (2ffeb2bc <mmc_init+0x4c8>)
2ffeb27a:	4648      	mov	r0, r9
2ffeb27c:	60da      	str	r2, [r3, #12]
2ffeb27e:	683b      	ldr	r3, [r7, #0]
2ffeb280:	689b      	ldr	r3, [r3, #8]
2ffeb282:	4798      	blx	r3
2ffeb284:	4604      	mov	r4, r0
2ffeb286:	e67f      	b.n	2ffeaf88 <mmc_init+0x194>
2ffeb288:	f8df c034 	ldr.w	ip, [pc, #52]	@ 2ffeb2c0 <mmc_init+0x4cc>
2ffeb28c:	e7ca      	b.n	2ffeb224 <mmc_init+0x430>
2ffeb28e:	fb0c f303 	mul.w	r3, ip, r3
2ffeb292:	3801      	subs	r0, #1
2ffeb294:	e7cc      	b.n	2ffeb230 <mmc_init+0x43c>
2ffeb296:	f06f 0415 	mvn.w	r4, #21
2ffeb29a:	e675      	b.n	2ffeaf88 <mmc_init+0x194>
2ffeb29c:	4604      	mov	r4, r0
2ffeb29e:	e673      	b.n	2ffeaf88 <mmc_init+0x194>
2ffeb2a0:	2fffb400 	.word	0x2fffb400
2ffeb2a4:	2fffb410 	.word	0x2fffb410
2ffeb2a8:	2fffba04 	.word	0x2fffba04
2ffeb2ac:	03b70001 	.word	0x03b70001
2ffeb2b0:	2fff70c1 	.word	0x2fff70c1
2ffeb2b4:	2fffba00 	.word	0x2fffba00
2ffeb2b8:	2fffc0c0 	.word	0x2fffc0c0
2ffeb2bc:	02faf080 	.word	0x02faf080
2ffeb2c0:	2fff70b1 	.word	0x2fff70b1

2ffeb2c4 <parse_gpt_entry>:
2ffeb2c4:	b570      	push	{r4, r5, r6, lr}
2ffeb2c6:	460d      	mov	r5, r1
2ffeb2c8:	4604      	mov	r4, r0
2ffeb2ca:	b100      	cbz	r0, 2ffeb2ce <parse_gpt_entry+0xa>
2ffeb2cc:	b919      	cbnz	r1, 2ffeb2d6 <parse_gpt_entry+0x12>
2ffeb2ce:	212f      	movs	r1, #47	@ 0x2f
2ffeb2d0:	4827      	ldr	r0, [pc, #156]	@ (2ffeb370 <parse_gpt_entry+0xac>)
2ffeb2d2:	f008 fa2b 	bl	2fff372c <__assert>
2ffeb2d6:	e9d0 3208 	ldrd	r3, r2, [r0, #32]
2ffeb2da:	4313      	orrs	r3, r2
2ffeb2dc:	d008      	beq.n	2ffeb2f0 <parse_gpt_entry+0x2c>
2ffeb2de:	2158      	movs	r1, #88	@ 0x58
2ffeb2e0:	4628      	mov	r0, r5
2ffeb2e2:	f7fe e97c 	blx	2ffe95dc <zero_normalmem>
2ffeb2e6:	f894 3038 	ldrb.w	r3, [r4, #56]	@ 0x38
2ffeb2ea:	b943      	cbnz	r3, 2ffeb2fe <parse_gpt_entry+0x3a>
2ffeb2ec:	2119      	movs	r1, #25
2ffeb2ee:	e7ef      	b.n	2ffeb2d0 <parse_gpt_entry+0xc>
2ffeb2f0:	e9d0 320a 	ldrd	r3, r2, [r0, #40]	@ 0x28
2ffeb2f4:	4313      	orrs	r3, r2
2ffeb2f6:	d1f2      	bne.n	2ffeb2de <parse_gpt_entry+0x1a>
2ffeb2f8:	f06f 0015 	mvn.w	r0, #21
2ffeb2fc:	bd70      	pop	{r4, r5, r6, pc}
2ffeb2fe:	4622      	mov	r2, r4
2ffeb300:	f104 0148 	add.w	r1, r4, #72	@ 0x48
2ffeb304:	f892 3039 	ldrb.w	r3, [r2, #57]	@ 0x39
2ffeb308:	2b00      	cmp	r3, #0
2ffeb30a:	d1f5      	bne.n	2ffeb2f8 <parse_gpt_entry+0x34>
2ffeb30c:	3202      	adds	r2, #2
2ffeb30e:	4291      	cmp	r1, r2
2ffeb310:	d1f8      	bne.n	2ffeb304 <parse_gpt_entry+0x40>
2ffeb312:	f105 0110 	add.w	r1, r5, #16
2ffeb316:	f104 0038 	add.w	r0, r4, #56	@ 0x38
2ffeb31a:	5cc2      	ldrb	r2, [r0, r3]
2ffeb31c:	105e      	asrs	r6, r3, #1
2ffeb31e:	558a      	strb	r2, [r1, r6]
2ffeb320:	b112      	cbz	r2, 2ffeb328 <parse_gpt_entry+0x64>
2ffeb322:	3302      	adds	r3, #2
2ffeb324:	2b48      	cmp	r3, #72	@ 0x48
2ffeb326:	d1f8      	bne.n	2ffeb31a <parse_gpt_entry+0x56>
2ffeb328:	e9d4 1008 	ldrd	r1, r0, [r4, #32]
2ffeb32c:	0243      	lsls	r3, r0, #9
2ffeb32e:	ea43 53d1 	orr.w	r3, r3, r1, lsr #23
2ffeb332:	024a      	lsls	r2, r1, #9
2ffeb334:	e9c5 2300 	strd	r2, r3, [r5]
2ffeb338:	e9d4 320a 	ldrd	r3, r2, [r4, #40]	@ 0x28
2ffeb33c:	3301      	adds	r3, #1
2ffeb33e:	f142 0200 	adc.w	r2, r2, #0
2ffeb342:	1a5b      	subs	r3, r3, r1
2ffeb344:	eb62 0200 	sbc.w	r2, r2, r0
2ffeb348:	f105 0034 	add.w	r0, r5, #52	@ 0x34
2ffeb34c:	0252      	lsls	r2, r2, #9
2ffeb34e:	ea42 52d3 	orr.w	r2, r2, r3, lsr #23
2ffeb352:	025b      	lsls	r3, r3, #9
2ffeb354:	e9c5 3202 	strd	r3, r2, [r5, #8]
2ffeb358:	2210      	movs	r2, #16
2ffeb35a:	18a1      	adds	r1, r4, r2
2ffeb35c:	f00a f863 	bl	2fff5426 <memcpy>
2ffeb360:	2210      	movs	r2, #16
2ffeb362:	4621      	mov	r1, r4
2ffeb364:	f105 0044 	add.w	r0, r5, #68	@ 0x44
2ffeb368:	f00a f85d 	bl	2fff5426 <memcpy>
2ffeb36c:	2000      	movs	r0, #0
2ffeb36e:	e7c5      	b.n	2ffeb2fc <parse_gpt_entry+0x38>
2ffeb370:	2fff70d1 	.word	0x2fff70d1

2ffeb374 <load_partition_table>:
2ffeb374:	e92d 4ff0 	stmdb	sp!, {r4, r5, r6, r7, r8, r9, sl, fp, lr}
2ffeb378:	b0a9      	sub	sp, #164	@ 0xa4
2ffeb37a:	2300      	movs	r3, #0
2ffeb37c:	aa02      	add	r2, sp, #8
2ffeb37e:	9302      	str	r3, [sp, #8]
2ffeb380:	4669      	mov	r1, sp
2ffeb382:	4605      	mov	r5, r0
2ffeb384:	f001 fba4 	bl	2ffecad0 <plat_get_image_source>
2ffeb388:	4604      	mov	r4, r0
2ffeb38a:	b140      	cbz	r0, 2ffeb39e <load_partition_table+0x2a>
2ffeb38c:	4602      	mov	r2, r0
2ffeb38e:	4629      	mov	r1, r5
2ffeb390:	4874      	ldr	r0, [pc, #464]	@ (2ffeb564 <load_partition_table+0x1f0>)
2ffeb392:	f002 fa41 	bl	2ffed818 <tf_log>
2ffeb396:	4620      	mov	r0, r4
2ffeb398:	b029      	add	sp, #164	@ 0xa4
2ffeb39a:	e8bd 8ff0 	ldmia.w	sp!, {r4, r5, r6, r7, r8, r9, sl, fp, pc}
2ffeb39e:	9902      	ldr	r1, [sp, #8]
2ffeb3a0:	aa01      	add	r2, sp, #4
2ffeb3a2:	9800      	ldr	r0, [sp, #0]
2ffeb3a4:	f7ff fb8e 	bl	2ffeaac4 <io_open>
2ffeb3a8:	4604      	mov	r4, r0
2ffeb3aa:	b118      	cbz	r0, 2ffeb3b4 <load_partition_table+0x40>
2ffeb3ac:	486e      	ldr	r0, [pc, #440]	@ (2ffeb568 <load_partition_table+0x1f4>)
2ffeb3ae:	4622      	mov	r2, r4
2ffeb3b0:	4629      	mov	r1, r5
2ffeb3b2:	e7ee      	b.n	2ffeb392 <load_partition_table+0x1e>
2ffeb3b4:	9f01      	ldr	r7, [sp, #4]
2ffeb3b6:	2200      	movs	r2, #0
2ffeb3b8:	2300      	movs	r3, #0
2ffeb3ba:	2101      	movs	r1, #1
2ffeb3bc:	4638      	mov	r0, r7
2ffeb3be:	f7ff fbcb 	bl	2ffeab58 <io_seek>
2ffeb3c2:	4604      	mov	r4, r0
2ffeb3c4:	b120      	cbz	r0, 2ffeb3d0 <load_partition_table+0x5c>
2ffeb3c6:	4601      	mov	r1, r0
2ffeb3c8:	4868      	ldr	r0, [pc, #416]	@ (2ffeb56c <load_partition_table+0x1f8>)
2ffeb3ca:	f002 fa25 	bl	2ffed818 <tf_log>
2ffeb3ce:	e7ed      	b.n	2ffeb3ac <load_partition_table+0x38>
2ffeb3d0:	4e67      	ldr	r6, [pc, #412]	@ (2ffeb570 <load_partition_table+0x1fc>)
2ffeb3d2:	ab08      	add	r3, sp, #32
2ffeb3d4:	f44f 7200 	mov.w	r2, #512	@ 0x200
2ffeb3d8:	4638      	mov	r0, r7
2ffeb3da:	4631      	mov	r1, r6
2ffeb3dc:	f7ff fbfc 	bl	2ffeabd8 <io_read>
2ffeb3e0:	4604      	mov	r4, r0
2ffeb3e2:	b110      	cbz	r0, 2ffeb3ea <load_partition_table+0x76>
2ffeb3e4:	4601      	mov	r1, r0
2ffeb3e6:	4863      	ldr	r0, [pc, #396]	@ (2ffeb574 <load_partition_table+0x200>)
2ffeb3e8:	e7ef      	b.n	2ffeb3ca <load_partition_table+0x56>
2ffeb3ea:	f896 31fe 	ldrb.w	r3, [r6, #510]	@ 0x1fe
2ffeb3ee:	2b55      	cmp	r3, #85	@ 0x55
2ffeb3f0:	d13b      	bne.n	2ffeb46a <load_partition_table+0xf6>
2ffeb3f2:	f896 31ff 	ldrb.w	r3, [r6, #511]	@ 0x1ff
2ffeb3f6:	2baa      	cmp	r3, #170	@ 0xaa
2ffeb3f8:	d137      	bne.n	2ffeb46a <load_partition_table+0xf6>
2ffeb3fa:	4d5f      	ldr	r5, [pc, #380]	@ (2ffeb578 <load_partition_table+0x204>)
2ffeb3fc:	2210      	movs	r2, #16
2ffeb3fe:	eb0d 0002 	add.w	r0, sp, r2
2ffeb402:	f506 78df 	add.w	r8, r6, #446	@ 0x1be
2ffeb406:	4641      	mov	r1, r8
2ffeb408:	f00a f80d 	bl	2fff5426 <memcpy>
2ffeb40c:	f89d 3014 	ldrb.w	r3, [sp, #20]
2ffeb410:	f8dd 9004 	ldr.w	r9, [sp, #4]
2ffeb414:	2bee      	cmp	r3, #238	@ 0xee
2ffeb416:	d162      	bne.n	2ffeb4de <load_partition_table+0x16a>
2ffeb418:	f44f 7200 	mov.w	r2, #512	@ 0x200
2ffeb41c:	2300      	movs	r3, #0
2ffeb41e:	2101      	movs	r1, #1
2ffeb420:	4648      	mov	r0, r9
2ffeb422:	f7ff fb99 	bl	2ffeab58 <io_seek>
2ffeb426:	b9e0      	cbnz	r0, 2ffeb462 <load_partition_table+0xee>
2ffeb428:	ab03      	add	r3, sp, #12
2ffeb42a:	2260      	movs	r2, #96	@ 0x60
2ffeb42c:	a908      	add	r1, sp, #32
2ffeb42e:	4648      	mov	r0, r9
2ffeb430:	f7ff fbd2 	bl	2ffeabd8 <io_read>
2ffeb434:	b9a8      	cbnz	r0, 2ffeb462 <load_partition_table+0xee>
2ffeb436:	9b03      	ldr	r3, [sp, #12]
2ffeb438:	2b60      	cmp	r3, #96	@ 0x60
2ffeb43a:	d11f      	bne.n	2ffeb47c <load_partition_table+0x108>
2ffeb43c:	494f      	ldr	r1, [pc, #316]	@ (2ffeb57c <load_partition_table+0x208>)
2ffeb43e:	2208      	movs	r2, #8
2ffeb440:	a808      	add	r0, sp, #32
2ffeb442:	f009 ffe2 	bl	2fff540a <memcmp>
2ffeb446:	b960      	cbnz	r0, 2ffeb462 <load_partition_table+0xee>
2ffeb448:	9c0c      	ldr	r4, [sp, #48]	@ 0x30
2ffeb44a:	225c      	movs	r2, #92	@ 0x5c
2ffeb44c:	900c      	str	r0, [sp, #48]	@ 0x30
2ffeb44e:	a908      	add	r1, sp, #32
2ffeb450:	f008 fd0d 	bl	2fff3e6e <tf_crc32>
2ffeb454:	4284      	cmp	r4, r0
2ffeb456:	4602      	mov	r2, r0
2ffeb458:	d00a      	beq.n	2ffeb470 <load_partition_table+0xfc>
2ffeb45a:	4849      	ldr	r0, [pc, #292]	@ (2ffeb580 <load_partition_table+0x20c>)
2ffeb45c:	4621      	mov	r1, r4
2ffeb45e:	f002 f9db 	bl	2ffed818 <tf_log>
2ffeb462:	21f5      	movs	r1, #245	@ 0xf5
2ffeb464:	4847      	ldr	r0, [pc, #284]	@ (2ffeb584 <load_partition_table+0x210>)
2ffeb466:	f008 f961 	bl	2fff372c <__assert>
2ffeb46a:	f06f 0401 	mvn.w	r4, #1
2ffeb46e:	e79d      	b.n	2ffeb3ac <load_partition_table+0x38>
2ffeb470:	9b1c      	ldr	r3, [sp, #112]	@ 0x70
2ffeb472:	2b06      	cmp	r3, #6
2ffeb474:	bfc8      	it	gt
2ffeb476:	2306      	movgt	r3, #6
2ffeb478:	f8c5 3210 	str.w	r3, [r5, #528]	@ 0x210
2ffeb47c:	9801      	ldr	r0, [sp, #4]
2ffeb47e:	f44f 6280 	mov.w	r2, #1024	@ 0x400
2ffeb482:	2300      	movs	r3, #0
2ffeb484:	2101      	movs	r1, #1
2ffeb486:	f7ff fb67 	bl	2ffeab58 <io_seek>
2ffeb48a:	4604      	mov	r4, r0
2ffeb48c:	b108      	cbz	r0, 2ffeb492 <load_partition_table+0x11e>
2ffeb48e:	21f7      	movs	r1, #247	@ 0xf7
2ffeb490:	e7e8      	b.n	2ffeb464 <load_partition_table+0xf0>
2ffeb492:	f8dd 8004 	ldr.w	r8, [sp, #4]
2ffeb496:	4606      	mov	r6, r0
2ffeb498:	4f37      	ldr	r7, [pc, #220]	@ (2ffeb578 <load_partition_table+0x204>)
2ffeb49a:	f8d5 3210 	ldr.w	r3, [r5, #528]	@ 0x210
2ffeb49e:	429e      	cmp	r6, r3
2ffeb4a0:	da11      	bge.n	2ffeb4c6 <load_partition_table+0x152>
2ffeb4a2:	ab03      	add	r3, sp, #12
2ffeb4a4:	2280      	movs	r2, #128	@ 0x80
2ffeb4a6:	a908      	add	r1, sp, #32
2ffeb4a8:	4640      	mov	r0, r8
2ffeb4aa:	f7ff fb95 	bl	2ffeabd8 <io_read>
2ffeb4ae:	9b03      	ldr	r3, [sp, #12]
2ffeb4b0:	2b80      	cmp	r3, #128	@ 0x80
2ffeb4b2:	d100      	bne.n	2ffeb4b6 <load_partition_table+0x142>
2ffeb4b4:	b108      	cbz	r0, 2ffeb4ba <load_partition_table+0x146>
2ffeb4b6:	21c8      	movs	r1, #200	@ 0xc8
2ffeb4b8:	e7d4      	b.n	2ffeb464 <load_partition_table+0xf0>
2ffeb4ba:	4639      	mov	r1, r7
2ffeb4bc:	a808      	add	r0, sp, #32
2ffeb4be:	3758      	adds	r7, #88	@ 0x58
2ffeb4c0:	f7ff ff00 	bl	2ffeb2c4 <parse_gpt_entry>
2ffeb4c4:	b118      	cbz	r0, 2ffeb4ce <load_partition_table+0x15a>
2ffeb4c6:	b926      	cbnz	r6, 2ffeb4d2 <load_partition_table+0x15e>
2ffeb4c8:	f06f 0415 	mvn.w	r4, #21
2ffeb4cc:	e003      	b.n	2ffeb4d6 <load_partition_table+0x162>
2ffeb4ce:	3601      	adds	r6, #1
2ffeb4d0:	e7e3      	b.n	2ffeb49a <load_partition_table+0x126>
2ffeb4d2:	f8c5 6210 	str.w	r6, [r5, #528]	@ 0x210
2ffeb4d6:	9801      	ldr	r0, [sp, #4]
2ffeb4d8:	f7ff fba2 	bl	2ffeac20 <io_close>
2ffeb4dc:	e75b      	b.n	2ffeb396 <load_partition_table+0x22>
2ffeb4de:	f8df b08c 	ldr.w	fp, [pc, #140]	@ 2ffeb56c <load_partition_table+0x1f8>
2ffeb4e2:	462f      	mov	r7, r5
2ffeb4e4:	46a2      	mov	sl, r4
2ffeb4e6:	2304      	movs	r3, #4
2ffeb4e8:	f8c5 3210 	str.w	r3, [r5, #528]	@ 0x210
2ffeb4ec:	f8d5 3210 	ldr.w	r3, [r5, #528]	@ 0x210
2ffeb4f0:	459a      	cmp	sl, r3
2ffeb4f2:	daf0      	bge.n	2ffeb4d6 <load_partition_table+0x162>
2ffeb4f4:	2101      	movs	r1, #1
2ffeb4f6:	2200      	movs	r2, #0
2ffeb4f8:	2300      	movs	r3, #0
2ffeb4fa:	4648      	mov	r0, r9
2ffeb4fc:	f7ff fb2c 	bl	2ffeab58 <io_seek>
2ffeb500:	4601      	mov	r1, r0
2ffeb502:	b1a8      	cbz	r0, 2ffeb530 <load_partition_table+0x1bc>
2ffeb504:	4658      	mov	r0, fp
2ffeb506:	f002 f987 	bl	2ffed818 <tf_log>
2ffeb50a:	9b0a      	ldr	r3, [sp, #40]	@ 0x28
2ffeb50c:	2200      	movs	r2, #0
2ffeb50e:	f10a 0a01 	add.w	sl, sl, #1
2ffeb512:	f108 0810 	add.w	r8, r8, #16
2ffeb516:	025b      	lsls	r3, r3, #9
2ffeb518:	e9c7 3200 	strd	r3, r2, [r7]
2ffeb51c:	9b0b      	ldr	r3, [sp, #44]	@ 0x2c
2ffeb51e:	025b      	lsls	r3, r3, #9
2ffeb520:	e9c7 3202 	strd	r3, r2, [r7, #8]
2ffeb524:	f89d 3024 	ldrb.w	r3, [sp, #36]	@ 0x24
2ffeb528:	3758      	adds	r7, #88	@ 0x58
2ffeb52a:	f807 3c48 	strb.w	r3, [r7, #-72]
2ffeb52e:	e7dd      	b.n	2ffeb4ec <load_partition_table+0x178>
2ffeb530:	4631      	mov	r1, r6
2ffeb532:	ab03      	add	r3, sp, #12
2ffeb534:	f44f 7200 	mov.w	r2, #512	@ 0x200
2ffeb538:	4648      	mov	r0, r9
2ffeb53a:	f7ff fb4d 	bl	2ffeabd8 <io_read>
2ffeb53e:	4601      	mov	r1, r0
2ffeb540:	b108      	cbz	r0, 2ffeb546 <load_partition_table+0x1d2>
2ffeb542:	480c      	ldr	r0, [pc, #48]	@ (2ffeb574 <load_partition_table+0x200>)
2ffeb544:	e7df      	b.n	2ffeb506 <load_partition_table+0x192>
2ffeb546:	f896 31fe 	ldrb.w	r3, [r6, #510]	@ 0x1fe
2ffeb54a:	2b55      	cmp	r3, #85	@ 0x55
2ffeb54c:	d1dd      	bne.n	2ffeb50a <load_partition_table+0x196>
2ffeb54e:	f896 31ff 	ldrb.w	r3, [r6, #511]	@ 0x1ff
2ffeb552:	2baa      	cmp	r3, #170	@ 0xaa
2ffeb554:	d1d9      	bne.n	2ffeb50a <load_partition_table+0x196>
2ffeb556:	2210      	movs	r2, #16
2ffeb558:	4641      	mov	r1, r8
2ffeb55a:	a808      	add	r0, sp, #32
2ffeb55c:	f009 ff63 	bl	2fff5426 <memcpy>
2ffeb560:	e7d3      	b.n	2ffeb50a <load_partition_table+0x196>
2ffeb562:	bf00      	nop
2ffeb564:	2fff6e50 	.word	0x2fff6e50
2ffeb568:	2fff6e81 	.word	0x2fff6e81
2ffeb56c:	2fff70e9 	.word	0x2fff70e9
2ffeb570:	2fffc17d 	.word	0x2fffc17d
2ffeb574:	2fff70ff 	.word	0x2fff70ff
2ffeb578:	2fffb658 	.word	0x2fffb658
2ffeb57c:	2fff711a 	.word	0x2fff711a
2ffeb580:	2fff7123 	.word	0x2fff7123
2ffeb584:	2fff7159 	.word	0x2fff7159

2ffeb588 <get_partition_entry>:
2ffeb588:	b5f8      	push	{r3, r4, r5, r6, r7, lr}
2ffeb58a:	4607      	mov	r7, r0
2ffeb58c:	4e0a      	ldr	r6, [pc, #40]	@ (2ffeb5b8 <get_partition_entry+0x30>)
2ffeb58e:	2500      	movs	r5, #0
2ffeb590:	f1a6 0410 	sub.w	r4, r6, #16
2ffeb594:	f8d4 3210 	ldr.w	r3, [r4, #528]	@ 0x210
2ffeb598:	42ab      	cmp	r3, r5
2ffeb59a:	dc01      	bgt.n	2ffeb5a0 <get_partition_entry+0x18>
2ffeb59c:	2000      	movs	r0, #0
2ffeb59e:	e008      	b.n	2ffeb5b2 <get_partition_entry+0x2a>
2ffeb5a0:	4631      	mov	r1, r6
2ffeb5a2:	4638      	mov	r0, r7
2ffeb5a4:	3658      	adds	r6, #88	@ 0x58
2ffeb5a6:	f00a f84b 	bl	2fff5640 <strcmp>
2ffeb5aa:	b918      	cbnz	r0, 2ffeb5b4 <get_partition_entry+0x2c>
2ffeb5ac:	2358      	movs	r3, #88	@ 0x58
2ffeb5ae:	fb03 4005 	mla	r0, r3, r5, r4
2ffeb5b2:	bdf8      	pop	{r3, r4, r5, r6, r7, pc}
2ffeb5b4:	3501      	adds	r5, #1
2ffeb5b6:	e7ed      	b.n	2ffeb594 <get_partition_entry+0xc>
2ffeb5b8:	2fffb668 	.word	0x2fffb668

2ffeb5bc <get_partition_entry_by_guid>:
2ffeb5bc:	b5f8      	push	{r3, r4, r5, r6, r7, lr}
2ffeb5be:	4607      	mov	r7, r0
2ffeb5c0:	4e0b      	ldr	r6, [pc, #44]	@ (2ffeb5f0 <get_partition_entry_by_guid+0x34>)
2ffeb5c2:	2500      	movs	r5, #0
2ffeb5c4:	f1a6 0434 	sub.w	r4, r6, #52	@ 0x34
2ffeb5c8:	f8d4 3210 	ldr.w	r3, [r4, #528]	@ 0x210
2ffeb5cc:	42ab      	cmp	r3, r5
2ffeb5ce:	dc01      	bgt.n	2ffeb5d4 <get_partition_entry_by_guid+0x18>
2ffeb5d0:	2000      	movs	r0, #0
2ffeb5d2:	e009      	b.n	2ffeb5e8 <get_partition_entry_by_guid+0x2c>
2ffeb5d4:	4631      	mov	r1, r6
2ffeb5d6:	2210      	movs	r2, #16
2ffeb5d8:	4638      	mov	r0, r7
2ffeb5da:	3658      	adds	r6, #88	@ 0x58
2ffeb5dc:	f009 ff15 	bl	2fff540a <memcmp>
2ffeb5e0:	b918      	cbnz	r0, 2ffeb5ea <get_partition_entry_by_guid+0x2e>
2ffeb5e2:	2358      	movs	r3, #88	@ 0x58
2ffeb5e4:	fb03 4005 	mla	r0, r3, r5, r4
2ffeb5e8:	bdf8      	pop	{r3, r4, r5, r6, r7, pc}
2ffeb5ea:	3501      	adds	r5, #1
2ffeb5ec:	e7ec      	b.n	2ffeb5c8 <get_partition_entry_by_guid+0xc>
2ffeb5ee:	bf00      	nop
2ffeb5f0:	2fffb68c 	.word	0x2fffb68c

2ffeb5f4 <stm32mp1_ddr_init>:
2ffeb5f4:	68cb      	ldr	r3, [r1, #12]
2ffeb5f6:	e92d 4ff7 	stmdb	sp!, {r0, r1, r2, r4, r5, r6, r7, r8, r9, sl, fp, lr}
2ffeb5fa:	4604      	mov	r4, r0
2ffeb5fc:	07df      	lsls	r7, r3, #31
2ffeb5fe:	460d      	mov	r5, r1
2ffeb600:	d507      	bpl.n	2ffeb612 <stm32mp1_ddr_init+0x1e>
2ffeb602:	2000      	movs	r0, #0
2ffeb604:	f001 feee 	bl	2ffed3e4 <stm32mp_board_ddr_power_init>
2ffeb608:	b190      	cbz	r0, 2ffeb630 <stm32mp1_ddr_init+0x3c>
2ffeb60a:	f002 f9a1 	bl	2ffed950 <console_flush>
2ffeb60e:	f7fd eee6 	blx	2ffe93dc <do_panic>
2ffeb612:	075e      	lsls	r6, r3, #29
2ffeb614:	d501      	bpl.n	2ffeb61a <stm32mp1_ddr_init+0x26>
2ffeb616:	2001      	movs	r0, #1
2ffeb618:	e7f4      	b.n	2ffeb604 <stm32mp1_ddr_init+0x10>
2ffeb61a:	0718      	lsls	r0, r3, #28
2ffeb61c:	d501      	bpl.n	2ffeb622 <stm32mp1_ddr_init+0x2e>
2ffeb61e:	2002      	movs	r0, #2
2ffeb620:	e7f0      	b.n	2ffeb604 <stm32mp1_ddr_init+0x10>
2ffeb622:	4802      	ldr	r0, [pc, #8]	@ (2ffeb62c <stm32mp1_ddr_init+0x38>)
2ffeb624:	f002 f8f8 	bl	2ffed818 <tf_log>
2ffeb628:	e7ef      	b.n	2ffeb60a <stm32mp1_ddr_init+0x16>
2ffeb62a:	bf00      	nop
2ffeb62c:	2fff7177 	.word	0x2fff7177
2ffeb630:	69a3      	ldr	r3, [r4, #24]
2ffeb632:	f895 115c 	ldrb.w	r1, [r5, #348]	@ 0x15c
2ffeb636:	68da      	ldr	r2, [r3, #12]
2ffeb638:	b119      	cbz	r1, 2ffeb642 <stm32mp1_ddr_init+0x4e>
2ffeb63a:	04d1      	lsls	r1, r2, #19
2ffeb63c:	d409      	bmi.n	2ffeb652 <stm32mp1_ddr_init+0x5e>
2ffeb63e:	f885 015c 	strb.w	r0, [r5, #348]	@ 0x15c
2ffeb642:	68da      	ldr	r2, [r3, #12]
2ffeb644:	f442 6200 	orr.w	r2, r2, #2048	@ 0x800
2ffeb648:	60da      	str	r2, [r3, #12]
2ffeb64a:	68da      	ldr	r2, [r3, #12]
2ffeb64c:	f422 5280 	bic.w	r2, r2, #4096	@ 0x1000
2ffeb650:	60da      	str	r2, [r3, #12]
2ffeb652:	69e3      	ldr	r3, [r4, #28]
2ffeb654:	4620      	mov	r0, r4
2ffeb656:	f8d3 20d8 	ldr.w	r2, [r3, #216]	@ 0xd8
2ffeb65a:	f442 4280 	orr.w	r2, r2, #16384	@ 0x4000
2ffeb65e:	f8c3 20d8 	str.w	r2, [r3, #216]	@ 0xd8
2ffeb662:	f8d3 20d8 	ldr.w	r2, [r3, #216]	@ 0xd8
2ffeb666:	f442 4200 	orr.w	r2, r2, #32768	@ 0x8000
2ffeb66a:	f8c3 20d8 	str.w	r2, [r3, #216]	@ 0xd8
2ffeb66e:	f8d3 20d8 	ldr.w	r2, [r3, #216]	@ 0xd8
2ffeb672:	f442 3280 	orr.w	r2, r2, #65536	@ 0x10000
2ffeb676:	f8c3 20d8 	str.w	r2, [r3, #216]	@ 0xd8
2ffeb67a:	f8d3 20d8 	ldr.w	r2, [r3, #216]	@ 0xd8
2ffeb67e:	f442 3200 	orr.w	r2, r2, #131072	@ 0x20000
2ffeb682:	f8c3 20d8 	str.w	r2, [r3, #216]	@ 0xd8
2ffeb686:	f8d3 20d8 	ldr.w	r2, [r3, #216]	@ 0xd8
2ffeb68a:	f442 2280 	orr.w	r2, r2, #262144	@ 0x40000
2ffeb68e:	f8c3 20d8 	str.w	r2, [r3, #216]	@ 0xd8
2ffeb692:	f8d3 20d8 	ldr.w	r2, [r3, #216]	@ 0xd8
2ffeb696:	f442 2200 	orr.w	r2, r2, #524288	@ 0x80000
2ffeb69a:	f8c3 20d8 	str.w	r2, [r3, #216]	@ 0xd8
2ffeb69e:	6869      	ldr	r1, [r5, #4]
2ffeb6a0:	f000 faaa 	bl	2ffebbf8 <stm32mp1_ddr_clk_enable>
2ffeb6a4:	4606      	mov	r6, r0
2ffeb6a6:	2800      	cmp	r0, #0
2ffeb6a8:	d1af      	bne.n	2ffeb60a <stm32mp1_ddr_init+0x16>
2ffeb6aa:	69e3      	ldr	r3, [r4, #28]
2ffeb6ac:	2002      	movs	r0, #2
2ffeb6ae:	f8d3 20d8 	ldr.w	r2, [r3, #216]	@ 0xd8
2ffeb6b2:	f422 2280 	bic.w	r2, r2, #262144	@ 0x40000
2ffeb6b6:	f8c3 20d8 	str.w	r2, [r3, #216]	@ 0xd8
2ffeb6ba:	f8d3 20d8 	ldr.w	r2, [r3, #216]	@ 0xd8
2ffeb6be:	f422 2200 	bic.w	r2, r2, #524288	@ 0x80000
2ffeb6c2:	f8c3 20d8 	str.w	r2, [r3, #216]	@ 0xd8
2ffeb6c6:	f8d3 20d8 	ldr.w	r2, [r3, #216]	@ 0xd8
2ffeb6ca:	f422 4280 	bic.w	r2, r2, #16384	@ 0x4000
2ffeb6ce:	f8c3 20d8 	str.w	r2, [r3, #216]	@ 0xd8
2ffeb6d2:	f003 f935 	bl	2ffee940 <udelay>
2ffeb6d6:	6922      	ldr	r2, [r4, #16]
2ffeb6d8:	4631      	mov	r1, r6
2ffeb6da:	4620      	mov	r0, r4
2ffeb6dc:	f8d2 31b0 	ldr.w	r3, [r2, #432]	@ 0x1b0
2ffeb6e0:	f023 0301 	bic.w	r3, r3, #1
2ffeb6e4:	f8c2 31b0 	str.w	r3, [r2, #432]	@ 0x1b0
2ffeb6e8:	f105 020c 	add.w	r2, r5, #12
2ffeb6ec:	4bae      	ldr	r3, [pc, #696]	@ (2ffeb9a8 <stm32mp1_ddr_init+0x3b4>)
2ffeb6ee:	f003 fa9d 	bl	2ffeec2c <stm32mp_ddr_set_reg>
2ffeb6f2:	68ea      	ldr	r2, [r5, #12]
2ffeb6f4:	f248 0301 	movw	r3, #32769	@ 0x8001
2ffeb6f8:	2101      	movs	r1, #1
2ffeb6fa:	4620      	mov	r0, r4
2ffeb6fc:	4393      	bics	r3, r2
2ffeb6fe:	bf01      	itttt	eq
2ffeb700:	6922      	ldreq	r2, [r4, #16]
2ffeb702:	6813      	ldreq	r3, [r2, #0]
2ffeb704:	f423 4300 	biceq.w	r3, r3, #32768	@ 0x8000
2ffeb708:	6013      	streq	r3, [r2, #0]
2ffeb70a:	f105 0270 	add.w	r2, r5, #112	@ 0x70
2ffeb70e:	4ba6      	ldr	r3, [pc, #664]	@ (2ffeb9a8 <stm32mp1_ddr_init+0x3b4>)
2ffeb710:	f003 fa8c 	bl	2ffeec2c <stm32mp_ddr_set_reg>
2ffeb714:	4ba4      	ldr	r3, [pc, #656]	@ (2ffeb9a8 <stm32mp1_ddr_init+0x3b4>)
2ffeb716:	f105 02a0 	add.w	r2, r5, #160	@ 0xa0
2ffeb71a:	2103      	movs	r1, #3
2ffeb71c:	4620      	mov	r0, r4
2ffeb71e:	f003 fa85 	bl	2ffeec2c <stm32mp_ddr_set_reg>
2ffeb722:	f895 315c 	ldrb.w	r3, [r5, #348]	@ 0x15c
2ffeb726:	6922      	ldr	r2, [r4, #16]
2ffeb728:	b11b      	cbz	r3, 2ffeb732 <stm32mp1_ddr_init+0x13e>
2ffeb72a:	6b13      	ldr	r3, [r2, #48]	@ 0x30
2ffeb72c:	f043 0320 	orr.w	r3, r3, #32
2ffeb730:	6313      	str	r3, [r2, #48]	@ 0x30
2ffeb732:	f8d2 30d0 	ldr.w	r3, [r2, #208]	@ 0xd0
2ffeb736:	2102      	movs	r1, #2
2ffeb738:	4620      	mov	r0, r4
2ffeb73a:	f023 4340 	bic.w	r3, r3, #3221225472	@ 0xc0000000
2ffeb73e:	f043 4380 	orr.w	r3, r3, #1073741824	@ 0x40000000
2ffeb742:	f8c2 30d0 	str.w	r3, [r2, #208]	@ 0xd0
2ffeb746:	f105 02c4 	add.w	r2, r5, #196	@ 0xc4
2ffeb74a:	4b97      	ldr	r3, [pc, #604]	@ (2ffeb9a8 <stm32mp1_ddr_init+0x3b4>)
2ffeb74c:	f003 fa6e 	bl	2ffeec2c <stm32mp_ddr_set_reg>
2ffeb750:	69e3      	ldr	r3, [r4, #28]
2ffeb752:	2104      	movs	r1, #4
2ffeb754:	4620      	mov	r0, r4
2ffeb756:	f8d3 20d8 	ldr.w	r2, [r3, #216]	@ 0xd8
2ffeb75a:	f422 3280 	bic.w	r2, r2, #65536	@ 0x10000
2ffeb75e:	f8c3 20d8 	str.w	r2, [r3, #216]	@ 0xd8
2ffeb762:	f8d3 20d8 	ldr.w	r2, [r3, #216]	@ 0xd8
2ffeb766:	f422 4200 	bic.w	r2, r2, #32768	@ 0x8000
2ffeb76a:	f8c3 20d8 	str.w	r2, [r3, #216]	@ 0xd8
2ffeb76e:	f8d3 20d8 	ldr.w	r2, [r3, #216]	@ 0xd8
2ffeb772:	f422 3200 	bic.w	r2, r2, #131072	@ 0x20000
2ffeb776:	f8c3 20d8 	str.w	r2, [r3, #216]	@ 0xd8
2ffeb77a:	f505 7284 	add.w	r2, r5, #264	@ 0x108
2ffeb77e:	4b8a      	ldr	r3, [pc, #552]	@ (2ffeb9a8 <stm32mp1_ddr_init+0x3b4>)
2ffeb780:	f003 fa54 	bl	2ffeec2c <stm32mp_ddr_set_reg>
2ffeb784:	4b88      	ldr	r3, [pc, #544]	@ (2ffeb9a8 <stm32mp1_ddr_init+0x3b4>)
2ffeb786:	f505 729a 	add.w	r2, r5, #308	@ 0x134
2ffeb78a:	2105      	movs	r1, #5
2ffeb78c:	4620      	mov	r0, r4
2ffeb78e:	f003 fa4d 	bl	2ffeec2c <stm32mp_ddr_set_reg>
2ffeb792:	68ea      	ldr	r2, [r5, #12]
2ffeb794:	f248 0301 	movw	r3, #32769	@ 0x8001
2ffeb798:	6960      	ldr	r0, [r4, #20]
2ffeb79a:	4393      	bics	r3, r2
2ffeb79c:	bf01      	itttt	eq
2ffeb79e:	6962      	ldreq	r2, [r4, #20]
2ffeb7a0:	6c53      	ldreq	r3, [r2, #68]	@ 0x44
2ffeb7a2:	f023 0301 	biceq.w	r3, r3, #1
2ffeb7a6:	6453      	streq	r3, [r2, #68]	@ 0x44
2ffeb7a8:	f008 fa79 	bl	2fff3c9e <stm32mp1_ddrphy_idone_wait>
2ffeb7ac:	68eb      	ldr	r3, [r5, #12]
2ffeb7ae:	4a7f      	ldr	r2, [pc, #508]	@ (2ffeb9ac <stm32mp1_ddr_init+0x3b8>)
2ffeb7b0:	f013 0f01 	tst.w	r3, #1
2ffeb7b4:	4b7e      	ldr	r3, [pc, #504]	@ (2ffeb9b0 <stm32mp1_ddr_init+0x3bc>)
2ffeb7b6:	bf08      	it	eq
2ffeb7b8:	4613      	moveq	r3, r2
2ffeb7ba:	f895 215c 	ldrb.w	r2, [r5, #348]	@ 0x15c
2ffeb7be:	b10a      	cbz	r2, 2ffeb7c4 <stm32mp1_ddr_init+0x1d0>
2ffeb7c0:	f043 4380 	orr.w	r3, r3, #1073741824	@ 0x40000000
2ffeb7c4:	6966      	ldr	r6, [r4, #20]
2ffeb7c6:	f043 0301 	orr.w	r3, r3, #1
2ffeb7ca:	200a      	movs	r0, #10
2ffeb7cc:	6073      	str	r3, [r6, #4]
2ffeb7ce:	f003 f8b7 	bl	2ffee940 <udelay>
2ffeb7d2:	4630      	mov	r0, r6
2ffeb7d4:	f008 fa63 	bl	2fff3c9e <stm32mp1_ddrphy_idone_wait>
2ffeb7d8:	f895 315c 	ldrb.w	r3, [r5, #348]	@ 0x15c
2ffeb7dc:	b333      	cbz	r3, 2ffeb82c <stm32mp1_ddr_init+0x238>
2ffeb7de:	6966      	ldr	r6, [r4, #20]
2ffeb7e0:	200a      	movs	r0, #10
2ffeb7e2:	f8d5 2160 	ldr.w	r2, [r5, #352]	@ 0x160
2ffeb7e6:	f8d6 3180 	ldr.w	r3, [r6, #384]	@ 0x180
2ffeb7ea:	f043 5380 	orr.w	r3, r3, #268435456	@ 0x10000000
2ffeb7ee:	f8c6 3180 	str.w	r3, [r6, #384]	@ 0x180
2ffeb7f2:	f8d6 3180 	ldr.w	r3, [r6, #384]	@ 0x180
2ffeb7f6:	f003 4370 	and.w	r3, r3, #4026531840	@ 0xf0000000
2ffeb7fa:	4313      	orrs	r3, r2
2ffeb7fc:	f8c6 3180 	str.w	r3, [r6, #384]	@ 0x180
2ffeb800:	69a3      	ldr	r3, [r4, #24]
2ffeb802:	68da      	ldr	r2, [r3, #12]
2ffeb804:	f442 6200 	orr.w	r2, r2, #2048	@ 0x800
2ffeb808:	60da      	str	r2, [r3, #12]
2ffeb80a:	68da      	ldr	r2, [r3, #12]
2ffeb80c:	f422 5280 	bic.w	r2, r2, #4096	@ 0x1000
2ffeb810:	60da      	str	r2, [r3, #12]
2ffeb812:	f8d6 3180 	ldr.w	r3, [r6, #384]	@ 0x180
2ffeb816:	f023 5380 	bic.w	r3, r3, #268435456	@ 0x10000000
2ffeb81a:	f8c6 3180 	str.w	r3, [r6, #384]	@ 0x180
2ffeb81e:	2309      	movs	r3, #9
2ffeb820:	6073      	str	r3, [r6, #4]
2ffeb822:	f003 f88d 	bl	2ffee940 <udelay>
2ffeb826:	4630      	mov	r0, r6
2ffeb828:	f008 fa39 	bl	2fff3c9e <stm32mp1_ddrphy_idone_wait>
2ffeb82c:	6920      	ldr	r0, [r4, #16]
2ffeb82e:	f008 fdea 	bl	2fff4406 <stm32mp_ddr_start_sw_done>
2ffeb832:	6920      	ldr	r0, [r4, #16]
2ffeb834:	f8d0 31b0 	ldr.w	r3, [r0, #432]	@ 0x1b0
2ffeb838:	f043 0301 	orr.w	r3, r3, #1
2ffeb83c:	f8c0 31b0 	str.w	r3, [r0, #432]	@ 0x1b0
2ffeb840:	f008 fde8 	bl	2fff4414 <stm32mp_ddr_wait_sw_done_ack>
2ffeb844:	f895 315c 	ldrb.w	r3, [r5, #348]	@ 0x15c
2ffeb848:	b113      	cbz	r3, 2ffeb850 <stm32mp1_ddr_init+0x25c>
2ffeb84a:	6920      	ldr	r0, [r4, #16]
2ffeb84c:	f008 fe5b 	bl	2fff4506 <stm32mp_ddr_sw_selfref_exit>
2ffeb850:	2101      	movs	r1, #1
2ffeb852:	4620      	mov	r0, r4
2ffeb854:	f008 fa40 	bl	2fff3cd8 <stm32mp1_wait_operating_mode>
2ffeb858:	68eb      	ldr	r3, [r5, #12]
2ffeb85a:	041a      	lsls	r2, r3, #16
2ffeb85c:	d565      	bpl.n	2ffeb92a <stm32mp1_ddr_init+0x336>
2ffeb85e:	6963      	ldr	r3, [r4, #20]
2ffeb860:	6920      	ldr	r0, [r4, #16]
2ffeb862:	6c5e      	ldr	r6, [r3, #68]	@ 0x44
2ffeb864:	6c9f      	ldr	r7, [r3, #72]	@ 0x48
2ffeb866:	f8d0 3304 	ldr.w	r3, [r0, #772]	@ 0x304
2ffeb86a:	4a52      	ldr	r2, [pc, #328]	@ (2ffeb9b4 <stm32mp1_ddr_init+0x3c0>)
2ffeb86c:	f043 0302 	orr.w	r3, r3, #2
2ffeb870:	f8c0 3304 	str.w	r3, [r0, #772]	@ 0x304
2ffeb874:	f8d0 3308 	ldr.w	r3, [r0, #776]	@ 0x308
2ffeb878:	4013      	ands	r3, r2
2ffeb87a:	f1b3 5f40 	cmp.w	r3, #805306368	@ 0x30000000
2ffeb87e:	d0f9      	beq.n	2ffeb874 <stm32mp1_ddr_init+0x280>
2ffeb880:	f426 7611 	bic.w	r6, r6, #580	@ 0x244
2ffeb884:	2101      	movs	r1, #1
2ffeb886:	4632      	mov	r2, r6
2ffeb888:	f008 f9f8 	bl	2fff3c7c <stm32mp1_mode_register_write.isra.0>
2ffeb88c:	f427 62c0 	bic.w	r2, r7, #1536	@ 0x600
2ffeb890:	2102      	movs	r1, #2
2ffeb892:	f008 f9f3 	bl	2fff3c7c <stm32mp1_mode_register_write.isra.0>
2ffeb896:	f046 0201 	orr.w	r2, r6, #1
2ffeb89a:	2101      	movs	r1, #1
2ffeb89c:	f008 f9ee 	bl	2fff3c7c <stm32mp1_mode_register_write.isra.0>
2ffeb8a0:	6b03      	ldr	r3, [r0, #48]	@ 0x30
2ffeb8a2:	2103      	movs	r1, #3
2ffeb8a4:	f043 0320 	orr.w	r3, r3, #32
2ffeb8a8:	6303      	str	r3, [r0, #48]	@ 0x30
2ffeb8aa:	4620      	mov	r0, r4
2ffeb8ac:	f008 fa14 	bl	2fff3cd8 <stm32mp1_wait_operating_mode>
2ffeb8b0:	6920      	ldr	r0, [r4, #16]
2ffeb8b2:	f008 fda8 	bl	2fff4406 <stm32mp_ddr_start_sw_done>
2ffeb8b6:	6920      	ldr	r0, [r4, #16]
2ffeb8b8:	6803      	ldr	r3, [r0, #0]
2ffeb8ba:	f443 4300 	orr.w	r3, r3, #32768	@ 0x8000
2ffeb8be:	6003      	str	r3, [r0, #0]
2ffeb8c0:	f008 fda8 	bl	2fff4414 <stm32mp_ddr_wait_sw_done_ack>
2ffeb8c4:	20e0      	movs	r0, #224	@ 0xe0
2ffeb8c6:	f002 ffff 	bl	2ffee8c8 <clk_get_rate>
2ffeb8ca:	4b3b      	ldr	r3, [pc, #236]	@ (2ffeb9b8 <stm32mp1_ddr_init+0x3c4>)
2ffeb8cc:	4298      	cmp	r0, r3
2ffeb8ce:	6963      	ldr	r3, [r4, #20]
2ffeb8d0:	6920      	ldr	r0, [r4, #16]
2ffeb8d2:	691a      	ldr	r2, [r3, #16]
2ffeb8d4:	bf94      	ite	ls
2ffeb8d6:	f422 0200 	bicls.w	r2, r2, #8388608	@ 0x800000
2ffeb8da:	f442 0200 	orrhi.w	r2, r2, #8388608	@ 0x800000
2ffeb8de:	611a      	str	r2, [r3, #16]
2ffeb8e0:	695a      	ldr	r2, [r3, #20]
2ffeb8e2:	f042 4200 	orr.w	r2, r2, #2147483648	@ 0x80000000
2ffeb8e6:	615a      	str	r2, [r3, #20]
2ffeb8e8:	f8d3 21cc 	ldr.w	r2, [r3, #460]	@ 0x1cc
2ffeb8ec:	f042 4200 	orr.w	r2, r2, #2147483648	@ 0x80000000
2ffeb8f0:	f8c3 21cc 	str.w	r2, [r3, #460]	@ 0x1cc
2ffeb8f4:	f8d3 220c 	ldr.w	r2, [r3, #524]	@ 0x20c
2ffeb8f8:	f042 4200 	orr.w	r2, r2, #2147483648	@ 0x80000000
2ffeb8fc:	f8c3 220c 	str.w	r2, [r3, #524]	@ 0x20c
2ffeb900:	f8d3 224c 	ldr.w	r2, [r3, #588]	@ 0x24c
2ffeb904:	f042 4200 	orr.w	r2, r2, #2147483648	@ 0x80000000
2ffeb908:	f8c3 224c 	str.w	r2, [r3, #588]	@ 0x24c
2ffeb90c:	f8d3 228c 	ldr.w	r2, [r3, #652]	@ 0x28c
2ffeb910:	f042 4200 	orr.w	r2, r2, #2147483648	@ 0x80000000
2ffeb914:	f8c3 228c 	str.w	r2, [r3, #652]	@ 0x28c
2ffeb918:	f008 fdf5 	bl	2fff4506 <stm32mp_ddr_sw_selfref_exit>
2ffeb91c:	4620      	mov	r0, r4
2ffeb91e:	2101      	movs	r1, #1
2ffeb920:	f008 f9da 	bl	2fff3cd8 <stm32mp1_wait_operating_mode>
2ffeb924:	6920      	ldr	r0, [r4, #16]
2ffeb926:	f008 fdc2 	bl	2fff44ae <stm32mp_ddr_enable_host_interface>
2ffeb92a:	ee1e 3f10 	mrc	15, 0, r3, cr14, cr0, {0}
2ffeb92e:	ec51 0f0e 	mrrc	15, 0, r0, r1, cr14
2ffeb932:	6926      	ldr	r6, [r4, #16]
2ffeb934:	4689      	mov	r9, r1
2ffeb936:	9001      	str	r0, [sp, #4]
2ffeb938:	4630      	mov	r0, r6
2ffeb93a:	f008 fdbf 	bl	2fff44bc <stm32mp_ddr_disable_host_interface>
2ffeb93e:	4630      	mov	r0, r6
2ffeb940:	f008 fd61 	bl	2fff4406 <stm32mp_ddr_start_sw_done>
2ffeb944:	6e32      	ldr	r2, [r6, #96]	@ 0x60
2ffeb946:	4630      	mov	r0, r6
2ffeb948:	f042 0201 	orr.w	r2, r2, #1
2ffeb94c:	6632      	str	r2, [r6, #96]	@ 0x60
2ffeb94e:	f008 fddf 	bl	2fff4510 <stm32mp_ddr_wait_refresh_update_done_ack>
2ffeb952:	6b32      	ldr	r2, [r6, #48]	@ 0x30
2ffeb954:	4630      	mov	r0, r6
2ffeb956:	f022 0203 	bic.w	r2, r2, #3
2ffeb95a:	6332      	str	r2, [r6, #48]	@ 0x30
2ffeb95c:	f8d6 21b0 	ldr.w	r2, [r6, #432]	@ 0x1b0
2ffeb960:	f022 0201 	bic.w	r2, r2, #1
2ffeb964:	f8c6 21b0 	str.w	r2, [r6, #432]	@ 0x1b0
2ffeb968:	f008 fd54 	bl	2fff4414 <stm32mp_ddr_wait_sw_done_ack>
2ffeb96c:	4630      	mov	r0, r6
2ffeb96e:	f008 fd9e 	bl	2fff44ae <stm32mp_ddr_enable_host_interface>
2ffeb972:	68ea      	ldr	r2, [r5, #12]
2ffeb974:	200a      	movs	r0, #10
2ffeb976:	6966      	ldr	r6, [r4, #20]
2ffeb978:	f012 0f01 	tst.w	r2, #1
2ffeb97c:	bf0c      	ite	eq
2ffeb97e:	f44f 72c0 	moveq.w	r2, #384	@ 0x180
2ffeb982:	2280      	movne	r2, #128	@ 0x80
2ffeb984:	f042 0201 	orr.w	r2, r2, #1
2ffeb988:	6072      	str	r2, [r6, #4]
2ffeb98a:	f002 ffd9 	bl	2ffee940 <udelay>
2ffeb98e:	4630      	mov	r0, r6
2ffeb990:	f008 f985 	bl	2fff3c9e <stm32mp1_ddrphy_idone_wait>
2ffeb994:	6960      	ldr	r0, [r4, #20]
2ffeb996:	f008 f982 	bl	2fff3c9e <stm32mp1_ddrphy_idone_wait>
2ffeb99a:	f895 215c 	ldrb.w	r2, [r5, #348]	@ 0x15c
2ffeb99e:	6926      	ldr	r6, [r4, #16]
2ffeb9a0:	9b01      	ldr	r3, [sp, #4]
2ffeb9a2:	2a00      	cmp	r2, #0
2ffeb9a4:	d139      	bne.n	2ffeba1a <stm32mp1_ddr_init+0x426>
2ffeb9a6:	e009      	b.n	2ffeb9bc <stm32mp1_ddr_init+0x3c8>
2ffeb9a8:	2fff5780 	.word	0x2fff5780
2ffeb9ac:	0001005e 	.word	0x0001005e
2ffeb9b0:	0001007e 	.word	0x0001007e
2ffeb9b4:	34001f1f 	.word	0x34001f1f
2ffeb9b8:	05f5e0ff 	.word	0x05f5e0ff
2ffeb9bc:	6b2f      	ldr	r7, [r5, #48]	@ 0x30
2ffeb9be:	4630      	mov	r0, r6
2ffeb9c0:	6a2d      	ldr	r5, [r5, #32]
2ffeb9c2:	f008 fd7b 	bl	2fff44bc <stm32mp_ddr_disable_host_interface>
2ffeb9c6:	4630      	mov	r0, r6
2ffeb9c8:	f008 fd1d 	bl	2fff4406 <stm32mp_ddr_start_sw_done>
2ffeb9cc:	07fb      	lsls	r3, r7, #31
2ffeb9ce:	d406      	bmi.n	2ffeb9de <stm32mp1_ddr_init+0x3ea>
2ffeb9d0:	6e33      	ldr	r3, [r6, #96]	@ 0x60
2ffeb9d2:	4630      	mov	r0, r6
2ffeb9d4:	f023 0301 	bic.w	r3, r3, #1
2ffeb9d8:	6633      	str	r3, [r6, #96]	@ 0x60
2ffeb9da:	f008 fd99 	bl	2fff4510 <stm32mp_ddr_wait_refresh_update_done_ack>
2ffeb9de:	07aa      	lsls	r2, r5, #30
2ffeb9e0:	4630      	mov	r0, r6
2ffeb9e2:	bf42      	ittt	mi
2ffeb9e4:	6b33      	ldrmi	r3, [r6, #48]	@ 0x30
2ffeb9e6:	f043 0302 	orrmi.w	r3, r3, #2
2ffeb9ea:	6333      	strmi	r3, [r6, #48]	@ 0x30
2ffeb9ec:	07eb      	lsls	r3, r5, #31
2ffeb9ee:	bf42      	ittt	mi
2ffeb9f0:	6b33      	ldrmi	r3, [r6, #48]	@ 0x30
2ffeb9f2:	f043 0301 	orrmi.w	r3, r3, #1
2ffeb9f6:	6333      	strmi	r3, [r6, #48]	@ 0x30
2ffeb9f8:	f8d6 31b0 	ldr.w	r3, [r6, #432]	@ 0x1b0
2ffeb9fc:	f043 0301 	orr.w	r3, r3, #1
2ffeba00:	f8c6 31b0 	str.w	r3, [r6, #432]	@ 0x1b0
2ffeba04:	f008 fd06 	bl	2fff4414 <stm32mp_ddr_wait_sw_done_ack>
2ffeba08:	4630      	mov	r0, r6
2ffeba0a:	f008 fd50 	bl	2fff44ae <stm32mp_ddr_enable_host_interface>
2ffeba0e:	6920      	ldr	r0, [r4, #16]
2ffeba10:	b003      	add	sp, #12
2ffeba12:	e8bd 4ff0 	ldmia.w	sp!, {r4, r5, r6, r7, r8, r9, sl, fp, lr}
2ffeba16:	f008 bd1a 	b.w	2fff444e <stm32mp_ddr_enable_axi_port>
2ffeba1a:	ee1e 2f10 	mrc	15, 0, r2, cr14, cr0, {0}
2ffeba1e:	ec5b af0e 	mrrc	15, 0, sl, fp, cr14
2ffeba22:	491c      	ldr	r1, [pc, #112]	@ (2ffeba94 <stm32mp1_ddr_init+0x4a0>)
2ffeba24:	686a      	ldr	r2, [r5, #4]
2ffeba26:	428a      	cmp	r2, r1
2ffeba28:	d8c8      	bhi.n	2ffeb9bc <stm32mp1_ddr_init+0x3c8>
2ffeba2a:	6e77      	ldr	r7, [r6, #100]	@ 0x64
2ffeba2c:	f3c7 470b 	ubfx	r7, r7, #16, #12
2ffeba30:	ea4f 1847 	mov.w	r8, r7, lsl #5
2ffeba34:	2f00      	cmp	r7, #0
2ffeba36:	d0c1      	beq.n	2ffeb9bc <stm32mp1_ddr_init+0x3c8>
2ffeba38:	f8df c05c 	ldr.w	ip, [pc, #92]	@ 2ffeba98 <stm32mp1_ddr_init+0x4a4>
2ffeba3c:	2700      	movs	r7, #0
2ffeba3e:	ebba 0003 	subs.w	r0, sl, r3
2ffeba42:	463b      	mov	r3, r7
2ffeba44:	fba0 0e0c 	umull	r0, lr, r0, ip
2ffeba48:	eb6b 0909 	sbc.w	r9, fp, r9
2ffeba4c:	fbb1 f2f2 	udiv	r2, r1, r2
2ffeba50:	fb0c e109 	mla	r1, ip, r9, lr
2ffeba54:	f007 ed06 	blx	2fff3464 <__aeabi_uldivmod>
2ffeba58:	f118 33ff 	adds.w	r3, r8, #4294967295	@ 0xffffffff
2ffeba5c:	4642      	mov	r2, r8
2ffeba5e:	18c0      	adds	r0, r0, r3
2ffeba60:	463b      	mov	r3, r7
2ffeba62:	f141 0100 	adc.w	r1, r1, #0
2ffeba66:	f007 ecfe 	blx	2fff3464 <__aeabi_uldivmod>
2ffeba6a:	463b      	mov	r3, r7
2ffeba6c:	463a      	mov	r2, r7
2ffeba6e:	4291      	cmp	r1, r2
2ffeba70:	bf08      	it	eq
2ffeba72:	4298      	cmpeq	r0, r3
2ffeba74:	d0a2      	beq.n	2ffeb9bc <stm32mp1_ddr_init+0x3c8>
2ffeba76:	f8d6 7310 	ldr.w	r7, [r6, #784]	@ 0x310
2ffeba7a:	07ff      	lsls	r7, r7, #31
2ffeba7c:	d4fb      	bmi.n	2ffeba76 <stm32mp1_ddr_init+0x482>
2ffeba7e:	f8d6 730c 	ldr.w	r7, [r6, #780]	@ 0x30c
2ffeba82:	3301      	adds	r3, #1
2ffeba84:	f142 0200 	adc.w	r2, r2, #0
2ffeba88:	f047 0701 	orr.w	r7, r7, #1
2ffeba8c:	f8c6 730c 	str.w	r7, [r6, #780]	@ 0x30c
2ffeba90:	e7ed      	b.n	2ffeba6e <stm32mp1_ddr_init+0x47a>
2ffeba92:	bf00      	nop
2ffeba94:	3b9aca00 	.word	0x3b9aca00
2ffeba98:	000f4240 	.word	0x000f4240

2ffeba9c <stm32mp1_ddr_setup>:
2ffeba9c:	b570      	push	{r4, r5, r6, lr}
2ffeba9e:	b0ee      	sub	sp, #440	@ 0x1b8
2ffebaa0:	494a      	ldr	r1, [pc, #296]	@ (2ffebbcc <stm32mp1_ddr_setup+0x130>)
2ffebaa2:	2248      	movs	r2, #72	@ 0x48
2ffebaa4:	a803      	add	r0, sp, #12
2ffebaa6:	f009 fcbe 	bl	2fff5426 <memcpy>
2ffebaaa:	a802      	add	r0, sp, #8
2ffebaac:	f004 f81c 	bl	2ffefae8 <fdt_get_address>
2ffebab0:	2800      	cmp	r0, #0
2ffebab2:	f000 8087 	beq.w	2ffebbc4 <stm32mp1_ddr_setup+0x128>
2ffebab6:	4a46      	ldr	r2, [pc, #280]	@ (2ffebbd0 <stm32mp1_ddr_setup+0x134>)
2ffebab8:	f04f 31ff 	mov.w	r1, #4294967295	@ 0xffffffff
2ffebabc:	9802      	ldr	r0, [sp, #8]
2ffebabe:	f009 fc7b 	bl	2fff53b8 <fdt_node_offset_by_compatible>
2ffebac2:	1e06      	subs	r6, r0, #0
2ffebac4:	da08      	bge.n	2ffebad8 <stm32mp1_ddr_setup+0x3c>
2ffebac6:	4943      	ldr	r1, [pc, #268]	@ (2ffebbd4 <stm32mp1_ddr_setup+0x138>)
2ffebac8:	f06f 0415 	mvn.w	r4, #21
2ffebacc:	4842      	ldr	r0, [pc, #264]	@ (2ffebbd8 <stm32mp1_ddr_setup+0x13c>)
2ffebace:	f001 fea3 	bl	2ffed818 <tf_log>
2ffebad2:	4620      	mov	r0, r4
2ffebad4:	b06e      	add	sp, #440	@ 0x1b8
2ffebad6:	bd70      	pop	{r4, r5, r6, pc}
2ffebad8:	9802      	ldr	r0, [sp, #8]
2ffebada:	ad15      	add	r5, sp, #84	@ 0x54
2ffebadc:	462a      	mov	r2, r5
2ffebade:	4631      	mov	r1, r6
2ffebae0:	f000 f8d0 	bl	2ffebc84 <stm32mp_ddr_dt_get_info>
2ffebae4:	1e04      	subs	r4, r0, #0
2ffebae6:	dbf4      	blt.n	2ffebad2 <stm32mp1_ddr_setup+0x36>
2ffebae8:	9802      	ldr	r0, [sp, #8]
2ffebaea:	2306      	movs	r3, #6
2ffebaec:	9500      	str	r5, [sp, #0]
2ffebaee:	aa03      	add	r2, sp, #12
2ffebaf0:	4631      	mov	r1, r6
2ffebaf2:	f000 f8ef 	bl	2ffebcd4 <stm32mp_ddr_dt_get_param>
2ffebaf6:	1e04      	subs	r4, r0, #0
2ffebaf8:	dbeb      	blt.n	2ffebad2 <stm32mp1_ddr_setup+0x36>
2ffebafa:	2300      	movs	r3, #0
2ffebafc:	f885 315c 	strb.w	r3, [r5, #348]	@ 0x15c
2ffebb00:	f008 fd9f 	bl	2fff4642 <stm32mp_is_wakeup_from_standby>
2ffebb04:	b130      	cbz	r0, 2ffebb14 <stm32mp1_ddr_setup+0x78>
2ffebb06:	2301      	movs	r3, #1
2ffebb08:	f885 315c 	strb.w	r3, [r5, #348]	@ 0x15c
2ffebb0c:	f009 f85b 	bl	2fff4bc6 <stm32_get_zdata_from_context>
2ffebb10:	f8c5 0160 	str.w	r0, [r5, #352]	@ 0x160
2ffebb14:	4c31      	ldr	r4, [pc, #196]	@ (2ffebbdc <stm32mp1_ddr_setup+0x140>)
2ffebb16:	4629      	mov	r1, r5
2ffebb18:	69e2      	ldr	r2, [r4, #28]
2ffebb1a:	4620      	mov	r0, r4
2ffebb1c:	f8d2 30d8 	ldr.w	r3, [r2, #216]	@ 0xd8
2ffebb20:	f423 7380 	bic.w	r3, r3, #256	@ 0x100
2ffebb24:	f8c2 30d8 	str.w	r3, [r2, #216]	@ 0xd8
2ffebb28:	f7ff fd64 	bl	2ffeb5f4 <stm32mp1_ddr_init>
2ffebb2c:	69e2      	ldr	r2, [r4, #28]
2ffebb2e:	f8d2 30d8 	ldr.w	r3, [r2, #216]	@ 0xd8
2ffebb32:	f443 7380 	orr.w	r3, r3, #256	@ 0x100
2ffebb36:	f8c2 30d8 	str.w	r3, [r2, #216]	@ 0xd8
2ffebb3a:	68ab      	ldr	r3, [r5, #8]
2ffebb3c:	60a3      	str	r3, [r4, #8]
2ffebb3e:	2300      	movs	r3, #0
2ffebb40:	60e3      	str	r3, [r4, #12]
2ffebb42:	f008 fb09 	bl	2fff4158 <stm32mp_map_ddr_non_cacheable>
2ffebb46:	b118      	cbz	r0, 2ffebb50 <stm32mp1_ddr_setup+0xb4>
2ffebb48:	f001 ff02 	bl	2ffed950 <console_flush>
2ffebb4c:	f7fd ec46 	blx	2ffe93dc <do_panic>
2ffebb50:	f895 315c 	ldrb.w	r3, [r5, #348]	@ 0x15c
2ffebb54:	b1d3      	cbz	r3, 2ffebb8c <stm32mp1_ddr_setup+0xf0>
2ffebb56:	f008 f8fe 	bl	2fff3d56 <stm32mp_ddr_test_rw_access>
2ffebb5a:	4601      	mov	r1, r0
2ffebb5c:	b118      	cbz	r0, 2ffebb66 <stm32mp1_ddr_setup+0xca>
2ffebb5e:	4820      	ldr	r0, [pc, #128]	@ (2ffebbe0 <stm32mp1_ddr_setup+0x144>)
2ffebb60:	f001 fe5a 	bl	2ffed818 <tf_log>
2ffebb64:	e7f0      	b.n	2ffebb48 <stm32mp1_ddr_setup+0xac>
2ffebb66:	f006 fa05 	bl	2fff1f74 <stm32_restore_ddr_training_area>
2ffebb6a:	f005 f807 	bl	2fff0b7c <ddr_read_sr_mode>
2ffebb6e:	f005 f811 	bl	2fff0b94 <ddr_set_sr_mode>
2ffebb72:	f008 fb00 	bl	2fff4176 <stm32mp_unmap_ddr>
2ffebb76:	4604      	mov	r4, r0
2ffebb78:	2800      	cmp	r0, #0
2ffebb7a:	d1e5      	bne.n	2ffebb48 <stm32mp1_ddr_setup+0xac>
2ffebb7c:	4819      	ldr	r0, [pc, #100]	@ (2ffebbe4 <stm32mp1_ddr_setup+0x148>)
2ffebb7e:	2101      	movs	r1, #1
2ffebb80:	f895 315c 	ldrb.w	r3, [r5, #348]	@ 0x15c
2ffebb84:	7003      	strb	r3, [r0, #0]
2ffebb86:	f7fd ec62 	blx	2ffe944c <flush_dcache_range>
2ffebb8a:	e7a2      	b.n	2ffebad2 <stm32mp1_ddr_setup+0x36>
2ffebb8c:	f008 f8f0 	bl	2fff3d70 <stm32mp_ddr_test_data_bus>
2ffebb90:	4601      	mov	r1, r0
2ffebb92:	b108      	cbz	r0, 2ffebb98 <stm32mp1_ddr_setup+0xfc>
2ffebb94:	4814      	ldr	r0, [pc, #80]	@ (2ffebbe8 <stm32mp1_ddr_setup+0x14c>)
2ffebb96:	e7e3      	b.n	2ffebb60 <stm32mp1_ddr_setup+0xc4>
2ffebb98:	68a8      	ldr	r0, [r5, #8]
2ffebb9a:	f008 f8f8 	bl	2fff3d8e <stm32mp_ddr_test_addr_bus>
2ffebb9e:	4601      	mov	r1, r0
2ffebba0:	b108      	cbz	r0, 2ffebba6 <stm32mp1_ddr_setup+0x10a>
2ffebba2:	4812      	ldr	r0, [pc, #72]	@ (2ffebbec <stm32mp1_ddr_setup+0x150>)
2ffebba4:	e7dc      	b.n	2ffebb60 <stm32mp1_ddr_setup+0xc4>
2ffebba6:	f008 f935 	bl	2fff3e14 <stm32mp_ddr_check_size>
2ffebbaa:	68aa      	ldr	r2, [r5, #8]
2ffebbac:	4601      	mov	r1, r0
2ffebbae:	4282      	cmp	r2, r0
2ffebbb0:	d903      	bls.n	2ffebbba <stm32mp1_ddr_setup+0x11e>
2ffebbb2:	480f      	ldr	r0, [pc, #60]	@ (2ffebbf0 <stm32mp1_ddr_setup+0x154>)
2ffebbb4:	f001 fe30 	bl	2ffed818 <tf_log>
2ffebbb8:	e7c6      	b.n	2ffebb48 <stm32mp1_ddr_setup+0xac>
2ffebbba:	0d02      	lsrs	r2, r0, #20
2ffebbbc:	480d      	ldr	r0, [pc, #52]	@ (2ffebbf4 <stm32mp1_ddr_setup+0x158>)
2ffebbbe:	f001 fe2b 	bl	2ffed818 <tf_log>
2ffebbc2:	e7d2      	b.n	2ffebb6a <stm32mp1_ddr_setup+0xce>
2ffebbc4:	f06f 0401 	mvn.w	r4, #1
2ffebbc8:	e783      	b.n	2ffebad2 <stm32mp1_ddr_setup+0x36>
2ffebbca:	bf00      	nop
2ffebbcc:	2fff57e0 	.word	0x2fff57e0
2ffebbd0:	2fff7197 	.word	0x2fff7197
2ffebbd4:	2fff72d5 	.word	0x2fff72d5
2ffebbd8:	2fff71a7 	.word	0x2fff71a7
2ffebbdc:	2fffb870 	.word	0x2fffb870
2ffebbe0:	2fff71c8 	.word	0x2fff71c8
2ffebbe4:	2fffc37d 	.word	0x2fffc37d
2ffebbe8:	2fff71f3 	.word	0x2fff71f3
2ffebbec:	2fff7224 	.word	0x2fff7224
2ffebbf0:	2fff7255 	.word	0x2fff7255
2ffebbf4:	2fff7287 	.word	0x2fff7287

2ffebbf8 <stm32mp1_ddr_clk_enable>:
2ffebbf8:	b510      	push	{r4, lr}
2ffebbfa:	460c      	mov	r4, r1
2ffebbfc:	f008 fd5a 	bl	2fff46b4 <ddr_enable_clock>
2ffebc00:	20e0      	movs	r0, #224	@ 0xe0
2ffebc02:	f002 fe61 	bl	2ffee8c8 <clk_get_rate>
2ffebc06:	f44f 737a 	mov.w	r3, #1000	@ 0x3e8
2ffebc0a:	210a      	movs	r1, #10
2ffebc0c:	4363      	muls	r3, r4
2ffebc0e:	4298      	cmp	r0, r3
2ffebc10:	bf8c      	ite	hi
2ffebc12:	1ac2      	subhi	r2, r0, r3
2ffebc14:	1a1a      	subls	r2, r3, r0
2ffebc16:	fbb3 f3f1 	udiv	r3, r3, r1
2ffebc1a:	429a      	cmp	r2, r3
2ffebc1c:	d90a      	bls.n	2ffebc34 <stm32mp1_ddr_clk_enable+0x3c>
2ffebc1e:	f44f 727a 	mov.w	r2, #1000	@ 0x3e8
2ffebc22:	4621      	mov	r1, r4
2ffebc24:	fbb0 f2f2 	udiv	r2, r0, r2
2ffebc28:	4803      	ldr	r0, [pc, #12]	@ (2ffebc38 <stm32mp1_ddr_clk_enable+0x40>)
2ffebc2a:	f001 fdf5 	bl	2ffed818 <tf_log>
2ffebc2e:	f04f 30ff 	mov.w	r0, #4294967295	@ 0xffffffff
2ffebc32:	bd10      	pop	{r4, pc}
2ffebc34:	2000      	movs	r0, #0
2ffebc36:	e7fc      	b.n	2ffebc32 <stm32mp1_ddr_clk_enable+0x3a>
2ffebc38:	2fff72a6 	.word	0x2fff72a6

2ffebc3c <stm32mp1_ddr_is_restored>:
2ffebc3c:	4b01      	ldr	r3, [pc, #4]	@ (2ffebc44 <stm32mp1_ddr_is_restored+0x8>)
2ffebc3e:	7818      	ldrb	r0, [r3, #0]
2ffebc40:	4770      	bx	lr
2ffebc42:	bf00      	nop
2ffebc44:	2fffc37d 	.word	0x2fffc37d

2ffebc48 <stm32mp1_ddr_probe>:
2ffebc48:	b510      	push	{r4, lr}
2ffebc4a:	f001 ff57 	bl	2ffedafc <stm32mp_ddrctrl_base>
2ffebc4e:	4c0c      	ldr	r4, [pc, #48]	@ (2ffebc80 <stm32mp1_ddr_probe+0x38>)
2ffebc50:	6120      	str	r0, [r4, #16]
2ffebc52:	f001 ff57 	bl	2ffedb04 <stm32mp_ddrphyc_base>
2ffebc56:	6160      	str	r0, [r4, #20]
2ffebc58:	f001 ff58 	bl	2ffedb0c <stm32mp_pwr_base>
2ffebc5c:	61a0      	str	r0, [r4, #24]
2ffebc5e:	f008 fa70 	bl	2fff4142 <stm32mp_rcc_base>
2ffebc62:	61e0      	str	r0, [r4, #28]
2ffebc64:	f04f 4240 	mov.w	r2, #3221225472	@ 0xc0000000
2ffebc68:	2300      	movs	r3, #0
2ffebc6a:	e9c4 2300 	strd	r2, r3, [r4]
2ffebc6e:	2200      	movs	r2, #0
2ffebc70:	2300      	movs	r3, #0
2ffebc72:	e9c4 2302 	strd	r2, r3, [r4, #8]
2ffebc76:	e8bd 4010 	ldmia.w	sp!, {r4, lr}
2ffebc7a:	f7ff bf0f 	b.w	2ffeba9c <stm32mp1_ddr_setup>
2ffebc7e:	bf00      	nop
2ffebc80:	2fffb870 	.word	0x2fffb870

2ffebc84 <stm32mp_ddr_dt_get_info>:
2ffebc84:	b570      	push	{r4, r5, r6, lr}
2ffebc86:	1d13      	adds	r3, r2, #4
2ffebc88:	4614      	mov	r4, r2
2ffebc8a:	4605      	mov	r5, r0
2ffebc8c:	4a0e      	ldr	r2, [pc, #56]	@ (2ffebcc8 <stm32mp_ddr_dt_get_info+0x44>)
2ffebc8e:	460e      	mov	r6, r1
2ffebc90:	f007 ffa0 	bl	2fff3bd4 <fdt_read_uint32>
2ffebc94:	2800      	cmp	r0, #0
2ffebc96:	da02      	bge.n	2ffebc9e <stm32mp_ddr_dt_get_info+0x1a>
2ffebc98:	f06f 0015 	mvn.w	r0, #21
2ffebc9c:	bd70      	pop	{r4, r5, r6, pc}
2ffebc9e:	f004 f82b 	bl	2ffefcf8 <dt_get_ddr_size>
2ffebca2:	60a0      	str	r0, [r4, #8]
2ffebca4:	2800      	cmp	r0, #0
2ffebca6:	d0f7      	beq.n	2ffebc98 <stm32mp_ddr_dt_get_info+0x14>
2ffebca8:	4a08      	ldr	r2, [pc, #32]	@ (2ffebccc <stm32mp_ddr_dt_get_info+0x48>)
2ffebcaa:	4631      	mov	r1, r6
2ffebcac:	2300      	movs	r3, #0
2ffebcae:	4628      	mov	r0, r5
2ffebcb0:	f009 fa4e 	bl	2fff5150 <fdt_getprop>
2ffebcb4:	6020      	str	r0, [r4, #0]
2ffebcb6:	4601      	mov	r1, r0
2ffebcb8:	2800      	cmp	r0, #0
2ffebcba:	d0ed      	beq.n	2ffebc98 <stm32mp_ddr_dt_get_info+0x14>
2ffebcbc:	4804      	ldr	r0, [pc, #16]	@ (2ffebcd0 <stm32mp_ddr_dt_get_info+0x4c>)
2ffebcbe:	f001 fdab 	bl	2ffed818 <tf_log>
2ffebcc2:	2000      	movs	r0, #0
2ffebcc4:	e7ea      	b.n	2ffebc9c <stm32mp_ddr_dt_get_info+0x18>
2ffebcc6:	bf00      	nop
2ffebcc8:	2fff7331 	.word	0x2fff7331
2ffebccc:	2fff733e 	.word	0x2fff733e
2ffebcd0:	2fff734a 	.word	0x2fff734a

2ffebcd4 <stm32mp_ddr_dt_get_param>:
2ffebcd4:	e92d 47f3 	stmdb	sp!, {r0, r1, r4, r5, r6, r7, r8, r9, sl, lr}
2ffebcd8:	4680      	mov	r8, r0
2ffebcda:	9d0a      	ldr	r5, [sp, #40]	@ 0x28
2ffebcdc:	468a      	mov	sl, r1
2ffebcde:	461e      	mov	r6, r3
2ffebce0:	4614      	mov	r4, r2
2ffebce2:	2700      	movs	r7, #0
2ffebce4:	42b7      	cmp	r7, r6
2ffebce6:	d101      	bne.n	2ffebcec <stm32mp_ddr_dt_get_param+0x18>
2ffebce8:	2000      	movs	r0, #0
2ffebcea:	e014      	b.n	2ffebd16 <stm32mp_ddr_dt_get_param+0x42>
2ffebcec:	6863      	ldr	r3, [r4, #4]
2ffebcee:	46a1      	mov	r9, r4
2ffebcf0:	4651      	mov	r1, sl
2ffebcf2:	4640      	mov	r0, r8
2ffebcf4:	442b      	add	r3, r5
2ffebcf6:	9300      	str	r3, [sp, #0]
2ffebcf8:	68a3      	ldr	r3, [r4, #8]
2ffebcfa:	f854 2b0c 	ldr.w	r2, [r4], #12
2ffebcfe:	f7fe f8d7 	bl	2ffe9eb0 <fdt_read_uint32_array>
2ffebd02:	4603      	mov	r3, r0
2ffebd04:	b150      	cbz	r0, 2ffebd1c <stm32mp_ddr_dt_get_param+0x48>
2ffebd06:	4806      	ldr	r0, [pc, #24]	@ (2ffebd20 <stm32mp_ddr_dt_get_param+0x4c>)
2ffebd08:	f8d9 2000 	ldr.w	r2, [r9]
2ffebd0c:	4905      	ldr	r1, [pc, #20]	@ (2ffebd24 <stm32mp_ddr_dt_get_param+0x50>)
2ffebd0e:	f001 fd83 	bl	2ffed818 <tf_log>
2ffebd12:	f06f 0015 	mvn.w	r0, #21
2ffebd16:	b002      	add	sp, #8
2ffebd18:	e8bd 87f0 	ldmia.w	sp!, {r4, r5, r6, r7, r8, r9, sl, pc}
2ffebd1c:	3701      	adds	r7, #1
2ffebd1e:	e7e1      	b.n	2ffebce4 <stm32mp_ddr_dt_get_param+0x10>
2ffebd20:	2fff7354 	.word	0x2fff7354
2ffebd24:	2fff7373 	.word	0x2fff7373

2ffebd28 <stm32_sdmmc2_set_ios>:
2ffebd28:	b5f8      	push	{r3, r4, r5, r6, r7, lr}
2ffebd2a:	2902      	cmp	r1, #2
2ffebd2c:	4c15      	ldr	r4, [pc, #84]	@ (2ffebd84 <stm32_sdmmc2_set_ios+0x5c>)
2ffebd2e:	6922      	ldr	r2, [r4, #16]
2ffebd30:	6825      	ldr	r5, [r4, #0]
2ffebd32:	6860      	ldr	r0, [r4, #4]
2ffebd34:	68d3      	ldr	r3, [r2, #12]
2ffebd36:	d806      	bhi.n	2ffebd46 <stm32_sdmmc2_set_ios+0x1e>
2ffebd38:	6952      	ldr	r2, [r2, #20]
2ffebd3a:	0389      	lsls	r1, r1, #14
2ffebd3c:	b13a      	cbz	r2, 2ffebd4e <stm32_sdmmc2_set_ios+0x26>
2ffebd3e:	4f12      	ldr	r7, [pc, #72]	@ (2ffebd88 <stm32_sdmmc2_set_ios+0x60>)
2ffebd40:	4a12      	ldr	r2, [pc, #72]	@ (2ffebd8c <stm32_sdmmc2_set_ios+0x64>)
2ffebd42:	4e13      	ldr	r6, [pc, #76]	@ (2ffebd90 <stm32_sdmmc2_set_ios+0x68>)
2ffebd44:	e006      	b.n	2ffebd54 <stm32_sdmmc2_set_ios+0x2c>
2ffebd46:	f001 fe03 	bl	2ffed950 <console_flush>
2ffebd4a:	f7fd eb48 	blx	2ffe93dc <do_panic>
2ffebd4e:	4f11      	ldr	r7, [pc, #68]	@ (2ffebd94 <stm32_sdmmc2_set_ios+0x6c>)
2ffebd50:	4a11      	ldr	r2, [pc, #68]	@ (2ffebd98 <stm32_sdmmc2_set_ios+0x70>)
2ffebd52:	4e12      	ldr	r6, [pc, #72]	@ (2ffebd9c <stm32_sdmmc2_set_ios+0x74>)
2ffebd54:	42bb      	cmp	r3, r7
2ffebd56:	bf88      	it	hi
2ffebd58:	4632      	movhi	r2, r6
2ffebd5a:	6aa3      	ldr	r3, [r4, #40]	@ 0x28
2ffebd5c:	b113      	cbz	r3, 2ffebd64 <stm32_sdmmc2_set_ios+0x3c>
2ffebd5e:	429a      	cmp	r2, r3
2ffebd60:	bf28      	it	cs
2ffebd62:	461a      	movcs	r2, r3
2ffebd64:	69a3      	ldr	r3, [r4, #24]
2ffebd66:	3801      	subs	r0, #1
2ffebd68:	0056      	lsls	r6, r2, #1
2ffebd6a:	eb00 0242 	add.w	r2, r0, r2, lsl #1
2ffebd6e:	2000      	movs	r0, #0
2ffebd70:	6964      	ldr	r4, [r4, #20]
2ffebd72:	fbb2 f2f6 	udiv	r2, r2, r6
2ffebd76:	4323      	orrs	r3, r4
2ffebd78:	4313      	orrs	r3, r2
2ffebd7a:	430b      	orrs	r3, r1
2ffebd7c:	f443 3300 	orr.w	r3, r3, #131072	@ 0x20000
2ffebd80:	606b      	str	r3, [r5, #4]
2ffebd82:	bdf8      	pop	{r3, r4, r5, r6, r7, pc}
2ffebd84:	2fffba1c 	.word	0x2fffba1c
2ffebd88:	02faf07f 	.word	0x02faf07f
2ffebd8c:	017d7840 	.word	0x017d7840
2ffebd90:	02faf080 	.word	0x02faf080
2ffebd94:	031974ff 	.word	0x031974ff
2ffebd98:	018cba80 	.word	0x018cba80
2ffebd9c:	03197500 	.word	0x03197500

2ffebda0 <stm32_sdmmc2_init>:
2ffebda0:	b570      	push	{r4, r5, r6, lr}
2ffebda2:	4c20      	ldr	r4, [pc, #128]	@ (2ffebe24 <stm32_sdmmc2_init+0x84>)
2ffebda4:	4e20      	ldr	r6, [pc, #128]	@ (2ffebe28 <stm32_sdmmc2_init+0x88>)
2ffebda6:	6aa3      	ldr	r3, [r4, #40]	@ 0x28
2ffebda8:	6825      	ldr	r5, [r4, #0]
2ffebdaa:	b113      	cbz	r3, 2ffebdb2 <stm32_sdmmc2_init+0x12>
2ffebdac:	429e      	cmp	r6, r3
2ffebdae:	bf28      	it	cs
2ffebdb0:	461e      	movcs	r6, r3
2ffebdb2:	6b20      	ldr	r0, [r4, #48]	@ 0x30
2ffebdb4:	b138      	cbz	r0, 2ffebdc6 <stm32_sdmmc2_init+0x26>
2ffebdb6:	f003 fc25 	bl	2ffef604 <regulator_disable>
2ffebdba:	2800      	cmp	r0, #0
2ffebdbc:	da03      	bge.n	2ffebdc6 <stm32_sdmmc2_init+0x26>
2ffebdbe:	f001 fdc7 	bl	2ffed950 <console_flush>
2ffebdc2:	f7fd eb0c 	blx	2ffe93dc <do_panic>
2ffebdc6:	2002      	movs	r0, #2
2ffebdc8:	f008 fb14 	bl	2fff43f4 <mdelay>
2ffebdcc:	69e3      	ldr	r3, [r4, #28]
2ffebdce:	2002      	movs	r0, #2
2ffebdd0:	f043 0302 	orr.w	r3, r3, #2
2ffebdd4:	602b      	str	r3, [r5, #0]
2ffebdd6:	f008 fb0d 	bl	2fff43f4 <mdelay>
2ffebdda:	6b20      	ldr	r0, [r4, #48]	@ 0x30
2ffebddc:	b118      	cbz	r0, 2ffebde6 <stm32_sdmmc2_init+0x46>
2ffebdde:	f003 fbf9 	bl	2ffef5d4 <regulator_enable>
2ffebde2:	2800      	cmp	r0, #0
2ffebde4:	dbeb      	blt.n	2ffebdbe <stm32_sdmmc2_init+0x1e>
2ffebde6:	2002      	movs	r0, #2
2ffebde8:	f008 fb04 	bl	2fff43f4 <mdelay>
2ffebdec:	69e3      	ldr	r3, [r4, #28]
2ffebdee:	2002      	movs	r0, #2
2ffebdf0:	602b      	str	r3, [r5, #0]
2ffebdf2:	f008 faff 	bl	2fff43f4 <mdelay>
2ffebdf6:	6863      	ldr	r3, [r4, #4]
2ffebdf8:	2001      	movs	r0, #1
2ffebdfa:	0072      	lsls	r2, r6, #1
2ffebdfc:	6961      	ldr	r1, [r4, #20]
2ffebdfe:	3b01      	subs	r3, #1
2ffebe00:	eb03 0346 	add.w	r3, r3, r6, lsl #1
2ffebe04:	fbb3 f3f2 	udiv	r3, r3, r2
2ffebe08:	69a2      	ldr	r2, [r4, #24]
2ffebe0a:	430a      	orrs	r2, r1
2ffebe0c:	4313      	orrs	r3, r2
2ffebe0e:	f443 3300 	orr.w	r3, r3, #131072	@ 0x20000
2ffebe12:	606b      	str	r3, [r5, #4]
2ffebe14:	69e3      	ldr	r3, [r4, #28]
2ffebe16:	f043 0303 	orr.w	r3, r3, #3
2ffebe1a:	602b      	str	r3, [r5, #0]
2ffebe1c:	e8bd 4070 	ldmia.w	sp!, {r4, r5, r6, lr}
2ffebe20:	f008 bae8 	b.w	2fff43f4 <mdelay>
2ffebe24:	2fffba1c 	.word	0x2fffba1c
2ffebe28:	00061a80 	.word	0x00061a80

2ffebe2c <stm32_sdmmc2_send_cmd>:
2ffebe2c:	e92d 4ff0 	stmdb	sp!, {r4, r5, r6, r7, r8, r9, sl, fp, lr}
2ffebe30:	4605      	mov	r5, r0
2ffebe32:	b085      	sub	sp, #20
2ffebe34:	b920      	cbnz	r0, 2ffebe40 <stm32_sdmmc2_send_cmd+0x14>
2ffebe36:	4890      	ldr	r0, [pc, #576]	@ (2ffec078 <stm32_sdmmc2_send_cmd+0x24c>)
2ffebe38:	f240 11c9 	movw	r1, #457	@ 0x1c9
2ffebe3c:	f007 fc76 	bl	2fff372c <__assert>
2ffebe40:	f8df a238 	ldr.w	sl, [pc, #568]	@ 2ffec07c <stm32_sdmmc2_send_cmd+0x250>
2ffebe44:	f04f 0b01 	mov.w	fp, #1
2ffebe48:	f8da 4000 	ldr.w	r4, [sl]
2ffebe4c:	686a      	ldr	r2, [r5, #4]
2ffebe4e:	68e3      	ldr	r3, [r4, #12]
2ffebe50:	04de      	lsls	r6, r3, #19
2ffebe52:	bf44      	itt	mi
2ffebe54:	2300      	movmi	r3, #0
2ffebe56:	60e3      	strmi	r3, [r4, #12]
2ffebe58:	682b      	ldr	r3, [r5, #0]
2ffebe5a:	68a9      	ldr	r1, [r5, #8]
2ffebe5c:	f443 5880 	orr.w	r8, r3, #4096	@ 0x1000
2ffebe60:	b311      	cbz	r1, 2ffebea8 <stm32_sdmmc2_send_cmd+0x7c>
2ffebe62:	07c8      	lsls	r0, r1, #31
2ffebe64:	d523      	bpl.n	2ffebeae <stm32_sdmmc2_send_cmd+0x82>
2ffebe66:	078f      	lsls	r7, r1, #30
2ffebe68:	d504      	bpl.n	2ffebe74 <stm32_sdmmc2_send_cmd+0x48>
2ffebe6a:	f443 5898 	orr.w	r8, r3, #4864	@ 0x1300
2ffebe6e:	f04f 0944 	mov.w	r9, #68	@ 0x44
2ffebe72:	e005      	b.n	2ffebe80 <stm32_sdmmc2_send_cmd+0x54>
2ffebe74:	074e      	lsls	r6, r1, #29
2ffebe76:	d514      	bpl.n	2ffebea2 <stm32_sdmmc2_send_cmd+0x76>
2ffebe78:	f443 5888 	orr.w	r8, r3, #4352	@ 0x1100
2ffebe7c:	f04f 0945 	mov.w	r9, #69	@ 0x45
2ffebe80:	2b12      	cmp	r3, #18
2ffebe82:	d817      	bhi.n	2ffebeb4 <stm32_sdmmc2_send_cmd+0x88>
2ffebe84:	b1db      	cbz	r3, 2ffebebe <stm32_sdmmc2_send_cmd+0x92>
2ffebe86:	1e59      	subs	r1, r3, #1
2ffebe88:	2911      	cmp	r1, #17
2ffebe8a:	d818      	bhi.n	2ffebebe <stm32_sdmmc2_send_cmd+0x92>
2ffebe8c:	e8df f001 	tbb	[pc, r1]
2ffebe90:	17171719 	.word	0x17171719
2ffebe94:	2c171c17 	.word	0x2c171c17
2ffebe98:	94171717 	.word	0x94171717
2ffebe9c:	17171717 	.word	0x17171717
2ffebea0:	9797      	.short	0x9797
2ffebea2:	f443 5890 	orr.w	r8, r3, #4608	@ 0x1200
2ffebea6:	e7e2      	b.n	2ffebe6e <stm32_sdmmc2_send_cmd+0x42>
2ffebea8:	f04f 0984 	mov.w	r9, #132	@ 0x84
2ffebeac:	e7e8      	b.n	2ffebe80 <stm32_sdmmc2_send_cmd+0x54>
2ffebeae:	f04f 0904 	mov.w	r9, #4
2ffebeb2:	e7e5      	b.n	2ffebe80 <stm32_sdmmc2_send_cmd+0x54>
2ffebeb4:	2b29      	cmp	r3, #41	@ 0x29
2ffebeb6:	f000 808b 	beq.w	2ffebfd0 <stm32_sdmmc2_send_cmd+0x1a4>
2ffebeba:	2b33      	cmp	r3, #51	@ 0x33
2ffebebc:	d00d      	beq.n	2ffebeda <stm32_sdmmc2_send_cmd+0xae>
2ffebebe:	2600      	movs	r6, #0
2ffebec0:	e019      	b.n	2ffebef6 <stm32_sdmmc2_send_cmd+0xca>
2ffebec2:	f042 4200 	orr.w	r2, r2, #2147483648	@ 0x80000000
2ffebec6:	e7fa      	b.n	2ffebebe <stm32_sdmmc2_send_cmd+0x92>
2ffebec8:	f8da 1010 	ldr.w	r1, [sl, #16]
2ffebecc:	6949      	ldr	r1, [r1, #20]
2ffebece:	2902      	cmp	r1, #2
2ffebed0:	d1f5      	bne.n	2ffebebe <stm32_sdmmc2_send_cmd+0x92>
2ffebed2:	496b      	ldr	r1, [pc, #428]	@ (2ffec080 <stm32_sdmmc2_send_cmd+0x254>)
2ffebed4:	7809      	ldrb	r1, [r1, #0]
2ffebed6:	2900      	cmp	r1, #0
2ffebed8:	d1f1      	bne.n	2ffebebe <stm32_sdmmc2_send_cmd+0x92>
2ffebeda:	f89a 102c 	ldrb.w	r1, [sl, #44]	@ 0x2c
2ffebede:	f048 0840 	orr.w	r8, r8, #64	@ 0x40
2ffebee2:	4e68      	ldr	r6, [pc, #416]	@ (2ffec084 <stm32_sdmmc2_send_cmd+0x258>)
2ffebee4:	2900      	cmp	r1, #0
2ffebee6:	e070      	b.n	2ffebfca <stm32_sdmmc2_send_cmd+0x19e>
2ffebee8:	f8da 1010 	ldr.w	r1, [sl, #16]
2ffebeec:	694e      	ldr	r6, [r1, #20]
2ffebeee:	2e00      	cmp	r6, #0
2ffebef0:	d1e5      	bne.n	2ffebebe <stm32_sdmmc2_send_cmd+0x92>
2ffebef2:	f048 0840 	orr.w	r8, r8, #64	@ 0x40
2ffebef6:	f1a3 0037 	sub.w	r0, r3, #55	@ 0x37
2ffebefa:	4241      	negs	r1, r0
2ffebefc:	4141      	adcs	r1, r0
2ffebefe:	4860      	ldr	r0, [pc, #384]	@ (2ffec080 <stm32_sdmmc2_send_cmd+0x254>)
2ffebf00:	7001      	strb	r1, [r0, #0]
2ffebf02:	4961      	ldr	r1, [pc, #388]	@ (2ffec088 <stm32_sdmmc2_send_cmd+0x25c>)
2ffebf04:	63a1      	str	r1, [r4, #56]	@ 0x38
2ffebf06:	f018 0140 	ands.w	r1, r8, #64	@ 0x40
2ffebf0a:	d102      	bne.n	2ffebf12 <stm32_sdmmc2_send_cmd+0xe6>
2ffebf0c:	2b37      	cmp	r3, #55	@ 0x37
2ffebf0e:	bf18      	it	ne
2ffebf10:	62e1      	strne	r1, [r4, #44]	@ 0x2c
2ffebf12:	68ab      	ldr	r3, [r5, #8]
2ffebf14:	06d9      	lsls	r1, r3, #27
2ffebf16:	bf44      	itt	mi
2ffebf18:	f04f 33ff 	movmi.w	r3, #4294967295	@ 0xffffffff
2ffebf1c:	6263      	strmi	r3, [r4, #36]	@ 0x24
2ffebf1e:	f104 0334 	add.w	r3, r4, #52	@ 0x34
2ffebf22:	60a2      	str	r2, [r4, #8]
2ffebf24:	9302      	str	r3, [sp, #8]
2ffebf26:	f8c4 800c 	str.w	r8, [r4, #12]
2ffebf2a:	6b67      	ldr	r7, [r4, #52]	@ 0x34
2ffebf2c:	ee1e 1f10 	mrc	15, 0, r1, cr14, cr0, {0}
2ffebf30:	ec53 2f0e 	mrrc	15, 0, r2, r3, cr14
2ffebf34:	e9cd 2300 	strd	r2, r3, [sp]
2ffebf38:	9b00      	ldr	r3, [sp, #0]
2ffebf3a:	f242 7010 	movw	r0, #10000	@ 0x2710
2ffebf3e:	4a53      	ldr	r2, [pc, #332]	@ (2ffec08c <stm32_sdmmc2_send_cmd+0x260>)
2ffebf40:	9303      	str	r3, [sp, #12]
2ffebf42:	2300      	movs	r3, #0
2ffebf44:	fba1 0100 	umull	r0, r1, r1, r0
2ffebf48:	f007 ea8c 	blx	2fff3464 <__aeabi_uldivmod>
2ffebf4c:	9b03      	ldr	r3, [sp, #12]
2ffebf4e:	18c0      	adds	r0, r0, r3
2ffebf50:	9b01      	ldr	r3, [sp, #4]
2ffebf52:	eb41 0103 	adc.w	r1, r1, r3
2ffebf56:	ea19 0f07 	tst.w	r9, r7
2ffebf5a:	d03c      	beq.n	2ffebfd6 <stm32_sdmmc2_send_cmd+0x1aa>
2ffebf5c:	f017 0f05 	tst.w	r7, #5
2ffebf60:	d063      	beq.n	2ffec02a <stm32_sdmmc2_send_cmd+0x1fe>
2ffebf62:	682a      	ldr	r2, [r5, #0]
2ffebf64:	f017 0f04 	tst.w	r7, #4
2ffebf68:	4e47      	ldr	r6, [pc, #284]	@ (2ffec088 <stm32_sdmmc2_send_cmd+0x25c>)
2ffebf6a:	d051      	beq.n	2ffec010 <stm32_sdmmc2_send_cmd+0x1e4>
2ffebf6c:	2a01      	cmp	r2, #1
2ffebf6e:	d140      	bne.n	2ffebff2 <stm32_sdmmc2_send_cmd+0x1c6>
2ffebf70:	63a6      	str	r6, [r4, #56]	@ 0x38
2ffebf72:	68e3      	ldr	r3, [r4, #12]
2ffebf74:	f06f 063b 	mvn.w	r6, #59	@ 0x3b
2ffebf78:	f023 0340 	bic.w	r3, r3, #64	@ 0x40
2ffebf7c:	60e3      	str	r3, [r4, #12]
2ffebf7e:	04fb      	lsls	r3, r7, #19
2ffebf80:	d503      	bpl.n	2ffebf8a <stm32_sdmmc2_send_cmd+0x15e>
2ffebf82:	f007 ff60 	bl	2fff3e46 <stm32_sdmmc2_stop_transfer>
2ffebf86:	4604      	mov	r4, r0
2ffebf88:	b900      	cbnz	r0, 2ffebf8c <stm32_sdmmc2_send_cmd+0x160>
2ffebf8a:	4634      	mov	r4, r6
2ffebf8c:	6829      	ldr	r1, [r5, #0]
2ffebf8e:	2901      	cmp	r1, #1
2ffebf90:	d062      	beq.n	2ffec058 <stm32_sdmmc2_send_cmd+0x22c>
2ffebf92:	290d      	cmp	r1, #13
2ffebf94:	d060      	beq.n	2ffec058 <stm32_sdmmc2_send_cmd+0x22c>
2ffebf96:	2908      	cmp	r1, #8
2ffebf98:	d004      	beq.n	2ffebfa4 <stm32_sdmmc2_send_cmd+0x178>
2ffebf9a:	483d      	ldr	r0, [pc, #244]	@ (2ffec090 <stm32_sdmmc2_send_cmd+0x264>)
2ffebf9c:	4623      	mov	r3, r4
2ffebf9e:	465a      	mov	r2, fp
2ffebfa0:	f001 fc3a 	bl	2ffed818 <tf_log>
2ffebfa4:	200a      	movs	r0, #10
2ffebfa6:	f10b 0b01 	add.w	fp, fp, #1
2ffebfaa:	f002 fcc9 	bl	2ffee940 <udelay>
2ffebfae:	f1bb 0f04 	cmp.w	fp, #4
2ffebfb2:	f47f af49 	bne.w	2ffebe48 <stm32_sdmmc2_send_cmd+0x1c>
2ffebfb6:	e050      	b.n	2ffec05a <stm32_sdmmc2_send_cmd+0x22e>
2ffebfb8:	f048 0880 	orr.w	r8, r8, #128	@ 0x80
2ffebfbc:	e77f      	b.n	2ffebebe <stm32_sdmmc2_send_cmd+0x92>
2ffebfbe:	f89a 102c 	ldrb.w	r1, [sl, #44]	@ 0x2c
2ffebfc2:	f048 0840 	orr.w	r8, r8, #64	@ 0x40
2ffebfc6:	4e33      	ldr	r6, [pc, #204]	@ (2ffec094 <stm32_sdmmc2_send_cmd+0x268>)
2ffebfc8:	2900      	cmp	r1, #0
2ffebfca:	bf08      	it	eq
2ffebfcc:	2600      	moveq	r6, #0
2ffebfce:	e792      	b.n	2ffebef6 <stm32_sdmmc2_send_cmd+0xca>
2ffebfd0:	f442 1240 	orr.w	r2, r2, #3145728	@ 0x300000
2ffebfd4:	e773      	b.n	2ffebebe <stm32_sdmmc2_send_cmd+0x92>
2ffebfd6:	ec53 2f0e 	mrrc	15, 0, r2, r3, cr14
2ffebfda:	4290      	cmp	r0, r2
2ffebfdc:	eb71 0303 	sbcs.w	r3, r1, r3
2ffebfe0:	d204      	bcs.n	2ffebfec <stm32_sdmmc2_send_cmd+0x1c0>
2ffebfe2:	682a      	ldr	r2, [r5, #0]
2ffebfe4:	463b      	mov	r3, r7
2ffebfe6:	492c      	ldr	r1, [pc, #176]	@ (2ffec098 <stm32_sdmmc2_send_cmd+0x26c>)
2ffebfe8:	482c      	ldr	r0, [pc, #176]	@ (2ffec09c <stm32_sdmmc2_send_cmd+0x270>)
2ffebfea:	e00c      	b.n	2ffec006 <stm32_sdmmc2_send_cmd+0x1da>
2ffebfec:	9b02      	ldr	r3, [sp, #8]
2ffebfee:	681f      	ldr	r7, [r3, #0]
2ffebff0:	e7b1      	b.n	2ffebf56 <stm32_sdmmc2_send_cmd+0x12a>
2ffebff2:	2a0d      	cmp	r2, #13
2ffebff4:	d0bc      	beq.n	2ffebf70 <stm32_sdmmc2_send_cmd+0x144>
2ffebff6:	2a08      	cmp	r2, #8
2ffebff8:	d102      	bne.n	2ffec000 <stm32_sdmmc2_send_cmd+0x1d4>
2ffebffa:	68ab      	ldr	r3, [r5, #8]
2ffebffc:	2b0d      	cmp	r3, #13
2ffebffe:	d0b7      	beq.n	2ffebf70 <stm32_sdmmc2_send_cmd+0x144>
2ffec000:	4925      	ldr	r1, [pc, #148]	@ (2ffec098 <stm32_sdmmc2_send_cmd+0x26c>)
2ffec002:	463b      	mov	r3, r7
2ffec004:	4826      	ldr	r0, [pc, #152]	@ (2ffec0a0 <stm32_sdmmc2_send_cmd+0x274>)
2ffec006:	f001 fc07 	bl	2ffed818 <tf_log>
2ffec00a:	4b1f      	ldr	r3, [pc, #124]	@ (2ffec088 <stm32_sdmmc2_send_cmd+0x25c>)
2ffec00c:	63a3      	str	r3, [r4, #56]	@ 0x38
2ffec00e:	e7b0      	b.n	2ffebf72 <stm32_sdmmc2_send_cmd+0x146>
2ffec010:	4921      	ldr	r1, [pc, #132]	@ (2ffec098 <stm32_sdmmc2_send_cmd+0x26c>)
2ffec012:	463b      	mov	r3, r7
2ffec014:	4823      	ldr	r0, [pc, #140]	@ (2ffec0a4 <stm32_sdmmc2_send_cmd+0x278>)
2ffec016:	f001 fbff 	bl	2ffed818 <tf_log>
2ffec01a:	63a6      	str	r6, [r4, #56]	@ 0x38
2ffec01c:	f06f 0604 	mvn.w	r6, #4
2ffec020:	68e3      	ldr	r3, [r4, #12]
2ffec022:	f023 0340 	bic.w	r3, r3, #64	@ 0x40
2ffec026:	60e3      	str	r3, [r4, #12]
2ffec028:	e7a9      	b.n	2ffebf7e <stm32_sdmmc2_send_cmd+0x152>
2ffec02a:	f418 7840 	ands.w	r8, r8, #768	@ 0x300
2ffec02e:	d010      	beq.n	2ffec052 <stm32_sdmmc2_send_cmd+0x226>
2ffec030:	682b      	ldr	r3, [r5, #0]
2ffec032:	2b09      	cmp	r3, #9
2ffec034:	d115      	bne.n	2ffec062 <stm32_sdmmc2_send_cmd+0x236>
2ffec036:	f5b8 7f40 	cmp.w	r8, #768	@ 0x300
2ffec03a:	d108      	bne.n	2ffec04e <stm32_sdmmc2_send_cmd+0x222>
2ffec03c:	6a23      	ldr	r3, [r4, #32]
2ffec03e:	60eb      	str	r3, [r5, #12]
2ffec040:	69e3      	ldr	r3, [r4, #28]
2ffec042:	612b      	str	r3, [r5, #16]
2ffec044:	69a3      	ldr	r3, [r4, #24]
2ffec046:	616b      	str	r3, [r5, #20]
2ffec048:	6963      	ldr	r3, [r4, #20]
2ffec04a:	61ab      	str	r3, [r5, #24]
2ffec04c:	e001      	b.n	2ffec052 <stm32_sdmmc2_send_cmd+0x226>
2ffec04e:	6963      	ldr	r3, [r4, #20]
2ffec050:	60eb      	str	r3, [r5, #12]
2ffec052:	bb4e      	cbnz	r6, 2ffec0a8 <stm32_sdmmc2_send_cmd+0x27c>
2ffec054:	4b0c      	ldr	r3, [pc, #48]	@ (2ffec088 <stm32_sdmmc2_send_cmd+0x25c>)
2ffec056:	63a3      	str	r3, [r4, #56]	@ 0x38
2ffec058:	2400      	movs	r4, #0
2ffec05a:	4620      	mov	r0, r4
2ffec05c:	b005      	add	sp, #20
2ffec05e:	e8bd 8ff0 	ldmia.w	sp!, {r4, r5, r6, r7, r8, r9, sl, fp, pc}
2ffec062:	6963      	ldr	r3, [r4, #20]
2ffec064:	f5b8 7f40 	cmp.w	r8, #768	@ 0x300
2ffec068:	60eb      	str	r3, [r5, #12]
2ffec06a:	d1f2      	bne.n	2ffec052 <stm32_sdmmc2_send_cmd+0x226>
2ffec06c:	69a3      	ldr	r3, [r4, #24]
2ffec06e:	612b      	str	r3, [r5, #16]
2ffec070:	69e3      	ldr	r3, [r4, #28]
2ffec072:	616b      	str	r3, [r5, #20]
2ffec074:	6a23      	ldr	r3, [r4, #32]
2ffec076:	e7e8      	b.n	2ffec04a <stm32_sdmmc2_send_cmd+0x21e>
2ffec078:	2fff738c 	.word	0x2fff738c
2ffec07c:	2fffba1c 	.word	0x2fffba1c
2ffec080:	2fffc37e 	.word	0x2fffc37e
2ffec084:	0800052a 	.word	0x0800052a
2ffec088:	180005ff 	.word	0x180005ff
2ffec08c:	000f4240 	.word	0x000f4240
2ffec090:	2fff7447 	.word	0x2fff7447
2ffec094:	0800012a 	.word	0x0800012a
2ffec098:	2fff752d 	.word	0x2fff752d
2ffec09c:	2fff73aa 	.word	0x2fff73aa
2ffec0a0:	2fff73d4 	.word	0x2fff73d4
2ffec0a4:	2fff73fa 	.word	0x2fff73fa
2ffec0a8:	6b67      	ldr	r7, [r4, #52]	@ 0x34
2ffec0aa:	ee1e 1f10 	mrc	15, 0, r1, cr14, cr0, {0}
2ffec0ae:	ec53 2f0e 	mrrc	15, 0, r2, r3, cr14
2ffec0b2:	f242 7010 	movw	r0, #10000	@ 0x2710
2ffec0b6:	e9cd 2300 	strd	r2, r3, [sp]
2ffec0ba:	f8dd 8000 	ldr.w	r8, [sp]
2ffec0be:	2300      	movs	r3, #0
2ffec0c0:	4a12      	ldr	r2, [pc, #72]	@ (2ffec10c <stm32_sdmmc2_send_cmd+0x2e0>)
2ffec0c2:	fba1 0100 	umull	r0, r1, r1, r0
2ffec0c6:	f007 e9ce 	blx	2fff3464 <__aeabi_uldivmod>
2ffec0ca:	9b01      	ldr	r3, [sp, #4]
2ffec0cc:	eb10 0008 	adds.w	r0, r0, r8
2ffec0d0:	eb41 0103 	adc.w	r1, r1, r3
2ffec0d4:	423e      	tst	r6, r7
2ffec0d6:	d008      	beq.n	2ffec0ea <stm32_sdmmc2_send_cmd+0x2be>
2ffec0d8:	4b0d      	ldr	r3, [pc, #52]	@ (2ffec110 <stm32_sdmmc2_send_cmd+0x2e4>)
2ffec0da:	4e0e      	ldr	r6, [pc, #56]	@ (2ffec114 <stm32_sdmmc2_send_cmd+0x2e8>)
2ffec0dc:	421f      	tst	r7, r3
2ffec0de:	d00e      	beq.n	2ffec0fe <stm32_sdmmc2_send_cmd+0x2d2>
2ffec0e0:	682a      	ldr	r2, [r5, #0]
2ffec0e2:	463b      	mov	r3, r7
2ffec0e4:	490c      	ldr	r1, [pc, #48]	@ (2ffec118 <stm32_sdmmc2_send_cmd+0x2ec>)
2ffec0e6:	480d      	ldr	r0, [pc, #52]	@ (2ffec11c <stm32_sdmmc2_send_cmd+0x2f0>)
2ffec0e8:	e795      	b.n	2ffec016 <stm32_sdmmc2_send_cmd+0x1ea>
2ffec0ea:	ec53 2f0e 	mrrc	15, 0, r2, r3, cr14
2ffec0ee:	4290      	cmp	r0, r2
2ffec0f0:	eb71 0303 	sbcs.w	r3, r1, r3
2ffec0f4:	f4ff af75 	bcc.w	2ffebfe2 <stm32_sdmmc2_send_cmd+0x1b6>
2ffec0f8:	9b02      	ldr	r3, [sp, #8]
2ffec0fa:	681f      	ldr	r7, [r3, #0]
2ffec0fc:	e7ea      	b.n	2ffec0d4 <stm32_sdmmc2_send_cmd+0x2a8>
2ffec0fe:	63a6      	str	r6, [r4, #56]	@ 0x38
2ffec100:	68e3      	ldr	r3, [r4, #12]
2ffec102:	f023 0340 	bic.w	r3, r3, #64	@ 0x40
2ffec106:	60e3      	str	r3, [r4, #12]
2ffec108:	e7a6      	b.n	2ffec058 <stm32_sdmmc2_send_cmd+0x22c>
2ffec10a:	bf00      	nop
2ffec10c:	000f4240 	.word	0x000f4240
2ffec110:	0800003a 	.word	0x0800003a
2ffec114:	180005ff 	.word	0x180005ff
2ffec118:	2fff752d 	.word	0x2fff752d
2ffec11c:	2fff741f 	.word	0x2fff741f

2ffec120 <stm32_sdmmc2_read>:
2ffec120:	4608      	mov	r0, r1
2ffec122:	4611      	mov	r1, r2
2ffec124:	4a35      	ldr	r2, [pc, #212]	@ (2ffec1fc <stm32_sdmmc2_read+0xdc>)
2ffec126:	b5f8      	push	{r3, r4, r5, r6, r7, lr}
2ffec128:	6814      	ldr	r4, [r2, #0]
2ffec12a:	0783      	lsls	r3, r0, #30
2ffec12c:	f104 0c80 	add.w	ip, r4, #128	@ 0x80
2ffec130:	d004      	beq.n	2ffec13c <stm32_sdmmc2_read+0x1c>
2ffec132:	4833      	ldr	r0, [pc, #204]	@ (2ffec200 <stm32_sdmmc2_read+0xe0>)
2ffec134:	f240 2163 	movw	r1, #611	@ 0x263
2ffec138:	f007 faf8 	bl	2fff372c <__assert>
2ffec13c:	f892 202c 	ldrb.w	r2, [r2, #44]	@ 0x2c
2ffec140:	4603      	mov	r3, r0
2ffec142:	b11a      	cbz	r2, 2ffec14c <stm32_sdmmc2_read+0x2c>
2ffec144:	f7fd e9be 	blx	2ffe94c4 <inv_dcache_range>
2ffec148:	2000      	movs	r0, #0
2ffec14a:	e020      	b.n	2ffec18e <stm32_sdmmc2_read+0x6e>
2ffec14c:	f5b1 7f00 	cmp.w	r1, #512	@ 0x200
2ffec150:	f240 552a 	movw	r5, #1322	@ 0x52a
2ffec154:	bf88      	it	hi
2ffec156:	f44f 7595 	movhi.w	r5, #298	@ 0x12a
2ffec15a:	ee1e 2f10 	mrc	15, 0, r2, cr14, cr0, {0}
2ffec15e:	ec57 6f0e 	mrrc	15, 0, r6, r7, cr14
2ffec162:	1990      	adds	r0, r2, r6
2ffec164:	f147 0e00 	adc.w	lr, r7, #0
2ffec168:	6b62      	ldr	r2, [r4, #52]	@ 0x34
2ffec16a:	f012 0f2a 	tst.w	r2, #42	@ 0x2a
2ffec16e:	d00f      	beq.n	2ffec190 <stm32_sdmmc2_read+0x70>
2ffec170:	4924      	ldr	r1, [pc, #144]	@ (2ffec204 <stm32_sdmmc2_read+0xe4>)
2ffec172:	4825      	ldr	r0, [pc, #148]	@ (2ffec208 <stm32_sdmmc2_read+0xe8>)
2ffec174:	f001 fb50 	bl	2ffed818 <tf_log>
2ffec178:	f44f 5300 	mov.w	r3, #8192	@ 0x2000
2ffec17c:	62e3      	str	r3, [r4, #44]	@ 0x2c
2ffec17e:	4b23      	ldr	r3, [pc, #140]	@ (2ffec20c <stm32_sdmmc2_read+0xec>)
2ffec180:	63a3      	str	r3, [r4, #56]	@ 0x38
2ffec182:	f007 fe60 	bl	2fff3e46 <stm32_sdmmc2_stop_transfer>
2ffec186:	2800      	cmp	r0, #0
2ffec188:	bf08      	it	eq
2ffec18a:	f06f 0004 	mvneq.w	r0, #4
2ffec18e:	bdf8      	pop	{r3, r4, r5, r6, r7, pc}
2ffec190:	ec57 6f0e 	mrrc	15, 0, r6, r7, cr14
2ffec194:	42b0      	cmp	r0, r6
2ffec196:	eb7e 0607 	sbcs.w	r6, lr, r7
2ffec19a:	d20c      	bcs.n	2ffec1b6 <stm32_sdmmc2_read+0x96>
2ffec19c:	4919      	ldr	r1, [pc, #100]	@ (2ffec204 <stm32_sdmmc2_read+0xe4>)
2ffec19e:	481c      	ldr	r0, [pc, #112]	@ (2ffec210 <stm32_sdmmc2_read+0xf0>)
2ffec1a0:	f001 fb3a 	bl	2ffed818 <tf_log>
2ffec1a4:	4b19      	ldr	r3, [pc, #100]	@ (2ffec20c <stm32_sdmmc2_read+0xec>)
2ffec1a6:	63a3      	str	r3, [r4, #56]	@ 0x38
2ffec1a8:	f007 fe4d 	bl	2fff3e46 <stm32_sdmmc2_stop_transfer>
2ffec1ac:	2800      	cmp	r0, #0
2ffec1ae:	bf08      	it	eq
2ffec1b0:	f06f 003b 	mvneq.w	r0, #59	@ 0x3b
2ffec1b4:	e7eb      	b.n	2ffec18e <stm32_sdmmc2_read+0x6e>
2ffec1b6:	291f      	cmp	r1, #31
2ffec1b8:	d815      	bhi.n	2ffec1e6 <stm32_sdmmc2_read+0xc6>
2ffec1ba:	6b26      	ldr	r6, [r4, #48]	@ 0x30
2ffec1bc:	b12e      	cbz	r6, 2ffec1ca <stm32_sdmmc2_read+0xaa>
2ffec1be:	0317      	lsls	r7, r2, #12
2ffec1c0:	d403      	bmi.n	2ffec1ca <stm32_sdmmc2_read+0xaa>
2ffec1c2:	f8dc 6000 	ldr.w	r6, [ip]
2ffec1c6:	f843 6b04 	str.w	r6, [r3], #4
2ffec1ca:	4215      	tst	r5, r2
2ffec1cc:	d0cc      	beq.n	2ffec168 <stm32_sdmmc2_read+0x48>
2ffec1ce:	4b0f      	ldr	r3, [pc, #60]	@ (2ffec20c <stm32_sdmmc2_read+0xec>)
2ffec1d0:	63a3      	str	r3, [r4, #56]	@ 0x38
2ffec1d2:	04d3      	lsls	r3, r2, #19
2ffec1d4:	d5b8      	bpl.n	2ffec148 <stm32_sdmmc2_read+0x28>
2ffec1d6:	490b      	ldr	r1, [pc, #44]	@ (2ffec204 <stm32_sdmmc2_read+0xe4>)
2ffec1d8:	480e      	ldr	r0, [pc, #56]	@ (2ffec214 <stm32_sdmmc2_read+0xf4>)
2ffec1da:	f001 fb1d 	bl	2ffed818 <tf_log>
2ffec1de:	e8bd 40f8 	ldmia.w	sp!, {r3, r4, r5, r6, r7, lr}
2ffec1e2:	f007 be30 	b.w	2fff3e46 <stm32_sdmmc2_stop_transfer>
2ffec1e6:	0416      	lsls	r6, r2, #16
2ffec1e8:	d5ef      	bpl.n	2ffec1ca <stm32_sdmmc2_read+0xaa>
2ffec1ea:	f103 0620 	add.w	r6, r3, #32
2ffec1ee:	f8dc 7000 	ldr.w	r7, [ip]
2ffec1f2:	f843 7b04 	str.w	r7, [r3], #4
2ffec1f6:	42b3      	cmp	r3, r6
2ffec1f8:	d1f9      	bne.n	2ffec1ee <stm32_sdmmc2_read+0xce>
2ffec1fa:	e7e6      	b.n	2ffec1ca <stm32_sdmmc2_read+0xaa>
2ffec1fc:	2fffba1c 	.word	0x2fffba1c
2ffec200:	2fff738c 	.word	0x2fff738c
2ffec204:	2fff7547 	.word	0x2fff7547
2ffec208:	2fff7466 	.word	0x2fff7466
2ffec20c:	180005ff 	.word	0x180005ff
2ffec210:	2fff7485 	.word	0x2fff7485
2ffec214:	2fff74a4 	.word	0x2fff74a4

2ffec218 <stm32_sdmmc2_prepare>:
2ffec218:	e92d 43f0 	stmdb	sp!, {r4, r5, r6, r7, r8, r9, lr}
2ffec21c:	4688      	mov	r8, r1
2ffec21e:	f8df 90a0 	ldr.w	r9, [pc, #160]	@ 2ffec2c0 <stm32_sdmmc2_prepare+0xa8>
2ffec222:	b089      	sub	sp, #36	@ 0x24
2ffec224:	4616      	mov	r6, r2
2ffec226:	f8d9 4000 	ldr.w	r4, [r9]
2ffec22a:	b922      	cbnz	r2, 2ffec236 <stm32_sdmmc2_prepare+0x1e>
2ffec22c:	4825      	ldr	r0, [pc, #148]	@ (2ffec2c4 <stm32_sdmmc2_prepare+0xac>)
2ffec22e:	f240 211e 	movw	r1, #542	@ 0x21e
2ffec232:	f007 fa7b 	bl	2fff372c <__assert>
2ffec236:	f5b2 7f00 	cmp.w	r2, #512	@ 0x200
2ffec23a:	4620      	mov	r0, r4
2ffec23c:	4615      	mov	r5, r2
2ffec23e:	bf28      	it	cs
2ffec240:	f44f 7500 	movcs.w	r5, #512	@ 0x200
2ffec244:	f007 fe0f 	bl	2fff3e66 <plat_sdmmc2_use_dma>
2ffec248:	f889 002c 	strb.w	r0, [r9, #44]	@ 0x2c
2ffec24c:	b118      	cbz	r0, 2ffec256 <stm32_sdmmc2_prepare+0x3e>
2ffec24e:	4631      	mov	r1, r6
2ffec250:	4640      	mov	r0, r8
2ffec252:	f7fd e938 	blx	2ffe94c4 <inv_dcache_range>
2ffec256:	2300      	movs	r3, #0
2ffec258:	211c      	movs	r1, #28
2ffec25a:	6263      	str	r3, [r4, #36]	@ 0x24
2ffec25c:	a801      	add	r0, sp, #4
2ffec25e:	62a3      	str	r3, [r4, #40]	@ 0x28
2ffec260:	62e3      	str	r3, [r4, #44]	@ 0x2c
2ffec262:	f7fd e9bc 	blx	2ffe95dc <zero_normalmem>
2ffec266:	9502      	str	r5, [sp, #8]
2ffec268:	2310      	movs	r3, #16
2ffec26a:	9301      	str	r3, [sp, #4]
2ffec26c:	a801      	add	r0, sp, #4
2ffec26e:	230d      	movs	r3, #13
2ffec270:	9303      	str	r3, [sp, #12]
2ffec272:	f7ff fddb 	bl	2ffebe2c <stm32_sdmmc2_send_cmd>
2ffec276:	4607      	mov	r7, r0
2ffec278:	b130      	cbz	r0, 2ffec288 <stm32_sdmmc2_prepare+0x70>
2ffec27a:	4813      	ldr	r0, [pc, #76]	@ (2ffec2c8 <stm32_sdmmc2_prepare+0xb0>)
2ffec27c:	f001 facc 	bl	2ffed818 <tf_log>
2ffec280:	4638      	mov	r0, r7
2ffec282:	b009      	add	sp, #36	@ 0x24
2ffec284:	e8bd 83f0 	ldmia.w	sp!, {r4, r5, r6, r7, r8, r9, pc}
2ffec288:	f04f 33ff 	mov.w	r3, #4294967295	@ 0xffffffff
2ffec28c:	6263      	str	r3, [r4, #36]	@ 0x24
2ffec28e:	f899 302c 	ldrb.w	r3, [r9, #44]	@ 0x2c
2ffec292:	62a6      	str	r6, [r4, #40]	@ 0x28
2ffec294:	b13b      	cbz	r3, 2ffec2a6 <stm32_sdmmc2_prepare+0x8e>
2ffec296:	2301      	movs	r3, #1
2ffec298:	4631      	mov	r1, r6
2ffec29a:	6523      	str	r3, [r4, #80]	@ 0x50
2ffec29c:	4640      	mov	r0, r8
2ffec29e:	f8c4 8058 	str.w	r8, [r4, #88]	@ 0x58
2ffec2a2:	f7fd e8d4 	blx	2ffe944c <flush_dcache_range>
2ffec2a6:	fa95 f5a5 	rbit	r5, r5
2ffec2aa:	fab5 f585 	clz	r5, r5
2ffec2ae:	6ae3      	ldr	r3, [r4, #44]	@ 0x2c
2ffec2b0:	012d      	lsls	r5, r5, #4
2ffec2b2:	f023 03ff 	bic.w	r3, r3, #255	@ 0xff
2ffec2b6:	f045 0502 	orr.w	r5, r5, #2
2ffec2ba:	431d      	orrs	r5, r3
2ffec2bc:	62e5      	str	r5, [r4, #44]	@ 0x2c
2ffec2be:	e7df      	b.n	2ffec280 <stm32_sdmmc2_prepare+0x68>
2ffec2c0:	2fffba1c 	.word	0x2fffba1c
2ffec2c4:	2fff738c 	.word	0x2fff738c
2ffec2c8:	2fff74bf 	.word	0x2fff74bf

2ffec2cc <stm32_sdmmc2_mmc_init>:
2ffec2cc:	b530      	push	{r4, r5, lr}
2ffec2ce:	4601      	mov	r1, r0
2ffec2d0:	b089      	sub	sp, #36	@ 0x24
2ffec2d2:	b130      	cbz	r0, 2ffec2e2 <stm32_sdmmc2_mmc_init+0x16>
2ffec2d4:	6805      	ldr	r5, [r0, #0]
2ffec2d6:	f3c5 0508 	ubfx	r5, r5, #0, #9
2ffec2da:	b915      	cbnz	r5, 2ffec2e2 <stm32_sdmmc2_mmc_init+0x16>
2ffec2dc:	6883      	ldr	r3, [r0, #8]
2ffec2de:	2b02      	cmp	r3, #2
2ffec2e0:	d904      	bls.n	2ffec2ec <stm32_sdmmc2_mmc_init+0x20>
2ffec2e2:	484f      	ldr	r0, [pc, #316]	@ (2ffec420 <stm32_sdmmc2_mmc_init+0x154>)
2ffec2e4:	f44f 7141 	mov.w	r1, #772	@ 0x304
2ffec2e8:	f007 fa20 	bl	2fff372c <__assert>
2ffec2ec:	4c4d      	ldr	r4, [pc, #308]	@ (2ffec424 <stm32_sdmmc2_mmc_init+0x158>)
2ffec2ee:	2234      	movs	r2, #52	@ 0x34
2ffec2f0:	4620      	mov	r0, r4
2ffec2f2:	f009 f898 	bl	2fff5426 <memcpy>
2ffec2f6:	6325      	str	r5, [r4, #48]	@ 0x30
2ffec2f8:	a803      	add	r0, sp, #12
2ffec2fa:	9503      	str	r5, [sp, #12]
2ffec2fc:	f003 fbf4 	bl	2ffefae8 <fdt_get_address>
2ffec300:	b938      	cbnz	r0, 2ffec312 <stm32_sdmmc2_mmc_init+0x46>
2ffec302:	4849      	ldr	r0, [pc, #292]	@ (2ffec428 <stm32_sdmmc2_mmc_init+0x15c>)
2ffec304:	4949      	ldr	r1, [pc, #292]	@ (2ffec42c <stm32_sdmmc2_mmc_init+0x160>)
2ffec306:	f001 fa87 	bl	2ffed818 <tf_log>
2ffec30a:	f06f 000b 	mvn.w	r0, #11
2ffec30e:	b009      	add	sp, #36	@ 0x24
2ffec310:	bd30      	pop	{r4, r5, pc}
2ffec312:	9b03      	ldr	r3, [sp, #12]
2ffec314:	2b00      	cmp	r3, #0
2ffec316:	d0f4      	beq.n	2ffec302 <stm32_sdmmc2_mmc_init+0x36>
2ffec318:	6821      	ldr	r1, [r4, #0]
2ffec31a:	4845      	ldr	r0, [pc, #276]	@ (2ffec430 <stm32_sdmmc2_mmc_init+0x164>)
2ffec31c:	f003 fcb4 	bl	2ffefc88 <dt_match_instance_by_compatible>
2ffec320:	1c43      	adds	r3, r0, #1
2ffec322:	4605      	mov	r5, r0
2ffec324:	d0ed      	beq.n	2ffec302 <stm32_sdmmc2_mmc_init+0x36>
2ffec326:	4601      	mov	r1, r0
2ffec328:	a804      	add	r0, sp, #16
2ffec32a:	f003 fc41 	bl	2ffefbb0 <dt_fill_device_info>
2ffec32e:	9b07      	ldr	r3, [sp, #28]
2ffec330:	2b00      	cmp	r3, #0
2ffec332:	d0e6      	beq.n	2ffec302 <stm32_sdmmc2_mmc_init+0x36>
2ffec334:	4628      	mov	r0, r5
2ffec336:	f002 fd83 	bl	2ffeee40 <dt_set_pinctrl_config>
2ffec33a:	4603      	mov	r3, r0
2ffec33c:	2800      	cmp	r0, #0
2ffec33e:	d1e0      	bne.n	2ffec302 <stm32_sdmmc2_mmc_init+0x36>
2ffec340:	9a05      	ldr	r2, [sp, #20]
2ffec342:	4629      	mov	r1, r5
2ffec344:	9803      	ldr	r0, [sp, #12]
2ffec346:	6222      	str	r2, [r4, #32]
2ffec348:	9a06      	ldr	r2, [sp, #24]
2ffec34a:	6262      	str	r2, [r4, #36]	@ 0x24
2ffec34c:	4a39      	ldr	r2, [pc, #228]	@ (2ffec434 <stm32_sdmmc2_mmc_init+0x168>)
2ffec34e:	f008 feff 	bl	2fff5150 <fdt_getprop>
2ffec352:	b110      	cbz	r0, 2ffec35a <stm32_sdmmc2_mmc_init+0x8e>
2ffec354:	f44f 1380 	mov.w	r3, #1048576	@ 0x100000
2ffec358:	6163      	str	r3, [r4, #20]
2ffec35a:	4a37      	ldr	r2, [pc, #220]	@ (2ffec438 <stm32_sdmmc2_mmc_init+0x16c>)
2ffec35c:	2300      	movs	r3, #0
2ffec35e:	9803      	ldr	r0, [sp, #12]
2ffec360:	4629      	mov	r1, r5
2ffec362:	f008 fef5 	bl	2fff5150 <fdt_getprop>
2ffec366:	b108      	cbz	r0, 2ffec36c <stm32_sdmmc2_mmc_init+0xa0>
2ffec368:	2310      	movs	r3, #16
2ffec36a:	61e3      	str	r3, [r4, #28]
2ffec36c:	4a33      	ldr	r2, [pc, #204]	@ (2ffec43c <stm32_sdmmc2_mmc_init+0x170>)
2ffec36e:	2300      	movs	r3, #0
2ffec370:	9803      	ldr	r0, [sp, #12]
2ffec372:	4629      	mov	r1, r5
2ffec374:	f008 feec 	bl	2fff5150 <fdt_getprop>
2ffec378:	b110      	cbz	r0, 2ffec380 <stm32_sdmmc2_mmc_init+0xb4>
2ffec37a:	f44f 3380 	mov.w	r3, #65536	@ 0x10000
2ffec37e:	61a3      	str	r3, [r4, #24]
2ffec380:	4a2f      	ldr	r2, [pc, #188]	@ (2ffec440 <stm32_sdmmc2_mmc_init+0x174>)
2ffec382:	2300      	movs	r3, #0
2ffec384:	9803      	ldr	r0, [sp, #12]
2ffec386:	4629      	mov	r1, r5
2ffec388:	f008 fee2 	bl	2fff5150 <fdt_getprop>
2ffec38c:	b130      	cbz	r0, 2ffec39c <stm32_sdmmc2_mmc_init+0xd0>
2ffec38e:	6803      	ldr	r3, [r0, #0]
2ffec390:	f1b3 6f80 	cmp.w	r3, #67108864	@ 0x4000000
2ffec394:	d021      	beq.n	2ffec3da <stm32_sdmmc2_mmc_init+0x10e>
2ffec396:	f1b3 6f00 	cmp.w	r3, #134217728	@ 0x8000000
2ffec39a:	d021      	beq.n	2ffec3e0 <stm32_sdmmc2_mmc_init+0x114>
2ffec39c:	4a29      	ldr	r2, [pc, #164]	@ (2ffec444 <stm32_sdmmc2_mmc_init+0x178>)
2ffec39e:	2300      	movs	r3, #0
2ffec3a0:	9803      	ldr	r0, [sp, #12]
2ffec3a2:	4629      	mov	r1, r5
2ffec3a4:	f008 fed4 	bl	2fff5150 <fdt_getprop>
2ffec3a8:	b110      	cbz	r0, 2ffec3b0 <stm32_sdmmc2_mmc_init+0xe4>
2ffec3aa:	6803      	ldr	r3, [r0, #0]
2ffec3ac:	ba1b      	rev	r3, r3
2ffec3ae:	62a3      	str	r3, [r4, #40]	@ 0x28
2ffec3b0:	4a25      	ldr	r2, [pc, #148]	@ (2ffec448 <stm32_sdmmc2_mmc_init+0x17c>)
2ffec3b2:	4629      	mov	r1, r5
2ffec3b4:	9803      	ldr	r0, [sp, #12]
2ffec3b6:	f003 f8d3 	bl	2ffef560 <regulator_get_by_supply_name>
2ffec3ba:	6320      	str	r0, [r4, #48]	@ 0x30
2ffec3bc:	6a20      	ldr	r0, [r4, #32]
2ffec3be:	f002 fa5f 	bl	2ffee880 <clk_enable>
2ffec3c2:	6a60      	ldr	r0, [r4, #36]	@ 0x24
2ffec3c4:	2800      	cmp	r0, #0
2ffec3c6:	db1a      	blt.n	2ffec3fe <stm32_sdmmc2_mmc_init+0x132>
2ffec3c8:	f44f 717a 	mov.w	r1, #1000	@ 0x3e8
2ffec3cc:	f005 fd04 	bl	2fff1dd8 <stm32mp_reset_assert>
2ffec3d0:	b140      	cbz	r0, 2ffec3e4 <stm32_sdmmc2_mmc_init+0x118>
2ffec3d2:	f001 fabd 	bl	2ffed950 <console_flush>
2ffec3d6:	f7fd e802 	blx	2ffe93dc <do_panic>
2ffec3da:	2301      	movs	r3, #1
2ffec3dc:	60a3      	str	r3, [r4, #8]
2ffec3de:	e7dd      	b.n	2ffec39c <stm32_sdmmc2_mmc_init+0xd0>
2ffec3e0:	2302      	movs	r3, #2
2ffec3e2:	e7fb      	b.n	2ffec3dc <stm32_sdmmc2_mmc_init+0x110>
2ffec3e4:	2002      	movs	r0, #2
2ffec3e6:	f002 faab 	bl	2ffee940 <udelay>
2ffec3ea:	6a60      	ldr	r0, [r4, #36]	@ 0x24
2ffec3ec:	f44f 717a 	mov.w	r1, #1000	@ 0x3e8
2ffec3f0:	f005 fd22 	bl	2fff1e38 <stm32mp_reset_deassert>
2ffec3f4:	2800      	cmp	r0, #0
2ffec3f6:	d1ec      	bne.n	2ffec3d2 <stm32_sdmmc2_mmc_init+0x106>
2ffec3f8:	2001      	movs	r0, #1
2ffec3fa:	f007 fffb 	bl	2fff43f4 <mdelay>
2ffec3fe:	6a20      	ldr	r0, [r4, #32]
2ffec400:	f002 fa62 	bl	2ffee8c8 <clk_get_rate>
2ffec404:	6923      	ldr	r3, [r4, #16]
2ffec406:	f44f 1240 	mov.w	r2, #3145728	@ 0x300000
2ffec40a:	6060      	str	r0, [r4, #4]
2ffec40c:	4601      	mov	r1, r0
2ffec40e:	611a      	str	r2, [r3, #16]
2ffec410:	480e      	ldr	r0, [pc, #56]	@ (2ffec44c <stm32_sdmmc2_mmc_init+0x180>)
2ffec412:	9300      	str	r3, [sp, #0]
2ffec414:	68e3      	ldr	r3, [r4, #12]
2ffec416:	68a2      	ldr	r2, [r4, #8]
2ffec418:	f7fe fcec 	bl	2ffeadf4 <mmc_init>
2ffec41c:	e777      	b.n	2ffec30e <stm32_sdmmc2_mmc_init+0x42>
2ffec41e:	bf00      	nop
2ffec420:	2fff738c 	.word	0x2fff738c
2ffec424:	2fffba1c 	.word	0x2fffba1c
2ffec428:	2fff74ce 	.word	0x2fff74ce
2ffec42c:	2fff7559 	.word	0x2fff7559
2ffec430:	2fff74dd 	.word	0x2fff74dd
2ffec434:	2fff74ed 	.word	0x2fff74ed
2ffec438:	2fff74f9 	.word	0x2fff74f9
2ffec43c:	2fff7504 	.word	0x2fff7504
2ffec440:	2fff7510 	.word	0x2fff7510
2ffec444:	2fff751a 	.word	0x2fff751a
2ffec448:	2fff7528 	.word	0x2fff7528
2ffec44c:	2fff5828 	.word	0x2fff5828

2ffec450 <fconf_populate>:
2ffec450:	e92d 41f0 	stmdb	sp!, {r4, r5, r6, r7, r8, lr}
2ffec454:	4606      	mov	r6, r0
2ffec456:	460d      	mov	r5, r1
2ffec458:	b919      	cbnz	r1, 2ffec462 <fconf_populate+0x12>
2ffec45a:	2134      	movs	r1, #52	@ 0x34
2ffec45c:	4818      	ldr	r0, [pc, #96]	@ (2ffec4c0 <fconf_populate+0x70>)
2ffec45e:	f007 f965 	bl	2fff372c <__assert>
2ffec462:	4608      	mov	r0, r1
2ffec464:	f007 f84a 	bl	2fff34fc <fdt_check_header>
2ffec468:	b138      	cbz	r0, 2ffec47a <fconf_populate+0x2a>
2ffec46a:	4816      	ldr	r0, [pc, #88]	@ (2ffec4c4 <fconf_populate+0x74>)
2ffec46c:	4631      	mov	r1, r6
2ffec46e:	f001 f9d3 	bl	2ffed818 <tf_log>
2ffec472:	f001 fa6d 	bl	2ffed950 <console_flush>
2ffec476:	f7fc efb2 	blx	2ffe93dc <do_panic>
2ffec47a:	4813      	ldr	r0, [pc, #76]	@ (2ffec4c8 <fconf_populate+0x78>)
2ffec47c:	462a      	mov	r2, r5
2ffec47e:	4c13      	ldr	r4, [pc, #76]	@ (2ffec4cc <fconf_populate+0x7c>)
2ffec480:	4631      	mov	r1, r6
2ffec482:	4f13      	ldr	r7, [pc, #76]	@ (2ffec4d0 <fconf_populate+0x80>)
2ffec484:	f001 f9c8 	bl	2ffed818 <tf_log>
2ffec488:	f8df 8048 	ldr.w	r8, [pc, #72]	@ 2ffec4d4 <fconf_populate+0x84>
2ffec48c:	42bc      	cmp	r4, r7
2ffec48e:	d101      	bne.n	2ffec494 <fconf_populate+0x44>
2ffec490:	e8bd 81f0 	ldmia.w	sp!, {r4, r5, r6, r7, r8, pc}
2ffec494:	6863      	ldr	r3, [r4, #4]
2ffec496:	b10b      	cbz	r3, 2ffec49c <fconf_populate+0x4c>
2ffec498:	68a3      	ldr	r3, [r4, #8]
2ffec49a:	b90b      	cbnz	r3, 2ffec4a0 <fconf_populate+0x50>
2ffec49c:	2144      	movs	r1, #68	@ 0x44
2ffec49e:	e7dd      	b.n	2ffec45c <fconf_populate+0xc>
2ffec4a0:	6820      	ldr	r0, [r4, #0]
2ffec4a2:	4631      	mov	r1, r6
2ffec4a4:	f009 f8cc 	bl	2fff5640 <strcmp>
2ffec4a8:	b940      	cbnz	r0, 2ffec4bc <fconf_populate+0x6c>
2ffec4aa:	6861      	ldr	r1, [r4, #4]
2ffec4ac:	4640      	mov	r0, r8
2ffec4ae:	f001 f9b3 	bl	2ffed818 <tf_log>
2ffec4b2:	68a3      	ldr	r3, [r4, #8]
2ffec4b4:	4628      	mov	r0, r5
2ffec4b6:	4798      	blx	r3
2ffec4b8:	2800      	cmp	r0, #0
2ffec4ba:	d1da      	bne.n	2ffec472 <fconf_populate+0x22>
2ffec4bc:	340c      	adds	r4, #12
2ffec4be:	e7e5      	b.n	2ffec48c <fconf_populate+0x3c>
2ffec4c0:	2fff756f 	.word	0x2fff756f
2ffec4c4:	2fff75c1 	.word	0x2fff75c1
2ffec4c8:	2fff75e9 	.word	0x2fff75e9
2ffec4cc:	2fff9840 	.word	0x2fff9840
2ffec4d0:	2fff9870 	.word	0x2fff9870
2ffec4d4:	2fff7625 	.word	0x2fff7625

2ffec4d8 <set_config_info>:
2ffec4d8:	b5f8      	push	{r3, r4, r5, r6, r7, lr}
2ffec4da:	4d0d      	ldr	r5, [pc, #52]	@ (2ffec510 <set_config_info+0x38>)
2ffec4dc:	68ec      	ldr	r4, [r5, #12]
2ffec4de:	686e      	ldr	r6, [r5, #4]
2ffec4e0:	f104 0c01 	add.w	ip, r4, #1
2ffec4e4:	45b4      	cmp	ip, r6
2ffec4e6:	d908      	bls.n	2ffec4fa <set_config_info+0x22>
2ffec4e8:	1b32      	subs	r2, r6, r4
2ffec4ea:	2101      	movs	r1, #1
2ffec4ec:	4809      	ldr	r0, [pc, #36]	@ (2ffec514 <set_config_info+0x3c>)
2ffec4ee:	f001 f993 	bl	2ffed818 <tf_log>
2ffec4f2:	f001 fa2d 	bl	2ffed950 <console_flush>
2ffec4f6:	f7fc ef72 	blx	2ffe93dc <do_panic>
2ffec4fa:	682e      	ldr	r6, [r5, #0]
2ffec4fc:	68af      	ldr	r7, [r5, #8]
2ffec4fe:	4374      	muls	r4, r6
2ffec500:	f8c5 c00c 	str.w	ip, [r5, #12]
2ffec504:	193e      	adds	r6, r7, r4
2ffec506:	5138      	str	r0, [r7, r4]
2ffec508:	60f1      	str	r1, [r6, #12]
2ffec50a:	6072      	str	r2, [r6, #4]
2ffec50c:	60b3      	str	r3, [r6, #8]
2ffec50e:	bdf8      	pop	{r3, r4, r5, r6, r7, pc}
2ffec510:	2fffa048 	.word	0x2fffa048
2ffec514:	2fff7661 	.word	0x2fff7661

2ffec518 <fconf_populate_dtb_registry>:
2ffec518:	4b39      	ldr	r3, [pc, #228]	@ (2ffec600 <fconf_populate_dtb_registry+0xe8>)
2ffec51a:	e92d 4ff0 	stmdb	sp!, {r4, r5, r6, r7, r8, r9, sl, fp, lr}
2ffec51e:	4605      	mov	r5, r0
2ffec520:	689b      	ldr	r3, [r3, #8]
2ffec522:	b085      	sub	sp, #20
2ffec524:	b97b      	cbnz	r3, 2ffec546 <fconf_populate_dtb_registry+0x2e>
2ffec526:	7943      	ldrb	r3, [r0, #5]
2ffec528:	f04f 31ff 	mov.w	r1, #4294967295	@ 0xffffffff
2ffec52c:	7902      	ldrb	r2, [r0, #4]
2ffec52e:	ea42 2203 	orr.w	r2, r2, r3, lsl #8
2ffec532:	7983      	ldrb	r3, [r0, #6]
2ffec534:	ea42 4203 	orr.w	r2, r2, r3, lsl #16
2ffec538:	79c3      	ldrb	r3, [r0, #7]
2ffec53a:	ea42 6203 	orr.w	r2, r2, r3, lsl #24
2ffec53e:	2301      	movs	r3, #1
2ffec540:	ba12      	rev	r2, r2
2ffec542:	f7ff ffc9 	bl	2ffec4d8 <set_config_info>
2ffec546:	4a2f      	ldr	r2, [pc, #188]	@ (2ffec604 <fconf_populate_dtb_registry+0xec>)
2ffec548:	f04f 31ff 	mov.w	r1, #4294967295	@ 0xffffffff
2ffec54c:	4628      	mov	r0, r5
2ffec54e:	f008 ff33 	bl	2fff53b8 <fdt_node_offset_by_compatible>
2ffec552:	1e07      	subs	r7, r0, #0
2ffec554:	da08      	bge.n	2ffec568 <fconf_populate_dtb_registry+0x50>
2ffec556:	492b      	ldr	r1, [pc, #172]	@ (2ffec604 <fconf_populate_dtb_registry+0xec>)
2ffec558:	463c      	mov	r4, r7
2ffec55a:	482b      	ldr	r0, [pc, #172]	@ (2ffec608 <fconf_populate_dtb_registry+0xf0>)
2ffec55c:	f001 f95c 	bl	2ffed818 <tf_log>
2ffec560:	4620      	mov	r0, r4
2ffec562:	b005      	add	sp, #20
2ffec564:	e8bd 8ff0 	ldmia.w	sp!, {r4, r5, r6, r7, r8, r9, sl, fp, pc}
2ffec568:	f8df 80a0 	ldr.w	r8, [pc, #160]	@ 2ffec60c <fconf_populate_dtb_registry+0xf4>
2ffec56c:	4639      	mov	r1, r7
2ffec56e:	f8df 90a0 	ldr.w	r9, [pc, #160]	@ 2ffec610 <fconf_populate_dtb_registry+0xf8>
2ffec572:	4628      	mov	r0, r5
2ffec574:	f8df a09c 	ldr.w	sl, [pc, #156]	@ 2ffec614 <fconf_populate_dtb_registry+0xfc>
2ffec578:	f008 fc79 	bl	2fff4e6e <fdt_first_subnode>
2ffec57c:	4604      	mov	r4, r0
2ffec57e:	2c00      	cmp	r4, #0
2ffec580:	da07      	bge.n	2ffec592 <fconf_populate_dtb_registry+0x7a>
2ffec582:	1c63      	adds	r3, r4, #1
2ffec584:	d03a      	beq.n	2ffec5fc <fconf_populate_dtb_registry+0xe4>
2ffec586:	4824      	ldr	r0, [pc, #144]	@ (2ffec618 <fconf_populate_dtb_registry+0x100>)
2ffec588:	463a      	mov	r2, r7
2ffec58a:	2194      	movs	r1, #148	@ 0x94
2ffec58c:	f001 f944 	bl	2ffed818 <tf_log>
2ffec590:	e7e6      	b.n	2ffec560 <fconf_populate_dtb_registry+0x48>
2ffec592:	ab02      	add	r3, sp, #8
2ffec594:	4642      	mov	r2, r8
2ffec596:	4621      	mov	r1, r4
2ffec598:	4628      	mov	r0, r5
2ffec59a:	f007 fb2f 	bl	2fff3bfc <fdt_read_uint64>
2ffec59e:	1e06      	subs	r6, r0, #0
2ffec5a0:	da04      	bge.n	2ffec5ac <fconf_populate_dtb_registry+0x94>
2ffec5a2:	481e      	ldr	r0, [pc, #120]	@ (2ffec61c <fconf_populate_dtb_registry+0x104>)
2ffec5a4:	4634      	mov	r4, r6
2ffec5a6:	f001 f937 	bl	2ffed818 <tf_log>
2ffec5aa:	e7d9      	b.n	2ffec560 <fconf_populate_dtb_registry+0x48>
2ffec5ac:	f8dd b008 	ldr.w	fp, [sp, #8]
2ffec5b0:	466b      	mov	r3, sp
2ffec5b2:	464a      	mov	r2, r9
2ffec5b4:	4621      	mov	r1, r4
2ffec5b6:	4628      	mov	r0, r5
2ffec5b8:	f007 fb0c 	bl	2fff3bd4 <fdt_read_uint32>
2ffec5bc:	1e06      	subs	r6, r0, #0
2ffec5be:	dbf0      	blt.n	2ffec5a2 <fconf_populate_dtb_registry+0x8a>
2ffec5c0:	ab01      	add	r3, sp, #4
2ffec5c2:	4652      	mov	r2, sl
2ffec5c4:	4621      	mov	r1, r4
2ffec5c6:	4628      	mov	r0, r5
2ffec5c8:	f007 fb04 	bl	2fff3bd4 <fdt_read_uint32>
2ffec5cc:	1e06      	subs	r6, r0, #0
2ffec5ce:	dbe8      	blt.n	2ffec5a2 <fconf_populate_dtb_registry+0x8a>
2ffec5d0:	4a13      	ldr	r2, [pc, #76]	@ (2ffec620 <fconf_populate_dtb_registry+0x108>)
2ffec5d2:	ab02      	add	r3, sp, #8
2ffec5d4:	4621      	mov	r1, r4
2ffec5d6:	4628      	mov	r0, r5
2ffec5d8:	f007 fb10 	bl	2fff3bfc <fdt_read_uint64>
2ffec5dc:	b958      	cbnz	r0, 2ffec5f6 <fconf_populate_dtb_registry+0xde>
2ffec5de:	9902      	ldr	r1, [sp, #8]
2ffec5e0:	e9dd 2300 	ldrd	r2, r3, [sp]
2ffec5e4:	4658      	mov	r0, fp
2ffec5e6:	f7ff ff77 	bl	2ffec4d8 <set_config_info>
2ffec5ea:	4621      	mov	r1, r4
2ffec5ec:	4628      	mov	r0, r5
2ffec5ee:	f008 fc51 	bl	2fff4e94 <fdt_next_subnode>
2ffec5f2:	4604      	mov	r4, r0
2ffec5f4:	e7c3      	b.n	2ffec57e <fconf_populate_dtb_registry+0x66>
2ffec5f6:	f04f 31ff 	mov.w	r1, #4294967295	@ 0xffffffff
2ffec5fa:	e7f1      	b.n	2ffec5e0 <fconf_populate_dtb_registry+0xc8>
2ffec5fc:	2400      	movs	r4, #0
2ffec5fe:	e7af      	b.n	2ffec560 <fconf_populate_dtb_registry+0x48>
2ffec600:	2fffba50 	.word	0x2fffba50
2ffec604:	2fff769f 	.word	0x2fff769f
2ffec608:	2fff76ba 	.word	0x2fff76ba
2ffec60c:	2fff772b 	.word	0x2fff772b
2ffec610:	2fff771f 	.word	0x2fff771f
2ffec614:	2fff8e0d 	.word	0x2fff8e0d
2ffec618:	2fff7738 	.word	0x2fff7738
2ffec61c:	2fff76e3 	.word	0x2fff76e3
2ffec620:	2fff7728 	.word	0x2fff7728

2ffec624 <dyn_cfg_dtb_info_get_index>:
2ffec624:	4b06      	ldr	r3, [pc, #24]	@ (2ffec640 <dyn_cfg_dtb_info_get_index+0x1c>)
2ffec626:	4602      	mov	r2, r0
2ffec628:	2000      	movs	r0, #0
2ffec62a:	6899      	ldr	r1, [r3, #8]
2ffec62c:	4291      	cmp	r1, r2
2ffec62e:	d005      	beq.n	2ffec63c <dyn_cfg_dtb_info_get_index+0x18>
2ffec630:	3001      	adds	r0, #1
2ffec632:	3310      	adds	r3, #16
2ffec634:	2806      	cmp	r0, #6
2ffec636:	d1f8      	bne.n	2ffec62a <dyn_cfg_dtb_info_get_index+0x6>
2ffec638:	f04f 30ff 	mov.w	r0, #4294967295	@ 0xffffffff
2ffec63c:	4770      	bx	lr
2ffec63e:	bf00      	nop
2ffec640:	2fffba50 	.word	0x2fffba50

2ffec644 <dyn_cfg_dtb_info_getter>:
2ffec644:	b510      	push	{r4, lr}
2ffec646:	4604      	mov	r4, r0
2ffec648:	f7ff ffec 	bl	2ffec624 <dyn_cfg_dtb_info_get_index>
2ffec64c:	2805      	cmp	r0, #5
2ffec64e:	d803      	bhi.n	2ffec658 <dyn_cfg_dtb_info_getter+0x14>
2ffec650:	4b04      	ldr	r3, [pc, #16]	@ (2ffec664 <dyn_cfg_dtb_info_getter+0x20>)
2ffec652:	eb03 1000 	add.w	r0, r3, r0, lsl #4
2ffec656:	bd10      	pop	{r4, pc}
2ffec658:	4803      	ldr	r0, [pc, #12]	@ (2ffec668 <dyn_cfg_dtb_info_getter+0x24>)
2ffec65a:	4621      	mov	r1, r4
2ffec65c:	f001 f8dc 	bl	2ffed818 <tf_log>
2ffec660:	2000      	movs	r0, #0
2ffec662:	e7f8      	b.n	2ffec656 <dyn_cfg_dtb_info_getter+0x12>
2ffec664:	2fffba50 	.word	0x2fffba50
2ffec668:	2fff7759 	.word	0x2fff7759

2ffec66c <parse_optee_image>:
2ffec66c:	b5f7      	push	{r0, r1, r2, r4, r5, r6, r7, lr}
2ffec66e:	460a      	mov	r2, r1
2ffec670:	6849      	ldr	r1, [r1, #4]
2ffec672:	68d5      	ldr	r5, [r2, #12]
2ffec674:	6812      	ldr	r2, [r2, #0]
2ffec676:	6883      	ldr	r3, [r0, #8]
2ffec678:	6904      	ldr	r4, [r0, #16]
2ffec67a:	400a      	ands	r2, r1
2ffec67c:	f1b2 3fff 	cmp.w	r2, #4294967295	@ 0xffffffff
2ffec680:	bf08      	it	eq
2ffec682:	4619      	moveq	r1, r3
2ffec684:	4262      	negs	r2, r4
2ffec686:	429a      	cmp	r2, r3
2ffec688:	d311      	bcc.n	2ffec6ae <parse_optee_image+0x42>
2ffec68a:	441c      	add	r4, r3
2ffec68c:	426a      	negs	r2, r5
2ffec68e:	428a      	cmp	r2, r1
2ffec690:	f104 37ff 	add.w	r7, r4, #4294967295	@ 0xffffffff
2ffec694:	d30b      	bcc.n	2ffec6ae <parse_optee_image+0x42>
2ffec696:	4299      	cmp	r1, r3
2ffec698:	eb01 0205 	add.w	r2, r1, r5
2ffec69c:	f102 36ff 	add.w	r6, r2, #4294967295	@ 0xffffffff
2ffec6a0:	d301      	bcc.n	2ffec6a6 <parse_optee_image+0x3a>
2ffec6a2:	42b7      	cmp	r7, r6
2ffec6a4:	d207      	bcs.n	2ffec6b6 <parse_optee_image+0x4a>
2ffec6a6:	4808      	ldr	r0, [pc, #32]	@ (2ffec6c8 <parse_optee_image+0x5c>)
2ffec6a8:	9400      	str	r4, [sp, #0]
2ffec6aa:	f001 f8b5 	bl	2ffed818 <tf_log>
2ffec6ae:	f04f 30ff 	mov.w	r0, #4294967295	@ 0xffffffff
2ffec6b2:	b003      	add	sp, #12
2ffec6b4:	bdf0      	pop	{r4, r5, r6, r7, pc}
2ffec6b6:	6843      	ldr	r3, [r0, #4]
2ffec6b8:	6081      	str	r1, [r0, #8]
2ffec6ba:	f023 0302 	bic.w	r3, r3, #2
2ffec6be:	6043      	str	r3, [r0, #4]
2ffec6c0:	60c5      	str	r5, [r0, #12]
2ffec6c2:	2000      	movs	r0, #0
2ffec6c4:	e7f5      	b.n	2ffec6b2 <parse_optee_image+0x46>
2ffec6c6:	bf00      	nop
2ffec6c8:	2fff7789 	.word	0x2fff7789

2ffec6cc <optee_header_is_valid>:
2ffec6cc:	6802      	ldr	r2, [r0, #0]
2ffec6ce:	4b07      	ldr	r3, [pc, #28]	@ (2ffec6ec <optee_header_is_valid+0x20>)
2ffec6d0:	429a      	cmp	r2, r3
2ffec6d2:	d109      	bne.n	2ffec6e8 <optee_header_is_valid+0x1c>
2ffec6d4:	7903      	ldrb	r3, [r0, #4]
2ffec6d6:	2b02      	cmp	r3, #2
2ffec6d8:	d106      	bne.n	2ffec6e8 <optee_header_is_valid+0x1c>
2ffec6da:	6880      	ldr	r0, [r0, #8]
2ffec6dc:	3801      	subs	r0, #1
2ffec6de:	2801      	cmp	r0, #1
2ffec6e0:	bf8c      	ite	hi
2ffec6e2:	2000      	movhi	r0, #0
2ffec6e4:	2001      	movls	r0, #1
2ffec6e6:	4770      	bx	lr
2ffec6e8:	2000      	movs	r0, #0
2ffec6ea:	4770      	bx	lr
2ffec6ec:	4554504f 	.word	0x4554504f

2ffec6f0 <parse_optee_header>:
2ffec6f0:	e92d 47f0 	stmdb	sp!, {r4, r5, r6, r7, r8, r9, sl, lr}
2ffec6f4:	460f      	mov	r7, r1
2ffec6f6:	4616      	mov	r6, r2
2ffec6f8:	4605      	mov	r5, r0
2ffec6fa:	b918      	cbnz	r0, 2ffec704 <parse_optee_header+0x14>
2ffec6fc:	2195      	movs	r1, #149	@ 0x95
2ffec6fe:	4834      	ldr	r0, [pc, #208]	@ (2ffec7d0 <parse_optee_header+0xe0>)
2ffec700:	f007 f814 	bl	2fff372c <__assert>
2ffec704:	6884      	ldr	r4, [r0, #8]
2ffec706:	46a0      	mov	r8, r4
2ffec708:	b90c      	cbnz	r4, 2ffec70e <parse_optee_header+0x1e>
2ffec70a:	2197      	movs	r1, #151	@ 0x97
2ffec70c:	e7f7      	b.n	2ffec6fe <parse_optee_header+0xe>
2ffec70e:	4831      	ldr	r0, [pc, #196]	@ (2ffec7d4 <parse_optee_header+0xe4>)
2ffec710:	4621      	mov	r1, r4
2ffec712:	f001 f881 	bl	2ffed818 <tf_log>
2ffec716:	4830      	ldr	r0, [pc, #192]	@ (2ffec7d8 <parse_optee_header+0xe8>)
2ffec718:	f001 f87e 	bl	2ffed818 <tf_log>
2ffec71c:	6821      	ldr	r1, [r4, #0]
2ffec71e:	482f      	ldr	r0, [pc, #188]	@ (2ffec7dc <parse_optee_header+0xec>)
2ffec720:	f001 f87a 	bl	2ffed818 <tf_log>
2ffec724:	7921      	ldrb	r1, [r4, #4]
2ffec726:	482e      	ldr	r0, [pc, #184]	@ (2ffec7e0 <parse_optee_header+0xf0>)
2ffec728:	f001 f876 	bl	2ffed818 <tf_log>
2ffec72c:	7961      	ldrb	r1, [r4, #5]
2ffec72e:	482d      	ldr	r0, [pc, #180]	@ (2ffec7e4 <parse_optee_header+0xf4>)
2ffec730:	f001 f872 	bl	2ffed818 <tf_log>
2ffec734:	88e1      	ldrh	r1, [r4, #6]
2ffec736:	482c      	ldr	r0, [pc, #176]	@ (2ffec7e8 <parse_optee_header+0xf8>)
2ffec738:	f001 f86e 	bl	2ffed818 <tf_log>
2ffec73c:	68a1      	ldr	r1, [r4, #8]
2ffec73e:	482b      	ldr	r0, [pc, #172]	@ (2ffec7ec <parse_optee_header+0xfc>)
2ffec740:	f001 f86a 	bl	2ffed818 <tf_log>
2ffec744:	6822      	ldr	r2, [r4, #0]
2ffec746:	4b2a      	ldr	r3, [pc, #168]	@ (2ffec7f0 <parse_optee_header+0x100>)
2ffec748:	429a      	cmp	r2, r3
2ffec74a:	d11a      	bne.n	2ffec782 <parse_optee_header+0x92>
2ffec74c:	7923      	ldrb	r3, [r4, #4]
2ffec74e:	2b02      	cmp	r3, #2
2ffec750:	d117      	bne.n	2ffec782 <parse_optee_header+0x92>
2ffec752:	68a3      	ldr	r3, [r4, #8]
2ffec754:	3b01      	subs	r3, #1
2ffec756:	2b01      	cmp	r3, #1
2ffec758:	d813      	bhi.n	2ffec782 <parse_optee_header+0x92>
2ffec75a:	f104 090c 	add.w	r9, r4, #12
2ffec75e:	f04f 0a00 	mov.w	sl, #0
2ffec762:	f8d8 3008 	ldr.w	r3, [r8, #8]
2ffec766:	4553      	cmp	r3, sl
2ffec768:	d813      	bhi.n	2ffec792 <parse_optee_header+0xa2>
2ffec76a:	68bb      	ldr	r3, [r7, #8]
2ffec76c:	60ab      	str	r3, [r5, #8]
2ffec76e:	b11e      	cbz	r6, 2ffec778 <parse_optee_header+0x88>
2ffec770:	68b3      	ldr	r3, [r6, #8]
2ffec772:	61ab      	str	r3, [r5, #24]
2ffec774:	68f3      	ldr	r3, [r6, #12]
2ffec776:	61eb      	str	r3, [r5, #28]
2ffec778:	f898 3005 	ldrb.w	r3, [r8, #5]
2ffec77c:	b123      	cbz	r3, 2ffec788 <parse_optee_header+0x98>
2ffec77e:	481d      	ldr	r0, [pc, #116]	@ (2ffec7f4 <parse_optee_header+0x104>)
2ffec780:	e01d      	b.n	2ffec7be <parse_optee_header+0xce>
2ffec782:	481d      	ldr	r0, [pc, #116]	@ (2ffec7f8 <parse_optee_header+0x108>)
2ffec784:	f001 f848 	bl	2ffed818 <tf_log>
2ffec788:	2000      	movs	r0, #0
2ffec78a:	2301      	movs	r3, #1
2ffec78c:	616b      	str	r3, [r5, #20]
2ffec78e:	e8bd 87f0 	ldmia.w	sp!, {r4, r5, r6, r7, r8, r9, sl, pc}
2ffec792:	6963      	ldr	r3, [r4, #20]
2ffec794:	b93b      	cbnz	r3, 2ffec7a6 <parse_optee_header+0xb6>
2ffec796:	4649      	mov	r1, r9
2ffec798:	4638      	mov	r0, r7
2ffec79a:	f7ff ff67 	bl	2ffec66c <parse_optee_image>
2ffec79e:	b138      	cbz	r0, 2ffec7b0 <parse_optee_header+0xc0>
2ffec7a0:	f04f 30ff 	mov.w	r0, #4294967295	@ 0xffffffff
2ffec7a4:	e7f3      	b.n	2ffec78e <parse_optee_header+0x9e>
2ffec7a6:	2b01      	cmp	r3, #1
2ffec7a8:	d10f      	bne.n	2ffec7ca <parse_optee_header+0xda>
2ffec7aa:	b95e      	cbnz	r6, 2ffec7c4 <parse_optee_header+0xd4>
2ffec7ac:	69a3      	ldr	r3, [r4, #24]
2ffec7ae:	b92b      	cbnz	r3, 2ffec7bc <parse_optee_header+0xcc>
2ffec7b0:	f10a 0a01 	add.w	sl, sl, #1
2ffec7b4:	3410      	adds	r4, #16
2ffec7b6:	f109 0910 	add.w	r9, r9, #16
2ffec7ba:	e7d2      	b.n	2ffec762 <parse_optee_header+0x72>
2ffec7bc:	480f      	ldr	r0, [pc, #60]	@ (2ffec7fc <parse_optee_header+0x10c>)
2ffec7be:	f001 f82b 	bl	2ffed818 <tf_log>
2ffec7c2:	e7ed      	b.n	2ffec7a0 <parse_optee_header+0xb0>
2ffec7c4:	4649      	mov	r1, r9
2ffec7c6:	4630      	mov	r0, r6
2ffec7c8:	e7e7      	b.n	2ffec79a <parse_optee_header+0xaa>
2ffec7ca:	480d      	ldr	r0, [pc, #52]	@ (2ffec800 <parse_optee_header+0x110>)
2ffec7cc:	e7f7      	b.n	2ffec7be <parse_optee_header+0xce>
2ffec7ce:	bf00      	nop
2ffec7d0:	2fff77d6 	.word	0x2fff77d6
2ffec7d4:	2fff77ee 	.word	0x2fff77ee
2ffec7d8:	2fff77fe 	.word	0x2fff77fe
2ffec7dc:	2fff7813 	.word	0x2fff7813
2ffec7e0:	2fff7826 	.word	0x2fff7826
2ffec7e4:	2fff783b 	.word	0x2fff783b
2ffec7e8:	2fff784d 	.word	0x2fff784d
2ffec7ec:	2fff7860 	.word	0x2fff7860
2ffec7f0:	4554504f 	.word	0x4554504f
2ffec7f4:	2fff78db 	.word	0x2fff78db
2ffec7f8:	2fff7877 	.word	0x2fff7877
2ffec7fc:	2fff78a0 	.word	0x2fff78a0
2ffec800:	2fff78bf 	.word	0x2fff78bf

2ffec804 <crc32_z>:
2ffec804:	b5f0      	push	{r4, r5, r6, r7, lr}
2ffec806:	2900      	cmp	r1, #0
2ffec808:	d05d      	beq.n	2ffec8c6 <crc32_z+0xc2>
2ffec80a:	43c3      	mvns	r3, r0
2ffec80c:	460c      	mov	r4, r1
2ffec80e:	482f      	ldr	r0, [pc, #188]	@ (2ffec8cc <crc32_z+0xc8>)
2ffec810:	4615      	mov	r5, r2
2ffec812:	2d07      	cmp	r5, #7
2ffec814:	f104 0408 	add.w	r4, r4, #8
2ffec818:	d80a      	bhi.n	2ffec830 <crc32_z+0x2c>
2ffec81a:	f022 0007 	bic.w	r0, r2, #7
2ffec81e:	f002 0207 	and.w	r2, r2, #7
2ffec822:	4401      	add	r1, r0
2ffec824:	440a      	add	r2, r1
2ffec826:	4c29      	ldr	r4, [pc, #164]	@ (2ffec8cc <crc32_z+0xc8>)
2ffec828:	4291      	cmp	r1, r2
2ffec82a:	d143      	bne.n	2ffec8b4 <crc32_z+0xb0>
2ffec82c:	43d8      	mvns	r0, r3
2ffec82e:	bdf0      	pop	{r4, r5, r6, r7, pc}
2ffec830:	f814 6c08 	ldrb.w	r6, [r4, #-8]
2ffec834:	3d08      	subs	r5, #8
2ffec836:	405e      	eors	r6, r3
2ffec838:	b2f6      	uxtb	r6, r6
2ffec83a:	f850 6026 	ldr.w	r6, [r0, r6, lsl #2]
2ffec83e:	ea86 2613 	eor.w	r6, r6, r3, lsr #8
2ffec842:	f814 3c07 	ldrb.w	r3, [r4, #-7]
2ffec846:	4073      	eors	r3, r6
2ffec848:	b2db      	uxtb	r3, r3
2ffec84a:	f850 7023 	ldr.w	r7, [r0, r3, lsl #2]
2ffec84e:	f814 3c06 	ldrb.w	r3, [r4, #-6]
2ffec852:	ea87 2716 	eor.w	r7, r7, r6, lsr #8
2ffec856:	407b      	eors	r3, r7
2ffec858:	b2db      	uxtb	r3, r3
2ffec85a:	f850 6023 	ldr.w	r6, [r0, r3, lsl #2]
2ffec85e:	f814 3c05 	ldrb.w	r3, [r4, #-5]
2ffec862:	ea86 2617 	eor.w	r6, r6, r7, lsr #8
2ffec866:	4073      	eors	r3, r6
2ffec868:	b2db      	uxtb	r3, r3
2ffec86a:	f850 7023 	ldr.w	r7, [r0, r3, lsl #2]
2ffec86e:	f814 3c04 	ldrb.w	r3, [r4, #-4]
2ffec872:	ea87 2716 	eor.w	r7, r7, r6, lsr #8
2ffec876:	407b      	eors	r3, r7
2ffec878:	b2db      	uxtb	r3, r3
2ffec87a:	f850 6023 	ldr.w	r6, [r0, r3, lsl #2]
2ffec87e:	f814 3c03 	ldrb.w	r3, [r4, #-3]
2ffec882:	ea86 2617 	eor.w	r6, r6, r7, lsr #8
2ffec886:	4073      	eors	r3, r6
2ffec888:	b2db      	uxtb	r3, r3
2ffec88a:	f850 7023 	ldr.w	r7, [r0, r3, lsl #2]
2ffec88e:	f814 3c02 	ldrb.w	r3, [r4, #-2]
2ffec892:	ea87 2716 	eor.w	r7, r7, r6, lsr #8
2ffec896:	407b      	eors	r3, r7
2ffec898:	b2db      	uxtb	r3, r3
2ffec89a:	f850 6023 	ldr.w	r6, [r0, r3, lsl #2]
2ffec89e:	f814 3c01 	ldrb.w	r3, [r4, #-1]
2ffec8a2:	ea86 2617 	eor.w	r6, r6, r7, lsr #8
2ffec8a6:	4073      	eors	r3, r6
2ffec8a8:	b2db      	uxtb	r3, r3
2ffec8aa:	f850 3023 	ldr.w	r3, [r0, r3, lsl #2]
2ffec8ae:	ea83 2316 	eor.w	r3, r3, r6, lsr #8
2ffec8b2:	e7ae      	b.n	2ffec812 <crc32_z+0xe>
2ffec8b4:	f811 0b01 	ldrb.w	r0, [r1], #1
2ffec8b8:	4058      	eors	r0, r3
2ffec8ba:	b2c0      	uxtb	r0, r0
2ffec8bc:	f854 0020 	ldr.w	r0, [r4, r0, lsl #2]
2ffec8c0:	ea80 2313 	eor.w	r3, r0, r3, lsr #8
2ffec8c4:	e7b0      	b.n	2ffec828 <crc32_z+0x24>
2ffec8c6:	4608      	mov	r0, r1
2ffec8c8:	e7b1      	b.n	2ffec82e <crc32_z+0x2a>
2ffec8ca:	bf00      	nop
2ffec8cc:	2fff5840 	.word	0x2fff5840

2ffec8d0 <open_fip>:
2ffec8d0:	4b02      	ldr	r3, [pc, #8]	@ (2ffec8dc <open_fip+0xc>)
2ffec8d2:	2100      	movs	r1, #0
2ffec8d4:	6818      	ldr	r0, [r3, #0]
2ffec8d6:	f7fe b8c3 	b.w	2ffeaa60 <io_dev_init>
2ffec8da:	bf00      	nop
2ffec8dc:	2fffbac4 	.word	0x2fffbac4

2ffec8e0 <open_storage>:
2ffec8e0:	4b02      	ldr	r3, [pc, #8]	@ (2ffec8ec <open_storage+0xc>)
2ffec8e2:	2100      	movs	r1, #0
2ffec8e4:	6818      	ldr	r0, [r3, #0]
2ffec8e6:	f7fe b8bb 	b.w	2ffeaa60 <io_dev_init>
2ffec8ea:	bf00      	nop
2ffec8ec:	2fffbac0 	.word	0x2fffbac0

2ffec8f0 <stm32mp_io_setup>:
2ffec8f0:	b570      	push	{r4, r5, r6, lr}
2ffec8f2:	b08e      	sub	sp, #56	@ 0x38
2ffec8f4:	f001 f8f0 	bl	2ffedad8 <stm32mp_get_boot_ctx_address>
2ffec8f8:	7843      	ldrb	r3, [r0, #1]
2ffec8fa:	4604      	mov	r4, r0
2ffec8fc:	7801      	ldrb	r1, [r0, #0]
2ffec8fe:	ea41 2103 	orr.w	r1, r1, r3, lsl #8
2ffec902:	1e4b      	subs	r3, r1, #1
2ffec904:	2b06      	cmp	r3, #6
2ffec906:	d83b      	bhi.n	2ffec980 <stm32mp_io_setup+0x90>
2ffec908:	e8df f003 	tbb	[pc, r3]
2ffec90c:	30322e04 	.word	0x30322e04
2ffec910:	3836      	.short	0x3836
2ffec912:	34          	.byte	0x34
2ffec913:	00          	.byte	0x00
2ffec914:	483f      	ldr	r0, [pc, #252]	@ (2ffeca14 <stm32mp_io_setup+0x124>)
2ffec916:	f000 ff7f 	bl	2ffed818 <tf_log>
2ffec91a:	78a1      	ldrb	r1, [r4, #2]
2ffec91c:	78e3      	ldrb	r3, [r4, #3]
2ffec91e:	ea51 2103 	orrs.w	r1, r1, r3, lsl #8
2ffec922:	d002      	beq.n	2ffec92a <stm32mp_io_setup+0x3a>
2ffec924:	483c      	ldr	r0, [pc, #240]	@ (2ffeca18 <stm32mp_io_setup+0x128>)
2ffec926:	f000 ff77 	bl	2ffed818 <tf_log>
2ffec92a:	f894 3091 	ldrb.w	r3, [r4, #145]	@ 0x91
2ffec92e:	f894 1090 	ldrb.w	r1, [r4, #144]	@ 0x90
2ffec932:	ea41 2103 	orr.w	r1, r1, r3, lsl #8
2ffec936:	f894 3092 	ldrb.w	r3, [r4, #146]	@ 0x92
2ffec93a:	ea41 4103 	orr.w	r1, r1, r3, lsl #16
2ffec93e:	f894 3093 	ldrb.w	r3, [r4, #147]	@ 0x93
2ffec942:	ea41 6103 	orr.w	r1, r1, r3, lsl #24
2ffec946:	1e4b      	subs	r3, r1, #1
2ffec948:	2b01      	cmp	r3, #1
2ffec94a:	d802      	bhi.n	2ffec952 <stm32mp_io_setup+0x62>
2ffec94c:	4833      	ldr	r0, [pc, #204]	@ (2ffeca1c <stm32mp_io_setup+0x12c>)
2ffec94e:	f000 ff63 	bl	2ffed818 <tf_log>
2ffec952:	4d33      	ldr	r5, [pc, #204]	@ (2ffeca20 <stm32mp_io_setup+0x130>)
2ffec954:	4628      	mov	r0, r5
2ffec956:	f7fe f825 	bl	2ffea9a4 <register_io_dev_fip>
2ffec95a:	4601      	mov	r1, r0
2ffec95c:	b1b8      	cbz	r0, 2ffec98e <stm32mp_io_setup+0x9e>
2ffec95e:	f44f 71ec 	mov.w	r1, #472	@ 0x1d8
2ffec962:	4830      	ldr	r0, [pc, #192]	@ (2ffeca24 <stm32mp_io_setup+0x134>)
2ffec964:	f006 fee2 	bl	2fff372c <__assert>
2ffec968:	482f      	ldr	r0, [pc, #188]	@ (2ffeca28 <stm32mp_io_setup+0x138>)
2ffec96a:	e7d4      	b.n	2ffec916 <stm32mp_io_setup+0x26>
2ffec96c:	482f      	ldr	r0, [pc, #188]	@ (2ffeca2c <stm32mp_io_setup+0x13c>)
2ffec96e:	e7d2      	b.n	2ffec916 <stm32mp_io_setup+0x26>
2ffec970:	482f      	ldr	r0, [pc, #188]	@ (2ffeca30 <stm32mp_io_setup+0x140>)
2ffec972:	e7d0      	b.n	2ffec916 <stm32mp_io_setup+0x26>
2ffec974:	482f      	ldr	r0, [pc, #188]	@ (2ffeca34 <stm32mp_io_setup+0x144>)
2ffec976:	e7ce      	b.n	2ffec916 <stm32mp_io_setup+0x26>
2ffec978:	482f      	ldr	r0, [pc, #188]	@ (2ffeca38 <stm32mp_io_setup+0x148>)
2ffec97a:	e7cc      	b.n	2ffec916 <stm32mp_io_setup+0x26>
2ffec97c:	482f      	ldr	r0, [pc, #188]	@ (2ffeca3c <stm32mp_io_setup+0x14c>)
2ffec97e:	e7ca      	b.n	2ffec916 <stm32mp_io_setup+0x26>
2ffec980:	482f      	ldr	r0, [pc, #188]	@ (2ffeca40 <stm32mp_io_setup+0x150>)
2ffec982:	f000 ff49 	bl	2ffed818 <tf_log>
2ffec986:	f000 ffe3 	bl	2ffed950 <console_flush>
2ffec98a:	f7fc ed28 	blx	2ffe93dc <do_panic>
2ffec98e:	6828      	ldr	r0, [r5, #0]
2ffec990:	4a2c      	ldr	r2, [pc, #176]	@ (2ffeca44 <stm32mp_io_setup+0x154>)
2ffec992:	f7fe f851 	bl	2ffeaa38 <io_dev_open>
2ffec996:	7825      	ldrb	r5, [r4, #0]
2ffec998:	7863      	ldrb	r3, [r4, #1]
2ffec99a:	ea45 2503 	orr.w	r5, r5, r3, lsl #8
2ffec99e:	2d01      	cmp	r5, #1
2ffec9a0:	d133      	bne.n	2ffeca0a <stm32mp_io_setup+0x11a>
2ffec9a2:	f3bf 8f5f 	dmb	sy
2ffec9a6:	78a3      	ldrb	r3, [r4, #2]
2ffec9a8:	2134      	movs	r1, #52	@ 0x34
2ffec9aa:	78e2      	ldrb	r2, [r4, #3]
2ffec9ac:	a801      	add	r0, sp, #4
2ffec9ae:	4e26      	ldr	r6, [pc, #152]	@ (2ffeca48 <stm32mp_io_setup+0x158>)
2ffec9b0:	ea43 2402 	orr.w	r4, r3, r2, lsl #8
2ffec9b4:	f7fc ee12 	blx	2ffe95dc <zero_normalmem>
2ffec9b8:	6175      	str	r5, [r6, #20]
2ffec9ba:	2c02      	cmp	r4, #2
2ffec9bc:	d012      	beq.n	2ffec9e4 <stm32mp_io_setup+0xf4>
2ffec9be:	2c03      	cmp	r4, #3
2ffec9c0:	d012      	beq.n	2ffec9e8 <stm32mp_io_setup+0xf8>
2ffec9c2:	2c01      	cmp	r4, #1
2ffec9c4:	d002      	beq.n	2ffec9cc <stm32mp_io_setup+0xdc>
2ffec9c6:	4821      	ldr	r0, [pc, #132]	@ (2ffeca4c <stm32mp_io_setup+0x15c>)
2ffec9c8:	f000 ff26 	bl	2ffed818 <tf_log>
2ffec9cc:	4b20      	ldr	r3, [pc, #128]	@ (2ffeca50 <stm32mp_io_setup+0x160>)
2ffec9ce:	9301      	str	r3, [sp, #4]
2ffec9d0:	a801      	add	r0, sp, #4
2ffec9d2:	9605      	str	r6, [sp, #20]
2ffec9d4:	2302      	movs	r3, #2
2ffec9d6:	9304      	str	r3, [sp, #16]
2ffec9d8:	f7ff fc78 	bl	2ffec2cc <stm32_sdmmc2_mmc_init>
2ffec9dc:	b130      	cbz	r0, 2ffec9ec <stm32mp_io_setup+0xfc>
2ffec9de:	481d      	ldr	r0, [pc, #116]	@ (2ffeca54 <stm32mp_io_setup+0x164>)
2ffec9e0:	4621      	mov	r1, r4
2ffec9e2:	e7ce      	b.n	2ffec982 <stm32mp_io_setup+0x92>
2ffec9e4:	4b1c      	ldr	r3, [pc, #112]	@ (2ffeca58 <stm32mp_io_setup+0x168>)
2ffec9e6:	e7f2      	b.n	2ffec9ce <stm32mp_io_setup+0xde>
2ffec9e8:	4b1c      	ldr	r3, [pc, #112]	@ (2ffeca5c <stm32mp_io_setup+0x16c>)
2ffec9ea:	e7f0      	b.n	2ffec9ce <stm32mp_io_setup+0xde>
2ffec9ec:	4c1c      	ldr	r4, [pc, #112]	@ (2ffeca60 <stm32mp_io_setup+0x170>)
2ffec9ee:	4620      	mov	r0, r4
2ffec9f0:	f7fd fe32 	bl	2ffea658 <register_io_dev_block>
2ffec9f4:	2800      	cmp	r0, #0
2ffec9f6:	d1c6      	bne.n	2ffec986 <stm32mp_io_setup+0x96>
2ffec9f8:	4a1a      	ldr	r2, [pc, #104]	@ (2ffeca64 <stm32mp_io_setup+0x174>)
2ffec9fa:	491b      	ldr	r1, [pc, #108]	@ (2ffeca68 <stm32mp_io_setup+0x178>)
2ffec9fc:	6820      	ldr	r0, [r4, #0]
2ffec9fe:	f7fe f81b 	bl	2ffeaa38 <io_dev_open>
2ffeca02:	b128      	cbz	r0, 2ffeca10 <stm32mp_io_setup+0x120>
2ffeca04:	f44f 7195 	mov.w	r1, #298	@ 0x12a
2ffeca08:	e7ab      	b.n	2ffec962 <stm32mp_io_setup+0x72>
2ffeca0a:	4818      	ldr	r0, [pc, #96]	@ (2ffeca6c <stm32mp_io_setup+0x17c>)
2ffeca0c:	4629      	mov	r1, r5
2ffeca0e:	e7b8      	b.n	2ffec982 <stm32mp_io_setup+0x92>
2ffeca10:	b00e      	add	sp, #56	@ 0x38
2ffeca12:	bd70      	pop	{r4, r5, r6, pc}
2ffeca14:	2fff78fb 	.word	0x2fff78fb
2ffeca18:	2fff797f 	.word	0x2fff797f
2ffeca1c:	2fff798f 	.word	0x2fff798f
2ffeca20:	2fffbabc 	.word	0x2fffbabc
2ffeca24:	2fff79ac 	.word	0x2fff79ac
2ffeca28:	2fff7909 	.word	0x2fff7909
2ffeca2c:	2fff7916 	.word	0x2fff7916
2ffeca30:	2fff7926 	.word	0x2fff7926
2ffeca34:	2fff7937 	.word	0x2fff7937
2ffeca38:	2fff7948 	.word	0x2fff7948
2ffeca3c:	2fff7955 	.word	0x2fff7955
2ffeca40:	2fff7961 	.word	0x2fff7961
2ffeca44:	2fffbac4 	.word	0x2fffbac4
2ffeca48:	2fffb890 	.word	0x2fffb890
2ffeca4c:	2fff79cc 	.word	0x2fff79cc
2ffeca50:	58005000 	.word	0x58005000
2ffeca54:	2fff79f6 	.word	0x2fff79f6
2ffeca58:	58007000 	.word	0x58007000
2ffeca5c:	48004000 	.word	0x48004000
2ffeca60:	2fffbab8 	.word	0x2fffbab8
2ffeca64:	2fffbac0 	.word	0x2fffbac0
2ffeca68:	2fffa05c 	.word	0x2fffa05c
2ffeca6c:	2fff7a0c 	.word	0x2fff7a0c

2ffeca70 <bl2_plat_handle_pre_image_load>:
2ffeca70:	b538      	push	{r3, r4, r5, lr}
2ffeca72:	4605      	mov	r5, r0
2ffeca74:	f001 f836 	bl	2ffedae4 <stm32mp_get_boot_itf_selected>
2ffeca78:	4604      	mov	r4, r0
2ffeca7a:	f003 fc4b 	bl	2fff0314 <stm32mp_skip_boot_device_after_standby>
2ffeca7e:	b938      	cbnz	r0, 2ffeca90 <bl2_plat_handle_pre_image_load+0x20>
2ffeca80:	3c01      	subs	r4, #1
2ffeca82:	2c01      	cmp	r4, #1
2ffeca84:	d815      	bhi.n	2ffecab2 <bl2_plat_handle_pre_image_load+0x42>
2ffeca86:	4b0e      	ldr	r3, [pc, #56]	@ (2ffecac0 <bl2_plat_handle_pre_image_load+0x50>)
2ffeca88:	781a      	ldrb	r2, [r3, #0]
2ffeca8a:	b91a      	cbnz	r2, 2ffeca94 <bl2_plat_handle_pre_image_load+0x24>
2ffeca8c:	2201      	movs	r2, #1
2ffeca8e:	701a      	strb	r2, [r3, #0]
2ffeca90:	2000      	movs	r0, #0
2ffeca92:	bd38      	pop	{r3, r4, r5, pc}
2ffeca94:	4628      	mov	r0, r5
2ffeca96:	f7fd f935 	bl	2ffe9d04 <get_bl_mem_params_node>
2ffeca9a:	b920      	cbnz	r0, 2ffecaa6 <bl2_plat_handle_pre_image_load+0x36>
2ffeca9c:	4809      	ldr	r0, [pc, #36]	@ (2ffecac4 <bl2_plat_handle_pre_image_load+0x54>)
2ffeca9e:	f44f 7116 	mov.w	r1, #600	@ 0x258
2ffecaa2:	f006 fe43 	bl	2fff372c <__assert>
2ffecaa6:	4b08      	ldr	r3, [pc, #32]	@ (2ffecac8 <bl2_plat_handle_pre_image_load+0x58>)
2ffecaa8:	68c2      	ldr	r2, [r0, #12]
2ffecaaa:	601a      	str	r2, [r3, #0]
2ffecaac:	6942      	ldr	r2, [r0, #20]
2ffecaae:	605a      	str	r2, [r3, #4]
2ffecab0:	e7ee      	b.n	2ffeca90 <bl2_plat_handle_pre_image_load+0x20>
2ffecab2:	4806      	ldr	r0, [pc, #24]	@ (2ffecacc <bl2_plat_handle_pre_image_load+0x5c>)
2ffecab4:	f000 feb0 	bl	2ffed818 <tf_log>
2ffecab8:	f000 ff4a 	bl	2ffed950 <console_flush>
2ffecabc:	f7fc ec8e 	blx	2ffe93dc <do_panic>
2ffecac0:	2fffc37f 	.word	0x2fffc37f
2ffecac4:	2fff79ac 	.word	0x2fff79ac
2ffecac8:	2fffa05c 	.word	0x2fffa05c
2ffecacc:	2fff7a2e 	.word	0x2fff7a2e

2ffecad0 <plat_get_image_source>:
2ffecad0:	2812      	cmp	r0, #18
2ffecad2:	e92d 41f0 	stmdb	sp!, {r4, r5, r6, r7, r8, lr}
2ffecad6:	460d      	mov	r5, r1
2ffecad8:	4616      	mov	r6, r2
2ffecada:	d904      	bls.n	2ffecae6 <plat_get_image_source+0x16>
2ffecadc:	480b      	ldr	r0, [pc, #44]	@ (2ffecb0c <plat_get_image_source+0x3c>)
2ffecade:	f240 21da 	movw	r1, #730	@ 0x2da
2ffecae2:	f006 fe23 	bl	2fff372c <__assert>
2ffecae6:	f8df 8028 	ldr.w	r8, [pc, #40]	@ 2ffecb10 <plat_get_image_source+0x40>
2ffecaea:	231c      	movs	r3, #28
2ffecaec:	fb03 f400 	mul.w	r4, r3, r0
2ffecaf0:	eb08 0704 	add.w	r7, r8, r4
2ffecaf4:	69bb      	ldr	r3, [r7, #24]
2ffecaf6:	6878      	ldr	r0, [r7, #4]
2ffecaf8:	4798      	blx	r3
2ffecafa:	b928      	cbnz	r0, 2ffecb08 <plat_get_image_source+0x38>
2ffecafc:	687b      	ldr	r3, [r7, #4]
2ffecafe:	6033      	str	r3, [r6, #0]
2ffecb00:	f858 3004 	ldr.w	r3, [r8, r4]
2ffecb04:	681b      	ldr	r3, [r3, #0]
2ffecb06:	602b      	str	r3, [r5, #0]
2ffecb08:	e8bd 81f0 	ldmia.w	sp!, {r4, r5, r6, r7, r8, pc}
2ffecb0c:	2fff79ac 	.word	0x2fff79ac
2ffecb10:	2fffa080 	.word	0x2fffa080

2ffecb14 <plat_fwu_get_boot_idx>:
2ffecb14:	b510      	push	{r4, lr}
2ffecb16:	4c17      	ldr	r4, [pc, #92]	@ (2ffecb74 <plat_fwu_get_boot_idx+0x60>)
2ffecb18:	6823      	ldr	r3, [r4, #0]
2ffecb1a:	3301      	adds	r3, #1
2ffecb1c:	d11a      	bne.n	2ffecb54 <plat_fwu_get_boot_idx+0x40>
2ffecb1e:	f7fd fbb5 	bl	2ffea28c <fwu_get_metadata>
2ffecb22:	7a43      	ldrb	r3, [r0, #9]
2ffecb24:	7a01      	ldrb	r1, [r0, #8]
2ffecb26:	ea41 2103 	orr.w	r1, r1, r3, lsl #8
2ffecb2a:	7a83      	ldrb	r3, [r0, #10]
2ffecb2c:	ea41 4103 	orr.w	r1, r1, r3, lsl #16
2ffecb30:	7ac3      	ldrb	r3, [r0, #11]
2ffecb32:	ea41 6103 	orr.w	r1, r1, r3, lsl #24
2ffecb36:	4408      	add	r0, r1
2ffecb38:	6021      	str	r1, [r4, #0]
2ffecb3a:	7e03      	ldrb	r3, [r0, #24]
2ffecb3c:	2bfe      	cmp	r3, #254	@ 0xfe
2ffecb3e:	d10b      	bne.n	2ffecb58 <plat_fwu_get_boot_idx+0x44>
2ffecb40:	f001 f906 	bl	2ffedd50 <stm32_get_and_dec_fwu_trial_boot_cnt>
2ffecb44:	b930      	cbnz	r0, 2ffecb54 <plat_fwu_get_boot_idx+0x40>
2ffecb46:	480c      	ldr	r0, [pc, #48]	@ (2ffecb78 <plat_fwu_get_boot_idx+0x64>)
2ffecb48:	2103      	movs	r1, #3
2ffecb4a:	f000 fe65 	bl	2ffed818 <tf_log>
2ffecb4e:	f7fd fb4b 	bl	2ffea1e8 <fwu_get_alternate_boot_bank>
2ffecb52:	6020      	str	r0, [r4, #0]
2ffecb54:	6820      	ldr	r0, [r4, #0]
2ffecb56:	bd10      	pop	{r4, pc}
2ffecb58:	2bfc      	cmp	r3, #252	@ 0xfc
2ffecb5a:	d102      	bne.n	2ffecb62 <plat_fwu_get_boot_idx+0x4e>
2ffecb5c:	f007 fb59 	bl	2fff4212 <stm32_set_max_fwu_trial_boot_cnt>
2ffecb60:	e7f8      	b.n	2ffecb54 <plat_fwu_get_boot_idx+0x40>
2ffecb62:	4806      	ldr	r0, [pc, #24]	@ (2ffecb7c <plat_fwu_get_boot_idx+0x68>)
2ffecb64:	f000 fe58 	bl	2ffed818 <tf_log>
2ffecb68:	f7fd fb3e 	bl	2ffea1e8 <fwu_get_alternate_boot_bank>
2ffecb6c:	6020      	str	r0, [r4, #0]
2ffecb6e:	f007 fb60 	bl	2fff4232 <stm32_clear_fwu_trial_boot_cnt>
2ffecb72:	e7ef      	b.n	2ffecb54 <plat_fwu_get_boot_idx+0x40>
2ffecb74:	2fffa058 	.word	0x2fffa058
2ffecb78:	2fff7a3e 	.word	0x2fff7a3e
2ffecb7c:	2fff7a59 	.word	0x2fff7a59

2ffecb80 <plat_fwu_set_images_source>:
2ffecb80:	b5f8      	push	{r3, r4, r5, r6, r7, lr}
2ffecb82:	4604      	mov	r4, r0
2ffecb84:	f7ff ffc6 	bl	2ffecb14 <plat_fwu_get_boot_idx>
2ffecb88:	2801      	cmp	r0, #1
2ffecb8a:	d927      	bls.n	2ffecbdc <plat_fwu_set_images_source+0x5c>
2ffecb8c:	4818      	ldr	r0, [pc, #96]	@ (2ffecbf0 <plat_fwu_set_images_source+0x70>)
2ffecb8e:	f44f 7154 	mov.w	r1, #848	@ 0x350
2ffecb92:	f006 fdcb 	bl	2fff372c <__assert>
2ffecb96:	3501      	adds	r5, #1
2ffecb98:	361c      	adds	r6, #28
2ffecb9a:	2d13      	cmp	r5, #19
2ffecb9c:	d00c      	beq.n	2ffecbb8 <plat_fwu_set_images_source+0x38>
2ffecb9e:	2210      	movs	r2, #16
2ffecba0:	4639      	mov	r1, r7
2ffecba2:	4630      	mov	r0, r6
2ffecba4:	f008 fc31 	bl	2fff540a <memcmp>
2ffecba8:	2800      	cmp	r0, #0
2ffecbaa:	d1f4      	bne.n	2ffecb96 <plat_fwu_set_images_source+0x16>
2ffecbac:	4b11      	ldr	r3, [pc, #68]	@ (2ffecbf4 <plat_fwu_set_images_source+0x74>)
2ffecbae:	221c      	movs	r2, #28
2ffecbb0:	fb02 3305 	mla	r3, r2, r5, r3
2ffecbb4:	685d      	ldr	r5, [r3, #4]
2ffecbb6:	b935      	cbnz	r5, 2ffecbc6 <plat_fwu_set_images_source+0x46>
2ffecbb8:	480f      	ldr	r0, [pc, #60]	@ (2ffecbf8 <plat_fwu_set_images_source+0x78>)
2ffecbba:	f000 fe2d 	bl	2ffed818 <tf_log>
2ffecbbe:	f000 fec7 	bl	2ffed950 <console_flush>
2ffecbc2:	f7fc ec0c 	blx	2ffe93dc <do_panic>
2ffecbc6:	4620      	mov	r0, r4
2ffecbc8:	f7fe fcf8 	bl	2ffeb5bc <get_partition_entry_by_guid>
2ffecbcc:	b908      	cbnz	r0, 2ffecbd2 <plat_fwu_set_images_source+0x52>
2ffecbce:	480b      	ldr	r0, [pc, #44]	@ (2ffecbfc <plat_fwu_set_images_source+0x7c>)
2ffecbd0:	e7f3      	b.n	2ffecbba <plat_fwu_set_images_source+0x3a>
2ffecbd2:	6803      	ldr	r3, [r0, #0]
2ffecbd4:	602b      	str	r3, [r5, #0]
2ffecbd6:	6883      	ldr	r3, [r0, #8]
2ffecbd8:	606b      	str	r3, [r5, #4]
2ffecbda:	bdf8      	pop	{r3, r4, r5, r6, r7, pc}
2ffecbdc:	4e08      	ldr	r6, [pc, #32]	@ (2ffecc00 <plat_fwu_set_images_source+0x80>)
2ffecbde:	2318      	movs	r3, #24
2ffecbe0:	f104 0728 	add.w	r7, r4, #40	@ 0x28
2ffecbe4:	2500      	movs	r5, #0
2ffecbe6:	fb03 4400 	mla	r4, r3, r0, r4
2ffecbea:	3448      	adds	r4, #72	@ 0x48
2ffecbec:	e7d7      	b.n	2ffecb9e <plat_fwu_set_images_source+0x1e>
2ffecbee:	bf00      	nop
2ffecbf0:	2fff79ac 	.word	0x2fff79ac
2ffecbf4:	2fffa080 	.word	0x2fffa080
2ffecbf8:	2fff7a94 	.word	0x2fff7a94
2ffecbfc:	2fff7acd 	.word	0x2fff7acd
2ffecc00:	2fffa088 	.word	0x2fffa088

2ffecc04 <plat_fwu_set_metadata_image_source>:
2ffecc04:	f1a0 030c 	sub.w	r3, r0, #12
2ffecc08:	2b01      	cmp	r3, #1
2ffecc0a:	e92d 41f0 	stmdb	sp!, {r4, r5, r6, r7, r8, lr}
2ffecc0e:	4604      	mov	r4, r0
2ffecc10:	460d      	mov	r5, r1
2ffecc12:	4617      	mov	r7, r2
2ffecc14:	d904      	bls.n	2ffecc20 <plat_fwu_set_metadata_image_source+0x1c>
2ffecc16:	4816      	ldr	r0, [pc, #88]	@ (2ffecc70 <plat_fwu_set_metadata_image_source+0x6c>)
2ffecc18:	f240 31cf 	movw	r1, #975	@ 0x3cf
2ffecc1c:	f006 fd86 	bl	2fff372c <__assert>
2ffecc20:	4e14      	ldr	r6, [pc, #80]	@ (2ffecc74 <plat_fwu_set_metadata_image_source+0x70>)
2ffecc22:	231c      	movs	r3, #28
2ffecc24:	fb03 6300 	mla	r3, r3, r0, r6
2ffecc28:	2003      	movs	r0, #3
2ffecc2a:	f8d3 8004 	ldr.w	r8, [r3, #4]
2ffecc2e:	f007 f823 	bl	2fff3c78 <partition_init>
2ffecc32:	2c0c      	cmp	r4, #12
2ffecc34:	bf0c      	ite	eq
2ffecc36:	4810      	ldreq	r0, [pc, #64]	@ (2ffecc78 <plat_fwu_set_metadata_image_source+0x74>)
2ffecc38:	4810      	ldrne	r0, [pc, #64]	@ (2ffecc7c <plat_fwu_set_metadata_image_source+0x78>)
2ffecc3a:	f7fe fca5 	bl	2ffeb588 <get_partition_entry>
2ffecc3e:	b930      	cbnz	r0, 2ffecc4e <plat_fwu_set_metadata_image_source+0x4a>
2ffecc40:	480f      	ldr	r0, [pc, #60]	@ (2ffecc80 <plat_fwu_set_metadata_image_source+0x7c>)
2ffecc42:	f000 fde9 	bl	2ffed818 <tf_log>
2ffecc46:	f06f 0001 	mvn.w	r0, #1
2ffecc4a:	e8bd 81f0 	ldmia.w	sp!, {r4, r5, r6, r7, r8, pc}
2ffecc4e:	6803      	ldr	r3, [r0, #0]
2ffecc50:	f8c8 3000 	str.w	r3, [r8]
2ffecc54:	6883      	ldr	r3, [r0, #8]
2ffecc56:	2000      	movs	r0, #0
2ffecc58:	f8c8 3004 	str.w	r3, [r8, #4]
2ffecc5c:	231c      	movs	r3, #28
2ffecc5e:	435c      	muls	r4, r3
2ffecc60:	1933      	adds	r3, r6, r4
2ffecc62:	685b      	ldr	r3, [r3, #4]
2ffecc64:	603b      	str	r3, [r7, #0]
2ffecc66:	5933      	ldr	r3, [r6, r4]
2ffecc68:	681b      	ldr	r3, [r3, #0]
2ffecc6a:	602b      	str	r3, [r5, #0]
2ffecc6c:	e7ed      	b.n	2ffecc4a <plat_fwu_set_metadata_image_source+0x46>
2ffecc6e:	bf00      	nop
2ffecc70:	2fff79ac 	.word	0x2fff79ac
2ffecc74:	2fffa080 	.word	0x2fffa080
2ffecc78:	2fff7b00 	.word	0x2fff7b00
2ffecc7c:	2fff7b0a 	.word	0x2fff7b0a
2ffecc80:	2fff7b14 	.word	0x2fff7b14

2ffecc84 <fconf_populate_stm32mp_io_policies>:
2ffecc84:	e92d 4ff0 	stmdb	sp!, {r4, r5, r6, r7, r8, r9, sl, fp, lr}
2ffecc88:	b089      	sub	sp, #36	@ 0x24
2ffecc8a:	4a2b      	ldr	r2, [pc, #172]	@ (2ffecd38 <fconf_populate_stm32mp_io_policies+0xb4>)
2ffecc8c:	f04f 31ff 	mov.w	r1, #4294967295	@ 0xffffffff
2ffecc90:	9002      	str	r0, [sp, #8]
2ffecc92:	f008 fb91 	bl	2fff53b8 <fdt_node_offset_by_compatible>
2ffecc96:	1e04      	subs	r4, r0, #0
2ffecc98:	da07      	bge.n	2ffeccaa <fconf_populate_stm32mp_io_policies+0x26>
2ffecc9a:	4927      	ldr	r1, [pc, #156]	@ (2ffecd38 <fconf_populate_stm32mp_io_policies+0xb4>)
2ffecc9c:	4827      	ldr	r0, [pc, #156]	@ (2ffecd3c <fconf_populate_stm32mp_io_policies+0xb8>)
2ffecc9e:	f000 fdbb 	bl	2ffed818 <tf_log>
2ffecca2:	4620      	mov	r0, r4
2ffecca4:	b009      	add	sp, #36	@ 0x24
2ffecca6:	e8bd 8ff0 	ldmia.w	sp!, {r4, r5, r6, r7, r8, r9, sl, fp, pc}
2ffeccaa:	f8df 8094 	ldr.w	r8, [pc, #148]	@ 2ffecd40 <fconf_populate_stm32mp_io_policies+0xbc>
2ffeccae:	2700      	movs	r7, #0
2ffeccb0:	4d24      	ldr	r5, [pc, #144]	@ (2ffecd44 <fconf_populate_stm32mp_io_policies+0xc0>)
2ffeccb2:	f8df 9094 	ldr.w	r9, [pc, #148]	@ 2ffecd48 <fconf_populate_stm32mp_io_policies+0xc4>
2ffeccb6:	68eb      	ldr	r3, [r5, #12]
2ffeccb8:	686a      	ldr	r2, [r5, #4]
2ffeccba:	1c59      	adds	r1, r3, #1
2ffeccbc:	4291      	cmp	r1, r2
2ffeccbe:	d908      	bls.n	2ffeccd2 <fconf_populate_stm32mp_io_policies+0x4e>
2ffeccc0:	1ad2      	subs	r2, r2, r3
2ffeccc2:	2101      	movs	r1, #1
2ffeccc4:	4821      	ldr	r0, [pc, #132]	@ (2ffecd4c <fconf_populate_stm32mp_io_policies+0xc8>)
2ffeccc6:	f000 fda7 	bl	2ffed818 <tf_log>
2ffeccca:	f000 fe41 	bl	2ffed950 <console_flush>
2ffeccce:	f7fc eb86 	blx	2ffe93dc <do_panic>
2ffeccd2:	682a      	ldr	r2, [r5, #0]
2ffeccd4:	f10d 0a10 	add.w	sl, sp, #16
2ffeccd8:	68ae      	ldr	r6, [r5, #8]
2ffeccda:	60e9      	str	r1, [r5, #12]
2ffeccdc:	4621      	mov	r1, r4
2ffeccde:	fb02 6603 	mla	r6, r2, r3, r6
2ffecce2:	f8d8 2004 	ldr.w	r2, [r8, #4]
2ffecce6:	2310      	movs	r3, #16
2ffecce8:	9802      	ldr	r0, [sp, #8]
2ffeccea:	f8cd a000 	str.w	sl, [sp]
2ffeccee:	9203      	str	r2, [sp, #12]
2ffeccf0:	f7fd f95a 	bl	2ffe9fa8 <fdtw_read_uuid>
2ffeccf4:	9a03      	ldr	r2, [sp, #12]
2ffeccf6:	f1b0 0b00 	subs.w	fp, r0, #0
2ffeccfa:	da05      	bge.n	2ffecd08 <fconf_populate_stm32mp_io_policies+0x84>
2ffeccfc:	4814      	ldr	r0, [pc, #80]	@ (2ffecd50 <fconf_populate_stm32mp_io_policies+0xcc>)
2ffeccfe:	4611      	mov	r1, r2
2ffecd00:	465c      	mov	r4, fp
2ffecd02:	f000 fd89 	bl	2ffed818 <tf_log>
2ffecd06:	e7cc      	b.n	2ffecca2 <fconf_populate_stm32mp_io_policies+0x1e>
2ffecd08:	2210      	movs	r2, #16
2ffecd0a:	4651      	mov	r1, sl
2ffecd0c:	4630      	mov	r0, r6
2ffecd0e:	3701      	adds	r7, #1
2ffecd10:	f008 fb89 	bl	2fff5426 <memcpy>
2ffecd14:	f858 3b08 	ldr.w	r3, [r8], #8
2ffecd18:	221c      	movs	r2, #28
2ffecd1a:	490e      	ldr	r1, [pc, #56]	@ (2ffecd54 <fconf_populate_stm32mp_io_policies+0xd0>)
2ffecd1c:	2f07      	cmp	r7, #7
2ffecd1e:	fb02 f303 	mul.w	r3, r2, r3
2ffecd22:	eb09 0203 	add.w	r2, r9, r3
2ffecd26:	f849 1003 	str.w	r1, [r9, r3]
2ffecd2a:	4b0b      	ldr	r3, [pc, #44]	@ (2ffecd58 <fconf_populate_stm32mp_io_policies+0xd4>)
2ffecd2c:	6056      	str	r6, [r2, #4]
2ffecd2e:	6193      	str	r3, [r2, #24]
2ffecd30:	d1c1      	bne.n	2ffeccb6 <fconf_populate_stm32mp_io_policies+0x32>
2ffecd32:	2400      	movs	r4, #0
2ffecd34:	e7b5      	b.n	2ffecca2 <fconf_populate_stm32mp_io_policies+0x1e>
2ffecd36:	bf00      	nop
2ffecd38:	2fff7b3a 	.word	0x2fff7b3a
2ffecd3c:	2fff76ba 	.word	0x2fff76ba
2ffecd40:	2fff5c40 	.word	0x2fff5c40
2ffecd44:	2fffa070 	.word	0x2fffa070
2ffecd48:	2fffa080 	.word	0x2fffa080
2ffecd4c:	2fff7661 	.word	0x2fff7661
2ffecd50:	2fff7b4b 	.word	0x2fff7b4b
2ffecd54:	2fffbac4 	.word	0x2fffbac4
2ffecd58:	2ffec8d1 	.word	0x2ffec8d1

2ffecd5c <bl2_platform_setup>:
2ffecd5c:	b500      	push	{lr}
2ffecd5e:	b08b      	sub	sp, #44	@ 0x2c
2ffecd60:	f7fe ff72 	bl	2ffebc48 <stm32mp1_ddr_probe>
2ffecd64:	1e01      	subs	r1, r0, #0
2ffecd66:	da06      	bge.n	2ffecd76 <bl2_platform_setup+0x1a>
2ffecd68:	4817      	ldr	r0, [pc, #92]	@ (2ffecdc8 <bl2_platform_setup+0x6c>)
2ffecd6a:	f000 fd55 	bl	2ffed818 <tf_log>
2ffecd6e:	f000 fdef 	bl	2ffed950 <console_flush>
2ffecd72:	f7fc eb34 	blx	2ffe93dc <do_panic>
2ffecd76:	f7fe ff61 	bl	2ffebc3c <stm32mp1_ddr_is_restored>
2ffecd7a:	b990      	cbnz	r0, 2ffecda2 <bl2_platform_setup+0x46>
2ffecd7c:	9003      	str	r0, [sp, #12]
2ffecd7e:	a804      	add	r0, sp, #16
2ffecd80:	f000 ff86 	bl	2ffedc90 <stm32_get_magic_number_cell>
2ffecd84:	a807      	add	r0, sp, #28
2ffecd86:	f000 ff9b 	bl	2ffedcc0 <stm32_get_core1_branch_address_cell>
2ffecd8a:	2204      	movs	r2, #4
2ffecd8c:	a903      	add	r1, sp, #12
2ffecd8e:	a807      	add	r0, sp, #28
2ffecd90:	f007 fbf2 	bl	2fff4578 <nvmem_cell_write>
2ffecd94:	2204      	movs	r2, #4
2ffecd96:	a903      	add	r1, sp, #12
2ffecd98:	a804      	add	r0, sp, #16
2ffecd9a:	f007 fbed 	bl	2fff4578 <nvmem_cell_write>
2ffecd9e:	f007 ff00 	bl	2fff4ba2 <stm32_clean_context>
2ffecda2:	230a      	movs	r3, #10
2ffecda4:	2100      	movs	r1, #0
2ffecda6:	9300      	str	r3, [sp, #0]
2ffecda8:	f04f 4240 	mov.w	r2, #3221225472	@ 0xc0000000
2ffecdac:	f04f 4380 	mov.w	r3, #1073741824	@ 0x40000000
2ffecdb0:	f04f 4040 	mov.w	r0, #3221225472	@ 0xc0000000
2ffecdb4:	f001 f8ce 	bl	2ffedf54 <mmap_add_dynamic_region>
2ffecdb8:	1e01      	subs	r1, r0, #0
2ffecdba:	da01      	bge.n	2ffecdc0 <bl2_platform_setup+0x64>
2ffecdbc:	4803      	ldr	r0, [pc, #12]	@ (2ffecdcc <bl2_platform_setup+0x70>)
2ffecdbe:	e7d4      	b.n	2ffecd6a <bl2_platform_setup+0xe>
2ffecdc0:	b00b      	add	sp, #44	@ 0x2c
2ffecdc2:	f85d fb04 	ldr.w	pc, [sp], #4
2ffecdc6:	bf00      	nop
2ffecdc8:	2fff7bcf 	.word	0x2fff7bcf
2ffecdcc:	2fff7bec 	.word	0x2fff7bec

2ffecdd0 <bl2_el3_plat_arch_setup>:
2ffecdd0:	e92d 41ff 	stmdb	sp!, {r0, r1, r2, r3, r4, r5, r6, r7, r8, lr}
2ffecdd4:	f000 fe80 	bl	2ffedad8 <stm32mp_get_boot_ctx_address>
2ffecdd8:	4605      	mov	r5, r0
2ffecdda:	f003 fc75 	bl	2fff06c8 <bsec_probe>
2ffecdde:	4601      	mov	r1, r0
2ffecde0:	b118      	cbz	r0, 2ffecdea <bl2_el3_plat_arch_setup+0x1a>
2ffecde2:	f000 fdb5 	bl	2ffed950 <console_flush>
2ffecde6:	f7fc eafa 	blx	2ffe93dc <do_panic>
2ffecdea:	4aab      	ldr	r2, [pc, #684]	@ (2ffed098 <bl2_el3_plat_arch_setup+0x2c8>)
2ffecdec:	2302      	movs	r3, #2
2ffecdee:	9300      	str	r3, [sp, #0]
2ffecdf0:	4baa      	ldr	r3, [pc, #680]	@ (2ffed09c <bl2_el3_plat_arch_setup+0x2cc>)
2ffecdf2:	4610      	mov	r0, r2
2ffecdf4:	1a9b      	subs	r3, r3, r2
2ffecdf6:	f001 f893 	bl	2ffedf20 <mmap_add_region>
2ffecdfa:	4aa9      	ldr	r2, [pc, #676]	@ (2ffed0a0 <bl2_el3_plat_arch_setup+0x2d0>)
2ffecdfc:	2342      	movs	r3, #66	@ 0x42
2ffecdfe:	48a8      	ldr	r0, [pc, #672]	@ (2ffed0a0 <bl2_el3_plat_arch_setup+0x2d0>)
2ffece00:	2100      	movs	r1, #0
2ffece02:	9300      	str	r3, [sp, #0]
2ffece04:	f44f 43e0 	mov.w	r3, #28672	@ 0x7000
2ffece08:	f001 f88a 	bl	2ffedf20 <mmap_add_region>
2ffece0c:	f003 f8fc 	bl	2fff0008 <configure_mmu>
2ffece10:	48a3      	ldr	r0, [pc, #652]	@ (2ffed0a0 <bl2_el3_plat_arch_setup+0x2d0>)
2ffece12:	f002 fe5f 	bl	2ffefad4 <dt_open_and_check>
2ffece16:	2800      	cmp	r0, #0
2ffece18:	dbe3      	blt.n	2ffecde2 <bl2_el3_plat_arch_setup+0x12>
2ffece1a:	f000 fe77 	bl	2ffedb0c <stm32mp_pwr_base>
2ffece1e:	4604      	mov	r4, r0
2ffece20:	f007 f98f 	bl	2fff4142 <stm32mp_rcc_base>
2ffece24:	4603      	mov	r3, r0
2ffece26:	6822      	ldr	r2, [r4, #0]
2ffece28:	f442 7280 	orr.w	r2, r2, #256	@ 0x100
2ffece2c:	6022      	str	r2, [r4, #0]
2ffece2e:	6822      	ldr	r2, [r4, #0]
2ffece30:	05d6      	lsls	r6, r2, #23
2ffece32:	d5fc      	bpl.n	2ffece2e <bl2_el3_plat_arch_setup+0x5e>
2ffece34:	f8d3 2140 	ldr.w	r2, [r3, #320]	@ 0x140
2ffece38:	f503 71a0 	add.w	r1, r3, #320	@ 0x140
2ffece3c:	02d0      	lsls	r0, r2, #11
2ffece3e:	d40e      	bmi.n	2ffece5e <bl2_el3_plat_arch_setup+0x8e>
2ffece40:	f8d3 2140 	ldr.w	r2, [r3, #320]	@ 0x140
2ffece44:	f042 4200 	orr.w	r2, r2, #2147483648	@ 0x80000000
2ffece48:	f8c3 2140 	str.w	r2, [r3, #320]	@ 0x140
2ffece4c:	680a      	ldr	r2, [r1, #0]
2ffece4e:	2a00      	cmp	r2, #0
2ffece50:	dafc      	bge.n	2ffece4c <bl2_el3_plat_arch_setup+0x7c>
2ffece52:	f8d3 2140 	ldr.w	r2, [r3, #320]	@ 0x140
2ffece56:	f022 4200 	bic.w	r2, r2, #2147483648	@ 0x80000000
2ffece5a:	f8c3 2140 	str.w	r2, [r3, #320]	@ 0x140
2ffece5e:	4b91      	ldr	r3, [pc, #580]	@ (2ffed0a4 <bl2_el3_plat_arch_setup+0x2d4>)
2ffece60:	6b1c      	ldr	r4, [r3, #48]	@ 0x30
2ffece62:	f414 2480 	ands.w	r4, r4, #262144	@ 0x40000
2ffece66:	d014      	beq.n	2ffece92 <bl2_el3_plat_arch_setup+0xc2>
2ffece68:	f04f 43a0 	mov.w	r3, #1342177280	@ 0x50000000
2ffece6c:	2401      	movs	r4, #1
2ffece6e:	f8d3 2140 	ldr.w	r2, [r3, #320]	@ 0x140
2ffece72:	f422 7280 	bic.w	r2, r2, #256	@ 0x100
2ffece76:	f8c3 2140 	str.w	r2, [r3, #320]	@ 0x140
2ffece7a:	f8d3 2140 	ldr.w	r2, [r3, #320]	@ 0x140
2ffece7e:	f022 0201 	bic.w	r2, r2, #1
2ffece82:	f8c3 2140 	str.w	r2, [r3, #320]	@ 0x140
2ffece86:	f8d3 2418 	ldr.w	r2, [r3, #1048]	@ 0x418
2ffece8a:	f442 3280 	orr.w	r2, r2, #65536	@ 0x10000
2ffece8e:	f8c3 2418 	str.w	r2, [r3, #1048]	@ 0x418
2ffece92:	f004 fcff 	bl	2fff1894 <dt_pmic_status>
2ffece96:	2800      	cmp	r0, #0
2ffece98:	dc07      	bgt.n	2ffeceaa <bl2_el3_plat_arch_setup+0xda>
2ffece9a:	f007 f952 	bl	2fff4142 <stm32mp_rcc_base>
2ffece9e:	f8d0 3144 	ldr.w	r3, [r0, #324]	@ 0x144
2ffecea2:	f443 13f8 	orr.w	r3, r3, #2031616	@ 0x1f0000
2ffecea6:	f8c0 3144 	str.w	r3, [r0, #324]	@ 0x144
2ffeceaa:	f001 fda1 	bl	2ffee9f0 <generic_delay_timer_init>
2ffeceae:	f006 f9cf 	bl	2fff3250 <stm32mp1_clk_probe>
2ffeceb2:	2800      	cmp	r0, #0
2ffeceb4:	db95      	blt.n	2ffecde2 <bl2_el3_plat_arch_setup+0x12>
2ffeceb6:	487c      	ldr	r0, [pc, #496]	@ (2ffed0a8 <bl2_el3_plat_arch_setup+0x2d8>)
2ffeceb8:	f005 fd0a 	bl	2fff28d0 <stm32mp1_clk_init>
2ffecebc:	2800      	cmp	r0, #0
2ffecebe:	db90      	blt.n	2ffecde2 <bl2_el3_plat_arch_setup+0x12>
2ffecec0:	f002 fac8 	bl	2ffef454 <stm32_tamp_nvram_init>
2ffecec4:	4628      	mov	r0, r5
2ffecec6:	f007 f95c 	bl	2fff4182 <stm32_save_boot_info>
2ffececa:	f000 fe85 	bl	2ffedbd8 <stm32mp_uart_console_setup>
2ffecece:	bb10      	cbnz	r0, 2ffecf16 <bl2_el3_plat_arch_setup+0x146>
2ffeced0:	f003 f9be 	bl	2fff0250 <stm32mp_print_cpuinfo>
2ffeced4:	f002 ff54 	bl	2ffefd80 <dt_get_board_model>
2ffeced8:	4601      	mov	r1, r0
2ffeceda:	b110      	cbz	r0, 2ffecee2 <bl2_el3_plat_arch_setup+0x112>
2ffecedc:	4873      	ldr	r0, [pc, #460]	@ (2ffed0ac <bl2_el3_plat_arch_setup+0x2dc>)
2ffecede:	f000 fc9b 	bl	2ffed818 <tf_log>
2ffecee2:	f003 f9c3 	bl	2fff026c <stm32mp_print_boardinfo>
2ffecee6:	f895 3059 	ldrb.w	r3, [r5, #89]	@ 0x59
2ffeceea:	f895 1058 	ldrb.w	r1, [r5, #88]	@ 0x58
2ffeceee:	ea41 2103 	orr.w	r1, r1, r3, lsl #8
2ffecef2:	f895 305a 	ldrb.w	r3, [r5, #90]	@ 0x5a
2ffecef6:	ea41 4103 	orr.w	r1, r1, r3, lsl #16
2ffecefa:	f895 305b 	ldrb.w	r3, [r5, #91]	@ 0x5b
2ffecefe:	ea51 6103 	orrs.w	r1, r1, r3, lsl #24
2ffecf02:	d008      	beq.n	2ffecf16 <bl2_el3_plat_arch_setup+0x146>
2ffecf04:	4a6a      	ldr	r2, [pc, #424]	@ (2ffed0b0 <bl2_el3_plat_arch_setup+0x2e0>)
2ffecf06:	4b6b      	ldr	r3, [pc, #428]	@ (2ffed0b4 <bl2_el3_plat_arch_setup+0x2e4>)
2ffecf08:	486b      	ldr	r0, [pc, #428]	@ (2ffed0b8 <bl2_el3_plat_arch_setup+0x2e8>)
2ffecf0a:	2901      	cmp	r1, #1
2ffecf0c:	bf14      	ite	ne
2ffecf0e:	4611      	movne	r1, r2
2ffecf10:	4619      	moveq	r1, r3
2ffecf12:	f000 fc81 	bl	2ffed818 <tf_log>
2ffecf16:	4b63      	ldr	r3, [pc, #396]	@ (2ffed0a4 <bl2_el3_plat_arch_setup+0x2d4>)
2ffecf18:	6b1d      	ldr	r5, [r3, #48]	@ 0x30
2ffecf1a:	b1e5      	cbz	r5, 2ffecf56 <bl2_el3_plat_arch_setup+0x186>
2ffecf1c:	4867      	ldr	r0, [pc, #412]	@ (2ffed0bc <bl2_el3_plat_arch_setup+0x2ec>)
2ffecf1e:	f000 fc7b 	bl	2ffed818 <tf_log>
2ffecf22:	bb0c      	cbnz	r4, 2ffecf68 <bl2_el3_plat_arch_setup+0x198>
2ffecf24:	4f66      	ldr	r7, [pc, #408]	@ (2ffed0c0 <bl2_el3_plat_arch_setup+0x2f0>)
2ffecf26:	f8df 819c 	ldr.w	r8, [pc, #412]	@ 2ffed0c4 <bl2_el3_plat_arch_setup+0x2f4>
2ffecf2a:	4e67      	ldr	r6, [pc, #412]	@ (2ffed0c8 <bl2_el3_plat_arch_setup+0x2f8>)
2ffecf2c:	fa95 f4a5 	rbit	r4, r5
2ffecf30:	4630      	mov	r0, r6
2ffecf32:	fab4 f484 	clz	r4, r4
2ffecf36:	2c0f      	cmp	r4, #15
2ffecf38:	bfc7      	ittee	gt
2ffecf3a:	f1a4 020f 	subgt.w	r2, r4, #15
2ffecf3e:	4641      	movgt	r1, r8
2ffecf40:	1c62      	addle	r2, r4, #1
2ffecf42:	4639      	movle	r1, r7
2ffecf44:	f000 fc68 	bl	2ffed818 <tf_log>
2ffecf48:	2301      	movs	r3, #1
2ffecf4a:	40a3      	lsls	r3, r4
2ffecf4c:	439d      	bics	r5, r3
2ffecf4e:	d1ed      	bne.n	2ffecf2c <bl2_el3_plat_arch_setup+0x15c>
2ffecf50:	485a      	ldr	r0, [pc, #360]	@ (2ffed0bc <bl2_el3_plat_arch_setup+0x2ec>)
2ffecf52:	f000 fc61 	bl	2ffed818 <tf_log>
2ffecf56:	4d5d      	ldr	r5, [pc, #372]	@ (2ffed0cc <bl2_el3_plat_arch_setup+0x2fc>)
2ffecf58:	f003 f99a 	bl	2fff0290 <stm32mp_check_closed_device>
2ffecf5c:	42a8      	cmp	r0, r5
2ffecf5e:	d116      	bne.n	2ffecf8e <bl2_el3_plat_arch_setup+0x1be>
2ffecf60:	485b      	ldr	r0, [pc, #364]	@ (2ffed0d0 <bl2_el3_plat_arch_setup+0x300>)
2ffecf62:	f000 fc59 	bl	2ffed818 <tf_log>
2ffecf66:	e73c      	b.n	2ffecde2 <bl2_el3_plat_arch_setup+0x12>
2ffecf68:	485a      	ldr	r0, [pc, #360]	@ (2ffed0d4 <bl2_el3_plat_arch_setup+0x304>)
2ffecf6a:	f000 fc55 	bl	2ffed818 <tf_log>
2ffecf6e:	4853      	ldr	r0, [pc, #332]	@ (2ffed0bc <bl2_el3_plat_arch_setup+0x2ec>)
2ffecf70:	f000 fc52 	bl	2ffed818 <tf_log>
2ffecf74:	4858      	ldr	r0, [pc, #352]	@ (2ffed0d8 <bl2_el3_plat_arch_setup+0x308>)
2ffecf76:	f04f 42a0 	mov.w	r2, #1342177280	@ 0x50000000
2ffecf7a:	f8d2 3140 	ldr.w	r3, [r2, #320]	@ 0x140
2ffecf7e:	f423 1380 	bic.w	r3, r3, #1048576	@ 0x100000
2ffecf82:	f8c2 3140 	str.w	r3, [r2, #320]	@ 0x140
2ffecf86:	f000 fc47 	bl	2ffed818 <tf_log>
2ffecf8a:	f007 fe00 	bl	2fff4b8e <stm32mp_system_reset>
2ffecf8e:	f002 fd2b 	bl	2ffef9e8 <fixed_regulator_register>
2ffecf92:	2800      	cmp	r0, #0
2ffecf94:	f47f af25 	bne.w	2ffecde2 <bl2_el3_plat_arch_setup+0x12>
2ffecf98:	f004 fc7c 	bl	2fff1894 <dt_pmic_status>
2ffecf9c:	2800      	cmp	r0, #0
2ffecf9e:	dd0b      	ble.n	2ffecfb8 <bl2_el3_plat_arch_setup+0x1e8>
2ffecfa0:	f004 fd18 	bl	2fff19d4 <initialize_pmic>
2ffecfa4:	f007 fb4d 	bl	2fff4642 <stm32mp_is_wakeup_from_standby>
2ffecfa8:	b920      	cbnz	r0, 2ffecfb4 <bl2_el3_plat_arch_setup+0x1e4>
2ffecfaa:	f007 fd52 	bl	2fff4a52 <pmic_voltages_init>
2ffecfae:	b108      	cbz	r0, 2ffecfb4 <bl2_el3_plat_arch_setup+0x1e4>
2ffecfb0:	484a      	ldr	r0, [pc, #296]	@ (2ffed0dc <bl2_el3_plat_arch_setup+0x30c>)
2ffecfb2:	e7d6      	b.n	2ffecf62 <bl2_el3_plat_arch_setup+0x192>
2ffecfb4:	f004 fd86 	bl	2fff1ac4 <print_pmic_info_and_debug>
2ffecfb8:	f005 f842 	bl	2fff2040 <stm32mp_syscfg_init>
2ffecfbc:	f004 fc00 	bl	2fff17c0 <stm32_iwdg_init>
2ffecfc0:	2800      	cmp	r0, #0
2ffecfc2:	f6ff af0e 	blt.w	2ffecde2 <bl2_el3_plat_arch_setup+0x12>
2ffecfc6:	f004 fbdb 	bl	2fff1780 <stm32_iwdg_refresh>
2ffecfca:	f003 fb9b 	bl	2fff0704 <bsec_read_debug_conf>
2ffecfce:	b138      	cbz	r0, 2ffecfe0 <bl2_el3_plat_arch_setup+0x210>
2ffecfd0:	f003 f95e 	bl	2fff0290 <stm32mp_check_closed_device>
2ffecfd4:	42a8      	cmp	r0, r5
2ffecfd6:	d103      	bne.n	2ffecfe0 <bl2_el3_plat_arch_setup+0x210>
2ffecfd8:	4941      	ldr	r1, [pc, #260]	@ (2ffed0e0 <bl2_el3_plat_arch_setup+0x310>)
2ffecfda:	4842      	ldr	r0, [pc, #264]	@ (2ffed0e4 <bl2_el3_plat_arch_setup+0x314>)
2ffecfdc:	f000 fc1c 	bl	2ffed818 <tf_log>
2ffecfe0:	f000 fb2e 	bl	2ffed640 <stm32mp1_arch_security_setup>
2ffecfe4:	f007 f8ad 	bl	2fff4142 <stm32mp_rcc_base>
2ffecfe8:	f8d0 4408 	ldr.w	r4, [r0, #1032]	@ 0x408
2ffecfec:	bb34      	cbnz	r4, 2ffed03c <bl2_el3_plat_arch_setup+0x26c>
2ffecfee:	483e      	ldr	r0, [pc, #248]	@ (2ffed0e8 <bl2_el3_plat_arch_setup+0x318>)
2ffecff0:	f000 fc12 	bl	2ffed818 <tf_log>
2ffecff4:	f003 f94c 	bl	2fff0290 <stm32mp_check_closed_device>
2ffecff8:	42a8      	cmp	r0, r5
2ffecffa:	f040 80a5 	bne.w	2ffed148 <bl2_el3_plat_arch_setup+0x378>
2ffecffe:	483b      	ldr	r0, [pc, #236]	@ (2ffed0ec <bl2_el3_plat_arch_setup+0x31c>)
2ffed000:	2200      	movs	r2, #0
2ffed002:	a903      	add	r1, sp, #12
2ffed004:	f000 fd9e 	bl	2ffedb44 <stm32_get_otp_index>
2ffed008:	2800      	cmp	r0, #0
2ffed00a:	f47f aeea 	bne.w	2ffecde2 <bl2_el3_plat_arch_setup+0x12>
2ffed00e:	9803      	ldr	r0, [sp, #12]
2ffed010:	a902      	add	r1, sp, #8
2ffed012:	f000 fda7 	bl	2ffedb64 <stm32_get_otp_value_from_idx>
2ffed016:	2800      	cmp	r0, #0
2ffed018:	f47f aee3 	bne.w	2ffecde2 <bl2_el3_plat_arch_setup+0x12>
2ffed01c:	9a02      	ldr	r2, [sp, #8]
2ffed01e:	3201      	adds	r2, #1
2ffed020:	f040 8092 	bne.w	2ffed148 <bl2_el3_plat_arch_setup+0x378>
2ffed024:	9903      	ldr	r1, [sp, #12]
2ffed026:	9002      	str	r0, [sp, #8]
2ffed028:	f003 fbe6 	bl	2fff07f8 <bsec_program_otp>
2ffed02c:	4601      	mov	r1, r0
2ffed02e:	2800      	cmp	r0, #0
2ffed030:	f000 8086 	beq.w	2ffed140 <bl2_el3_plat_arch_setup+0x370>
2ffed034:	482e      	ldr	r0, [pc, #184]	@ (2ffed0f0 <bl2_el3_plat_arch_setup+0x320>)
2ffed036:	f000 fbef 	bl	2ffed818 <tf_log>
2ffed03a:	e6d2      	b.n	2ffecde2 <bl2_el3_plat_arch_setup+0x12>
2ffed03c:	482d      	ldr	r0, [pc, #180]	@ (2ffed0f4 <bl2_el3_plat_arch_setup+0x324>)
2ffed03e:	4621      	mov	r1, r4
2ffed040:	f000 fbea 	bl	2ffed818 <tf_log>
2ffed044:	f014 0304 	ands.w	r3, r4, #4
2ffed048:	d107      	bne.n	2ffed05a <bl2_el3_plat_arch_setup+0x28a>
2ffed04a:	0522      	lsls	r2, r4, #20
2ffed04c:	d501      	bpl.n	2ffed052 <bl2_el3_plat_arch_setup+0x282>
2ffed04e:	482a      	ldr	r0, [pc, #168]	@ (2ffed0f8 <bl2_el3_plat_arch_setup+0x328>)
2ffed050:	e7ce      	b.n	2ffecff0 <bl2_el3_plat_arch_setup+0x220>
2ffed052:	04e7      	lsls	r7, r4, #19
2ffed054:	d501      	bpl.n	2ffed05a <bl2_el3_plat_arch_setup+0x28a>
2ffed056:	4829      	ldr	r0, [pc, #164]	@ (2ffed0fc <bl2_el3_plat_arch_setup+0x32c>)
2ffed058:	e7ca      	b.n	2ffecff0 <bl2_el3_plat_arch_setup+0x220>
2ffed05a:	07e6      	lsls	r6, r4, #31
2ffed05c:	d501      	bpl.n	2ffed062 <bl2_el3_plat_arch_setup+0x292>
2ffed05e:	4828      	ldr	r0, [pc, #160]	@ (2ffed100 <bl2_el3_plat_arch_setup+0x330>)
2ffed060:	e7c6      	b.n	2ffecff0 <bl2_el3_plat_arch_setup+0x220>
2ffed062:	07a0      	lsls	r0, r4, #30
2ffed064:	d501      	bpl.n	2ffed06a <bl2_el3_plat_arch_setup+0x29a>
2ffed066:	4827      	ldr	r0, [pc, #156]	@ (2ffed104 <bl2_el3_plat_arch_setup+0x334>)
2ffed068:	e7c2      	b.n	2ffecff0 <bl2_el3_plat_arch_setup+0x220>
2ffed06a:	0621      	lsls	r1, r4, #24
2ffed06c:	d504      	bpl.n	2ffed078 <bl2_el3_plat_arch_setup+0x2a8>
2ffed06e:	b10b      	cbz	r3, 2ffed074 <bl2_el3_plat_arch_setup+0x2a4>
2ffed070:	4825      	ldr	r0, [pc, #148]	@ (2ffed108 <bl2_el3_plat_arch_setup+0x338>)
2ffed072:	e7bd      	b.n	2ffecff0 <bl2_el3_plat_arch_setup+0x220>
2ffed074:	4825      	ldr	r0, [pc, #148]	@ (2ffed10c <bl2_el3_plat_arch_setup+0x33c>)
2ffed076:	e7bb      	b.n	2ffecff0 <bl2_el3_plat_arch_setup+0x220>
2ffed078:	0662      	lsls	r2, r4, #25
2ffed07a:	d501      	bpl.n	2ffed080 <bl2_el3_plat_arch_setup+0x2b0>
2ffed07c:	4824      	ldr	r0, [pc, #144]	@ (2ffed110 <bl2_el3_plat_arch_setup+0x340>)
2ffed07e:	e7b7      	b.n	2ffecff0 <bl2_el3_plat_arch_setup+0x220>
2ffed080:	0727      	lsls	r7, r4, #28
2ffed082:	d501      	bpl.n	2ffed088 <bl2_el3_plat_arch_setup+0x2b8>
2ffed084:	4823      	ldr	r0, [pc, #140]	@ (2ffed114 <bl2_el3_plat_arch_setup+0x344>)
2ffed086:	e7b3      	b.n	2ffecff0 <bl2_el3_plat_arch_setup+0x220>
2ffed088:	05e6      	lsls	r6, r4, #23
2ffed08a:	d501      	bpl.n	2ffed090 <bl2_el3_plat_arch_setup+0x2c0>
2ffed08c:	4822      	ldr	r0, [pc, #136]	@ (2ffed118 <bl2_el3_plat_arch_setup+0x348>)
2ffed08e:	e7af      	b.n	2ffecff0 <bl2_el3_plat_arch_setup+0x220>
2ffed090:	05a0      	lsls	r0, r4, #22
2ffed092:	d545      	bpl.n	2ffed120 <bl2_el3_plat_arch_setup+0x350>
2ffed094:	4821      	ldr	r0, [pc, #132]	@ (2ffed11c <bl2_el3_plat_arch_setup+0x34c>)
2ffed096:	e7ab      	b.n	2ffecff0 <bl2_el3_plat_arch_setup+0x220>
2ffed098:	2ffe9000 	.word	0x2ffe9000
2ffed09c:	2fffa000 	.word	0x2fffa000
2ffed0a0:	2ffe2000 	.word	0x2ffe2000
2ffed0a4:	5c00a000 	.word	0x5c00a000
2ffed0a8:	0009eb10 	.word	0x0009eb10
2ffed0ac:	2fff7c27 	.word	0x2fff7c27
2ffed0b0:	2fff7c0b 	.word	0x2fff7c0b
2ffed0b4:	2fff7c04 	.word	0x2fff7c04
2ffed0b8:	2fff7c33 	.word	0x2fff7c33
2ffed0bc:	2fff8821 	.word	0x2fff8821
2ffed0c0:	2fff7c1e 	.word	0x2fff7c1e
2ffed0c4:	2fff7c15 	.word	0x2fff7c15
2ffed0c8:	2fff7c9c 	.word	0x2fff7c9c
2ffed0cc:	34d9ccc5 	.word	0x34d9ccc5
2ffed0d0:	2fff7ccb 	.word	0x2fff7ccb
2ffed0d4:	2fff7c4f 	.word	0x2fff7c4f
2ffed0d8:	2fff7c87 	.word	0x2fff7c87
2ffed0dc:	2fff7cfd 	.word	0x2fff7cfd
2ffed0e0:	2fff7fdc 	.word	0x2fff7fdc
2ffed0e4:	2fff7d19 	.word	0x2fff7d19
2ffed0e8:	2fff7d1e 	.word	0x2fff7d1e
2ffed0ec:	2fff7f33 	.word	0x2fff7f33
2ffed0f0:	2fff7f41 	.word	0x2fff7f41
2ffed0f4:	2fff7d35 	.word	0x2fff7d35
2ffed0f8:	2fff7d4c 	.word	0x2fff7d4c
2ffed0fc:	2fff7d68 	.word	0x2fff7d68
2ffed100:	2fff7d82 	.word	0x2fff7d82
2ffed104:	2fff7d9f 	.word	0x2fff7d9f
2ffed108:	2fff7dbc 	.word	0x2fff7dbc
2ffed10c:	2fff7de9 	.word	0x2fff7de9
2ffed110:	2fff7e15 	.word	0x2fff7e15
2ffed114:	2fff7e42 	.word	0x2fff7e42
2ffed118:	2fff7e6a 	.word	0x2fff7e6a
2ffed11c:	2fff7e86 	.word	0x2fff7e86
2ffed120:	04a1      	lsls	r1, r4, #18
2ffed122:	d501      	bpl.n	2ffed128 <bl2_el3_plat_arch_setup+0x358>
2ffed124:	4817      	ldr	r0, [pc, #92]	@ (2ffed184 <bl2_el3_plat_arch_setup+0x3b4>)
2ffed126:	e763      	b.n	2ffecff0 <bl2_el3_plat_arch_setup+0x220>
2ffed128:	0462      	lsls	r2, r4, #17
2ffed12a:	d501      	bpl.n	2ffed130 <bl2_el3_plat_arch_setup+0x360>
2ffed12c:	4816      	ldr	r0, [pc, #88]	@ (2ffed188 <bl2_el3_plat_arch_setup+0x3b8>)
2ffed12e:	e75f      	b.n	2ffecff0 <bl2_el3_plat_arch_setup+0x220>
2ffed130:	b10b      	cbz	r3, 2ffed136 <bl2_el3_plat_arch_setup+0x366>
2ffed132:	4816      	ldr	r0, [pc, #88]	@ (2ffed18c <bl2_el3_plat_arch_setup+0x3bc>)
2ffed134:	e75c      	b.n	2ffecff0 <bl2_el3_plat_arch_setup+0x220>
2ffed136:	06e3      	lsls	r3, r4, #27
2ffed138:	bf4c      	ite	mi
2ffed13a:	4815      	ldrmi	r0, [pc, #84]	@ (2ffed190 <bl2_el3_plat_arch_setup+0x3c0>)
2ffed13c:	4815      	ldrpl	r0, [pc, #84]	@ (2ffed194 <bl2_el3_plat_arch_setup+0x3c4>)
2ffed13e:	e757      	b.n	2ffecff0 <bl2_el3_plat_arch_setup+0x220>
2ffed140:	9902      	ldr	r1, [sp, #8]
2ffed142:	4815      	ldr	r0, [pc, #84]	@ (2ffed198 <bl2_el3_plat_arch_setup+0x3c8>)
2ffed144:	f000 fb68 	bl	2ffed818 <tf_log>
2ffed148:	f004 ffc4 	bl	2fff20d4 <stm32mp_syscfg_enable_io_compensation_finish>
2ffed14c:	4913      	ldr	r1, [pc, #76]	@ (2ffed19c <bl2_el3_plat_arch_setup+0x3cc>)
2ffed14e:	4814      	ldr	r0, [pc, #80]	@ (2ffed1a0 <bl2_el3_plat_arch_setup+0x3d0>)
2ffed150:	f7ff f97e 	bl	2ffec450 <fconf_populate>
2ffed154:	f003 f8de 	bl	2fff0314 <stm32mp_skip_boot_device_after_standby>
2ffed158:	b178      	cbz	r0, 2ffed17a <bl2_el3_plat_arch_setup+0x3aa>
2ffed15a:	2001      	movs	r0, #1
2ffed15c:	f7fc fdd2 	bl	2ffe9d04 <get_bl_mem_params_node>
2ffed160:	b920      	cbnz	r0, 2ffed16c <bl2_el3_plat_arch_setup+0x39c>
2ffed162:	4810      	ldr	r0, [pc, #64]	@ (2ffed1a4 <bl2_el3_plat_arch_setup+0x3d4>)
2ffed164:	f240 2102 	movw	r1, #514	@ 0x202
2ffed168:	f006 fae0 	bl	2fff372c <__assert>
2ffed16c:	6883      	ldr	r3, [r0, #8]
2ffed16e:	f043 0302 	orr.w	r3, r3, #2
2ffed172:	6083      	str	r3, [r0, #8]
2ffed174:	b004      	add	sp, #16
2ffed176:	e8bd 81f0 	ldmia.w	sp!, {r4, r5, r6, r7, r8, pc}
2ffed17a:	b004      	add	sp, #16
2ffed17c:	e8bd 41f0 	ldmia.w	sp!, {r4, r5, r6, r7, r8, lr}
2ffed180:	f7ff bbb6 	b.w	2ffec8f0 <stm32mp_io_setup>
2ffed184:	2fff7ea2 	.word	0x2fff7ea2
2ffed188:	2fff7ebc 	.word	0x2fff7ebc
2ffed18c:	2fff7ed6 	.word	0x2fff7ed6
2ffed190:	2fff7eee 	.word	0x2fff7eee
2ffed194:	2fff7f15 	.word	0x2fff7f15
2ffed198:	2fff7f68 	.word	0x2fff7f68
2ffed19c:	2ffe2000 	.word	0x2ffe2000
2ffed1a0:	2fff7b6c 	.word	0x2fff7b6c
2ffed1a4:	2fff7f9e 	.word	0x2fff7f9e

2ffed1a8 <bl2_plat_handle_post_image_load>:
2ffed1a8:	e92d 47ff 	stmdb	sp!, {r0, r1, r2, r3, r4, r5, r6, r7, r8, r9, sl, lr}
2ffed1ac:	4605      	mov	r5, r0
2ffed1ae:	466e      	mov	r6, sp
2ffed1b0:	f7fc fda8 	bl	2ffe9d04 <get_bl_mem_params_node>
2ffed1b4:	4604      	mov	r4, r0
2ffed1b6:	f7fe fd41 	bl	2ffebc3c <stm32mp1_ddr_is_restored>
2ffed1ba:	4b79      	ldr	r3, [pc, #484]	@ (2ffed3a0 <bl2_plat_handle_post_image_load+0x1f8>)
2ffed1bc:	4681      	mov	r9, r0
2ffed1be:	cb0f      	ldmia	r3, {r0, r1, r2, r3}
2ffed1c0:	e886 000f 	stmia.w	r6, {r0, r1, r2, r3}
2ffed1c4:	b924      	cbnz	r4, 2ffed1d0 <bl2_plat_handle_post_image_load+0x28>
2ffed1c6:	f240 2163 	movw	r1, #611	@ 0x263
2ffed1ca:	4876      	ldr	r0, [pc, #472]	@ (2ffed3a4 <bl2_plat_handle_post_image_load+0x1fc>)
2ffed1cc:	f006 faae 	bl	2fff372c <__assert>
2ffed1d0:	2d04      	cmp	r5, #4
2ffed1d2:	d075      	beq.n	2ffed2c0 <bl2_plat_handle_post_image_load+0x118>
2ffed1d4:	2d05      	cmp	r5, #5
2ffed1d6:	f000 80cc 	beq.w	2ffed372 <bl2_plat_handle_post_image_load+0x1ca>
2ffed1da:	2d01      	cmp	r5, #1
2ffed1dc:	d17f      	bne.n	2ffed2de <bl2_plat_handle_post_image_load+0x136>
2ffed1de:	f003 f899 	bl	2fff0314 <stm32mp_skip_boot_device_after_standby>
2ffed1e2:	4607      	mov	r7, r0
2ffed1e4:	2800      	cmp	r0, #0
2ffed1e6:	d169      	bne.n	2ffed2bc <bl2_plat_handle_post_image_load+0x114>
2ffed1e8:	486f      	ldr	r0, [pc, #444]	@ (2ffed3a8 <bl2_plat_handle_post_image_load+0x200>)
2ffed1ea:	462b      	mov	r3, r5
2ffed1ec:	f44f 5280 	mov.w	r2, #4096	@ 0x1000
2ffed1f0:	f04f 31ff 	mov.w	r1, #4294967295	@ 0xffffffff
2ffed1f4:	f7ff f970 	bl	2ffec4d8 <set_config_info>
2ffed1f8:	496b      	ldr	r1, [pc, #428]	@ (2ffed3a8 <bl2_plat_handle_post_image_load+0x200>)
2ffed1fa:	486c      	ldr	r0, [pc, #432]	@ (2ffed3ac <bl2_plat_handle_post_image_load+0x204>)
2ffed1fc:	f7ff f928 	bl	2ffec450 <fconf_populate>
2ffed200:	2010      	movs	r0, #16
2ffed202:	f7ff fa0f 	bl	2ffec624 <dyn_cfg_dtb_info_get_index>
2ffed206:	4682      	mov	sl, r0
2ffed208:	f856 4b04 	ldr.w	r4, [r6], #4
2ffed20c:	2c10      	cmp	r4, #16
2ffed20e:	d102      	bne.n	2ffed216 <bl2_plat_handle_post_image_load+0x6e>
2ffed210:	f1ba 3fff 	cmp.w	sl, #4294967295	@ 0xffffffff
2ffed214:	d04f      	beq.n	2ffed2b6 <bl2_plat_handle_post_image_load+0x10e>
2ffed216:	4620      	mov	r0, r4
2ffed218:	f7fc fd74 	bl	2ffe9d04 <get_bl_mem_params_node>
2ffed21c:	4605      	mov	r5, r0
2ffed21e:	b910      	cbnz	r0, 2ffed226 <bl2_plat_handle_post_image_load+0x7e>
2ffed220:	f240 217f 	movw	r1, #639	@ 0x27f
2ffed224:	e7d1      	b.n	2ffed1ca <bl2_plat_handle_post_image_load+0x22>
2ffed226:	4620      	mov	r0, r4
2ffed228:	f7ff fa0c 	bl	2ffec644 <dyn_cfg_dtb_info_getter>
2ffed22c:	4680      	mov	r8, r0
2ffed22e:	2800      	cmp	r0, #0
2ffed230:	d041      	beq.n	2ffed2b6 <bl2_plat_handle_post_image_load+0x10e>
2ffed232:	6802      	ldr	r2, [r0, #0]
2ffed234:	6843      	ldr	r3, [r0, #4]
2ffed236:	60ea      	str	r2, [r5, #12]
2ffed238:	616b      	str	r3, [r5, #20]
2ffed23a:	f1b9 0f00 	cmp.w	r9, #0
2ffed23e:	d107      	bne.n	2ffed250 <bl2_plat_handle_post_image_load+0xa8>
2ffed240:	68ab      	ldr	r3, [r5, #8]
2ffed242:	2c05      	cmp	r4, #5
2ffed244:	f023 0302 	bic.w	r3, r3, #2
2ffed248:	60ab      	str	r3, [r5, #8]
2ffed24a:	d10c      	bne.n	2ffed266 <bl2_plat_handle_post_image_load+0xbe>
2ffed24c:	622a      	str	r2, [r5, #32]
2ffed24e:	e032      	b.n	2ffed2b6 <bl2_plat_handle_post_image_load+0x10e>
2ffed250:	f1b2 4f40 	cmp.w	r2, #3221225472	@ 0xc0000000
2ffed254:	f080 809d 	bcs.w	2ffed392 <bl2_plat_handle_post_image_load+0x1ea>
2ffed258:	68ab      	ldr	r3, [r5, #8]
2ffed25a:	2c05      	cmp	r4, #5
2ffed25c:	f023 0302 	bic.w	r3, r3, #2
2ffed260:	60ab      	str	r3, [r5, #8]
2ffed262:	f000 8099 	beq.w	2ffed398 <bl2_plat_handle_post_image_load+0x1f0>
2ffed266:	2c05      	cmp	r4, #5
2ffed268:	d80b      	bhi.n	2ffed282 <bl2_plat_handle_post_image_load+0xda>
2ffed26a:	2c02      	cmp	r4, #2
2ffed26c:	d023      	beq.n	2ffed2b6 <bl2_plat_handle_post_image_load+0x10e>
2ffed26e:	2c04      	cmp	r4, #4
2ffed270:	d109      	bne.n	2ffed286 <bl2_plat_handle_post_image_load+0xde>
2ffed272:	622a      	str	r2, [r5, #32]
2ffed274:	2008      	movs	r0, #8
2ffed276:	f7fc fd45 	bl	2ffe9d04 <get_bl_mem_params_node>
2ffed27a:	b948      	cbnz	r0, 2ffed290 <bl2_plat_handle_post_image_load+0xe8>
2ffed27c:	f240 2197 	movw	r1, #663	@ 0x297
2ffed280:	e7a3      	b.n	2ffed1ca <bl2_plat_handle_post_image_load+0x22>
2ffed282:	2c10      	cmp	r4, #16
2ffed284:	d017      	beq.n	2ffed2b6 <bl2_plat_handle_post_image_load+0x10e>
2ffed286:	f06f 0015 	mvn.w	r0, #21
2ffed28a:	b004      	add	sp, #16
2ffed28c:	e8bd 87f0 	ldmia.w	sp!, {r4, r5, r6, r7, r8, r9, sl, pc}
2ffed290:	f8d8 3000 	ldr.w	r3, [r8]
2ffed294:	60c3      	str	r3, [r0, #12]
2ffed296:	f8d8 3004 	ldr.w	r3, [r8, #4]
2ffed29a:	6143      	str	r3, [r0, #20]
2ffed29c:	2009      	movs	r0, #9
2ffed29e:	f7fc fd31 	bl	2ffe9d04 <get_bl_mem_params_node>
2ffed2a2:	4604      	mov	r4, r0
2ffed2a4:	b138      	cbz	r0, 2ffed2b6 <bl2_plat_handle_post_image_load+0x10e>
2ffed2a6:	f002 fd27 	bl	2ffefcf8 <dt_get_ddr_size>
2ffed2aa:	f100 403e 	add.w	r0, r0, #3187671040	@ 0xbe000000
2ffed2ae:	f04f 7300 	mov.w	r3, #33554432	@ 0x2000000
2ffed2b2:	60e0      	str	r0, [r4, #12]
2ffed2b4:	6163      	str	r3, [r4, #20]
2ffed2b6:	3701      	adds	r7, #1
2ffed2b8:	2f04      	cmp	r7, #4
2ffed2ba:	d1a5      	bne.n	2ffed208 <bl2_plat_handle_post_image_load+0x60>
2ffed2bc:	2000      	movs	r0, #0
2ffed2be:	e7e4      	b.n	2ffed28a <bl2_plat_handle_post_image_load+0xe2>
2ffed2c0:	f1b9 0f00 	cmp.w	r9, #0
2ffed2c4:	d016      	beq.n	2ffed2f4 <bl2_plat_handle_post_image_load+0x14c>
2ffed2c6:	f003 f825 	bl	2fff0314 <stm32mp_skip_boot_device_after_standby>
2ffed2ca:	b198      	cbz	r0, 2ffed2f4 <bl2_plat_handle_post_image_load+0x14c>
2ffed2cc:	f004 fde4 	bl	2fff1e98 <stm32_pm_get_optee_ep>
2ffed2d0:	6220      	str	r0, [r4, #32]
2ffed2d2:	f007 f9ae 	bl	2fff4632 <stm32mp1_addr_inside_backupsram>
2ffed2d6:	b110      	cbz	r0, 2ffed2de <bl2_plat_handle_post_image_load+0x136>
2ffed2d8:	2063      	movs	r0, #99	@ 0x63
2ffed2da:	f001 fad1 	bl	2ffee880 <clk_enable>
2ffed2de:	68a3      	ldr	r3, [r4, #8]
2ffed2e0:	079b      	lsls	r3, r3, #30
2ffed2e2:	d4eb      	bmi.n	2ffed2bc <bl2_plat_handle_post_image_load+0x114>
2ffed2e4:	68e0      	ldr	r0, [r4, #12]
2ffed2e6:	f44f 6180 	mov.w	r1, #1024	@ 0x400
2ffed2ea:	6923      	ldr	r3, [r4, #16]
2ffed2ec:	4418      	add	r0, r3
2ffed2ee:	f7fc e8ea 	blx	2ffe94c4 <inv_dcache_range>
2ffed2f2:	e7e3      	b.n	2ffed2bc <bl2_plat_handle_post_image_load+0x114>
2ffed2f4:	68e0      	ldr	r0, [r4, #12]
2ffed2f6:	f7ff f9e9 	bl	2ffec6cc <optee_header_is_valid>
2ffed2fa:	68e3      	ldr	r3, [r4, #12]
2ffed2fc:	4605      	mov	r5, r0
2ffed2fe:	6223      	str	r3, [r4, #32]
2ffed300:	b350      	cbz	r0, 2ffed358 <bl2_plat_handle_post_image_load+0x1b0>
2ffed302:	2008      	movs	r0, #8
2ffed304:	f7fc fcfe 	bl	2ffe9d04 <get_bl_mem_params_node>
2ffed308:	4606      	mov	r6, r0
2ffed30a:	b910      	cbnz	r0, 2ffed312 <bl2_plat_handle_post_image_load+0x16a>
2ffed30c:	f240 21ce 	movw	r1, #718	@ 0x2ce
2ffed310:	e75b      	b.n	2ffed1ca <bl2_plat_handle_post_image_load+0x22>
2ffed312:	2009      	movs	r0, #9
2ffed314:	f7fc fcf6 	bl	2ffe9d04 <get_bl_mem_params_node>
2ffed318:	4605      	mov	r5, r0
2ffed31a:	b168      	cbz	r0, 2ffed338 <bl2_plat_handle_post_image_load+0x190>
2ffed31c:	1d02      	adds	r2, r0, #4
2ffed31e:	1d31      	adds	r1, r6, #4
2ffed320:	f104 0018 	add.w	r0, r4, #24
2ffed324:	f7ff f9e4 	bl	2ffec6f0 <parse_optee_header>
2ffed328:	b140      	cbz	r0, 2ffed33c <bl2_plat_handle_post_image_load+0x194>
2ffed32a:	4821      	ldr	r0, [pc, #132]	@ (2ffed3b0 <bl2_plat_handle_post_image_load+0x208>)
2ffed32c:	f000 fa74 	bl	2ffed818 <tf_log>
2ffed330:	f000 fb0e 	bl	2ffed950 <console_flush>
2ffed334:	f7fc e852 	blx	2ffe93dc <do_panic>
2ffed338:	4602      	mov	r2, r0
2ffed33a:	e7f0      	b.n	2ffed31e <bl2_plat_handle_post_image_load+0x176>
2ffed33c:	b155      	cbz	r5, 2ffed354 <bl2_plat_handle_post_image_load+0x1ac>
2ffed33e:	68eb      	ldr	r3, [r5, #12]
2ffed340:	62e3      	str	r3, [r4, #44]	@ 0x2c
2ffed342:	6320      	str	r0, [r4, #48]	@ 0x30
2ffed344:	6360      	str	r0, [r4, #52]	@ 0x34
2ffed346:	6a23      	ldr	r3, [r4, #32]
2ffed348:	f1b3 4f40 	cmp.w	r3, #3221225472	@ 0xc0000000
2ffed34c:	d3c7      	bcc.n	2ffed2de <bl2_plat_handle_post_image_load+0x136>
2ffed34e:	f004 fdcb 	bl	2fff1ee8 <stm32_context_save_bl2_param>
2ffed352:	e7c4      	b.n	2ffed2de <bl2_plat_handle_post_image_load+0x136>
2ffed354:	4603      	mov	r3, r0
2ffed356:	e7f3      	b.n	2ffed340 <bl2_plat_handle_post_image_load+0x198>
2ffed358:	2010      	movs	r0, #16
2ffed35a:	f7fc fcd3 	bl	2ffe9d04 <get_bl_mem_params_node>
2ffed35e:	b910      	cbnz	r0, 2ffed366 <bl2_plat_handle_post_image_load+0x1be>
2ffed360:	f240 21ea 	movw	r1, #746	@ 0x2ea
2ffed364:	e731      	b.n	2ffed1ca <bl2_plat_handle_post_image_load+0x22>
2ffed366:	6942      	ldr	r2, [r0, #20]
2ffed368:	6963      	ldr	r3, [r4, #20]
2ffed36a:	62e5      	str	r5, [r4, #44]	@ 0x2c
2ffed36c:	4413      	add	r3, r2
2ffed36e:	6163      	str	r3, [r4, #20]
2ffed370:	e7e9      	b.n	2ffed346 <bl2_plat_handle_post_image_load+0x19e>
2ffed372:	2004      	movs	r0, #4
2ffed374:	f7fc fcc6 	bl	2ffe9d04 <get_bl_mem_params_node>
2ffed378:	b910      	cbnz	r0, 2ffed380 <bl2_plat_handle_post_image_load+0x1d8>
2ffed37a:	f240 21f7 	movw	r1, #759	@ 0x2f7
2ffed37e:	e724      	b.n	2ffed1ca <bl2_plat_handle_post_image_load+0x22>
2ffed380:	6a23      	ldr	r3, [r4, #32]
2ffed382:	6283      	str	r3, [r0, #40]	@ 0x28
2ffed384:	f006 fd77 	bl	2fff3e76 <plat_fwu_is_enabled>
2ffed388:	2800      	cmp	r0, #0
2ffed38a:	d0a8      	beq.n	2ffed2de <bl2_plat_handle_post_image_load+0x136>
2ffed38c:	f006 ff2e 	bl	2fff41ec <stm32_fwu_set_boot_idx>
2ffed390:	e7a5      	b.n	2ffed2de <bl2_plat_handle_post_image_load+0x136>
2ffed392:	2c05      	cmp	r4, #5
2ffed394:	f47f af68 	bne.w	2ffed268 <bl2_plat_handle_post_image_load+0xc0>
2ffed398:	2300      	movs	r3, #0
2ffed39a:	622b      	str	r3, [r5, #32]
2ffed39c:	e78b      	b.n	2ffed2b6 <bl2_plat_handle_post_image_load+0x10e>
2ffed39e:	bf00      	nop
2ffed3a0:	2fff5c78 	.word	0x2fff5c78
2ffed3a4:	2fff7f9e 	.word	0x2fff7f9e
2ffed3a8:	2ffff000 	.word	0x2ffff000
2ffed3ac:	2fff7777 	.word	0x2fff7777
2ffed3b0:	2fff7fc0 	.word	0x2fff7fc0

2ffed3b4 <bl2_el3_plat_prepare_exit>:
2ffed3b4:	4807      	ldr	r0, [pc, #28]	@ (2ffed3d4 <bl2_el3_plat_prepare_exit+0x20>)
2ffed3b6:	4908      	ldr	r1, [pc, #32]	@ (2ffed3d8 <bl2_el3_plat_prepare_exit+0x24>)
2ffed3b8:	b508      	push	{r3, lr}
2ffed3ba:	1a09      	subs	r1, r1, r0
2ffed3bc:	f7fc e846 	blx	2ffe944c <flush_dcache_range>
2ffed3c0:	4806      	ldr	r0, [pc, #24]	@ (2ffed3dc <bl2_el3_plat_prepare_exit+0x28>)
2ffed3c2:	4907      	ldr	r1, [pc, #28]	@ (2ffed3e0 <bl2_el3_plat_prepare_exit+0x2c>)
2ffed3c4:	1a09      	subs	r1, r1, r0
2ffed3c6:	f7fc e842 	blx	2ffe944c <flush_dcache_range>
2ffed3ca:	e8bd 4008 	ldmia.w	sp!, {r3, lr}
2ffed3ce:	f000 b951 	b.w	2ffed674 <stm32mp1_security_setup>
2ffed3d2:	bf00      	nop
2ffed3d4:	2fffb200 	.word	0x2fffb200
2ffed3d8:	2fffc420 	.word	0x2fffc420
2ffed3dc:	2fffa000 	.word	0x2fffa000
2ffed3e0:	2fffa5c2 	.word	0x2fffa5c2

2ffed3e4 <stm32mp_board_ddr_power_init>:
2ffed3e4:	b5f7      	push	{r0, r1, r2, r4, r5, r6, r7, lr}
2ffed3e6:	4607      	mov	r7, r0
2ffed3e8:	f004 fa54 	bl	2fff1894 <dt_pmic_status>
2ffed3ec:	2800      	cmp	r0, #0
2ffed3ee:	dd18      	ble.n	2ffed422 <stm32mp_board_ddr_power_init+0x3e>
2ffed3f0:	4830      	ldr	r0, [pc, #192]	@ (2ffed4b4 <stm32mp_board_ddr_power_init+0xd0>)
2ffed3f2:	f002 f88f 	bl	2ffef514 <regulator_get_by_name>
2ffed3f6:	4606      	mov	r6, r0
2ffed3f8:	b918      	cbnz	r0, 2ffed402 <stm32mp_board_ddr_power_init+0x1e>
2ffed3fa:	f06f 0001 	mvn.w	r0, #1
2ffed3fe:	b003      	add	sp, #12
2ffed400:	bdf0      	pop	{r4, r5, r6, r7, pc}
2ffed402:	482d      	ldr	r0, [pc, #180]	@ (2ffed4b8 <stm32mp_board_ddr_power_init+0xd4>)
2ffed404:	f002 f886 	bl	2ffef514 <regulator_get_by_name>
2ffed408:	4605      	mov	r5, r0
2ffed40a:	2800      	cmp	r0, #0
2ffed40c:	d0f5      	beq.n	2ffed3fa <stm32mp_board_ddr_power_init+0x16>
2ffed40e:	482b      	ldr	r0, [pc, #172]	@ (2ffed4bc <stm32mp_board_ddr_power_init+0xd8>)
2ffed410:	f002 f880 	bl	2ffef514 <regulator_get_by_name>
2ffed414:	4604      	mov	r4, r0
2ffed416:	2800      	cmp	r0, #0
2ffed418:	d0ef      	beq.n	2ffed3fa <stm32mp_board_ddr_power_init+0x16>
2ffed41a:	b127      	cbz	r7, 2ffed426 <stm32mp_board_ddr_power_init+0x42>
2ffed41c:	3f01      	subs	r7, #1
2ffed41e:	2f01      	cmp	r7, #1
2ffed420:	d91c      	bls.n	2ffed45c <stm32mp_board_ddr_power_init+0x78>
2ffed422:	2000      	movs	r0, #0
2ffed424:	e7eb      	b.n	2ffed3fe <stm32mp_board_ddr_power_init+0x1a>
2ffed426:	2140      	movs	r1, #64	@ 0x40
2ffed428:	4628      	mov	r0, r5
2ffed42a:	f002 f9e5 	bl	2ffef7f8 <regulator_set_flag>
2ffed42e:	2800      	cmp	r0, #0
2ffed430:	d1e5      	bne.n	2ffed3fe <stm32mp_board_ddr_power_init+0x1a>
2ffed432:	4630      	mov	r0, r6
2ffed434:	f007 f8e3 	bl	2fff45fe <regulator_set_min_voltage>
2ffed438:	2800      	cmp	r0, #0
2ffed43a:	d1e0      	bne.n	2ffed3fe <stm32mp_board_ddr_power_init+0x1a>
2ffed43c:	4630      	mov	r0, r6
2ffed43e:	f002 f8c9 	bl	2ffef5d4 <regulator_enable>
2ffed442:	2800      	cmp	r0, #0
2ffed444:	d1db      	bne.n	2ffed3fe <stm32mp_board_ddr_power_init+0x1a>
2ffed446:	4620      	mov	r0, r4
2ffed448:	f002 f8c4 	bl	2ffef5d4 <regulator_enable>
2ffed44c:	2800      	cmp	r0, #0
2ffed44e:	d1d6      	bne.n	2ffed3fe <stm32mp_board_ddr_power_init+0x1a>
2ffed450:	4628      	mov	r0, r5
2ffed452:	b003      	add	sp, #12
2ffed454:	e8bd 40f0 	ldmia.w	sp!, {r4, r5, r6, r7, lr}
2ffed458:	f002 b8bc 	b.w	2ffef5d4 <regulator_enable>
2ffed45c:	4818      	ldr	r0, [pc, #96]	@ (2ffed4c0 <stm32mp_board_ddr_power_init+0xdc>)
2ffed45e:	f002 f859 	bl	2ffef514 <regulator_get_by_name>
2ffed462:	2800      	cmp	r0, #0
2ffed464:	d0c9      	beq.n	2ffed3fa <stm32mp_board_ddr_power_init+0x16>
2ffed466:	2200      	movs	r2, #0
2ffed468:	f10d 0106 	add.w	r1, sp, #6
2ffed46c:	f002 f9b4 	bl	2ffef7d8 <regulator_get_range>
2ffed470:	f8bd 3006 	ldrh.w	r3, [sp, #6]
2ffed474:	f5b3 6fe1 	cmp.w	r3, #1800	@ 0x708
2ffed478:	d017      	beq.n	2ffed4aa <stm32mp_board_ddr_power_init+0xc6>
2ffed47a:	4628      	mov	r0, r5
2ffed47c:	f007 f8bf 	bl	2fff45fe <regulator_set_min_voltage>
2ffed480:	2800      	cmp	r0, #0
2ffed482:	d1bc      	bne.n	2ffed3fe <stm32mp_board_ddr_power_init+0x1a>
2ffed484:	4630      	mov	r0, r6
2ffed486:	f007 f8ba 	bl	2fff45fe <regulator_set_min_voltage>
2ffed48a:	2800      	cmp	r0, #0
2ffed48c:	d1b7      	bne.n	2ffed3fe <stm32mp_board_ddr_power_init+0x1a>
2ffed48e:	4628      	mov	r0, r5
2ffed490:	f002 f8a0 	bl	2ffef5d4 <regulator_enable>
2ffed494:	2800      	cmp	r0, #0
2ffed496:	d1b2      	bne.n	2ffed3fe <stm32mp_board_ddr_power_init+0x1a>
2ffed498:	4630      	mov	r0, r6
2ffed49a:	f002 f89b 	bl	2ffef5d4 <regulator_enable>
2ffed49e:	2800      	cmp	r0, #0
2ffed4a0:	d1ad      	bne.n	2ffed3fe <stm32mp_board_ddr_power_init+0x1a>
2ffed4a2:	4620      	mov	r0, r4
2ffed4a4:	f002 f896 	bl	2ffef5d4 <regulator_enable>
2ffed4a8:	e7a9      	b.n	2ffed3fe <stm32mp_board_ddr_power_init+0x1a>
2ffed4aa:	2180      	movs	r1, #128	@ 0x80
2ffed4ac:	4628      	mov	r0, r5
2ffed4ae:	f002 f9a3 	bl	2ffef7f8 <regulator_set_flag>
2ffed4b2:	e7e5      	b.n	2ffed480 <stm32mp_board_ddr_power_init+0x9c>
2ffed4b4:	2fff81b1 	.word	0x2fff81b1
2ffed4b8:	2fff81b7 	.word	0x2fff81b7
2ffed4bc:	2fff81bc 	.word	0x2fff81bc
2ffed4c0:	2fff81c5 	.word	0x2fff81c5

2ffed4c4 <stm32_pwr_down_wfi_load>:
2ffed4c4:	2904      	cmp	r1, #4
2ffed4c6:	b538      	push	{r3, r4, r5, lr}
2ffed4c8:	4605      	mov	r5, r0
2ffed4ca:	460c      	mov	r4, r1
2ffed4cc:	d106      	bne.n	2ffed4dc <stm32_pwr_down_wfi_load+0x18>
2ffed4ce:	4827      	ldr	r0, [pc, #156]	@ (2ffed56c <stm32_pwr_down_wfi_load+0xa8>)
2ffed4d0:	f000 f9a2 	bl	2ffed818 <tf_log>
2ffed4d4:	f000 fa3c 	bl	2ffed950 <console_flush>
2ffed4d8:	f7fb ef80 	blx	2ffe93dc <do_panic>
2ffed4dc:	bb09      	cbnz	r1, 2ffed522 <stm32_pwr_down_wfi_load+0x5e>
2ffed4de:	2800      	cmp	r0, #0
2ffed4e0:	d03b      	beq.n	2ffed55a <stm32_pwr_down_wfi_load+0x96>
2ffed4e2:	f001 fa85 	bl	2ffee9f0 <generic_delay_timer_init>
2ffed4e6:	2001      	movs	r0, #1
2ffed4e8:	f003 fb54 	bl	2fff0b94 <ddr_set_sr_mode>
2ffed4ec:	f007 f8fb 	bl	2fff46e6 <ddr_standby_sr_entry>
2ffed4f0:	b330      	cbz	r0, 2ffed540 <stm32_pwr_down_wfi_load+0x7c>
2ffed4f2:	481f      	ldr	r0, [pc, #124]	@ (2ffed570 <stm32_pwr_down_wfi_load+0xac>)
2ffed4f4:	f000 f990 	bl	2ffed818 <tf_log>
2ffed4f8:	2c07      	cmp	r4, #7
2ffed4fa:	d1eb      	bne.n	2ffed4d4 <stm32_pwr_down_wfi_load+0x10>
2ffed4fc:	f004 f9ca 	bl	2fff1894 <dt_pmic_status>
2ffed500:	2800      	cmp	r0, #0
2ffed502:	dd05      	ble.n	2ffed510 <stm32_pwr_down_wfi_load+0x4c>
2ffed504:	f004 f9e0 	bl	2fff18c8 <initialize_pmic_i2c>
2ffed508:	2800      	cmp	r0, #0
2ffed50a:	d0e3      	beq.n	2ffed4d4 <stm32_pwr_down_wfi_load+0x10>
2ffed50c:	f007 faa3 	bl	2fff4a56 <pmic_switch_off>
2ffed510:	f3bf 8f4f 	dsb	sy
2ffed514:	f3bf 8f6f 	isb	sy
2ffed518:	bf30      	wfi
2ffed51a:	f004 f931 	bl	2fff1780 <stm32_iwdg_refresh>
2ffed51e:	b9b5      	cbnz	r5, 2ffed54e <stm32_pwr_down_wfi_load+0x8a>
2ffed520:	bd38      	pop	{r3, r4, r5, pc}
2ffed522:	2001      	movs	r0, #1
2ffed524:	f7fc e850 	blx	2ffe95c8 <dcsw_op_all>
2ffed528:	b1ad      	cbz	r5, 2ffed556 <stm32_pwr_down_wfi_load+0x92>
2ffed52a:	f001 fa61 	bl	2ffee9f0 <generic_delay_timer_init>
2ffed52e:	2001      	movs	r0, #1
2ffed530:	f003 fb30 	bl	2fff0b94 <ddr_set_sr_mode>
2ffed534:	f007 f8d7 	bl	2fff46e6 <ddr_standby_sr_entry>
2ffed538:	2800      	cmp	r0, #0
2ffed53a:	d1da      	bne.n	2ffed4f2 <stm32_pwr_down_wfi_load+0x2e>
2ffed53c:	2c07      	cmp	r4, #7
2ffed53e:	d0dd      	beq.n	2ffed4fc <stm32_pwr_down_wfi_load+0x38>
2ffed540:	f3bf 8f4f 	dsb	sy
2ffed544:	f3bf 8f6f 	isb	sy
2ffed548:	bf30      	wfi
2ffed54a:	f004 f919 	bl	2fff1780 <stm32_iwdg_refresh>
2ffed54e:	e8bd 4038 	ldmia.w	sp!, {r3, r4, r5, lr}
2ffed552:	f006 bca5 	b.w	2fff3ea0 <stm32_pwr_cstop_critic_exit>
2ffed556:	2c07      	cmp	r4, #7
2ffed558:	d0d0      	beq.n	2ffed4fc <stm32_pwr_down_wfi_load+0x38>
2ffed55a:	f3bf 8f4f 	dsb	sy
2ffed55e:	f3bf 8f6f 	isb	sy
2ffed562:	bf30      	wfi
2ffed564:	e8bd 4038 	ldmia.w	sp!, {r3, r4, r5, lr}
2ffed568:	f004 b90a 	b.w	2fff1780 <stm32_iwdg_refresh>
2ffed56c:	2fff81cb 	.word	0x2fff81cb
2ffed570:	2fff81eb 	.word	0x2fff81eb

2ffed574 <fconf_populate_stm32mp1_firewall>:
2ffed574:	e92d 41f0 	stmdb	sp!, {r4, r5, r6, r7, r8, lr}
2ffed578:	b086      	sub	sp, #24
2ffed57a:	4606      	mov	r6, r0
2ffed57c:	f7fe fb5e 	bl	2ffebc3c <stm32mp1_ddr_is_restored>
2ffed580:	4605      	mov	r5, r0
2ffed582:	bb08      	cbnz	r0, 2ffed5c8 <fconf_populate_stm32mp1_firewall+0x54>
2ffed584:	4a29      	ldr	r2, [pc, #164]	@ (2ffed62c <fconf_populate_stm32mp1_firewall+0xb8>)
2ffed586:	f04f 31ff 	mov.w	r1, #4294967295	@ 0xffffffff
2ffed58a:	4630      	mov	r0, r6
2ffed58c:	f007 ff14 	bl	2fff53b8 <fdt_node_offset_by_compatible>
2ffed590:	1e04      	subs	r4, r0, #0
2ffed592:	da07      	bge.n	2ffed5a4 <fconf_populate_stm32mp1_firewall+0x30>
2ffed594:	4925      	ldr	r1, [pc, #148]	@ (2ffed62c <fconf_populate_stm32mp1_firewall+0xb8>)
2ffed596:	4826      	ldr	r0, [pc, #152]	@ (2ffed630 <fconf_populate_stm32mp1_firewall+0xbc>)
2ffed598:	f000 f93e 	bl	2ffed818 <tf_log>
2ffed59c:	4620      	mov	r0, r4
2ffed59e:	b006      	add	sp, #24
2ffed5a0:	e8bd 81f0 	ldmia.w	sp!, {r4, r5, r6, r7, r8, pc}
2ffed5a4:	4a23      	ldr	r2, [pc, #140]	@ (2ffed634 <fconf_populate_stm32mp1_firewall+0xc0>)
2ffed5a6:	4621      	mov	r1, r4
2ffed5a8:	ab05      	add	r3, sp, #20
2ffed5aa:	4630      	mov	r0, r6
2ffed5ac:	f007 fdd0 	bl	2fff5150 <fdt_getprop>
2ffed5b0:	4604      	mov	r4, r0
2ffed5b2:	b158      	cbz	r0, 2ffed5cc <fconf_populate_stm32mp1_firewall+0x58>
2ffed5b4:	4e20      	ldr	r6, [pc, #128]	@ (2ffed638 <fconf_populate_stm32mp1_firewall+0xc4>)
2ffed5b6:	462f      	mov	r7, r5
2ffed5b8:	9b05      	ldr	r3, [sp, #20]
2ffed5ba:	ebb5 1f13 	cmp.w	r5, r3, lsr #4
2ffed5be:	d30c      	bcc.n	2ffed5da <fconf_populate_stm32mp1_firewall+0x66>
2ffed5c0:	481d      	ldr	r0, [pc, #116]	@ (2ffed638 <fconf_populate_stm32mp1_firewall+0xc4>)
2ffed5c2:	2104      	movs	r1, #4
2ffed5c4:	f7fb ef42 	blx	2ffe944c <flush_dcache_range>
2ffed5c8:	2400      	movs	r4, #0
2ffed5ca:	e7e7      	b.n	2ffed59c <fconf_populate_stm32mp1_firewall+0x28>
2ffed5cc:	4919      	ldr	r1, [pc, #100]	@ (2ffed634 <fconf_populate_stm32mp1_firewall+0xc0>)
2ffed5ce:	f04f 34ff 	mov.w	r4, #4294967295	@ 0xffffffff
2ffed5d2:	481a      	ldr	r0, [pc, #104]	@ (2ffed63c <fconf_populate_stm32mp1_firewall+0xc8>)
2ffed5d4:	f000 f920 	bl	2ffed818 <tf_log>
2ffed5d8:	e7e0      	b.n	2ffed59c <fconf_populate_stm32mp1_firewall+0x28>
2ffed5da:	f854 0b10 	ldr.w	r0, [r4], #16
2ffed5de:	3501      	adds	r5, #1
2ffed5e0:	f006 fc6b 	bl	2fff3eba <fdt32_to_cpu>
2ffed5e4:	4602      	mov	r2, r0
2ffed5e6:	f854 0c0c 	ldr.w	r0, [r4, #-12]
2ffed5ea:	f006 fc66 	bl	2fff3eba <fdt32_to_cpu>
2ffed5ee:	4603      	mov	r3, r0
2ffed5f0:	f854 0c08 	ldr.w	r0, [r4, #-8]
2ffed5f4:	f006 fc61 	bl	2fff3eba <fdt32_to_cpu>
2ffed5f8:	4680      	mov	r8, r0
2ffed5fa:	f854 0c04 	ldr.w	r0, [r4, #-4]
2ffed5fe:	f006 fc5c 	bl	2fff3eba <fdt32_to_cpu>
2ffed602:	6831      	ldr	r1, [r6, #0]
2ffed604:	189b      	adds	r3, r3, r2
2ffed606:	f101 0101 	add.w	r1, r1, #1
2ffed60a:	6031      	str	r1, [r6, #0]
2ffed60c:	9003      	str	r0, [sp, #12]
2ffed60e:	eb47 0007 	adc.w	r0, r7, r7
2ffed612:	3b01      	subs	r3, #1
2ffed614:	f140 30ff 	adc.w	r0, r0, #4294967295	@ 0xffffffff
2ffed618:	e9cd 3000 	strd	r3, r0, [sp]
2ffed61c:	f8cd 8008 	str.w	r8, [sp, #8]
2ffed620:	2300      	movs	r3, #0
2ffed622:	4618      	mov	r0, r3
2ffed624:	f002 fef2 	bl	2fff040c <tzc400_configure_region>
2ffed628:	e7c6      	b.n	2ffed5b8 <fconf_populate_stm32mp1_firewall+0x44>
2ffed62a:	bf00      	nop
2ffed62c:	2fff8205 	.word	0x2fff8205
2ffed630:	2fff76ba 	.word	0x2fff76ba
2ffed634:	2fff8215 	.word	0x2fff8215
2ffed638:	2fffbad0 	.word	0x2fffbad0
2ffed63c:	2fff7b4b 	.word	0x2fff7b4b

2ffed640 <stm32mp1_arch_security_setup>:
2ffed640:	b508      	push	{r3, lr}
2ffed642:	2042      	movs	r0, #66	@ 0x42
2ffed644:	f001 f91c 	bl	2ffee880 <clk_enable>
2ffed648:	2071      	movs	r0, #113	@ 0x71
2ffed64a:	f001 f919 	bl	2ffee880 <clk_enable>
2ffed64e:	4808      	ldr	r0, [pc, #32]	@ (2ffed670 <stm32mp1_arch_security_setup+0x30>)
2ffed650:	f002 fe98 	bl	2fff0384 <tzc400_init>
2ffed654:	f002 ff92 	bl	2fff057c <tzc400_disable_filters>
2ffed658:	2100      	movs	r1, #0
2ffed65a:	2003      	movs	r0, #3
2ffed65c:	f002 fec0 	bl	2fff03e0 <tzc400_configure_region0>
2ffed660:	2001      	movs	r0, #1
2ffed662:	f002 fe7d 	bl	2fff0360 <tzc400_set_action>
2ffed666:	e8bd 4008 	ldmia.w	sp!, {r3, lr}
2ffed66a:	f002 bf53 	b.w	2fff0514 <tzc400_enable_filters>
2ffed66e:	bf00      	nop
2ffed670:	5c006000 	.word	0x5c006000

2ffed674 <stm32mp1_security_setup>:
2ffed674:	b538      	push	{r3, r4, r5, lr}
2ffed676:	f7fe fae1 	bl	2ffebc3c <stm32mp1_ddr_is_restored>
2ffed67a:	4604      	mov	r4, r0
2ffed67c:	bb08      	cbnz	r0, 2ffed6c2 <stm32mp1_security_setup+0x4e>
2ffed67e:	4d11      	ldr	r5, [pc, #68]	@ (2ffed6c4 <stm32mp1_security_setup+0x50>)
2ffed680:	682b      	ldr	r3, [r5, #0]
2ffed682:	b91b      	cbnz	r3, 2ffed68c <stm32mp1_security_setup+0x18>
2ffed684:	4810      	ldr	r0, [pc, #64]	@ (2ffed6c8 <stm32mp1_security_setup+0x54>)
2ffed686:	2141      	movs	r1, #65	@ 0x41
2ffed688:	f006 f850 	bl	2fff372c <__assert>
2ffed68c:	480f      	ldr	r0, [pc, #60]	@ (2ffed6cc <stm32mp1_security_setup+0x58>)
2ffed68e:	f002 fe79 	bl	2fff0384 <tzc400_init>
2ffed692:	f002 ff73 	bl	2fff057c <tzc400_disable_filters>
2ffed696:	4621      	mov	r1, r4
2ffed698:	4620      	mov	r0, r4
2ffed69a:	2401      	movs	r4, #1
2ffed69c:	f002 fea0 	bl	2fff03e0 <tzc400_configure_region0>
2ffed6a0:	682b      	ldr	r3, [r5, #0]
2ffed6a2:	429c      	cmp	r4, r3
2ffed6a4:	d906      	bls.n	2ffed6b4 <stm32mp1_security_setup+0x40>
2ffed6a6:	2002      	movs	r0, #2
2ffed6a8:	f002 fe5a 	bl	2fff0360 <tzc400_set_action>
2ffed6ac:	e8bd 4038 	ldmia.w	sp!, {r3, r4, r5, lr}
2ffed6b0:	f002 bf30 	b.w	2fff0514 <tzc400_enable_filters>
2ffed6b4:	4620      	mov	r0, r4
2ffed6b6:	2103      	movs	r1, #3
2ffed6b8:	3401      	adds	r4, #1
2ffed6ba:	f002 ff09 	bl	2fff04d0 <tzc400_update_filters>
2ffed6be:	b2e4      	uxtb	r4, r4
2ffed6c0:	e7ee      	b.n	2ffed6a0 <stm32mp1_security_setup+0x2c>
2ffed6c2:	bd38      	pop	{r3, r4, r5, pc}
2ffed6c4:	2fffbad0 	.word	0x2fffbad0
2ffed6c8:	2fff8223 	.word	0x2fff8223
2ffed6cc:	5c006000 	.word	0x5c006000

2ffed6d0 <load_auth_image>:
2ffed6d0:	e92d 47f0 	stmdb	sp!, {r4, r5, r6, r7, r8, r9, sl, lr}
2ffed6d4:	4605      	mov	r5, r0
2ffed6d6:	b086      	sub	sp, #24
2ffed6d8:	460e      	mov	r6, r1
2ffed6da:	b151      	cbz	r1, 2ffed6f2 <load_auth_image+0x22>
2ffed6dc:	f8df 80f8 	ldr.w	r8, [pc, #248]	@ 2ffed7d8 <load_auth_image+0x108>
2ffed6e0:	f8df 90f8 	ldr.w	r9, [pc, #248]	@ 2ffed7dc <load_auth_image+0x10c>
2ffed6e4:	f8df a0f8 	ldr.w	sl, [pc, #248]	@ 2ffed7e0 <load_auth_image+0x110>
2ffed6e8:	7873      	ldrb	r3, [r6, #1]
2ffed6ea:	2b01      	cmp	r3, #1
2ffed6ec:	d805      	bhi.n	2ffed6fa <load_auth_image+0x2a>
2ffed6ee:	2151      	movs	r1, #81	@ 0x51
2ffed6f0:	e000      	b.n	2ffed6f4 <load_auth_image+0x24>
2ffed6f2:	2150      	movs	r1, #80	@ 0x50
2ffed6f4:	483b      	ldr	r0, [pc, #236]	@ (2ffed7e4 <load_auth_image+0x114>)
2ffed6f6:	f006 f819 	bl	2fff372c <__assert>
2ffed6fa:	68b7      	ldr	r7, [r6, #8]
2ffed6fc:	aa03      	add	r2, sp, #12
2ffed6fe:	a901      	add	r1, sp, #4
2ffed700:	4628      	mov	r0, r5
2ffed702:	f7ff f9e5 	bl	2ffecad0 <plat_get_image_source>
2ffed706:	4604      	mov	r4, r0
2ffed708:	b168      	cbz	r0, 2ffed726 <load_auth_image+0x56>
2ffed70a:	4602      	mov	r2, r0
2ffed70c:	4629      	mov	r1, r5
2ffed70e:	4836      	ldr	r0, [pc, #216]	@ (2ffed7e8 <load_auth_image+0x118>)
2ffed710:	f000 f882 	bl	2ffed818 <tf_log>
2ffed714:	4628      	mov	r0, r5
2ffed716:	f006 fbac 	bl	2fff3e72 <plat_try_backup_partitions>
2ffed71a:	2800      	cmp	r0, #0
2ffed71c:	d1e4      	bne.n	2ffed6e8 <load_auth_image+0x18>
2ffed71e:	4620      	mov	r0, r4
2ffed720:	b006      	add	sp, #24
2ffed722:	e8bd 87f0 	ldmia.w	sp!, {r4, r5, r6, r7, r8, r9, sl, pc}
2ffed726:	9903      	ldr	r1, [sp, #12]
2ffed728:	aa02      	add	r2, sp, #8
2ffed72a:	9801      	ldr	r0, [sp, #4]
2ffed72c:	f7fd f9ca 	bl	2ffeaac4 <io_open>
2ffed730:	4604      	mov	r4, r0
2ffed732:	b118      	cbz	r0, 2ffed73c <load_auth_image+0x6c>
2ffed734:	4602      	mov	r2, r0
2ffed736:	4629      	mov	r1, r5
2ffed738:	4650      	mov	r0, sl
2ffed73a:	e7e9      	b.n	2ffed710 <load_auth_image+0x40>
2ffed73c:	463a      	mov	r2, r7
2ffed73e:	4629      	mov	r1, r5
2ffed740:	4640      	mov	r0, r8
2ffed742:	f000 f869 	bl	2ffed818 <tf_log>
2ffed746:	9802      	ldr	r0, [sp, #8]
2ffed748:	a904      	add	r1, sp, #16
2ffed74a:	f7fd fa2b 	bl	2ffeaba4 <io_size>
2ffed74e:	4604      	mov	r4, r0
2ffed750:	b908      	cbnz	r0, 2ffed756 <load_auth_image+0x86>
2ffed752:	9a04      	ldr	r2, [sp, #16]
2ffed754:	b992      	cbnz	r2, 2ffed77c <load_auth_image+0xac>
2ffed756:	4622      	mov	r2, r4
2ffed758:	4629      	mov	r1, r5
2ffed75a:	4648      	mov	r0, r9
2ffed75c:	f000 f85c 	bl	2ffed818 <tf_log>
2ffed760:	9802      	ldr	r0, [sp, #8]
2ffed762:	f7fd fa5d 	bl	2ffeac20 <io_close>
2ffed766:	9801      	ldr	r0, [sp, #4]
2ffed768:	f7fd f994 	bl	2ffeaa94 <io_dev_close>
2ffed76c:	2c00      	cmp	r4, #0
2ffed76e:	d1d1      	bne.n	2ffed714 <load_auth_image+0x44>
2ffed770:	68f1      	ldr	r1, [r6, #12]
2ffed772:	2400      	movs	r4, #0
2ffed774:	68b0      	ldr	r0, [r6, #8]
2ffed776:	f7fb ee6a 	blx	2ffe944c <flush_dcache_range>
2ffed77a:	e7d0      	b.n	2ffed71e <load_auth_image+0x4e>
2ffed77c:	6933      	ldr	r3, [r6, #16]
2ffed77e:	429a      	cmp	r2, r3
2ffed780:	d90c      	bls.n	2ffed79c <load_auth_image+0xcc>
2ffed782:	481a      	ldr	r0, [pc, #104]	@ (2ffed7ec <load_auth_image+0x11c>)
2ffed784:	4629      	mov	r1, r5
2ffed786:	f06f 041a 	mvn.w	r4, #26
2ffed78a:	f000 f845 	bl	2ffed818 <tf_log>
2ffed78e:	9802      	ldr	r0, [sp, #8]
2ffed790:	f7fd fa46 	bl	2ffeac20 <io_close>
2ffed794:	9801      	ldr	r0, [sp, #4]
2ffed796:	f7fd f97d 	bl	2ffeaa94 <io_dev_close>
2ffed79a:	e7bb      	b.n	2ffed714 <load_auth_image+0x44>
2ffed79c:	9802      	ldr	r0, [sp, #8]
2ffed79e:	ab05      	add	r3, sp, #20
2ffed7a0:	60f2      	str	r2, [r6, #12]
2ffed7a2:	4639      	mov	r1, r7
2ffed7a4:	f7fd fa18 	bl	2ffeabd8 <io_read>
2ffed7a8:	4604      	mov	r4, r0
2ffed7aa:	b918      	cbnz	r0, 2ffed7b4 <load_auth_image+0xe4>
2ffed7ac:	e9dd 3204 	ldrd	r3, r2, [sp, #16]
2ffed7b0:	429a      	cmp	r2, r3
2ffed7b2:	d203      	bcs.n	2ffed7bc <load_auth_image+0xec>
2ffed7b4:	480e      	ldr	r0, [pc, #56]	@ (2ffed7f0 <load_auth_image+0x120>)
2ffed7b6:	4622      	mov	r2, r4
2ffed7b8:	4629      	mov	r1, r5
2ffed7ba:	e7cf      	b.n	2ffed75c <load_auth_image+0x8c>
2ffed7bc:	443b      	add	r3, r7
2ffed7be:	463a      	mov	r2, r7
2ffed7c0:	480c      	ldr	r0, [pc, #48]	@ (2ffed7f4 <load_auth_image+0x124>)
2ffed7c2:	4629      	mov	r1, r5
2ffed7c4:	f000 f828 	bl	2ffed818 <tf_log>
2ffed7c8:	9802      	ldr	r0, [sp, #8]
2ffed7ca:	f7fd fa29 	bl	2ffeac20 <io_close>
2ffed7ce:	9801      	ldr	r0, [sp, #4]
2ffed7d0:	f7fd f960 	bl	2ffeaa94 <io_dev_close>
2ffed7d4:	e7cc      	b.n	2ffed770 <load_auth_image+0xa0>
2ffed7d6:	bf00      	nop
2ffed7d8:	2fff8273 	.word	0x2fff8273
2ffed7dc:	2fff829a 	.word	0x2fff829a
2ffed7e0:	2fff6e81 	.word	0x2fff6e81
2ffed7e4:	2fff8260 	.word	0x2fff8260
2ffed7e8:	2fff6e50 	.word	0x2fff6e50
2ffed7ec:	2fff82d1 	.word	0x2fff82d1
2ffed7f0:	2fff82f2 	.word	0x2fff82f2
2ffed7f4:	2fff8314 	.word	0x2fff8314

2ffed7f8 <print_entry_point_info>:
2ffed7f8:	b510      	push	{r4, lr}
2ffed7fa:	4604      	mov	r4, r0
2ffed7fc:	6881      	ldr	r1, [r0, #8]
2ffed7fe:	4804      	ldr	r0, [pc, #16]	@ (2ffed810 <print_entry_point_info+0x18>)
2ffed800:	f000 f80a 	bl	2ffed818 <tf_log>
2ffed804:	68e1      	ldr	r1, [r4, #12]
2ffed806:	4803      	ldr	r0, [pc, #12]	@ (2ffed814 <print_entry_point_info+0x1c>)
2ffed808:	e8bd 4010 	ldmia.w	sp!, {r4, lr}
2ffed80c:	f000 b804 	b.w	2ffed818 <tf_log>
2ffed810:	2fff8338 	.word	0x2fff8338
2ffed814:	2fff8356 	.word	0x2fff8356

2ffed818 <tf_log>:
2ffed818:	b40f      	push	{r0, r1, r2, r3}
2ffed81a:	b537      	push	{r0, r1, r2, r4, r5, lr}
2ffed81c:	9d06      	ldr	r5, [sp, #24]
2ffed81e:	7828      	ldrb	r0, [r5, #0]
2ffed820:	1e43      	subs	r3, r0, #1
2ffed822:	2b31      	cmp	r3, #49	@ 0x31
2ffed824:	d903      	bls.n	2ffed82e <tf_log+0x16>
2ffed826:	2122      	movs	r1, #34	@ 0x22
2ffed828:	4810      	ldr	r0, [pc, #64]	@ (2ffed86c <tf_log+0x54>)
2ffed82a:	f005 ff7f 	bl	2fff372c <__assert>
2ffed82e:	220a      	movs	r2, #10
2ffed830:	fbb0 f3f2 	udiv	r3, r0, r2
2ffed834:	fb02 0313 	mls	r3, r2, r3, r0
2ffed838:	b10b      	cbz	r3, 2ffed83e <tf_log+0x26>
2ffed83a:	2123      	movs	r1, #35	@ 0x23
2ffed83c:	e7f4      	b.n	2ffed828 <tf_log+0x10>
2ffed83e:	4b0c      	ldr	r3, [pc, #48]	@ (2ffed870 <tf_log+0x58>)
2ffed840:	681b      	ldr	r3, [r3, #0]
2ffed842:	4283      	cmp	r3, r0
2ffed844:	d30a      	bcc.n	2ffed85c <tf_log+0x44>
2ffed846:	f000 f897 	bl	2ffed978 <plat_log_get_prefix>
2ffed84a:	1e44      	subs	r4, r0, #1
2ffed84c:	f814 0f01 	ldrb.w	r0, [r4, #1]!
2ffed850:	b948      	cbnz	r0, 2ffed866 <tf_log+0x4e>
2ffed852:	a907      	add	r1, sp, #28
2ffed854:	1c68      	adds	r0, r5, #1
2ffed856:	9101      	str	r1, [sp, #4]
2ffed858:	f005 ff74 	bl	2fff3744 <vprintf>
2ffed85c:	b003      	add	sp, #12
2ffed85e:	e8bd 4030 	ldmia.w	sp!, {r4, r5, lr}
2ffed862:	b004      	add	sp, #16
2ffed864:	4770      	bx	lr
2ffed866:	f006 fb2a 	bl	2fff3ebe <putchar>
2ffed86a:	e7ef      	b.n	2ffed84c <tf_log+0x34>
2ffed86c:	2fff8364 	.word	0x2fff8364
2ffed870:	2fffa528 	.word	0x2fffa528

2ffed874 <console_is_registered>:
2ffed874:	b508      	push	{r3, lr}
2ffed876:	b918      	cbnz	r0, 2ffed880 <console_is_registered+0xc>
2ffed878:	4806      	ldr	r0, [pc, #24]	@ (2ffed894 <console_is_registered+0x20>)
2ffed87a:	2136      	movs	r1, #54	@ 0x36
2ffed87c:	f005 ff56 	bl	2fff372c <__assert>
2ffed880:	4b05      	ldr	r3, [pc, #20]	@ (2ffed898 <console_is_registered+0x24>)
2ffed882:	681b      	ldr	r3, [r3, #0]
2ffed884:	b90b      	cbnz	r3, 2ffed88a <console_is_registered+0x16>
2ffed886:	4618      	mov	r0, r3
2ffed888:	bd08      	pop	{r3, pc}
2ffed88a:	4283      	cmp	r3, r0
2ffed88c:	d1f9      	bne.n	2ffed882 <console_is_registered+0xe>
2ffed88e:	2001      	movs	r0, #1
2ffed890:	e7fa      	b.n	2ffed888 <console_is_registered+0x14>
2ffed892:	bf00      	nop
2ffed894:	2fff8374 	.word	0x2fff8374
2ffed898:	2fffbad4 	.word	0x2fffbad4

2ffed89c <console_register>:
2ffed89c:	4b0b      	ldr	r3, [pc, #44]	@ (2ffed8cc <console_register+0x30>)
2ffed89e:	b510      	push	{r4, lr}
2ffed8a0:	4604      	mov	r4, r0
2ffed8a2:	4298      	cmp	r0, r3
2ffed8a4:	d306      	bcc.n	2ffed8b4 <console_register+0x18>
2ffed8a6:	4b0a      	ldr	r3, [pc, #40]	@ (2ffed8d0 <console_register+0x34>)
2ffed8a8:	4298      	cmp	r0, r3
2ffed8aa:	d203      	bcs.n	2ffed8b4 <console_register+0x18>
2ffed8ac:	4809      	ldr	r0, [pc, #36]	@ (2ffed8d4 <console_register+0x38>)
2ffed8ae:	2116      	movs	r1, #22
2ffed8b0:	f005 ff3c 	bl	2fff372c <__assert>
2ffed8b4:	4620      	mov	r0, r4
2ffed8b6:	f7ff ffdd 	bl	2ffed874 <console_is_registered>
2ffed8ba:	2801      	cmp	r0, #1
2ffed8bc:	f04f 0001 	mov.w	r0, #1
2ffed8c0:	bf1f      	itttt	ne
2ffed8c2:	4b05      	ldrne	r3, [pc, #20]	@ (2ffed8d8 <console_register+0x3c>)
2ffed8c4:	681a      	ldrne	r2, [r3, #0]
2ffed8c6:	6022      	strne	r2, [r4, #0]
2ffed8c8:	601c      	strne	r4, [r3, #0]
2ffed8ca:	bd10      	pop	{r4, pc}
2ffed8cc:	2fffa600 	.word	0x2fffa600
2ffed8d0:	2fffb200 	.word	0x2fffb200
2ffed8d4:	2fff8374 	.word	0x2fff8374
2ffed8d8:	2fffbad4 	.word	0x2fffbad4

2ffed8dc <console_set_scope>:
2ffed8dc:	b508      	push	{r3, lr}
2ffed8de:	b918      	cbnz	r0, 2ffed8e8 <console_set_scope+0xc>
2ffed8e0:	4804      	ldr	r0, [pc, #16]	@ (2ffed8f4 <console_set_scope+0x18>)
2ffed8e2:	2146      	movs	r1, #70	@ 0x46
2ffed8e4:	f005 ff22 	bl	2fff372c <__assert>
2ffed8e8:	6843      	ldr	r3, [r0, #4]
2ffed8ea:	f023 03ff 	bic.w	r3, r3, #255	@ 0xff
2ffed8ee:	4319      	orrs	r1, r3
2ffed8f0:	6041      	str	r1, [r0, #4]
2ffed8f2:	bd08      	pop	{r3, pc}
2ffed8f4:	2fff8374 	.word	0x2fff8374

2ffed8f8 <console_putc>:
2ffed8f8:	b5f8      	push	{r3, r4, r5, r6, r7, lr}
2ffed8fa:	4606      	mov	r6, r0
2ffed8fc:	4b12      	ldr	r3, [pc, #72]	@ (2ffed948 <console_putc+0x50>)
2ffed8fe:	f06f 057f 	mvn.w	r5, #127	@ 0x7f
2ffed902:	4f12      	ldr	r7, [pc, #72]	@ (2ffed94c <console_putc+0x54>)
2ffed904:	681c      	ldr	r4, [r3, #0]
2ffed906:	b90c      	cbnz	r4, 2ffed90c <console_putc+0x14>
2ffed908:	4628      	mov	r0, r5
2ffed90a:	bdf8      	pop	{r3, r4, r5, r6, r7, pc}
2ffed90c:	6862      	ldr	r2, [r4, #4]
2ffed90e:	783b      	ldrb	r3, [r7, #0]
2ffed910:	4213      	tst	r3, r2
2ffed912:	d00d      	beq.n	2ffed930 <console_putc+0x38>
2ffed914:	68a3      	ldr	r3, [r4, #8]
2ffed916:	b15b      	cbz	r3, 2ffed930 <console_putc+0x38>
2ffed918:	2e0a      	cmp	r6, #10
2ffed91a:	d00b      	beq.n	2ffed934 <console_putc+0x3c>
2ffed91c:	68a3      	ldr	r3, [r4, #8]
2ffed91e:	4621      	mov	r1, r4
2ffed920:	4630      	mov	r0, r6
2ffed922:	4798      	blx	r3
2ffed924:	f115 0f80 	cmn.w	r5, #128	@ 0x80
2ffed928:	d00c      	beq.n	2ffed944 <console_putc+0x4c>
2ffed92a:	4285      	cmp	r5, r0
2ffed92c:	bfa8      	it	ge
2ffed92e:	4605      	movge	r5, r0
2ffed930:	6824      	ldr	r4, [r4, #0]
2ffed932:	e7e8      	b.n	2ffed906 <console_putc+0xe>
2ffed934:	05d2      	lsls	r2, r2, #23
2ffed936:	d5f1      	bpl.n	2ffed91c <console_putc+0x24>
2ffed938:	4621      	mov	r1, r4
2ffed93a:	200d      	movs	r0, #13
2ffed93c:	4798      	blx	r3
2ffed93e:	2800      	cmp	r0, #0
2ffed940:	daec      	bge.n	2ffed91c <console_putc+0x24>
2ffed942:	e7ef      	b.n	2ffed924 <console_putc+0x2c>
2ffed944:	4605      	mov	r5, r0
2ffed946:	e7f3      	b.n	2ffed930 <console_putc+0x38>
2ffed948:	2fffbad4 	.word	0x2fffbad4
2ffed94c:	2fffa5c0 	.word	0x2fffa5c0

2ffed950 <console_flush>:
2ffed950:	b538      	push	{r3, r4, r5, lr}
2ffed952:	4b07      	ldr	r3, [pc, #28]	@ (2ffed970 <console_flush+0x20>)
2ffed954:	4d07      	ldr	r5, [pc, #28]	@ (2ffed974 <console_flush+0x24>)
2ffed956:	681c      	ldr	r4, [r3, #0]
2ffed958:	b904      	cbnz	r4, 2ffed95c <console_flush+0xc>
2ffed95a:	bd38      	pop	{r3, r4, r5, pc}
2ffed95c:	782a      	ldrb	r2, [r5, #0]
2ffed95e:	6863      	ldr	r3, [r4, #4]
2ffed960:	421a      	tst	r2, r3
2ffed962:	d003      	beq.n	2ffed96c <console_flush+0x1c>
2ffed964:	6923      	ldr	r3, [r4, #16]
2ffed966:	b10b      	cbz	r3, 2ffed96c <console_flush+0x1c>
2ffed968:	4620      	mov	r0, r4
2ffed96a:	4798      	blx	r3
2ffed96c:	6824      	ldr	r4, [r4, #0]
2ffed96e:	e7f3      	b.n	2ffed958 <console_flush+0x8>
2ffed970:	2fffbad4 	.word	0x2fffbad4
2ffed974:	2fffa5c0 	.word	0x2fffa5c0

2ffed978 <plat_log_get_prefix>:
2ffed978:	2832      	cmp	r0, #50	@ 0x32
2ffed97a:	f04f 030a 	mov.w	r3, #10
2ffed97e:	bf28      	it	cs
2ffed980:	2032      	movcs	r0, #50	@ 0x32
2ffed982:	280a      	cmp	r0, #10
2ffed984:	bf38      	it	cc
2ffed986:	200a      	movcc	r0, #10
2ffed988:	fbb0 f0f3 	udiv	r0, r0, r3
2ffed98c:	4b02      	ldr	r3, [pc, #8]	@ (2ffed998 <plat_log_get_prefix+0x20>)
2ffed98e:	3801      	subs	r0, #1
2ffed990:	f853 0020 	ldr.w	r0, [r3, r0, lsl #2]
2ffed994:	4770      	bx	lr
2ffed996:	bf00      	nop
2ffed998:	2fff5c88 	.word	0x2fff5c88

2ffed99c <read_uuid>:
2ffed99c:	e92d 47f0 	stmdb	sp!, {r4, r5, r6, r7, r8, r9, sl, lr}
2ffed9a0:	460e      	mov	r6, r1
2ffed9a2:	4605      	mov	r5, r0
2ffed9a4:	2124      	movs	r1, #36	@ 0x24
2ffed9a6:	4630      	mov	r0, r6
2ffed9a8:	f007 fe86 	bl	2fff56b8 <strnlen>
2ffed9ac:	2824      	cmp	r0, #36	@ 0x24
2ffed9ae:	d006      	beq.n	2ffed9be <read_uuid+0x22>
2ffed9b0:	482a      	ldr	r0, [pc, #168]	@ (2ffeda5c <read_uuid+0xc0>)
2ffed9b2:	f7ff ff31 	bl	2ffed818 <tf_log>
2ffed9b6:	f06f 0015 	mvn.w	r0, #21
2ffed9ba:	e8bd 87f0 	ldmia.w	sp!, {r4, r5, r6, r7, r8, r9, sl, pc}
2ffed9be:	2208      	movs	r2, #8
2ffed9c0:	4631      	mov	r1, r6
2ffed9c2:	4628      	mov	r0, r5
2ffed9c4:	f006 fb84 	bl	2fff40d0 <read_hex.part.0>
2ffed9c8:	7a37      	ldrb	r7, [r6, #8]
2ffed9ca:	2204      	movs	r2, #4
2ffed9cc:	4682      	mov	sl, r0
2ffed9ce:	f106 0109 	add.w	r1, r6, #9
2ffed9d2:	3f2d      	subs	r7, #45	@ 0x2d
2ffed9d4:	eb05 0002 	add.w	r0, r5, r2
2ffed9d8:	bf18      	it	ne
2ffed9da:	f04f 37ff 	movne.w	r7, #4294967295	@ 0xffffffff
2ffed9de:	f006 fb77 	bl	2fff40d0 <read_hex.part.0>
2ffed9e2:	7b74      	ldrb	r4, [r6, #13]
2ffed9e4:	4681      	mov	r9, r0
2ffed9e6:	2204      	movs	r2, #4
2ffed9e8:	f106 010e 	add.w	r1, r6, #14
2ffed9ec:	3c2d      	subs	r4, #45	@ 0x2d
2ffed9ee:	f105 0006 	add.w	r0, r5, #6
2ffed9f2:	bf18      	it	ne
2ffed9f4:	f04f 34ff 	movne.w	r4, #4294967295	@ 0xffffffff
2ffed9f8:	f006 fb6a 	bl	2fff40d0 <read_hex.part.0>
2ffed9fc:	433c      	orrs	r4, r7
2ffed9fe:	4680      	mov	r8, r0
2ffeda00:	7cb7      	ldrb	r7, [r6, #18]
2ffeda02:	2204      	movs	r2, #4
2ffeda04:	f106 0113 	add.w	r1, r6, #19
2ffeda08:	f105 0008 	add.w	r0, r5, #8
2ffeda0c:	3f2d      	subs	r7, #45	@ 0x2d
2ffeda0e:	bf18      	it	ne
2ffeda10:	f04f 37ff 	movne.w	r7, #4294967295	@ 0xffffffff
2ffeda14:	f006 fb5c 	bl	2fff40d0 <read_hex.part.0>
2ffeda18:	4327      	orrs	r7, r4
2ffeda1a:	220c      	movs	r2, #12
2ffeda1c:	7df4      	ldrb	r4, [r6, #23]
2ffeda1e:	f106 0118 	add.w	r1, r6, #24
2ffeda22:	3c2d      	subs	r4, #45	@ 0x2d
2ffeda24:	bf18      	it	ne
2ffeda26:	f04f 34ff 	movne.w	r4, #4294967295	@ 0xffffffff
2ffeda2a:	433c      	orrs	r4, r7
2ffeda2c:	ea44 040a 	orr.w	r4, r4, sl
2ffeda30:	ea44 0409 	orr.w	r4, r4, r9
2ffeda34:	ea44 0408 	orr.w	r4, r4, r8
2ffeda38:	4304      	orrs	r4, r0
2ffeda3a:	f105 000a 	add.w	r0, r5, #10
2ffeda3e:	f006 fb47 	bl	2fff40d0 <read_hex.part.0>
2ffeda42:	4304      	orrs	r4, r0
2ffeda44:	d508      	bpl.n	2ffeda58 <read_uuid+0xbc>
2ffeda46:	4806      	ldr	r0, [pc, #24]	@ (2ffeda60 <read_uuid+0xc4>)
2ffeda48:	f7ff fee6 	bl	2ffed818 <tf_log>
2ffeda4c:	2210      	movs	r2, #16
2ffeda4e:	2100      	movs	r1, #0
2ffeda50:	4628      	mov	r0, r5
2ffeda52:	f007 fd09 	bl	2fff5468 <memset>
2ffeda56:	e7ae      	b.n	2ffed9b6 <read_uuid+0x1a>
2ffeda58:	2000      	movs	r0, #0
2ffeda5a:	e7ae      	b.n	2ffed9ba <read_uuid+0x1e>
2ffeda5c:	2fff83c6 	.word	0x2fff83c6
2ffeda60:	2fff83e1 	.word	0x2fff83e1

2ffeda64 <stm32_get_bootinfo_cell.isra.0>:
2ffeda64:	b537      	push	{r0, r1, r2, r4, r5, lr}
2ffeda66:	2300      	movs	r3, #0
2ffeda68:	9301      	str	r3, [sp, #4]
2ffeda6a:	4604      	mov	r4, r0
2ffeda6c:	a801      	add	r0, sp, #4
2ffeda6e:	460d      	mov	r5, r1
2ffeda70:	f002 f83a 	bl	2ffefae8 <fdt_get_address>
2ffeda74:	b160      	cbz	r0, 2ffeda90 <stm32_get_bootinfo_cell.isra.0+0x2c>
2ffeda76:	4a07      	ldr	r2, [pc, #28]	@ (2ffeda94 <stm32_get_bootinfo_cell.isra.0+0x30>)
2ffeda78:	f04f 31ff 	mov.w	r1, #4294967295	@ 0xffffffff
2ffeda7c:	9801      	ldr	r0, [sp, #4]
2ffeda7e:	f007 fc9b 	bl	2fff53b8 <fdt_node_offset_by_compatible>
2ffeda82:	1e01      	subs	r1, r0, #0
2ffeda84:	db04      	blt.n	2ffeda90 <stm32_get_bootinfo_cell.isra.0+0x2c>
2ffeda86:	9801      	ldr	r0, [sp, #4]
2ffeda88:	462b      	mov	r3, r5
2ffeda8a:	4622      	mov	r2, r4
2ffeda8c:	f001 fb52 	bl	2ffef134 <nvmem_get_cell_by_name>
2ffeda90:	b003      	add	sp, #12
2ffeda92:	bd30      	pop	{r4, r5, pc}
2ffeda94:	2fff83f6 	.word	0x2fff83f6

2ffeda98 <stm32mp_save_boot_ctx_address>:
2ffeda98:	4b0c      	ldr	r3, [pc, #48]	@ (2ffedacc <stm32mp_save_boot_ctx_address+0x34>)
2ffeda9a:	7842      	ldrb	r2, [r0, #1]
2ffeda9c:	6018      	str	r0, [r3, #0]
2ffeda9e:	7803      	ldrb	r3, [r0, #0]
2ffedaa0:	ea43 2302 	orr.w	r3, r3, r2, lsl #8
2ffedaa4:	4a0a      	ldr	r2, [pc, #40]	@ (2ffedad0 <stm32mp_save_boot_ctx_address+0x38>)
2ffedaa6:	8013      	strh	r3, [r2, #0]
2ffedaa8:	f890 204d 	ldrb.w	r2, [r0, #77]	@ 0x4d
2ffedaac:	f890 304c 	ldrb.w	r3, [r0, #76]	@ 0x4c
2ffedab0:	ea43 2302 	orr.w	r3, r3, r2, lsl #8
2ffedab4:	f890 204e 	ldrb.w	r2, [r0, #78]	@ 0x4e
2ffedab8:	ea43 4302 	orr.w	r3, r3, r2, lsl #16
2ffedabc:	f890 204f 	ldrb.w	r2, [r0, #79]	@ 0x4f
2ffedac0:	ea43 6302 	orr.w	r3, r3, r2, lsl #24
2ffedac4:	4a03      	ldr	r2, [pc, #12]	@ (2ffedad4 <stm32mp_save_boot_ctx_address+0x3c>)
2ffedac6:	6013      	str	r3, [r2, #0]
2ffedac8:	4770      	bx	lr
2ffedaca:	bf00      	nop
2ffedacc:	2fffbb0c 	.word	0x2fffbb0c
2ffedad0:	2fffc100 	.word	0x2fffc100
2ffedad4:	2fffbb08 	.word	0x2fffbb08

2ffedad8 <stm32mp_get_boot_ctx_address>:
2ffedad8:	4b01      	ldr	r3, [pc, #4]	@ (2ffedae0 <stm32mp_get_boot_ctx_address+0x8>)
2ffedada:	6818      	ldr	r0, [r3, #0]
2ffedadc:	4770      	bx	lr
2ffedade:	bf00      	nop
2ffedae0:	2fffbb0c 	.word	0x2fffbb0c

2ffedae4 <stm32mp_get_boot_itf_selected>:
2ffedae4:	4b01      	ldr	r3, [pc, #4]	@ (2ffedaec <stm32mp_get_boot_itf_selected+0x8>)
2ffedae6:	8818      	ldrh	r0, [r3, #0]
2ffedae8:	4770      	bx	lr
2ffedaea:	bf00      	nop
2ffedaec:	2fffc100 	.word	0x2fffc100

2ffedaf0 <stm32mp_get_boot_action>:
2ffedaf0:	4b01      	ldr	r3, [pc, #4]	@ (2ffedaf8 <stm32mp_get_boot_action+0x8>)
2ffedaf2:	6818      	ldr	r0, [r3, #0]
2ffedaf4:	4770      	bx	lr
2ffedaf6:	bf00      	nop
2ffedaf8:	2fffbb08 	.word	0x2fffbb08

2ffedafc <stm32mp_ddrctrl_base>:
2ffedafc:	4800      	ldr	r0, [pc, #0]	@ (2ffedb00 <stm32mp_ddrctrl_base+0x4>)
2ffedafe:	4770      	bx	lr
2ffedb00:	5a003000 	.word	0x5a003000

2ffedb04 <stm32mp_ddrphyc_base>:
2ffedb04:	4800      	ldr	r0, [pc, #0]	@ (2ffedb08 <stm32mp_ddrphyc_base+0x4>)
2ffedb06:	4770      	bx	lr
2ffedb08:	5a004000 	.word	0x5a004000

2ffedb0c <stm32mp_pwr_base>:
2ffedb0c:	4800      	ldr	r0, [pc, #0]	@ (2ffedb10 <stm32mp_pwr_base+0x4>)
2ffedb0e:	4770      	bx	lr
2ffedb10:	50001000 	.word	0x50001000

2ffedb14 <stm32mp_pwr_regs_lock>:
2ffedb14:	b508      	push	{r3, lr}
2ffedb16:	f006 fb17 	bl	2fff4148 <stm32mp_lock_available>
2ffedb1a:	b120      	cbz	r0, 2ffedb26 <stm32mp_pwr_regs_lock+0x12>
2ffedb1c:	e8bd 4008 	ldmia.w	sp!, {r3, lr}
2ffedb20:	4801      	ldr	r0, [pc, #4]	@ (2ffedb28 <stm32mp_pwr_regs_lock+0x14>)
2ffedb22:	f00b bebd 	b.w	2fff98a0 <__spin_lock_from_thumb>
2ffedb26:	bd08      	pop	{r3, pc}
2ffedb28:	2fffbb10 	.word	0x2fffbb10

2ffedb2c <stm32mp_pwr_regs_unlock>:
2ffedb2c:	b508      	push	{r3, lr}
2ffedb2e:	f006 fb0b 	bl	2fff4148 <stm32mp_lock_available>
2ffedb32:	b120      	cbz	r0, 2ffedb3e <stm32mp_pwr_regs_unlock+0x12>
2ffedb34:	e8bd 4008 	ldmia.w	sp!, {r3, lr}
2ffedb38:	4801      	ldr	r0, [pc, #4]	@ (2ffedb40 <stm32mp_pwr_regs_unlock+0x14>)
2ffedb3a:	f00b bebd 	b.w	2fff98b8 <__spin_unlock_from_thumb>
2ffedb3e:	bd08      	pop	{r3, pc}
2ffedb40:	2fffbb10 	.word	0x2fffbb10

2ffedb44 <stm32_get_otp_index>:
2ffedb44:	b508      	push	{r3, lr}
2ffedb46:	b918      	cbnz	r0, 2ffedb50 <stm32_get_otp_index+0xc>
2ffedb48:	21af      	movs	r1, #175	@ 0xaf
2ffedb4a:	4805      	ldr	r0, [pc, #20]	@ (2ffedb60 <stm32_get_otp_index+0x1c>)
2ffedb4c:	f005 fdee 	bl	2fff372c <__assert>
2ffedb50:	b909      	cbnz	r1, 2ffedb56 <stm32_get_otp_index+0x12>
2ffedb52:	21b0      	movs	r1, #176	@ 0xb0
2ffedb54:	e7f9      	b.n	2ffedb4a <stm32_get_otp_index+0x6>
2ffedb56:	e8bd 4008 	ldmia.w	sp!, {r3, lr}
2ffedb5a:	f002 b929 	b.w	2ffefdb0 <dt_find_otp_name>
2ffedb5e:	bf00      	nop
2ffedb60:	2fff840a 	.word	0x2fff840a

2ffedb64 <stm32_get_otp_value_from_idx>:
2ffedb64:	b510      	push	{r4, lr}
2ffedb66:	4604      	mov	r4, r0
2ffedb68:	4608      	mov	r0, r1
2ffedb6a:	b919      	cbnz	r1, 2ffedb74 <stm32_get_otp_value_from_idx+0x10>
2ffedb6c:	4807      	ldr	r0, [pc, #28]	@ (2ffedb8c <stm32_get_otp_value_from_idx+0x28>)
2ffedb6e:	21cc      	movs	r1, #204	@ 0xcc
2ffedb70:	f005 fddc 	bl	2fff372c <__assert>
2ffedb74:	4621      	mov	r1, r4
2ffedb76:	f002 feb7 	bl	2fff08e8 <bsec_shadow_read_otp>
2ffedb7a:	b128      	cbz	r0, 2ffedb88 <stm32_get_otp_value_from_idx+0x24>
2ffedb7c:	4804      	ldr	r0, [pc, #16]	@ (2ffedb90 <stm32_get_otp_value_from_idx+0x2c>)
2ffedb7e:	4621      	mov	r1, r4
2ffedb80:	f7ff fe4a 	bl	2ffed818 <tf_log>
2ffedb84:	f04f 30ff 	mov.w	r0, #4294967295	@ 0xffffffff
2ffedb88:	bd10      	pop	{r4, pc}
2ffedb8a:	bf00      	nop
2ffedb8c:	2fff840a 	.word	0x2fff840a
2ffedb90:	2fff842a 	.word	0x2fff842a

2ffedb94 <stm32_get_otp_value>:
2ffedb94:	b537      	push	{r0, r1, r2, r4, r5, lr}
2ffedb96:	460d      	mov	r5, r1
2ffedb98:	4604      	mov	r4, r0
2ffedb9a:	b918      	cbnz	r0, 2ffedba4 <stm32_get_otp_value+0x10>
2ffedb9c:	21b9      	movs	r1, #185	@ 0xb9
2ffedb9e:	480c      	ldr	r0, [pc, #48]	@ (2ffedbd0 <stm32_get_otp_value+0x3c>)
2ffedba0:	f005 fdc4 	bl	2fff372c <__assert>
2ffedba4:	b909      	cbnz	r1, 2ffedbaa <stm32_get_otp_value+0x16>
2ffedba6:	21ba      	movs	r1, #186	@ 0xba
2ffedba8:	e7f9      	b.n	2ffedb9e <stm32_get_otp_value+0xa>
2ffedbaa:	2200      	movs	r2, #0
2ffedbac:	a901      	add	r1, sp, #4
2ffedbae:	f7ff ffc9 	bl	2ffedb44 <stm32_get_otp_index>
2ffedbb2:	b940      	cbnz	r0, 2ffedbc6 <stm32_get_otp_value+0x32>
2ffedbb4:	9801      	ldr	r0, [sp, #4]
2ffedbb6:	4629      	mov	r1, r5
2ffedbb8:	f7ff ffd4 	bl	2ffedb64 <stm32_get_otp_value_from_idx>
2ffedbbc:	b128      	cbz	r0, 2ffedbca <stm32_get_otp_value+0x36>
2ffedbbe:	4805      	ldr	r0, [pc, #20]	@ (2ffedbd4 <stm32_get_otp_value+0x40>)
2ffedbc0:	4621      	mov	r1, r4
2ffedbc2:	f7ff fe29 	bl	2ffed818 <tf_log>
2ffedbc6:	f04f 30ff 	mov.w	r0, #4294967295	@ 0xffffffff
2ffedbca:	b003      	add	sp, #12
2ffedbcc:	bd30      	pop	{r4, r5, pc}
2ffedbce:	bf00      	nop
2ffedbd0:	2fff840a 	.word	0x2fff840a
2ffedbd4:	2fff8444 	.word	0x2fff8444

2ffedbd8 <stm32mp_uart_console_setup>:
2ffedbd8:	b51f      	push	{r0, r1, r2, r3, r4, lr}
2ffedbda:	4668      	mov	r0, sp
2ffedbdc:	f002 f840 	bl	2ffefc60 <dt_get_stdout_uart_info>
2ffedbe0:	2800      	cmp	r0, #0
2ffedbe2:	dc04      	bgt.n	2ffedbee <stm32mp_uart_console_setup+0x16>
2ffedbe4:	f06f 0412 	mvn.w	r4, #18
2ffedbe8:	4620      	mov	r0, r4
2ffedbea:	b004      	add	sp, #16
2ffedbec:	bd10      	pop	{r4, pc}
2ffedbee:	9b03      	ldr	r3, [sp, #12]
2ffedbf0:	2b00      	cmp	r3, #0
2ffedbf2:	d0f7      	beq.n	2ffedbe4 <stm32mp_uart_console_setup+0xc>
2ffedbf4:	9b01      	ldr	r3, [sp, #4]
2ffedbf6:	9a02      	ldr	r2, [sp, #8]
2ffedbf8:	4313      	orrs	r3, r2
2ffedbfa:	d4f3      	bmi.n	2ffedbe4 <stm32mp_uart_console_setup+0xc>
2ffedbfc:	f001 ffc8 	bl	2ffefb90 <dt_set_stdout_pinctrl>
2ffedc00:	2800      	cmp	r0, #0
2ffedc02:	d1ef      	bne.n	2ffedbe4 <stm32mp_uart_console_setup+0xc>
2ffedc04:	9801      	ldr	r0, [sp, #4]
2ffedc06:	f000 fe3b 	bl	2ffee880 <clk_enable>
2ffedc0a:	9c02      	ldr	r4, [sp, #8]
2ffedc0c:	f44f 717a 	mov.w	r1, #1000	@ 0x3e8
2ffedc10:	4620      	mov	r0, r4
2ffedc12:	f004 f8e1 	bl	2fff1dd8 <stm32mp_reset_assert>
2ffedc16:	b118      	cbz	r0, 2ffedc20 <stm32mp_uart_console_setup+0x48>
2ffedc18:	f7ff fe9a 	bl	2ffed950 <console_flush>
2ffedc1c:	f7fb ebde 	blx	2ffe93dc <do_panic>
2ffedc20:	2002      	movs	r0, #2
2ffedc22:	f000 fe8d 	bl	2ffee940 <udelay>
2ffedc26:	4620      	mov	r0, r4
2ffedc28:	f44f 717a 	mov.w	r1, #1000	@ 0x3e8
2ffedc2c:	f004 f904 	bl	2fff1e38 <stm32mp_reset_deassert>
2ffedc30:	4604      	mov	r4, r0
2ffedc32:	2800      	cmp	r0, #0
2ffedc34:	d1f0      	bne.n	2ffedc18 <stm32mp_uart_console_setup+0x40>
2ffedc36:	2001      	movs	r0, #1
2ffedc38:	f006 fbdc 	bl	2fff43f4 <mdelay>
2ffedc3c:	9801      	ldr	r0, [sp, #4]
2ffedc3e:	f000 fe43 	bl	2ffee8c8 <clk_get_rate>
2ffedc42:	4b07      	ldr	r3, [pc, #28]	@ (2ffedc60 <stm32mp_uart_console_setup+0x88>)
2ffedc44:	4601      	mov	r1, r0
2ffedc46:	9800      	ldr	r0, [sp, #0]
2ffedc48:	f44f 32e1 	mov.w	r2, #115200	@ 0x1c200
2ffedc4c:	f7fb eda2 	blx	2ffe9794 <console_stm32_register>
2ffedc50:	2800      	cmp	r0, #0
2ffedc52:	d0e1      	beq.n	2ffedc18 <stm32mp_uart_console_setup+0x40>
2ffedc54:	4802      	ldr	r0, [pc, #8]	@ (2ffedc60 <stm32mp_uart_console_setup+0x88>)
2ffedc56:	f240 1105 	movw	r1, #261	@ 0x105
2ffedc5a:	f7ff fe3f 	bl	2ffed8dc <console_set_scope>
2ffedc5e:	e7c3      	b.n	2ffedbe8 <stm32mp_uart_console_setup+0x10>
2ffedc60:	2fffbb14 	.word	0x2fffbb14

2ffedc64 <stm32_display_board_info>:
2ffedc64:	f000 030f 	and.w	r3, r0, #15
2ffedc68:	b507      	push	{r0, r1, r2, lr}
2ffedc6a:	9301      	str	r3, [sp, #4]
2ffedc6c:	f3c0 2303 	ubfx	r3, r0, #8, #4
2ffedc70:	f3c0 3203 	ubfx	r2, r0, #12, #4
2ffedc74:	3340      	adds	r3, #64	@ 0x40
2ffedc76:	0c01      	lsrs	r1, r0, #16
2ffedc78:	9300      	str	r3, [sp, #0]
2ffedc7a:	f3c0 1303 	ubfx	r3, r0, #4, #4
2ffedc7e:	4803      	ldr	r0, [pc, #12]	@ (2ffedc8c <stm32_display_board_info+0x28>)
2ffedc80:	f7ff fdca 	bl	2ffed818 <tf_log>
2ffedc84:	b003      	add	sp, #12
2ffedc86:	f85d fb04 	ldr.w	pc, [sp], #4
2ffedc8a:	bf00      	nop
2ffedc8c:	2fff845a 	.word	0x2fff845a

2ffedc90 <stm32_get_magic_number_cell>:
2ffedc90:	b538      	push	{r3, r4, r5, lr}
2ffedc92:	4604      	mov	r4, r0
2ffedc94:	4d07      	ldr	r5, [pc, #28]	@ (2ffedcb4 <stm32_get_magic_number_cell+0x24>)
2ffedc96:	782b      	ldrb	r3, [r5, #0]
2ffedc98:	b92b      	cbnz	r3, 2ffedca6 <stm32_get_magic_number_cell+0x16>
2ffedc9a:	4907      	ldr	r1, [pc, #28]	@ (2ffedcb8 <stm32_get_magic_number_cell+0x28>)
2ffedc9c:	4807      	ldr	r0, [pc, #28]	@ (2ffedcbc <stm32_get_magic_number_cell+0x2c>)
2ffedc9e:	f7ff fee1 	bl	2ffeda64 <stm32_get_bootinfo_cell.isra.0>
2ffedca2:	2301      	movs	r3, #1
2ffedca4:	702b      	strb	r3, [r5, #0]
2ffedca6:	4904      	ldr	r1, [pc, #16]	@ (2ffedcb8 <stm32_get_magic_number_cell+0x28>)
2ffedca8:	220c      	movs	r2, #12
2ffedcaa:	4620      	mov	r0, r4
2ffedcac:	f007 fbbb 	bl	2fff5426 <memcpy>
2ffedcb0:	2000      	movs	r0, #0
2ffedcb2:	bd38      	pop	{r3, r4, r5, pc}
2ffedcb4:	2fffc3f3 	.word	0x2fffc3f3
2ffedcb8:	2fffbafc 	.word	0x2fffbafc
2ffedcbc:	2fff847f 	.word	0x2fff847f

2ffedcc0 <stm32_get_core1_branch_address_cell>:
2ffedcc0:	b538      	push	{r3, r4, r5, lr}
2ffedcc2:	4604      	mov	r4, r0
2ffedcc4:	4d07      	ldr	r5, [pc, #28]	@ (2ffedce4 <stm32_get_core1_branch_address_cell+0x24>)
2ffedcc6:	782b      	ldrb	r3, [r5, #0]
2ffedcc8:	b92b      	cbnz	r3, 2ffedcd6 <stm32_get_core1_branch_address_cell+0x16>
2ffedcca:	4907      	ldr	r1, [pc, #28]	@ (2ffedce8 <stm32_get_core1_branch_address_cell+0x28>)
2ffedccc:	4807      	ldr	r0, [pc, #28]	@ (2ffedcec <stm32_get_core1_branch_address_cell+0x2c>)
2ffedcce:	f7ff fec9 	bl	2ffeda64 <stm32_get_bootinfo_cell.isra.0>
2ffedcd2:	2301      	movs	r3, #1
2ffedcd4:	702b      	strb	r3, [r5, #0]
2ffedcd6:	4904      	ldr	r1, [pc, #16]	@ (2ffedce8 <stm32_get_core1_branch_address_cell+0x28>)
2ffedcd8:	220c      	movs	r2, #12
2ffedcda:	4620      	mov	r0, r4
2ffedcdc:	f007 fba3 	bl	2fff5426 <memcpy>
2ffedce0:	2000      	movs	r0, #0
2ffedce2:	bd38      	pop	{r3, r4, r5, pc}
2ffedce4:	2fffc3f2 	.word	0x2fffc3f2
2ffedce8:	2fffbaf0 	.word	0x2fffbaf0
2ffedcec:	2fff848c 	.word	0x2fff848c

2ffedcf0 <stm32_get_fwu_info_cell>:
2ffedcf0:	b538      	push	{r3, r4, r5, lr}
2ffedcf2:	4604      	mov	r4, r0
2ffedcf4:	4d07      	ldr	r5, [pc, #28]	@ (2ffedd14 <stm32_get_fwu_info_cell+0x24>)
2ffedcf6:	782b      	ldrb	r3, [r5, #0]
2ffedcf8:	b92b      	cbnz	r3, 2ffedd06 <stm32_get_fwu_info_cell+0x16>
2ffedcfa:	4907      	ldr	r1, [pc, #28]	@ (2ffedd18 <stm32_get_fwu_info_cell+0x28>)
2ffedcfc:	4807      	ldr	r0, [pc, #28]	@ (2ffedd1c <stm32_get_fwu_info_cell+0x2c>)
2ffedcfe:	f7ff feb1 	bl	2ffeda64 <stm32_get_bootinfo_cell.isra.0>
2ffedd02:	2301      	movs	r3, #1
2ffedd04:	702b      	strb	r3, [r5, #0]
2ffedd06:	4904      	ldr	r1, [pc, #16]	@ (2ffedd18 <stm32_get_fwu_info_cell+0x28>)
2ffedd08:	220c      	movs	r2, #12
2ffedd0a:	4620      	mov	r0, r4
2ffedd0c:	f007 fb8b 	bl	2fff5426 <memcpy>
2ffedd10:	2000      	movs	r0, #0
2ffedd12:	bd38      	pop	{r3, r4, r5, pc}
2ffedd14:	2fffc3f1 	.word	0x2fffc3f1
2ffedd18:	2fffbae4 	.word	0x2fffbae4
2ffedd1c:	2fff84a1 	.word	0x2fff84a1

2ffedd20 <stm32_get_boot_mode_cell>:
2ffedd20:	b538      	push	{r3, r4, r5, lr}
2ffedd22:	4604      	mov	r4, r0
2ffedd24:	4d07      	ldr	r5, [pc, #28]	@ (2ffedd44 <stm32_get_boot_mode_cell+0x24>)
2ffedd26:	782b      	ldrb	r3, [r5, #0]
2ffedd28:	b92b      	cbnz	r3, 2ffedd36 <stm32_get_boot_mode_cell+0x16>
2ffedd2a:	4907      	ldr	r1, [pc, #28]	@ (2ffedd48 <stm32_get_boot_mode_cell+0x28>)
2ffedd2c:	4807      	ldr	r0, [pc, #28]	@ (2ffedd4c <stm32_get_boot_mode_cell+0x2c>)
2ffedd2e:	f7ff fe99 	bl	2ffeda64 <stm32_get_bootinfo_cell.isra.0>
2ffedd32:	2301      	movs	r3, #1
2ffedd34:	702b      	strb	r3, [r5, #0]
2ffedd36:	4904      	ldr	r1, [pc, #16]	@ (2ffedd48 <stm32_get_boot_mode_cell+0x28>)
2ffedd38:	220c      	movs	r2, #12
2ffedd3a:	4620      	mov	r0, r4
2ffedd3c:	f007 fb73 	bl	2fff5426 <memcpy>
2ffedd40:	2000      	movs	r0, #0
2ffedd42:	bd38      	pop	{r3, r4, r5, pc}
2ffedd44:	2fffc3f0 	.word	0x2fffc3f0
2ffedd48:	2fffbad8 	.word	0x2fffbad8
2ffedd4c:	2fff84aa 	.word	0x2fff84aa

2ffedd50 <stm32_get_and_dec_fwu_trial_boot_cnt>:
2ffedd50:	b51f      	push	{r0, r1, r2, r3, r4, lr}
2ffedd52:	2400      	movs	r4, #0
2ffedd54:	9401      	str	r4, [sp, #4]
2ffedd56:	a801      	add	r0, sp, #4
2ffedd58:	9402      	str	r4, [sp, #8]
2ffedd5a:	9403      	str	r4, [sp, #12]
2ffedd5c:	9400      	str	r4, [sp, #0]
2ffedd5e:	f7ff ffc7 	bl	2ffedcf0 <stm32_get_fwu_info_cell>
2ffedd62:	2204      	movs	r2, #4
2ffedd64:	4623      	mov	r3, r4
2ffedd66:	eb0d 0002 	add.w	r0, sp, r2
2ffedd6a:	4669      	mov	r1, sp
2ffedd6c:	f006 fbf8 	bl	2fff4560 <nvmem_cell_read>
2ffedd70:	9c00      	ldr	r4, [sp, #0]
2ffedd72:	0923      	lsrs	r3, r4, #4
2ffedd74:	f3c4 1403 	ubfx	r4, r4, #4, #4
2ffedd78:	f013 0f0c 	tst.w	r3, #12
2ffedd7c:	d004      	beq.n	2ffedd88 <stm32_get_and_dec_fwu_trial_boot_cnt+0x38>
2ffedd7e:	4807      	ldr	r0, [pc, #28]	@ (2ffedd9c <stm32_get_and_dec_fwu_trial_boot_cnt+0x4c>)
2ffedd80:	f44f 711c 	mov.w	r1, #624	@ 0x270
2ffedd84:	f005 fcd2 	bl	2fff372c <__assert>
2ffedd88:	b12c      	cbz	r4, 2ffedd96 <stm32_get_and_dec_fwu_trial_boot_cnt+0x46>
2ffedd8a:	1e62      	subs	r2, r4, #1
2ffedd8c:	21f0      	movs	r1, #240	@ 0xf0
2ffedd8e:	a801      	add	r0, sp, #4
2ffedd90:	0112      	lsls	r2, r2, #4
2ffedd92:	f006 f9ba 	bl	2fff410a <stm32_nvmem_cell_clrset.isra.0>
2ffedd96:	4620      	mov	r0, r4
2ffedd98:	b004      	add	sp, #16
2ffedd9a:	bd10      	pop	{r4, pc}
2ffedd9c:	2fff840a 	.word	0x2fff840a

2ffedda0 <xlat_arch_regime_get_xn_desc>:
2ffedda0:	2801      	cmp	r0, #1
2ffedda2:	b508      	push	{r3, lr}
2ffedda4:	d005      	beq.n	2ffeddb2 <xlat_arch_regime_get_xn_desc+0x12>
2ffedda6:	2802      	cmp	r0, #2
2ffedda8:	d007      	beq.n	2ffeddba <xlat_arch_regime_get_xn_desc+0x1a>
2ffeddaa:	4806      	ldr	r0, [pc, #24]	@ (2ffeddc4 <xlat_arch_regime_get_xn_desc+0x24>)
2ffeddac:	2165      	movs	r1, #101	@ 0x65
2ffeddae:	f005 fcbd 	bl	2fff372c <__assert>
2ffeddb2:	2000      	movs	r0, #0
2ffeddb4:	f44f 01c0 	mov.w	r1, #6291456	@ 0x600000
2ffeddb8:	bd08      	pop	{r3, pc}
2ffeddba:	2000      	movs	r0, #0
2ffeddbc:	f44f 0180 	mov.w	r1, #4194304	@ 0x400000
2ffeddc0:	e7fa      	b.n	2ffeddb8 <xlat_arch_regime_get_xn_desc+0x18>
2ffeddc2:	bf00      	nop
2ffeddc4:	2fff84b4 	.word	0x2fff84b4

2ffeddc8 <xlat_arch_tlbi_va>:
2ffeddc8:	b508      	push	{r3, lr}
2ffeddca:	f3bf 8f4a 	dsb	ishst
2ffeddce:	f420 607f 	bic.w	r0, r0, #4080	@ 0xff0
2ffeddd2:	2901      	cmp	r1, #1
2ffeddd4:	f020 000f 	bic.w	r0, r0, #15
2ffeddd8:	d102      	bne.n	2ffedde0 <xlat_arch_tlbi_va+0x18>
2ffeddda:	ee08 0f73 	mcr	15, 0, r0, cr8, cr3, {3}
2ffeddde:	bd08      	pop	{r3, pc}
2ffedde0:	2902      	cmp	r1, #2
2ffedde2:	d003      	beq.n	2ffeddec <xlat_arch_tlbi_va+0x24>
2ffedde4:	4803      	ldr	r0, [pc, #12]	@ (2ffeddf4 <xlat_arch_tlbi_va+0x2c>)
2ffedde6:	2175      	movs	r1, #117	@ 0x75
2ffedde8:	f005 fca0 	bl	2fff372c <__assert>
2ffeddec:	ee88 0f33 	mcr	15, 4, r0, cr8, cr3, {1}
2ffeddf0:	e7f5      	b.n	2ffeddde <xlat_arch_tlbi_va+0x16>
2ffeddf2:	bf00      	nop
2ffeddf4:	2fff84b4 	.word	0x2fff84b4

2ffeddf8 <xlat_arch_current_el>:
2ffeddf8:	b508      	push	{r3, lr}
2ffeddfa:	f3ef 8300 	mrs	r3, CPSR
2ffeddfe:	f003 031f 	and.w	r3, r3, #31
2ffede02:	2b1a      	cmp	r3, #26
2ffede04:	d00f      	beq.n	2ffede26 <xlat_arch_current_el+0x2e>
2ffede06:	f3ef 8300 	mrs	r3, CPSR
2ffede0a:	f003 031f 	and.w	r3, r3, #31
2ffede0e:	2b13      	cmp	r3, #19
2ffede10:	d00b      	beq.n	2ffede2a <xlat_arch_current_el+0x32>
2ffede12:	f3ef 8300 	mrs	r3, CPSR
2ffede16:	f003 031f 	and.w	r3, r3, #31
2ffede1a:	2b16      	cmp	r3, #22
2ffede1c:	d005      	beq.n	2ffede2a <xlat_arch_current_el+0x32>
2ffede1e:	4804      	ldr	r0, [pc, #16]	@ (2ffede30 <xlat_arch_current_el+0x38>)
2ffede20:	2199      	movs	r1, #153	@ 0x99
2ffede22:	f005 fc83 	bl	2fff372c <__assert>
2ffede26:	2002      	movs	r0, #2
2ffede28:	bd08      	pop	{r3, pc}
2ffede2a:	2001      	movs	r0, #1
2ffede2c:	e7fc      	b.n	2ffede28 <xlat_arch_current_el+0x30>
2ffede2e:	bf00      	nop
2ffede30:	2fff84b4 	.word	0x2fff84b4

2ffede34 <is_mmu_enabled_ctx>:
2ffede34:	b508      	push	{r3, lr}
2ffede36:	6c43      	ldr	r3, [r0, #68]	@ 0x44
2ffede38:	2b01      	cmp	r3, #1
2ffede3a:	d10c      	bne.n	2ffede56 <is_mmu_enabled_ctx+0x22>
2ffede3c:	f7ff ffdc 	bl	2ffeddf8 <xlat_arch_current_el>
2ffede40:	2801      	cmp	r0, #1
2ffede42:	d003      	beq.n	2ffede4c <is_mmu_enabled_ctx+0x18>
2ffede44:	214e      	movs	r1, #78	@ 0x4e
2ffede46:	480a      	ldr	r0, [pc, #40]	@ (2ffede70 <is_mmu_enabled_ctx+0x3c>)
2ffede48:	f005 fc70 	bl	2fff372c <__assert>
2ffede4c:	ee11 0f10 	mrc	15, 0, r0, cr1, cr0, {0}
2ffede50:	f000 0001 	and.w	r0, r0, #1
2ffede54:	bd08      	pop	{r3, pc}
2ffede56:	2b02      	cmp	r3, #2
2ffede58:	d001      	beq.n	2ffede5e <is_mmu_enabled_ctx+0x2a>
2ffede5a:	2151      	movs	r1, #81	@ 0x51
2ffede5c:	e7f3      	b.n	2ffede46 <is_mmu_enabled_ctx+0x12>
2ffede5e:	f7ff ffcb 	bl	2ffeddf8 <xlat_arch_current_el>
2ffede62:	2802      	cmp	r0, #2
2ffede64:	d001      	beq.n	2ffede6a <is_mmu_enabled_ctx+0x36>
2ffede66:	2152      	movs	r1, #82	@ 0x52
2ffede68:	e7ed      	b.n	2ffede46 <is_mmu_enabled_ctx+0x12>
2ffede6a:	ee91 0f10 	mrc	15, 4, r0, cr1, cr0, {0}
2ffede6e:	e7ef      	b.n	2ffede50 <is_mmu_enabled_ctx+0x1c>
2ffede70:	2fff84b4 	.word	0x2fff84b4

2ffede74 <setup_mmu_cfg>:
2ffede74:	b5f8      	push	{r3, r4, r5, r6, r7, lr}
2ffede76:	460f      	mov	r7, r1
2ffede78:	4616      	mov	r6, r2
2ffede7a:	4604      	mov	r4, r0
2ffede7c:	e9dd 1208 	ldrd	r1, r2, [sp, #32]
2ffede80:	2a01      	cmp	r2, #1
2ffede82:	d10f      	bne.n	2ffedea4 <setup_mmu_cfg+0x30>
2ffede84:	f3ef 8200 	mrs	r2, CPSR
2ffede88:	f002 021f 	and.w	r2, r2, #31
2ffede8c:	2a13      	cmp	r2, #19
2ffede8e:	d015      	beq.n	2ffedebc <setup_mmu_cfg+0x48>
2ffede90:	f3ef 8200 	mrs	r2, CPSR
2ffede94:	f002 021f 	and.w	r2, r2, #31
2ffede98:	2a16      	cmp	r2, #22
2ffede9a:	d00f      	beq.n	2ffedebc <setup_mmu_cfg+0x48>
2ffede9c:	21c2      	movs	r1, #194	@ 0xc2
2ffede9e:	481c      	ldr	r0, [pc, #112]	@ (2ffedf10 <setup_mmu_cfg+0x9c>)
2ffedea0:	f005 fc44 	bl	2fff372c <__assert>
2ffedea4:	2a02      	cmp	r2, #2
2ffedea6:	d001      	beq.n	2ffedeac <setup_mmu_cfg+0x38>
2ffedea8:	21c9      	movs	r1, #201	@ 0xc9
2ffedeaa:	e7f8      	b.n	2ffede9e <setup_mmu_cfg+0x2a>
2ffedeac:	f3ef 8200 	mrs	r2, CPSR
2ffedeb0:	f002 021f 	and.w	r2, r2, #31
2ffedeb4:	2a1a      	cmp	r2, #26
2ffedeb6:	d00a      	beq.n	2ffedece <setup_mmu_cfg+0x5a>
2ffedeb8:	21ca      	movs	r1, #202	@ 0xca
2ffedeba:	e7f0      	b.n	2ffede9e <setup_mmu_cfg+0x2a>
2ffedebc:	4d15      	ldr	r5, [pc, #84]	@ (2ffedf14 <setup_mmu_cfg+0xa0>)
2ffedebe:	1c4a      	adds	r2, r1, #1
2ffedec0:	d010      	beq.n	2ffedee4 <setup_mmu_cfg+0x70>
2ffedec2:	1c48      	adds	r0, r1, #1
2ffedec4:	f1b0 7f00 	cmp.w	r0, #33554432	@ 0x2000000
2ffedec8:	d203      	bcs.n	2ffeded2 <setup_mmu_cfg+0x5e>
2ffedeca:	21dd      	movs	r1, #221	@ 0xdd
2ffedecc:	e7e7      	b.n	2ffede9e <setup_mmu_cfg+0x2a>
2ffedece:	4d12      	ldr	r5, [pc, #72]	@ (2ffedf18 <setup_mmu_cfg+0xa4>)
2ffeded0:	e7f5      	b.n	2ffedebe <setup_mmu_cfg+0x4a>
2ffeded2:	4001      	ands	r1, r0
2ffeded4:	d001      	beq.n	2ffededa <setup_mmu_cfg+0x66>
2ffeded6:	21df      	movs	r1, #223	@ 0xdf
2ffeded8:	e7e1      	b.n	2ffede9e <setup_mmu_cfg+0x2a>
2ffededa:	f006 f812 	bl	2fff3f02 <__ctzdi2>
2ffedede:	f1c0 0020 	rsb	r0, r0, #32
2ffedee2:	4305      	orrs	r5, r0
2ffedee4:	07bb      	lsls	r3, r7, #30
2ffedee6:	bf58      	it	pl
2ffedee8:	f445 5554 	orrpl.w	r5, r5, #13568	@ 0x3500
2ffedeec:	ee10 3fd2 	mrc	15, 0, r3, cr0, cr2, {6}
2ffedef0:	480a      	ldr	r0, [pc, #40]	@ (2ffedf1c <setup_mmu_cfg+0xa8>)
2ffedef2:	f413 4f70 	tst.w	r3, #61440	@ 0xf000
2ffedef6:	bf18      	it	ne
2ffedef8:	f046 0601 	orrne.w	r6, r6, #1
2ffedefc:	2300      	movs	r3, #0
2ffedefe:	2100      	movs	r1, #0
2ffedf00:	e9c4 0100 	strd	r0, r1, [r4]
2ffedf04:	e9c4 5302 	strd	r5, r3, [r4, #8]
2ffedf08:	e9c4 6304 	strd	r6, r3, [r4, #16]
2ffedf0c:	bdf8      	pop	{r3, r4, r5, r6, r7, pc}
2ffedf0e:	bf00      	nop
2ffedf10:	2fff84b4 	.word	0x2fff84b4
2ffedf14:	80800000 	.word	0x80800000
2ffedf18:	80803500 	.word	0x80803500
2ffedf1c:	004404ff 	.word	0x004404ff

2ffedf20 <mmap_add_region>:
2ffedf20:	b57f      	push	{r0, r1, r2, r3, r4, r5, r6, lr}
2ffedf22:	e9cd 2302 	strd	r2, r3, [sp, #8]
2ffedf26:	9b08      	ldr	r3, [sp, #32]
2ffedf28:	e9cd 0100 	strd	r0, r1, [sp]
2ffedf2c:	9304      	str	r3, [sp, #16]
2ffedf2e:	4669      	mov	r1, sp
2ffedf30:	4804      	ldr	r0, [pc, #16]	@ (2ffedf44 <mmap_add_region+0x24>)
2ffedf32:	f04f 4380 	mov.w	r3, #1073741824	@ 0x40000000
2ffedf36:	9305      	str	r3, [sp, #20]
2ffedf38:	f000 fa60 	bl	2ffee3fc <mmap_add_region_ctx>
2ffedf3c:	b007      	add	sp, #28
2ffedf3e:	f85d fb04 	ldr.w	pc, [sp], #4
2ffedf42:	bf00      	nop
2ffedf44:	2fffa000 	.word	0x2fffa000

2ffedf48 <mmap_add>:
2ffedf48:	4601      	mov	r1, r0
2ffedf4a:	4801      	ldr	r0, [pc, #4]	@ (2ffedf50 <mmap_add+0x8>)
2ffedf4c:	f006 ba44 	b.w	2fff43d8 <mmap_add_ctx>
2ffedf50:	2fffa000 	.word	0x2fffa000

2ffedf54 <mmap_add_dynamic_region>:
2ffedf54:	b57f      	push	{r0, r1, r2, r3, r4, r5, r6, lr}
2ffedf56:	e9cd 2302 	strd	r2, r3, [sp, #8]
2ffedf5a:	9b08      	ldr	r3, [sp, #32]
2ffedf5c:	e9cd 0100 	strd	r0, r1, [sp]
2ffedf60:	9304      	str	r3, [sp, #16]
2ffedf62:	4669      	mov	r1, sp
2ffedf64:	4804      	ldr	r0, [pc, #16]	@ (2ffedf78 <mmap_add_dynamic_region+0x24>)
2ffedf66:	f04f 4380 	mov.w	r3, #1073741824	@ 0x40000000
2ffedf6a:	9305      	str	r3, [sp, #20]
2ffedf6c:	f000 fabc 	bl	2ffee4e8 <mmap_add_dynamic_region_ctx>
2ffedf70:	b007      	add	sp, #28
2ffedf72:	f85d fb04 	ldr.w	pc, [sp], #4
2ffedf76:	bf00      	nop
2ffedf78:	2fffa000 	.word	0x2fffa000

2ffedf7c <mmap_remove_dynamic_region>:
2ffedf7c:	460a      	mov	r2, r1
2ffedf7e:	4601      	mov	r1, r0
2ffedf80:	4801      	ldr	r0, [pc, #4]	@ (2ffedf88 <mmap_remove_dynamic_region+0xc>)
2ffedf82:	f000 bb5b 	b.w	2ffee63c <mmap_remove_dynamic_region_ctx>
2ffedf86:	bf00      	nop
2ffedf88:	2fffa000 	.word	0x2fffa000

2ffedf8c <init_xlat_tables>:
2ffedf8c:	b510      	push	{r4, lr}
2ffedf8e:	4c0c      	ldr	r4, [pc, #48]	@ (2ffedfc0 <init_xlat_tables+0x34>)
2ffedf90:	6c63      	ldr	r3, [r4, #68]	@ 0x44
2ffedf92:	3301      	adds	r3, #1
2ffedf94:	d003      	beq.n	2ffedf9e <init_xlat_tables+0x12>
2ffedf96:	2161      	movs	r1, #97	@ 0x61
2ffedf98:	480a      	ldr	r0, [pc, #40]	@ (2ffedfc4 <init_xlat_tables+0x38>)
2ffedf9a:	f005 fbc7 	bl	2fff372c <__assert>
2ffedf9e:	f7ff ff2b 	bl	2ffeddf8 <xlat_arch_current_el>
2ffedfa2:	2801      	cmp	r0, #1
2ffedfa4:	d005      	beq.n	2ffedfb2 <init_xlat_tables+0x26>
2ffedfa6:	2802      	cmp	r0, #2
2ffedfa8:	d003      	beq.n	2ffedfb2 <init_xlat_tables+0x26>
2ffedfaa:	2803      	cmp	r0, #3
2ffedfac:	d001      	beq.n	2ffedfb2 <init_xlat_tables+0x26>
2ffedfae:	216a      	movs	r1, #106	@ 0x6a
2ffedfb0:	e7f2      	b.n	2ffedf98 <init_xlat_tables+0xc>
2ffedfb2:	6460      	str	r0, [r4, #68]	@ 0x44
2ffedfb4:	e8bd 4010 	ldmia.w	sp!, {r4, lr}
2ffedfb8:	4801      	ldr	r0, [pc, #4]	@ (2ffedfc0 <init_xlat_tables+0x34>)
2ffedfba:	f000 bbc1 	b.w	2ffee740 <init_xlat_tables_ctx>
2ffedfbe:	bf00      	nop
2ffedfc0:	2fffa000 	.word	0x2fffa000
2ffedfc4:	2fff84e2 	.word	0x2fff84e2

2ffedfc8 <enable_mmu_svc_mon>:
2ffedfc8:	b51f      	push	{r0, r1, r2, r3, r4, lr}
2ffedfca:	2201      	movs	r2, #1
2ffedfcc:	4b09      	ldr	r3, [pc, #36]	@ (2ffedff4 <enable_mmu_svc_mon+0x2c>)
2ffedfce:	4604      	mov	r4, r0
2ffedfd0:	9203      	str	r2, [sp, #12]
2ffedfd2:	689a      	ldr	r2, [r3, #8]
2ffedfd4:	9202      	str	r2, [sp, #8]
2ffedfd6:	e9d3 0100 	ldrd	r0, r1, [r3]
2ffedfda:	e9cd 0100 	strd	r0, r1, [sp]
2ffedfde:	4806      	ldr	r0, [pc, #24]	@ (2ffedff8 <enable_mmu_svc_mon+0x30>)
2ffedfe0:	4621      	mov	r1, r4
2ffedfe2:	6a5a      	ldr	r2, [r3, #36]	@ 0x24
2ffedfe4:	f7ff ff46 	bl	2ffede74 <setup_mmu_cfg>
2ffedfe8:	4620      	mov	r0, r4
2ffedfea:	b004      	add	sp, #16
2ffedfec:	e8bd 4010 	ldmia.w	sp!, {r4, lr}
2ffedff0:	f00b bc5a 	b.w	2fff98a8 <__enable_mmu_direct_svc_mon_from_thumb>
2ffedff4:	2fffa000 	.word	0x2fffa000
2ffedff8:	2fffb968 	.word	0x2fffb968

2ffedffc <xlat_table_get_index>:
2ffedffc:	4603      	mov	r3, r0
2ffedffe:	b510      	push	{r4, lr}
2ffee000:	6984      	ldr	r4, [r0, #24]
2ffee002:	2000      	movs	r0, #0
2ffee004:	4284      	cmp	r4, r0
2ffee006:	dc03      	bgt.n	2ffee010 <xlat_table_get_index+0x14>
2ffee008:	4805      	ldr	r0, [pc, #20]	@ (2ffee020 <xlat_table_get_index+0x24>)
2ffee00a:	2135      	movs	r1, #53	@ 0x35
2ffee00c:	f005 fb8e 	bl	2fff372c <__assert>
2ffee010:	695a      	ldr	r2, [r3, #20]
2ffee012:	eb02 3200 	add.w	r2, r2, r0, lsl #12
2ffee016:	4291      	cmp	r1, r2
2ffee018:	d001      	beq.n	2ffee01e <xlat_table_get_index+0x22>
2ffee01a:	3001      	adds	r0, #1
2ffee01c:	e7f2      	b.n	2ffee004 <xlat_table_get_index+0x8>
2ffee01e:	bd10      	pop	{r4, pc}
2ffee020:	2fff850b 	.word	0x2fff850b

2ffee024 <xlat_tables_unmap_region>:
2ffee024:	e92d 4ff0 	stmdb	sp!, {r4, r5, r6, r7, r8, r9, sl, fp, lr}
2ffee028:	b087      	sub	sp, #28
2ffee02a:	4605      	mov	r5, r0
2ffee02c:	4688      	mov	r8, r1
2ffee02e:	9f11      	ldr	r7, [sp, #68]	@ 0x44
2ffee030:	9303      	str	r3, [sp, #12]
2ffee032:	6bc3      	ldr	r3, [r0, #60]	@ 0x3c
2ffee034:	42bb      	cmp	r3, r7
2ffee036:	d801      	bhi.n	2ffee03c <xlat_tables_unmap_region+0x18>
2ffee038:	2f03      	cmp	r7, #3
2ffee03a:	d904      	bls.n	2ffee046 <xlat_tables_unmap_region+0x22>
2ffee03c:	f240 116b 	movw	r1, #363	@ 0x16b
2ffee040:	4846      	ldr	r0, [pc, #280]	@ (2ffee15c <xlat_tables_unmap_region+0x138>)
2ffee042:	f005 fb73 	bl	2fff372c <__assert>
2ffee046:	e9d1 1302 	ldrd	r1, r3, [r1, #8]
2ffee04a:	2001      	movs	r0, #1
2ffee04c:	440b      	add	r3, r1
2ffee04e:	4291      	cmp	r1, r2
2ffee050:	f103 33ff 	add.w	r3, r3, #4294967295	@ 0xffffffff
2ffee054:	9304      	str	r3, [sp, #16]
2ffee056:	f06f 0308 	mvn.w	r3, #8
2ffee05a:	fb07 f303 	mul.w	r3, r7, r3
2ffee05e:	bf98      	it	ls
2ffee060:	4616      	movls	r6, r2
2ffee062:	f103 0327 	add.w	r3, r3, #39	@ 0x27
2ffee066:	fa00 f003 	lsl.w	r0, r0, r3
2ffee06a:	9002      	str	r0, [sp, #8]
2ffee06c:	bf84      	itt	hi
2ffee06e:	4246      	neghi	r6, r0
2ffee070:	400e      	andhi	r6, r1
2ffee072:	1ab4      	subs	r4, r6, r2
2ffee074:	40dc      	lsrs	r4, r3
2ffee076:	9b03      	ldr	r3, [sp, #12]
2ffee078:	eb03 09c4 	add.w	r9, r3, r4, lsl #3
2ffee07c:	9b10      	ldr	r3, [sp, #64]	@ 0x40
2ffee07e:	429c      	cmp	r4, r3
2ffee080:	d259      	bcs.n	2ffee136 <xlat_tables_unmap_region+0x112>
2ffee082:	9b02      	ldr	r3, [sp, #8]
2ffee084:	e9d8 0202 	ldrd	r0, r2, [r8, #8]
2ffee088:	eb06 0b03 	add.w	fp, r6, r3
2ffee08c:	4286      	cmp	r6, r0
2ffee08e:	f10b 3cff 	add.w	ip, fp, #4294967295	@ 0xffffffff
2ffee092:	f8d9 3000 	ldr.w	r3, [r9]
2ffee096:	4402      	add	r2, r0
2ffee098:	f003 0103 	and.w	r1, r3, #3
2ffee09c:	f102 32ff 	add.w	r2, r2, #4294967295	@ 0xffffffff
2ffee0a0:	d30f      	bcc.n	2ffee0c2 <xlat_tables_unmap_region+0x9e>
2ffee0a2:	4562      	cmp	r2, ip
2ffee0a4:	d30d      	bcc.n	2ffee0c2 <xlat_tables_unmap_region+0x9e>
2ffee0a6:	2f03      	cmp	r7, #3
2ffee0a8:	f1a1 0203 	sub.w	r2, r1, #3
2ffee0ac:	d103      	bne.n	2ffee0b6 <xlat_tables_unmap_region+0x92>
2ffee0ae:	b3a2      	cbz	r2, 2ffee11a <xlat_tables_unmap_region+0xf6>
2ffee0b0:	f44f 719c 	mov.w	r1, #312	@ 0x138
2ffee0b4:	e7c4      	b.n	2ffee040 <xlat_tables_unmap_region+0x1c>
2ffee0b6:	b192      	cbz	r2, 2ffee0de <xlat_tables_unmap_region+0xba>
2ffee0b8:	2901      	cmp	r1, #1
2ffee0ba:	d02e      	beq.n	2ffee11a <xlat_tables_unmap_region+0xf6>
2ffee0bc:	f240 1147 	movw	r1, #327	@ 0x147
2ffee0c0:	e7be      	b.n	2ffee040 <xlat_tables_unmap_region+0x1c>
2ffee0c2:	4584      	cmp	ip, r0
2ffee0c4:	d201      	bcs.n	2ffee0ca <xlat_tables_unmap_region+0xa6>
2ffee0c6:	4296      	cmp	r6, r2
2ffee0c8:	d82f      	bhi.n	2ffee12a <xlat_tables_unmap_region+0x106>
2ffee0ca:	2f03      	cmp	r7, #3
2ffee0cc:	d102      	bne.n	2ffee0d4 <xlat_tables_unmap_region+0xb0>
2ffee0ce:	f44f 71ab 	mov.w	r1, #342	@ 0x156
2ffee0d2:	e7b5      	b.n	2ffee040 <xlat_tables_unmap_region+0x1c>
2ffee0d4:	2903      	cmp	r1, #3
2ffee0d6:	d002      	beq.n	2ffee0de <xlat_tables_unmap_region+0xba>
2ffee0d8:	f240 1157 	movw	r1, #343	@ 0x157
2ffee0dc:	e7b0      	b.n	2ffee040 <xlat_tables_unmap_region+0x1c>
2ffee0de:	f423 6a7f 	bic.w	sl, r3, #4080	@ 0xff0
2ffee0e2:	1c7a      	adds	r2, r7, #1
2ffee0e4:	f02a 0a0f 	bic.w	sl, sl, #15
2ffee0e8:	4641      	mov	r1, r8
2ffee0ea:	9201      	str	r2, [sp, #4]
2ffee0ec:	f44f 7200 	mov.w	r2, #512	@ 0x200
2ffee0f0:	9200      	str	r2, [sp, #0]
2ffee0f2:	4653      	mov	r3, sl
2ffee0f4:	4632      	mov	r2, r6
2ffee0f6:	4628      	mov	r0, r5
2ffee0f8:	f7ff ff94 	bl	2ffee024 <xlat_tables_unmap_region>
2ffee0fc:	f44f 5180 	mov.w	r1, #4096	@ 0x1000
2ffee100:	4650      	mov	r0, sl
2ffee102:	f006 f95c 	bl	2fff43be <xlat_clean_dcache_range>
2ffee106:	69ea      	ldr	r2, [r5, #28]
2ffee108:	4651      	mov	r1, sl
2ffee10a:	4628      	mov	r0, r5
2ffee10c:	9205      	str	r2, [sp, #20]
2ffee10e:	f7ff ff75 	bl	2ffedffc <xlat_table_get_index>
2ffee112:	9a05      	ldr	r2, [sp, #20]
2ffee114:	f852 3020 	ldr.w	r3, [r2, r0, lsl #2]
2ffee118:	b93b      	cbnz	r3, 2ffee12a <xlat_tables_unmap_region+0x106>
2ffee11a:	6c69      	ldr	r1, [r5, #68]	@ 0x44
2ffee11c:	2200      	movs	r2, #0
2ffee11e:	2300      	movs	r3, #0
2ffee120:	4630      	mov	r0, r6
2ffee122:	e9c9 2300 	strd	r2, r3, [r9]
2ffee126:	f7ff fe4f 	bl	2ffeddc8 <xlat_arch_tlbi_va>
2ffee12a:	9b04      	ldr	r3, [sp, #16]
2ffee12c:	3401      	adds	r4, #1
2ffee12e:	f109 0908 	add.w	r9, r9, #8
2ffee132:	459b      	cmp	fp, r3
2ffee134:	d30f      	bcc.n	2ffee156 <xlat_tables_unmap_region+0x132>
2ffee136:	6beb      	ldr	r3, [r5, #60]	@ 0x3c
2ffee138:	42bb      	cmp	r3, r7
2ffee13a:	d209      	bcs.n	2ffee150 <xlat_tables_unmap_region+0x12c>
2ffee13c:	9903      	ldr	r1, [sp, #12]
2ffee13e:	4628      	mov	r0, r5
2ffee140:	f7ff ff5c 	bl	2ffedffc <xlat_table_get_index>
2ffee144:	69ea      	ldr	r2, [r5, #28]
2ffee146:	f852 3020 	ldr.w	r3, [r2, r0, lsl #2]
2ffee14a:	3b01      	subs	r3, #1
2ffee14c:	f842 3020 	str.w	r3, [r2, r0, lsl #2]
2ffee150:	b007      	add	sp, #28
2ffee152:	e8bd 8ff0 	ldmia.w	sp!, {r4, r5, r6, r7, r8, r9, sl, fp, pc}
2ffee156:	465e      	mov	r6, fp
2ffee158:	e790      	b.n	2ffee07c <xlat_tables_unmap_region+0x58>
2ffee15a:	bf00      	nop
2ffee15c:	2fff850b 	.word	0x2fff850b

2ffee160 <xlat_desc>:
2ffee160:	e92d 41f0 	stmdb	sp!, {r4, r5, r6, r7, r8, lr}
2ffee164:	461e      	mov	r6, r3
2ffee166:	9b06      	ldr	r3, [sp, #24]
2ffee168:	460d      	mov	r5, r1
2ffee16a:	f06f 0108 	mvn.w	r1, #8
2ffee16e:	4614      	mov	r4, r2
2ffee170:	4359      	muls	r1, r3
2ffee172:	2201      	movs	r2, #1
2ffee174:	4607      	mov	r7, r0
2ffee176:	3127      	adds	r1, #39	@ 0x27
2ffee178:	408a      	lsls	r2, r1
2ffee17a:	3a01      	subs	r2, #1
2ffee17c:	4222      	tst	r2, r4
2ffee17e:	d003      	beq.n	2ffee188 <xlat_desc+0x28>
2ffee180:	2173      	movs	r1, #115	@ 0x73
2ffee182:	4827      	ldr	r0, [pc, #156]	@ (2ffee220 <xlat_desc+0xc0>)
2ffee184:	f005 fad2 	bl	2fff372c <__assert>
2ffee188:	2b03      	cmp	r3, #3
2ffee18a:	4628      	mov	r0, r5
2ffee18c:	bf14      	ite	ne
2ffee18e:	f04f 0801 	movne.w	r8, #1
2ffee192:	f04f 0803 	moveq.w	r8, #3
2ffee196:	f006 f85b 	bl	2fff4250 <xlat_arch_get_pas>
2ffee19a:	f085 0308 	eor.w	r3, r5, #8
2ffee19e:	f3c3 03c0 	ubfx	r3, r3, #3, #1
2ffee1a2:	ea44 14c3 	orr.w	r4, r4, r3, lsl #7
2ffee1a6:	ea44 0408 	orr.w	r4, r4, r8
2ffee1aa:	4304      	orrs	r4, r0
2ffee1ac:	6c78      	ldr	r0, [r7, #68]	@ 0x44
2ffee1ae:	2801      	cmp	r0, #1
2ffee1b0:	d110      	bne.n	2ffee1d4 <xlat_desc+0x74>
2ffee1b2:	062b      	lsls	r3, r5, #24
2ffee1b4:	d413      	bmi.n	2ffee1de <xlat_desc+0x7e>
2ffee1b6:	f444 6480 	orr.w	r4, r4, #1024	@ 0x400
2ffee1ba:	f015 0707 	ands.w	r7, r5, #7
2ffee1be:	4631      	mov	r1, r6
2ffee1c0:	d110      	bne.n	2ffee1e4 <xlat_desc+0x84>
2ffee1c2:	f7ff fded 	bl	2ffedda0 <xlat_arch_regime_get_xn_desc>
2ffee1c6:	4320      	orrs	r0, r4
2ffee1c8:	4331      	orrs	r1, r6
2ffee1ca:	f440 7401 	orr.w	r4, r0, #516	@ 0x204
2ffee1ce:	4620      	mov	r0, r4
2ffee1d0:	e8bd 81f0 	ldmia.w	sp!, {r4, r5, r6, r7, r8, pc}
2ffee1d4:	1e83      	subs	r3, r0, #2
2ffee1d6:	2b01      	cmp	r3, #1
2ffee1d8:	d901      	bls.n	2ffee1de <xlat_desc+0x7e>
2ffee1da:	2198      	movs	r1, #152	@ 0x98
2ffee1dc:	e7d1      	b.n	2ffee182 <xlat_desc+0x22>
2ffee1de:	f444 6488 	orr.w	r4, r4, #1088	@ 0x440
2ffee1e2:	e7ea      	b.n	2ffee1ba <xlat_desc+0x5a>
2ffee1e4:	f015 0f48 	tst.w	r5, #72	@ 0x48
2ffee1e8:	d003      	beq.n	2ffee1f2 <xlat_desc+0x92>
2ffee1ea:	f7ff fdd9 	bl	2ffedda0 <xlat_arch_regime_get_xn_desc>
2ffee1ee:	4304      	orrs	r4, r0
2ffee1f0:	4331      	orrs	r1, r6
2ffee1f2:	2f02      	cmp	r7, #2
2ffee1f4:	d10c      	bne.n	2ffee210 <xlat_desc+0xb0>
2ffee1f6:	f405 7040 	and.w	r0, r5, #768	@ 0x300
2ffee1fa:	f5b0 7f40 	cmp.w	r0, #768	@ 0x300
2ffee1fe:	d0e6      	beq.n	2ffee1ce <xlat_desc+0x6e>
2ffee200:	f5b0 7f00 	cmp.w	r0, #512	@ 0x200
2ffee204:	bf0c      	ite	eq
2ffee206:	f444 7400 	orreq.w	r4, r4, #512	@ 0x200
2ffee20a:	f444 7440 	orrne.w	r4, r4, #768	@ 0x300
2ffee20e:	e7de      	b.n	2ffee1ce <xlat_desc+0x6e>
2ffee210:	2f01      	cmp	r7, #1
2ffee212:	d001      	beq.n	2ffee218 <xlat_desc+0xb8>
2ffee214:	21e0      	movs	r1, #224	@ 0xe0
2ffee216:	e7b4      	b.n	2ffee182 <xlat_desc+0x22>
2ffee218:	f444 7402 	orr.w	r4, r4, #520	@ 0x208
2ffee21c:	e7d7      	b.n	2ffee1ce <xlat_desc+0x6e>
2ffee21e:	bf00      	nop
2ffee220:	2fff850b 	.word	0x2fff850b

2ffee224 <xlat_tables_map_region>:
2ffee224:	e92d 4ff0 	stmdb	sp!, {r4, r5, r6, r7, r8, r9, sl, fp, lr}
2ffee228:	b087      	sub	sp, #28
2ffee22a:	460d      	mov	r5, r1
2ffee22c:	4607      	mov	r7, r0
2ffee22e:	f8dd 8044 	ldr.w	r8, [sp, #68]	@ 0x44
2ffee232:	4614      	mov	r4, r2
2ffee234:	6bc1      	ldr	r1, [r0, #60]	@ 0x3c
2ffee236:	461e      	mov	r6, r3
2ffee238:	4541      	cmp	r1, r8
2ffee23a:	d802      	bhi.n	2ffee242 <xlat_tables_map_region+0x1e>
2ffee23c:	f1b8 0f03 	cmp.w	r8, #3
2ffee240:	d904      	bls.n	2ffee24c <xlat_tables_map_region+0x28>
2ffee242:	f44f 7110 	mov.w	r1, #576	@ 0x240
2ffee246:	486c      	ldr	r0, [pc, #432]	@ (2ffee3f8 <xlat_tables_map_region+0x1d4>)
2ffee248:	f005 fa70 	bl	2fff372c <__assert>
2ffee24c:	e9d5 0302 	ldrd	r0, r3, [r5, #8]
2ffee250:	f06f 0908 	mvn.w	r9, #8
2ffee254:	f04f 0b01 	mov.w	fp, #1
2ffee258:	fb09 f908 	mul.w	r9, r9, r8
2ffee25c:	4403      	add	r3, r0
2ffee25e:	4290      	cmp	r0, r2
2ffee260:	f103 33ff 	add.w	r3, r3, #4294967295	@ 0xffffffff
2ffee264:	9304      	str	r3, [sp, #16]
2ffee266:	f109 0327 	add.w	r3, r9, #39	@ 0x27
2ffee26a:	9303      	str	r3, [sp, #12]
2ffee26c:	bf98      	it	ls
2ffee26e:	46a1      	movls	r9, r4
2ffee270:	fa0b fb03 	lsl.w	fp, fp, r3
2ffee274:	9b03      	ldr	r3, [sp, #12]
2ffee276:	bf84      	itt	hi
2ffee278:	f1cb 0200 	rsbhi	r2, fp, #0
2ffee27c:	ea02 0900 	andhi.w	r9, r2, r0
2ffee280:	eba9 0404 	sub.w	r4, r9, r4
2ffee284:	4541      	cmp	r1, r8
2ffee286:	fa24 f403 	lsr.w	r4, r4, r3
2ffee28a:	d209      	bcs.n	2ffee2a0 <xlat_tables_map_region+0x7c>
2ffee28c:	4631      	mov	r1, r6
2ffee28e:	4638      	mov	r0, r7
2ffee290:	f7ff feb4 	bl	2ffedffc <xlat_table_get_index>
2ffee294:	69f9      	ldr	r1, [r7, #28]
2ffee296:	f851 3020 	ldr.w	r3, [r1, r0, lsl #2]
2ffee29a:	3301      	adds	r3, #1
2ffee29c:	f841 3020 	str.w	r3, [r1, r0, lsl #2]
2ffee2a0:	eb06 06c4 	add.w	r6, r6, r4, lsl #3
2ffee2a4:	e069      	b.n	2ffee37a <xlat_tables_map_region+0x156>
2ffee2a6:	e9d5 3200 	ldrd	r3, r2, [r5]
2ffee2aa:	f8d5 c008 	ldr.w	ip, [r5, #8]
2ffee2ae:	68e8      	ldr	r0, [r5, #12]
2ffee2b0:	9205      	str	r2, [sp, #20]
2ffee2b2:	45cc      	cmp	ip, r9
2ffee2b4:	6832      	ldr	r2, [r6, #0]
2ffee2b6:	4460      	add	r0, ip
2ffee2b8:	eb09 0a0b 	add.w	sl, r9, fp
2ffee2bc:	f002 0103 	and.w	r1, r2, #3
2ffee2c0:	f100 30ff 	add.w	r0, r0, #4294967295	@ 0xffffffff
2ffee2c4:	f10a 3eff 	add.w	lr, sl, #4294967295	@ 0xffffffff
2ffee2c8:	d837      	bhi.n	2ffee33a <xlat_tables_map_region+0x116>
2ffee2ca:	4570      	cmp	r0, lr
2ffee2cc:	d335      	bcc.n	2ffee33a <xlat_tables_map_region+0x116>
2ffee2ce:	9805      	ldr	r0, [sp, #20]
2ffee2d0:	ebb3 030c 	subs.w	r3, r3, ip
2ffee2d4:	f160 0c00 	sbc.w	ip, r0, #0
2ffee2d8:	eb13 0009 	adds.w	r0, r3, r9
2ffee2dc:	f14c 0300 	adc.w	r3, ip, #0
2ffee2e0:	f1b8 0f03 	cmp.w	r8, #3
2ffee2e4:	d106      	bne.n	2ffee2f4 <xlat_tables_map_region+0xd0>
2ffee2e6:	2903      	cmp	r1, #3
2ffee2e8:	d041      	beq.n	2ffee36e <xlat_tables_map_region+0x14a>
2ffee2ea:	2900      	cmp	r1, #0
2ffee2ec:	d036      	beq.n	2ffee35c <xlat_tables_map_region+0x138>
2ffee2ee:	f240 11d7 	movw	r1, #471	@ 0x1d7
2ffee2f2:	e7a8      	b.n	2ffee246 <xlat_tables_map_region+0x22>
2ffee2f4:	2903      	cmp	r1, #3
2ffee2f6:	d064      	beq.n	2ffee3c2 <xlat_tables_map_region+0x19e>
2ffee2f8:	b9d1      	cbnz	r1, 2ffee330 <xlat_tables_map_region+0x10c>
2ffee2fa:	f10b 31ff 	add.w	r1, fp, #4294967295	@ 0xffffffff
2ffee2fe:	4201      	tst	r1, r0
2ffee300:	d106      	bne.n	2ffee310 <xlat_tables_map_region+0xec>
2ffee302:	f1b8 0f00 	cmp.w	r8, #0
2ffee306:	d003      	beq.n	2ffee310 <xlat_tables_map_region+0xec>
2ffee308:	6969      	ldr	r1, [r5, #20]
2ffee30a:	9a03      	ldr	r2, [sp, #12]
2ffee30c:	40d1      	lsrs	r1, r2
2ffee30e:	d125      	bne.n	2ffee35c <xlat_tables_map_region+0x138>
2ffee310:	69b8      	ldr	r0, [r7, #24]
2ffee312:	2300      	movs	r3, #0
2ffee314:	4283      	cmp	r3, r0
2ffee316:	da07      	bge.n	2ffee328 <xlat_tables_map_region+0x104>
2ffee318:	69f9      	ldr	r1, [r7, #28]
2ffee31a:	f851 1023 	ldr.w	r1, [r1, r3, lsl #2]
2ffee31e:	bb91      	cbnz	r1, 2ffee386 <xlat_tables_map_region+0x162>
2ffee320:	6978      	ldr	r0, [r7, #20]
2ffee322:	eb10 3303 	adds.w	r3, r0, r3, lsl #12
2ffee326:	d130      	bne.n	2ffee38a <xlat_tables_map_region+0x166>
2ffee328:	4648      	mov	r0, r9
2ffee32a:	b007      	add	sp, #28
2ffee32c:	e8bd 8ff0 	ldmia.w	sp!, {r4, r5, r6, r7, r8, r9, sl, fp, pc}
2ffee330:	2901      	cmp	r1, #1
2ffee332:	d01c      	beq.n	2ffee36e <xlat_tables_map_region+0x14a>
2ffee334:	f44f 71ff 	mov.w	r1, #510	@ 0x1fe
2ffee338:	e785      	b.n	2ffee246 <xlat_tables_map_region+0x22>
2ffee33a:	45f4      	cmp	ip, lr
2ffee33c:	d901      	bls.n	2ffee342 <xlat_tables_map_region+0x11e>
2ffee33e:	4581      	cmp	r9, r0
2ffee340:	d815      	bhi.n	2ffee36e <xlat_tables_map_region+0x14a>
2ffee342:	f1b8 0f03 	cmp.w	r8, #3
2ffee346:	d102      	bne.n	2ffee34e <xlat_tables_map_region+0x12a>
2ffee348:	f240 2113 	movw	r1, #531	@ 0x213
2ffee34c:	e77b      	b.n	2ffee246 <xlat_tables_map_region+0x22>
2ffee34e:	2900      	cmp	r1, #0
2ffee350:	d0de      	beq.n	2ffee310 <xlat_tables_map_region+0xec>
2ffee352:	2903      	cmp	r1, #3
2ffee354:	d035      	beq.n	2ffee3c2 <xlat_tables_map_region+0x19e>
2ffee356:	f240 211e 	movw	r1, #542	@ 0x21e
2ffee35a:	e774      	b.n	2ffee246 <xlat_tables_map_region+0x22>
2ffee35c:	f8cd 8000 	str.w	r8, [sp]
2ffee360:	4602      	mov	r2, r0
2ffee362:	6929      	ldr	r1, [r5, #16]
2ffee364:	4638      	mov	r0, r7
2ffee366:	f7ff fefb 	bl	2ffee160 <xlat_desc>
2ffee36a:	e9c6 0100 	strd	r0, r1, [r6]
2ffee36e:	9b04      	ldr	r3, [sp, #16]
2ffee370:	3401      	adds	r4, #1
2ffee372:	3608      	adds	r6, #8
2ffee374:	46d1      	mov	r9, sl
2ffee376:	4553      	cmp	r3, sl
2ffee378:	d902      	bls.n	2ffee380 <xlat_tables_map_region+0x15c>
2ffee37a:	9b10      	ldr	r3, [sp, #64]	@ 0x40
2ffee37c:	429c      	cmp	r4, r3
2ffee37e:	d392      	bcc.n	2ffee2a6 <xlat_tables_map_region+0x82>
2ffee380:	f109 39ff 	add.w	r9, r9, #4294967295	@ 0xffffffff
2ffee384:	e7d0      	b.n	2ffee328 <xlat_tables_map_region+0x104>
2ffee386:	3301      	adds	r3, #1
2ffee388:	e7c4      	b.n	2ffee314 <xlat_tables_map_region+0xf0>
2ffee38a:	9305      	str	r3, [sp, #20]
2ffee38c:	f043 0003 	orr.w	r0, r3, #3
2ffee390:	e9c6 0100 	strd	r0, r1, [r6]
2ffee394:	f108 0101 	add.w	r1, r8, #1
2ffee398:	464a      	mov	r2, r9
2ffee39a:	9101      	str	r1, [sp, #4]
2ffee39c:	f44f 7100 	mov.w	r1, #512	@ 0x200
2ffee3a0:	9100      	str	r1, [sp, #0]
2ffee3a2:	4638      	mov	r0, r7
2ffee3a4:	4629      	mov	r1, r5
2ffee3a6:	f7ff ff3d 	bl	2ffee224 <xlat_tables_map_region>
2ffee3aa:	9b05      	ldr	r3, [sp, #20]
2ffee3ac:	4681      	mov	r9, r0
2ffee3ae:	f44f 5180 	mov.w	r1, #4096	@ 0x1000
2ffee3b2:	4618      	mov	r0, r3
2ffee3b4:	f006 f803 	bl	2fff43be <xlat_clean_dcache_range>
2ffee3b8:	f10a 33ff 	add.w	r3, sl, #4294967295	@ 0xffffffff
2ffee3bc:	454b      	cmp	r3, r9
2ffee3be:	d0d6      	beq.n	2ffee36e <xlat_tables_map_region+0x14a>
2ffee3c0:	e7b2      	b.n	2ffee328 <xlat_tables_map_region+0x104>
2ffee3c2:	f422 637f 	bic.w	r3, r2, #4080	@ 0xff0
2ffee3c6:	f108 0101 	add.w	r1, r8, #1
2ffee3ca:	9101      	str	r1, [sp, #4]
2ffee3cc:	f44f 7100 	mov.w	r1, #512	@ 0x200
2ffee3d0:	f023 030f 	bic.w	r3, r3, #15
2ffee3d4:	464a      	mov	r2, r9
2ffee3d6:	9100      	str	r1, [sp, #0]
2ffee3d8:	4638      	mov	r0, r7
2ffee3da:	9305      	str	r3, [sp, #20]
2ffee3dc:	4629      	mov	r1, r5
2ffee3de:	f7ff ff21 	bl	2ffee224 <xlat_tables_map_region>
2ffee3e2:	9b05      	ldr	r3, [sp, #20]
2ffee3e4:	4681      	mov	r9, r0
2ffee3e6:	f44f 5180 	mov.w	r1, #4096	@ 0x1000
2ffee3ea:	4618      	mov	r0, r3
2ffee3ec:	f005 ffe7 	bl	2fff43be <xlat_clean_dcache_range>
2ffee3f0:	f10a 33ff 	add.w	r3, sl, #4294967295	@ 0xffffffff
2ffee3f4:	4599      	cmp	r9, r3
2ffee3f6:	e7e2      	b.n	2ffee3be <xlat_tables_map_region+0x19a>
2ffee3f8:	2fff850b 	.word	0x2fff850b

2ffee3fc <mmap_add_region_ctx>:
2ffee3fc:	e92d 4ff7 	stmdb	sp!, {r0, r1, r2, r4, r5, r6, r7, r8, r9, sl, fp, lr}
2ffee400:	4606      	mov	r6, r0
2ffee402:	680b      	ldr	r3, [r1, #0]
2ffee404:	460d      	mov	r5, r1
2ffee406:	e9d1 4902 	ldrd	r4, r9, [r1, #8]
2ffee40a:	68c7      	ldr	r7, [r0, #12]
2ffee40c:	f8d0 b010 	ldr.w	fp, [r0, #16]
2ffee410:	f8d1 8004 	ldr.w	r8, [r1, #4]
2ffee414:	9301      	str	r3, [sp, #4]
2ffee416:	f1b9 0f00 	cmp.w	r9, #0
2ffee41a:	d050      	beq.n	2ffee4be <mmap_add_region_ctx+0xc2>
2ffee41c:	f890 3040 	ldrb.w	r3, [r0, #64]	@ 0x40
2ffee420:	b123      	cbz	r3, 2ffee42c <mmap_add_region_ctx+0x30>
2ffee422:	f44f 7145 	mov.w	r1, #788	@ 0x314
2ffee426:	482e      	ldr	r0, [pc, #184]	@ (2ffee4e0 <mmap_add_region_ctx+0xe4>)
2ffee428:	f005 f980 	bl	2fff372c <__assert>
2ffee42c:	f005 ff35 	bl	2fff429a <mmap_add_region_check>
2ffee430:	4601      	mov	r1, r0
2ffee432:	b9d0      	cbnz	r0, 2ffee46a <mmap_add_region_ctx+0x6e>
2ffee434:	eb09 0204 	add.w	r2, r9, r4
2ffee438:	463c      	mov	r4, r7
2ffee43a:	f102 3aff 	add.w	sl, r2, #4294967295	@ 0xffffffff
2ffee43e:	e9d4 3102 	ldrd	r3, r1, [r4, #8]
2ffee442:	440b      	add	r3, r1
2ffee444:	3b01      	subs	r3, #1
2ffee446:	4553      	cmp	r3, sl
2ffee448:	d200      	bcs.n	2ffee44c <mmap_add_region_ctx+0x50>
2ffee44a:	b9a1      	cbnz	r1, 2ffee476 <mmap_add_region_ctx+0x7a>
2ffee44c:	e9d4 3102 	ldrd	r3, r1, [r4, #8]
2ffee450:	440b      	add	r3, r1
2ffee452:	429a      	cmp	r2, r3
2ffee454:	d011      	beq.n	2ffee47a <mmap_add_region_ctx+0x7e>
2ffee456:	2318      	movs	r3, #24
2ffee458:	fb03 7b0b 	mla	fp, r3, fp, r7
2ffee45c:	68fb      	ldr	r3, [r7, #12]
2ffee45e:	b38b      	cbz	r3, 2ffee4c4 <mmap_add_region_ctx+0xc8>
2ffee460:	455f      	cmp	r7, fp
2ffee462:	d310      	bcc.n	2ffee486 <mmap_add_region_ctx+0x8a>
2ffee464:	f44f 7153 	mov.w	r1, #844	@ 0x34c
2ffee468:	e7dd      	b.n	2ffee426 <mmap_add_region_ctx+0x2a>
2ffee46a:	481e      	ldr	r0, [pc, #120]	@ (2ffee4e4 <mmap_add_region_ctx+0xe8>)
2ffee46c:	f7ff f9d4 	bl	2ffed818 <tf_log>
2ffee470:	f240 3119 	movw	r1, #793	@ 0x319
2ffee474:	e7d7      	b.n	2ffee426 <mmap_add_region_ctx+0x2a>
2ffee476:	3418      	adds	r4, #24
2ffee478:	e7e1      	b.n	2ffee43e <mmap_add_region_ctx+0x42>
2ffee47a:	2900      	cmp	r1, #0
2ffee47c:	d0eb      	beq.n	2ffee456 <mmap_add_region_ctx+0x5a>
2ffee47e:	4589      	cmp	r9, r1
2ffee480:	d9e9      	bls.n	2ffee456 <mmap_add_region_ctx+0x5a>
2ffee482:	3418      	adds	r4, #24
2ffee484:	e7e2      	b.n	2ffee44c <mmap_add_region_ctx+0x50>
2ffee486:	3718      	adds	r7, #24
2ffee488:	e7e8      	b.n	2ffee45c <mmap_add_region_ctx+0x60>
2ffee48a:	9b01      	ldr	r3, [sp, #4]
2ffee48c:	3b01      	subs	r3, #1
2ffee48e:	f148 38ff 	adc.w	r8, r8, #4294967295	@ 0xffffffff
2ffee492:	eb13 0909 	adds.w	r9, r3, r9
2ffee496:	cd0f      	ldmia	r5!, {r0, r1, r2, r3}
2ffee498:	f148 0700 	adc.w	r7, r8, #0
2ffee49c:	c40f      	stmia	r4!, {r0, r1, r2, r3}
2ffee49e:	e9d6 230c 	ldrd	r2, r3, [r6, #48]	@ 0x30
2ffee4a2:	e895 0003 	ldmia.w	r5, {r0, r1}
2ffee4a6:	454a      	cmp	r2, r9
2ffee4a8:	41bb      	sbcs	r3, r7
2ffee4aa:	6bb3      	ldr	r3, [r6, #56]	@ 0x38
2ffee4ac:	e884 0003 	stmia.w	r4, {r0, r1}
2ffee4b0:	bf38      	it	cc
2ffee4b2:	e9c6 970c 	strdcc	r9, r7, [r6, #48]	@ 0x30
2ffee4b6:	4553      	cmp	r3, sl
2ffee4b8:	d201      	bcs.n	2ffee4be <mmap_add_region_ctx+0xc2>
2ffee4ba:	f8c6 a038 	str.w	sl, [r6, #56]	@ 0x38
2ffee4be:	b003      	add	sp, #12
2ffee4c0:	e8bd 8ff0 	ldmia.w	sp!, {r4, r5, r6, r7, r8, r9, sl, fp, pc}
2ffee4c4:	1b3a      	subs	r2, r7, r4
2ffee4c6:	4621      	mov	r1, r4
2ffee4c8:	f104 0018 	add.w	r0, r4, #24
2ffee4cc:	f006 ffb6 	bl	2fff543c <memmove>
2ffee4d0:	f8db 300c 	ldr.w	r3, [fp, #12]
2ffee4d4:	2b00      	cmp	r3, #0
2ffee4d6:	d0d8      	beq.n	2ffee48a <mmap_add_region_ctx+0x8e>
2ffee4d8:	f44f 7156 	mov.w	r1, #856	@ 0x358
2ffee4dc:	e7a3      	b.n	2ffee426 <mmap_add_region_ctx+0x2a>
2ffee4de:	bf00      	nop
2ffee4e0:	2fff850b 	.word	0x2fff850b
2ffee4e4:	2fff8531 	.word	0x2fff8531

2ffee4e8 <mmap_add_dynamic_region_ctx>:
2ffee4e8:	e92d 4ff0 	stmdb	sp!, {r4, r5, r6, r7, r8, r9, sl, fp, lr}
2ffee4ec:	b08b      	sub	sp, #44	@ 0x2c
2ffee4ee:	680b      	ldr	r3, [r1, #0]
2ffee4f0:	4604      	mov	r4, r0
2ffee4f2:	e9d1 6902 	ldrd	r6, r9, [r1, #8]
2ffee4f6:	9302      	str	r3, [sp, #8]
2ffee4f8:	460d      	mov	r5, r1
2ffee4fa:	684b      	ldr	r3, [r1, #4]
2ffee4fc:	f8d0 a00c 	ldr.w	sl, [r0, #12]
2ffee500:	f8d0 b010 	ldr.w	fp, [r0, #16]
2ffee504:	9303      	str	r3, [sp, #12]
2ffee506:	f1b9 0f00 	cmp.w	r9, #0
2ffee50a:	f000 8093 	beq.w	2ffee634 <mmap_add_dynamic_region_ctx+0x14c>
2ffee50e:	690b      	ldr	r3, [r1, #16]
2ffee510:	f043 4300 	orr.w	r3, r3, #2147483648	@ 0x80000000
2ffee514:	610b      	str	r3, [r1, #16]
2ffee516:	f005 fec0 	bl	2fff429a <mmap_add_region_check>
2ffee51a:	2800      	cmp	r0, #0
2ffee51c:	d171      	bne.n	2ffee602 <mmap_add_dynamic_region_ctx+0x11a>
2ffee51e:	eb09 0106 	add.w	r1, r9, r6
2ffee522:	4653      	mov	r3, sl
2ffee524:	1e4e      	subs	r6, r1, #1
2ffee526:	e9d3 2002 	ldrd	r2, r0, [r3, #8]
2ffee52a:	4698      	mov	r8, r3
2ffee52c:	3318      	adds	r3, #24
2ffee52e:	4402      	add	r2, r0
2ffee530:	3a01      	subs	r2, #1
2ffee532:	42b2      	cmp	r2, r6
2ffee534:	d201      	bcs.n	2ffee53a <mmap_add_dynamic_region_ctx+0x52>
2ffee536:	2800      	cmp	r0, #0
2ffee538:	d1f5      	bne.n	2ffee526 <mmap_add_dynamic_region_ctx+0x3e>
2ffee53a:	e9d8 3202 	ldrd	r3, r2, [r8, #8]
2ffee53e:	4647      	mov	r7, r8
2ffee540:	f108 0818 	add.w	r8, r8, #24
2ffee544:	4413      	add	r3, r2
2ffee546:	4299      	cmp	r1, r3
2ffee548:	d102      	bne.n	2ffee550 <mmap_add_dynamic_region_ctx+0x68>
2ffee54a:	b10a      	cbz	r2, 2ffee550 <mmap_add_dynamic_region_ctx+0x68>
2ffee54c:	4591      	cmp	r9, r2
2ffee54e:	d8f4      	bhi.n	2ffee53a <mmap_add_dynamic_region_ctx+0x52>
2ffee550:	2318      	movs	r3, #24
2ffee552:	4639      	mov	r1, r7
2ffee554:	fb03 aa0b 	mla	sl, r3, fp, sl
2ffee558:	4640      	mov	r0, r8
2ffee55a:	ebaa 0b07 	sub.w	fp, sl, r7
2ffee55e:	465a      	mov	r2, fp
2ffee560:	f006 ff6c 	bl	2fff543c <memmove>
2ffee564:	f8da a00c 	ldr.w	sl, [sl, #12]
2ffee568:	f1ba 0f00 	cmp.w	sl, #0
2ffee56c:	d004      	beq.n	2ffee578 <mmap_add_dynamic_region_ctx+0x90>
2ffee56e:	4832      	ldr	r0, [pc, #200]	@ (2ffee638 <mmap_add_dynamic_region_ctx+0x150>)
2ffee570:	f240 31e3 	movw	r1, #995	@ 0x3e3
2ffee574:	f005 f8da 	bl	2fff372c <__assert>
2ffee578:	46ae      	mov	lr, r5
2ffee57a:	46bc      	mov	ip, r7
2ffee57c:	e8be 000f 	ldmia.w	lr!, {r0, r1, r2, r3}
2ffee580:	e8ac 000f 	stmia.w	ip!, {r0, r1, r2, r3}
2ffee584:	f894 3040 	ldrb.w	r3, [r4, #64]	@ 0x40
2ffee588:	e89e 0003 	ldmia.w	lr, {r0, r1}
2ffee58c:	e88c 0003 	stmia.w	ip, {r0, r1}
2ffee590:	2b00      	cmp	r3, #0
2ffee592:	d03b      	beq.n	2ffee60c <mmap_add_dynamic_region_ctx+0x124>
2ffee594:	6be3      	ldr	r3, [r4, #60]	@ 0x3c
2ffee596:	4652      	mov	r2, sl
2ffee598:	4639      	mov	r1, r7
2ffee59a:	4620      	mov	r0, r4
2ffee59c:	9301      	str	r3, [sp, #4]
2ffee59e:	6aa3      	ldr	r3, [r4, #40]	@ 0x28
2ffee5a0:	9300      	str	r3, [sp, #0]
2ffee5a2:	6a63      	ldr	r3, [r4, #36]	@ 0x24
2ffee5a4:	f7ff fe3e 	bl	2ffee224 <xlat_tables_map_region>
2ffee5a8:	6aa1      	ldr	r1, [r4, #40]	@ 0x28
2ffee5aa:	4606      	mov	r6, r0
2ffee5ac:	6a60      	ldr	r0, [r4, #36]	@ 0x24
2ffee5ae:	00c9      	lsls	r1, r1, #3
2ffee5b0:	f005 ff05 	bl	2fff43be <xlat_clean_dcache_range>
2ffee5b4:	e9d7 3202 	ldrd	r3, r2, [r7, #8]
2ffee5b8:	4413      	add	r3, r2
2ffee5ba:	3b01      	subs	r3, #1
2ffee5bc:	42b3      	cmp	r3, r6
2ffee5be:	d023      	beq.n	2ffee608 <mmap_add_dynamic_region_ctx+0x120>
2ffee5c0:	465a      	mov	r2, fp
2ffee5c2:	4641      	mov	r1, r8
2ffee5c4:	4638      	mov	r0, r7
2ffee5c6:	f006 ff39 	bl	2fff543c <memmove>
2ffee5ca:	68ad      	ldr	r5, [r5, #8]
2ffee5cc:	42b5      	cmp	r5, r6
2ffee5ce:	d216      	bcs.n	2ffee5fe <mmap_add_dynamic_region_ctx+0x116>
2ffee5d0:	2218      	movs	r2, #24
2ffee5d2:	4651      	mov	r1, sl
2ffee5d4:	a804      	add	r0, sp, #16
2ffee5d6:	f006 ff47 	bl	2fff5468 <memset>
2ffee5da:	6be3      	ldr	r3, [r4, #60]	@ 0x3c
2ffee5dc:	a904      	add	r1, sp, #16
2ffee5de:	9506      	str	r5, [sp, #24]
2ffee5e0:	4620      	mov	r0, r4
2ffee5e2:	9301      	str	r3, [sp, #4]
2ffee5e4:	4652      	mov	r2, sl
2ffee5e6:	6aa3      	ldr	r3, [r4, #40]	@ 0x28
2ffee5e8:	1b75      	subs	r5, r6, r5
2ffee5ea:	9300      	str	r3, [sp, #0]
2ffee5ec:	6a63      	ldr	r3, [r4, #36]	@ 0x24
2ffee5ee:	9507      	str	r5, [sp, #28]
2ffee5f0:	f7ff fd18 	bl	2ffee024 <xlat_tables_unmap_region>
2ffee5f4:	6aa1      	ldr	r1, [r4, #40]	@ 0x28
2ffee5f6:	6a60      	ldr	r0, [r4, #36]	@ 0x24
2ffee5f8:	00c9      	lsls	r1, r1, #3
2ffee5fa:	f005 fee0 	bl	2fff43be <xlat_clean_dcache_range>
2ffee5fe:	f06f 000b 	mvn.w	r0, #11
2ffee602:	b00b      	add	sp, #44	@ 0x2c
2ffee604:	e8bd 8ff0 	ldmia.w	sp!, {r4, r5, r6, r7, r8, r9, sl, fp, pc}
2ffee608:	f3bf 8f4a 	dsb	ishst
2ffee60c:	9b02      	ldr	r3, [sp, #8]
2ffee60e:	9a03      	ldr	r2, [sp, #12]
2ffee610:	e9d4 010c 	ldrd	r0, r1, [r4, #48]	@ 0x30
2ffee614:	3b01      	subs	r3, #1
2ffee616:	f142 32ff 	adc.w	r2, r2, #4294967295	@ 0xffffffff
2ffee61a:	eb13 0309 	adds.w	r3, r3, r9
2ffee61e:	f142 0200 	adc.w	r2, r2, #0
2ffee622:	4298      	cmp	r0, r3
2ffee624:	4191      	sbcs	r1, r2
2ffee626:	bf38      	it	cc
2ffee628:	e9c4 320c 	strdcc	r3, r2, [r4, #48]	@ 0x30
2ffee62c:	6ba3      	ldr	r3, [r4, #56]	@ 0x38
2ffee62e:	42b3      	cmp	r3, r6
2ffee630:	bf38      	it	cc
2ffee632:	63a6      	strcc	r6, [r4, #56]	@ 0x38
2ffee634:	2000      	movs	r0, #0
2ffee636:	e7e4      	b.n	2ffee602 <mmap_add_dynamic_region_ctx+0x11a>
2ffee638:	2fff850b 	.word	0x2fff850b

2ffee63c <mmap_remove_dynamic_region_ctx>:
2ffee63c:	e92d 4ff0 	stmdb	sp!, {r4, r5, r6, r7, r8, r9, sl, fp, lr}
2ffee640:	2318      	movs	r3, #24
2ffee642:	68c5      	ldr	r5, [r0, #12]
2ffee644:	b085      	sub	sp, #20
2ffee646:	6907      	ldr	r7, [r0, #16]
2ffee648:	4604      	mov	r4, r0
2ffee64a:	fb03 5707 	mla	r7, r3, r7, r5
2ffee64e:	68fb      	ldr	r3, [r7, #12]
2ffee650:	b153      	cbz	r3, 2ffee668 <mmap_remove_dynamic_region_ctx+0x2c>
2ffee652:	483a      	ldr	r0, [pc, #232]	@ (2ffee73c <mmap_remove_dynamic_region_ctx+0x100>)
2ffee654:	f240 4147 	movw	r1, #1095	@ 0x447
2ffee658:	f005 f868 	bl	2fff372c <__assert>
2ffee65c:	68a8      	ldr	r0, [r5, #8]
2ffee65e:	4288      	cmp	r0, r1
2ffee660:	d101      	bne.n	2ffee666 <mmap_remove_dynamic_region_ctx+0x2a>
2ffee662:	4293      	cmp	r3, r2
2ffee664:	d008      	beq.n	2ffee678 <mmap_remove_dynamic_region_ctx+0x3c>
2ffee666:	3518      	adds	r5, #24
2ffee668:	68eb      	ldr	r3, [r5, #12]
2ffee66a:	2b00      	cmp	r3, #0
2ffee66c:	d1f6      	bne.n	2ffee65c <mmap_remove_dynamic_region_ctx+0x20>
2ffee66e:	f06f 0015 	mvn.w	r0, #21
2ffee672:	b005      	add	sp, #20
2ffee674:	e8bd 8ff0 	ldmia.w	sp!, {r4, r5, r6, r7, r8, r9, sl, fp, pc}
2ffee678:	692b      	ldr	r3, [r5, #16]
2ffee67a:	2b00      	cmp	r3, #0
2ffee67c:	da5b      	bge.n	2ffee736 <mmap_remove_dynamic_region_ctx+0xfa>
2ffee67e:	e9d5 3600 	ldrd	r3, r6, [r5]
2ffee682:	f8d4 b038 	ldr.w	fp, [r4, #56]	@ 0x38
2ffee686:	f102 38ff 	add.w	r8, r2, #4294967295	@ 0xffffffff
2ffee68a:	18d2      	adds	r2, r2, r3
2ffee68c:	6b23      	ldr	r3, [r4, #48]	@ 0x30
2ffee68e:	f146 0600 	adc.w	r6, r6, #0
2ffee692:	f112 39ff 	adds.w	r9, r2, #4294967295	@ 0xffffffff
2ffee696:	9303      	str	r3, [sp, #12]
2ffee698:	f894 3040 	ldrb.w	r3, [r4, #64]	@ 0x40
2ffee69c:	4488      	add	r8, r1
2ffee69e:	f146 36ff 	adc.w	r6, r6, #4294967295	@ 0xffffffff
2ffee6a2:	f8d4 a034 	ldr.w	sl, [r4, #52]	@ 0x34
2ffee6a6:	b183      	cbz	r3, 2ffee6ca <mmap_remove_dynamic_region_ctx+0x8e>
2ffee6a8:	6be3      	ldr	r3, [r4, #60]	@ 0x3c
2ffee6aa:	2200      	movs	r2, #0
2ffee6ac:	4629      	mov	r1, r5
2ffee6ae:	4620      	mov	r0, r4
2ffee6b0:	9301      	str	r3, [sp, #4]
2ffee6b2:	6aa3      	ldr	r3, [r4, #40]	@ 0x28
2ffee6b4:	9300      	str	r3, [sp, #0]
2ffee6b6:	6a63      	ldr	r3, [r4, #36]	@ 0x24
2ffee6b8:	f7ff fcb4 	bl	2ffee024 <xlat_tables_unmap_region>
2ffee6bc:	6aa1      	ldr	r1, [r4, #40]	@ 0x28
2ffee6be:	6a60      	ldr	r0, [r4, #36]	@ 0x24
2ffee6c0:	00c9      	lsls	r1, r1, #3
2ffee6c2:	f005 fe7c 	bl	2fff43be <xlat_clean_dcache_range>
2ffee6c6:	f005 fde0 	bl	2fff428a <xlat_arch_tlbi_va_sync>
2ffee6ca:	1b7a      	subs	r2, r7, r5
2ffee6cc:	f105 0118 	add.w	r1, r5, #24
2ffee6d0:	4628      	mov	r0, r5
2ffee6d2:	f006 feb3 	bl	2fff543c <memmove>
2ffee6d6:	45d8      	cmp	r8, fp
2ffee6d8:	d00e      	beq.n	2ffee6f8 <mmap_remove_dynamic_region_ctx+0xbc>
2ffee6da:	9b03      	ldr	r3, [sp, #12]
2ffee6dc:	4556      	cmp	r6, sl
2ffee6de:	bf08      	it	eq
2ffee6e0:	4599      	cmpeq	r9, r3
2ffee6e2:	d107      	bne.n	2ffee6f4 <mmap_remove_dynamic_region_ctx+0xb8>
2ffee6e4:	2200      	movs	r2, #0
2ffee6e6:	2300      	movs	r3, #0
2ffee6e8:	e9c4 230c 	strd	r2, r3, [r4, #48]	@ 0x30
2ffee6ec:	68e2      	ldr	r2, [r4, #12]
2ffee6ee:	68d0      	ldr	r0, [r2, #12]
2ffee6f0:	3218      	adds	r2, #24
2ffee6f2:	b980      	cbnz	r0, 2ffee716 <mmap_remove_dynamic_region_ctx+0xda>
2ffee6f4:	2000      	movs	r0, #0
2ffee6f6:	e7bc      	b.n	2ffee672 <mmap_remove_dynamic_region_ctx+0x36>
2ffee6f8:	68e2      	ldr	r2, [r4, #12]
2ffee6fa:	2300      	movs	r3, #0
2ffee6fc:	63a3      	str	r3, [r4, #56]	@ 0x38
2ffee6fe:	68d3      	ldr	r3, [r2, #12]
2ffee700:	2b00      	cmp	r3, #0
2ffee702:	d0ea      	beq.n	2ffee6da <mmap_remove_dynamic_region_ctx+0x9e>
2ffee704:	6891      	ldr	r1, [r2, #8]
2ffee706:	3218      	adds	r2, #24
2ffee708:	440b      	add	r3, r1
2ffee70a:	6ba1      	ldr	r1, [r4, #56]	@ 0x38
2ffee70c:	3b01      	subs	r3, #1
2ffee70e:	428b      	cmp	r3, r1
2ffee710:	bf88      	it	hi
2ffee712:	63a3      	strhi	r3, [r4, #56]	@ 0x38
2ffee714:	e7f3      	b.n	2ffee6fe <mmap_remove_dynamic_region_ctx+0xc2>
2ffee716:	e952 3106 	ldrd	r3, r1, [r2, #-24]
2ffee71a:	3b01      	subs	r3, #1
2ffee71c:	f141 31ff 	adc.w	r1, r1, #4294967295	@ 0xffffffff
2ffee720:	181b      	adds	r3, r3, r0
2ffee722:	e9d4 500c 	ldrd	r5, r0, [r4, #48]	@ 0x30
2ffee726:	f141 0100 	adc.w	r1, r1, #0
2ffee72a:	429d      	cmp	r5, r3
2ffee72c:	4188      	sbcs	r0, r1
2ffee72e:	bf38      	it	cc
2ffee730:	e9c4 310c 	strdcc	r3, r1, [r4, #48]	@ 0x30
2ffee734:	e7db      	b.n	2ffee6ee <mmap_remove_dynamic_region_ctx+0xb2>
2ffee736:	f04f 30ff 	mov.w	r0, #4294967295	@ 0xffffffff
2ffee73a:	e79a      	b.n	2ffee672 <mmap_remove_dynamic_region_ctx+0x36>
2ffee73c:	2fff850b 	.word	0x2fff850b

2ffee740 <init_xlat_tables_ctx>:
2ffee740:	b5f7      	push	{r0, r1, r2, r4, r5, r6, r7, lr}
2ffee742:	4604      	mov	r4, r0
2ffee744:	b920      	cbnz	r0, 2ffee750 <init_xlat_tables_ctx+0x10>
2ffee746:	f240 41a6 	movw	r1, #1190	@ 0x4a6
2ffee74a:	484b      	ldr	r0, [pc, #300]	@ (2ffee878 <init_xlat_tables_ctx+0x138>)
2ffee74c:	f004 ffee 	bl	2fff372c <__assert>
2ffee750:	f890 3040 	ldrb.w	r3, [r0, #64]	@ 0x40
2ffee754:	b113      	cbz	r3, 2ffee75c <init_xlat_tables_ctx+0x1c>
2ffee756:	f240 41a7 	movw	r1, #1191	@ 0x4a7
2ffee75a:	e7f6      	b.n	2ffee74a <init_xlat_tables_ctx+0xa>
2ffee75c:	6c43      	ldr	r3, [r0, #68]	@ 0x44
2ffee75e:	3b01      	subs	r3, #1
2ffee760:	2b02      	cmp	r3, #2
2ffee762:	d902      	bls.n	2ffee76a <init_xlat_tables_ctx+0x2a>
2ffee764:	f44f 6195 	mov.w	r1, #1192	@ 0x4a8
2ffee768:	e7ef      	b.n	2ffee74a <init_xlat_tables_ctx+0xa>
2ffee76a:	f7ff fb63 	bl	2ffede34 <is_mmu_enabled_ctx>
2ffee76e:	b110      	cbz	r0, 2ffee776 <init_xlat_tables_ctx+0x36>
2ffee770:	f240 41ab 	movw	r1, #1195	@ 0x4ab
2ffee774:	e7e9      	b.n	2ffee74a <init_xlat_tables_ctx+0xa>
2ffee776:	e9d4 6502 	ldrd	r6, r5, [r4, #8]
2ffee77a:	f005 fd75 	bl	2fff4268 <xlat_get_min_virt_addr_space_size>
2ffee77e:	3801      	subs	r0, #1
2ffee780:	4286      	cmp	r6, r0
2ffee782:	d202      	bcs.n	2ffee78a <init_xlat_tables_ctx+0x4a>
2ffee784:	f240 41af 	movw	r1, #1199	@ 0x4af
2ffee788:	e7df      	b.n	2ffee74a <init_xlat_tables_ctx+0xa>
2ffee78a:	68a3      	ldr	r3, [r4, #8]
2ffee78c:	1c5e      	adds	r6, r3, #1
2ffee78e:	401e      	ands	r6, r3
2ffee790:	d002      	beq.n	2ffee798 <init_xlat_tables_ctx+0x58>
2ffee792:	f240 41b2 	movw	r1, #1202	@ 0x4b2
2ffee796:	e7d8      	b.n	2ffee74a <init_xlat_tables_ctx+0xa>
2ffee798:	4628      	mov	r0, r5
2ffee79a:	f005 fe29 	bl	2fff43f0 <xlat_mmap_print>
2ffee79e:	6aa2      	ldr	r2, [r4, #40]	@ 0x28
2ffee7a0:	2000      	movs	r0, #0
2ffee7a2:	2100      	movs	r1, #0
2ffee7a4:	42b2      	cmp	r2, r6
2ffee7a6:	d112      	bne.n	2ffee7ce <init_xlat_tables_ctx+0x8e>
2ffee7a8:	2300      	movs	r3, #0
2ffee7aa:	2000      	movs	r0, #0
2ffee7ac:	461f      	mov	r7, r3
2ffee7ae:	2100      	movs	r1, #0
2ffee7b0:	69a2      	ldr	r2, [r4, #24]
2ffee7b2:	429a      	cmp	r2, r3
2ffee7b4:	dc12      	bgt.n	2ffee7dc <init_xlat_tables_ctx+0x9c>
2ffee7b6:	68eb      	ldr	r3, [r5, #12]
2ffee7b8:	bb03      	cbnz	r3, 2ffee7fc <init_xlat_tables_ctx+0xbc>
2ffee7ba:	e9d4 6500 	ldrd	r6, r5, [r4]
2ffee7be:	f005 fd4f 	bl	2fff4260 <xlat_arch_get_max_supported_pa>
2ffee7c2:	42b0      	cmp	r0, r6
2ffee7c4:	41a9      	sbcs	r1, r5
2ffee7c6:	d23d      	bcs.n	2ffee844 <init_xlat_tables_ctx+0x104>
2ffee7c8:	f240 41d5 	movw	r1, #1237	@ 0x4d5
2ffee7cc:	e7bd      	b.n	2ffee74a <init_xlat_tables_ctx+0xa>
2ffee7ce:	6a63      	ldr	r3, [r4, #36]	@ 0x24
2ffee7d0:	eb03 03c6 	add.w	r3, r3, r6, lsl #3
2ffee7d4:	3601      	adds	r6, #1
2ffee7d6:	e9c3 0100 	strd	r0, r1, [r3]
2ffee7da:	e7e3      	b.n	2ffee7a4 <init_xlat_tables_ctx+0x64>
2ffee7dc:	69e2      	ldr	r2, [r4, #28]
2ffee7de:	f842 7023 	str.w	r7, [r2, r3, lsl #2]
2ffee7e2:	6962      	ldr	r2, [r4, #20]
2ffee7e4:	eb02 3203 	add.w	r2, r2, r3, lsl #12
2ffee7e8:	f1a2 0608 	sub.w	r6, r2, #8
2ffee7ec:	f602 72f8 	addw	r2, r2, #4088	@ 0xff8
2ffee7f0:	e9e6 0102 	strd	r0, r1, [r6, #8]!
2ffee7f4:	4296      	cmp	r6, r2
2ffee7f6:	d1fb      	bne.n	2ffee7f0 <init_xlat_tables_ctx+0xb0>
2ffee7f8:	3301      	adds	r3, #1
2ffee7fa:	e7d9      	b.n	2ffee7b0 <init_xlat_tables_ctx+0x70>
2ffee7fc:	6be3      	ldr	r3, [r4, #60]	@ 0x3c
2ffee7fe:	2200      	movs	r2, #0
2ffee800:	4629      	mov	r1, r5
2ffee802:	4620      	mov	r0, r4
2ffee804:	9301      	str	r3, [sp, #4]
2ffee806:	6aa3      	ldr	r3, [r4, #40]	@ 0x28
2ffee808:	9300      	str	r3, [sp, #0]
2ffee80a:	6a63      	ldr	r3, [r4, #36]	@ 0x24
2ffee80c:	f7ff fd0a 	bl	2ffee224 <xlat_tables_map_region>
2ffee810:	6aa1      	ldr	r1, [r4, #40]	@ 0x28
2ffee812:	4606      	mov	r6, r0
2ffee814:	6a60      	ldr	r0, [r4, #36]	@ 0x24
2ffee816:	00c9      	lsls	r1, r1, #3
2ffee818:	f005 fdd1 	bl	2fff43be <xlat_clean_dcache_range>
2ffee81c:	e9d5 1202 	ldrd	r1, r2, [r5, #8]
2ffee820:	188b      	adds	r3, r1, r2
2ffee822:	3b01      	subs	r3, #1
2ffee824:	42b3      	cmp	r3, r6
2ffee826:	d00b      	beq.n	2ffee840 <init_xlat_tables_ctx+0x100>
2ffee828:	692b      	ldr	r3, [r5, #16]
2ffee82a:	4814      	ldr	r0, [pc, #80]	@ (2ffee87c <init_xlat_tables_ctx+0x13c>)
2ffee82c:	e9cd 2300 	strd	r2, r3, [sp]
2ffee830:	e9d5 2300 	ldrd	r2, r3, [r5]
2ffee834:	f7fe fff0 	bl	2ffed818 <tf_log>
2ffee838:	f7ff f88a 	bl	2ffed950 <console_flush>
2ffee83c:	f7fa edce 	blx	2ffe93dc <do_panic>
2ffee840:	3518      	adds	r5, #24
2ffee842:	e7b8      	b.n	2ffee7b6 <init_xlat_tables_ctx+0x76>
2ffee844:	6ba2      	ldr	r2, [r4, #56]	@ 0x38
2ffee846:	68a3      	ldr	r3, [r4, #8]
2ffee848:	429a      	cmp	r2, r3
2ffee84a:	d902      	bls.n	2ffee852 <init_xlat_tables_ctx+0x112>
2ffee84c:	f240 41d6 	movw	r1, #1238	@ 0x4d6
2ffee850:	e77b      	b.n	2ffee74a <init_xlat_tables_ctx+0xa>
2ffee852:	e9d4 120c 	ldrd	r1, r2, [r4, #48]	@ 0x30
2ffee856:	e9d4 0300 	ldrd	r0, r3, [r4]
2ffee85a:	4288      	cmp	r0, r1
2ffee85c:	4193      	sbcs	r3, r2
2ffee85e:	d202      	bcs.n	2ffee866 <init_xlat_tables_ctx+0x126>
2ffee860:	f240 41d7 	movw	r1, #1239	@ 0x4d7
2ffee864:	e771      	b.n	2ffee74a <init_xlat_tables_ctx+0xa>
2ffee866:	2301      	movs	r3, #1
2ffee868:	4620      	mov	r0, r4
2ffee86a:	f884 3040 	strb.w	r3, [r4, #64]	@ 0x40
2ffee86e:	b003      	add	sp, #12
2ffee870:	e8bd 40f0 	ldmia.w	sp!, {r4, r5, r6, r7, lr}
2ffee874:	f005 bdbd 	b.w	2fff43f2 <xlat_tables_print>
2ffee878:	2fff850b 	.word	0x2fff850b
2ffee87c:	2fff855c 	.word	0x2fff855c

2ffee880 <clk_enable>:
2ffee880:	4b06      	ldr	r3, [pc, #24]	@ (2ffee89c <clk_enable+0x1c>)
2ffee882:	b510      	push	{r4, lr}
2ffee884:	681b      	ldr	r3, [r3, #0]
2ffee886:	b10b      	cbz	r3, 2ffee88c <clk_enable+0xc>
2ffee888:	681b      	ldr	r3, [r3, #0]
2ffee88a:	b91b      	cbnz	r3, 2ffee894 <clk_enable+0x14>
2ffee88c:	4804      	ldr	r0, [pc, #16]	@ (2ffee8a0 <clk_enable+0x20>)
2ffee88e:	2112      	movs	r1, #18
2ffee890:	f004 ff4c 	bl	2fff372c <__assert>
2ffee894:	e8bd 4010 	ldmia.w	sp!, {r4, lr}
2ffee898:	4718      	bx	r3
2ffee89a:	bf00      	nop
2ffee89c:	2fffbb34 	.word	0x2fffbb34
2ffee8a0:	2fff85ab 	.word	0x2fff85ab

2ffee8a4 <clk_disable>:
2ffee8a4:	4b06      	ldr	r3, [pc, #24]	@ (2ffee8c0 <clk_disable+0x1c>)
2ffee8a6:	b510      	push	{r4, lr}
2ffee8a8:	681b      	ldr	r3, [r3, #0]
2ffee8aa:	b10b      	cbz	r3, 2ffee8b0 <clk_disable+0xc>
2ffee8ac:	685b      	ldr	r3, [r3, #4]
2ffee8ae:	b91b      	cbnz	r3, 2ffee8b8 <clk_disable+0x14>
2ffee8b0:	4804      	ldr	r0, [pc, #16]	@ (2ffee8c4 <clk_disable+0x20>)
2ffee8b2:	2119      	movs	r1, #25
2ffee8b4:	f004 ff3a 	bl	2fff372c <__assert>
2ffee8b8:	e8bd 4010 	ldmia.w	sp!, {r4, lr}
2ffee8bc:	4718      	bx	r3
2ffee8be:	bf00      	nop
2ffee8c0:	2fffbb34 	.word	0x2fffbb34
2ffee8c4:	2fff85ab 	.word	0x2fff85ab

2ffee8c8 <clk_get_rate>:
2ffee8c8:	4b06      	ldr	r3, [pc, #24]	@ (2ffee8e4 <clk_get_rate+0x1c>)
2ffee8ca:	b510      	push	{r4, lr}
2ffee8cc:	681b      	ldr	r3, [r3, #0]
2ffee8ce:	b10b      	cbz	r3, 2ffee8d4 <clk_get_rate+0xc>
2ffee8d0:	689b      	ldr	r3, [r3, #8]
2ffee8d2:	b91b      	cbnz	r3, 2ffee8dc <clk_get_rate+0x14>
2ffee8d4:	4804      	ldr	r0, [pc, #16]	@ (2ffee8e8 <clk_get_rate+0x20>)
2ffee8d6:	2120      	movs	r1, #32
2ffee8d8:	f004 ff28 	bl	2fff372c <__assert>
2ffee8dc:	e8bd 4010 	ldmia.w	sp!, {r4, lr}
2ffee8e0:	4718      	bx	r3
2ffee8e2:	bf00      	nop
2ffee8e4:	2fffbb34 	.word	0x2fffbb34
2ffee8e8:	2fff85ab 	.word	0x2fff85ab

2ffee8ec <clk_is_enabled>:
2ffee8ec:	4b06      	ldr	r3, [pc, #24]	@ (2ffee908 <clk_is_enabled+0x1c>)
2ffee8ee:	b510      	push	{r4, lr}
2ffee8f0:	681b      	ldr	r3, [r3, #0]
2ffee8f2:	b10b      	cbz	r3, 2ffee8f8 <clk_is_enabled+0xc>
2ffee8f4:	691b      	ldr	r3, [r3, #16]
2ffee8f6:	b91b      	cbnz	r3, 2ffee900 <clk_is_enabled+0x14>
2ffee8f8:	4804      	ldr	r0, [pc, #16]	@ (2ffee90c <clk_is_enabled+0x20>)
2ffee8fa:	212e      	movs	r1, #46	@ 0x2e
2ffee8fc:	f004 ff16 	bl	2fff372c <__assert>
2ffee900:	e8bd 4010 	ldmia.w	sp!, {r4, lr}
2ffee904:	4718      	bx	r3
2ffee906:	bf00      	nop
2ffee908:	2fffbb34 	.word	0x2fffbb34
2ffee90c:	2fff85ab 	.word	0x2fff85ab

2ffee910 <clk_register>:
2ffee910:	b508      	push	{r3, lr}
2ffee912:	b148      	cbz	r0, 2ffee928 <clk_register+0x18>
2ffee914:	6803      	ldr	r3, [r0, #0]
2ffee916:	b13b      	cbz	r3, 2ffee928 <clk_register+0x18>
2ffee918:	6843      	ldr	r3, [r0, #4]
2ffee91a:	b12b      	cbz	r3, 2ffee928 <clk_register+0x18>
2ffee91c:	6883      	ldr	r3, [r0, #8]
2ffee91e:	b11b      	cbz	r3, 2ffee928 <clk_register+0x18>
2ffee920:	68c3      	ldr	r3, [r0, #12]
2ffee922:	b10b      	cbz	r3, 2ffee928 <clk_register+0x18>
2ffee924:	6903      	ldr	r3, [r0, #16]
2ffee926:	b91b      	cbnz	r3, 2ffee930 <clk_register+0x20>
2ffee928:	4803      	ldr	r0, [pc, #12]	@ (2ffee938 <clk_register+0x28>)
2ffee92a:	2139      	movs	r1, #57	@ 0x39
2ffee92c:	f004 fefe 	bl	2fff372c <__assert>
2ffee930:	4b02      	ldr	r3, [pc, #8]	@ (2ffee93c <clk_register+0x2c>)
2ffee932:	6018      	str	r0, [r3, #0]
2ffee934:	bd08      	pop	{r3, pc}
2ffee936:	bf00      	nop
2ffee938:	2fff85ab 	.word	0x2fff85ab
2ffee93c:	2fffbb34 	.word	0x2fffbb34

2ffee940 <udelay>:
2ffee940:	e92d 41f0 	stmdb	sp!, {r4, r5, r6, r7, r8, lr}
2ffee944:	4604      	mov	r4, r0
2ffee946:	4f18      	ldr	r7, [pc, #96]	@ (2ffee9a8 <udelay+0x68>)
2ffee948:	683b      	ldr	r3, [r7, #0]
2ffee94a:	b12b      	cbz	r3, 2ffee958 <udelay+0x18>
2ffee94c:	685a      	ldr	r2, [r3, #4]
2ffee94e:	b11a      	cbz	r2, 2ffee958 <udelay+0x18>
2ffee950:	689a      	ldr	r2, [r3, #8]
2ffee952:	b10a      	cbz	r2, 2ffee958 <udelay+0x18>
2ffee954:	681b      	ldr	r3, [r3, #0]
2ffee956:	b91b      	cbnz	r3, 2ffee960 <udelay+0x20>
2ffee958:	2119      	movs	r1, #25
2ffee95a:	4814      	ldr	r0, [pc, #80]	@ (2ffee9ac <udelay+0x6c>)
2ffee95c:	f004 fee6 	bl	2fff372c <__assert>
2ffee960:	2600      	movs	r6, #0
2ffee962:	4798      	blx	r3
2ffee964:	683b      	ldr	r3, [r7, #0]
2ffee966:	4680      	mov	r8, r0
2ffee968:	685a      	ldr	r2, [r3, #4]
2ffee96a:	689d      	ldr	r5, [r3, #8]
2ffee96c:	4633      	mov	r3, r6
2ffee96e:	1e50      	subs	r0, r2, #1
2ffee970:	f146 31ff 	adc.w	r1, r6, #4294967295	@ 0xffffffff
2ffee974:	fbe4 0105 	umlal	r0, r1, r4, r5
2ffee978:	f004 ed74 	blx	2fff3464 <__aeabi_uldivmod>
2ffee97c:	1c44      	adds	r4, r0, #1
2ffee97e:	f46f 737a 	mvn.w	r3, #1000	@ 0x3e8
2ffee982:	f141 0500 	adc.w	r5, r1, #0
2ffee986:	429c      	cmp	r4, r3
2ffee988:	f175 0300 	sbcs.w	r3, r5, #0
2ffee98c:	d301      	bcc.n	2ffee992 <udelay+0x52>
2ffee98e:	212f      	movs	r1, #47	@ 0x2f
2ffee990:	e7e3      	b.n	2ffee95a <udelay+0x1a>
2ffee992:	683b      	ldr	r3, [r7, #0]
2ffee994:	681b      	ldr	r3, [r3, #0]
2ffee996:	4798      	blx	r3
2ffee998:	eba8 0300 	sub.w	r3, r8, r0
2ffee99c:	42a3      	cmp	r3, r4
2ffee99e:	eb76 0305 	sbcs.w	r3, r6, r5
2ffee9a2:	d3f6      	bcc.n	2ffee992 <udelay+0x52>
2ffee9a4:	e8bd 81f0 	ldmia.w	sp!, {r4, r5, r6, r7, r8, pc}
2ffee9a8:	2fffbb38 	.word	0x2fffbb38
2ffee9ac:	2fff85bd 	.word	0x2fff85bd

2ffee9b0 <timer_init>:
2ffee9b0:	b508      	push	{r3, lr}
2ffee9b2:	b128      	cbz	r0, 2ffee9c0 <timer_init+0x10>
2ffee9b4:	6843      	ldr	r3, [r0, #4]
2ffee9b6:	b11b      	cbz	r3, 2ffee9c0 <timer_init+0x10>
2ffee9b8:	6883      	ldr	r3, [r0, #8]
2ffee9ba:	b10b      	cbz	r3, 2ffee9c0 <timer_init+0x10>
2ffee9bc:	6803      	ldr	r3, [r0, #0]
2ffee9be:	b91b      	cbnz	r3, 2ffee9c8 <timer_init+0x18>
2ffee9c0:	4803      	ldr	r0, [pc, #12]	@ (2ffee9d0 <timer_init+0x20>)
2ffee9c2:	214c      	movs	r1, #76	@ 0x4c
2ffee9c4:	f004 feb2 	bl	2fff372c <__assert>
2ffee9c8:	4b02      	ldr	r3, [pc, #8]	@ (2ffee9d4 <timer_init+0x24>)
2ffee9ca:	6018      	str	r0, [r3, #0]
2ffee9cc:	bd08      	pop	{r3, pc}
2ffee9ce:	bf00      	nop
2ffee9d0:	2fff85bd 	.word	0x2fff85bd
2ffee9d4:	2fffbb38 	.word	0x2fffbb38

2ffee9d8 <generic_delay_timer_init_args>:
2ffee9d8:	4b03      	ldr	r3, [pc, #12]	@ (2ffee9e8 <generic_delay_timer_init_args+0x10>)
2ffee9da:	4a04      	ldr	r2, [pc, #16]	@ (2ffee9ec <generic_delay_timer_init_args+0x14>)
2ffee9dc:	6058      	str	r0, [r3, #4]
2ffee9de:	4618      	mov	r0, r3
2ffee9e0:	601a      	str	r2, [r3, #0]
2ffee9e2:	6099      	str	r1, [r3, #8]
2ffee9e4:	f7ff bfe4 	b.w	2ffee9b0 <timer_init>
2ffee9e8:	2fffbb3c 	.word	0x2fffbb3c
2ffee9ec:	2fff43ff 	.word	0x2fff43ff

2ffee9f0 <generic_delay_timer_init>:
2ffee9f0:	b510      	push	{r4, lr}
2ffee9f2:	ee10 3f31 	mrc	15, 0, r3, cr0, cr1, {1}
2ffee9f6:	f413 2f70 	tst.w	r3, #983040	@ 0xf0000
2ffee9fa:	d103      	bne.n	2ffeea04 <generic_delay_timer_init+0x14>
2ffee9fc:	480f      	ldr	r0, [pc, #60]	@ (2ffeea3c <generic_delay_timer_init+0x4c>)
2ffee9fe:	212e      	movs	r1, #46	@ 0x2e
2ffeea00:	f004 fe94 	bl	2fff372c <__assert>
2ffeea04:	f005 fb9a 	bl	2fff413c <plat_get_syscnt_freq2>
2ffeea08:	230a      	movs	r3, #10
2ffeea0a:	4601      	mov	r1, r0
2ffeea0c:	fbb0 f2f3 	udiv	r2, r0, r3
2ffeea10:	fb03 0212 	mls	r2, r3, r2, r0
2ffeea14:	480a      	ldr	r0, [pc, #40]	@ (2ffeea40 <generic_delay_timer_init+0x50>)
2ffeea16:	b96a      	cbnz	r2, 2ffeea34 <generic_delay_timer_init+0x44>
2ffeea18:	fbb0 f0f3 	udiv	r0, r0, r3
2ffeea1c:	fbb1 f1f3 	udiv	r1, r1, r3
2ffeea20:	fbb0 f2f3 	udiv	r2, r0, r3
2ffeea24:	fbb1 f4f3 	udiv	r4, r1, r3
2ffeea28:	fb03 0212 	mls	r2, r3, r2, r0
2ffeea2c:	fb03 1414 	mls	r4, r3, r4, r1
2ffeea30:	4322      	orrs	r2, r4
2ffeea32:	d0f1      	beq.n	2ffeea18 <generic_delay_timer_init+0x28>
2ffeea34:	e8bd 4010 	ldmia.w	sp!, {r4, lr}
2ffeea38:	f7ff bfce 	b.w	2ffee9d8 <generic_delay_timer_init_args>
2ffeea3c:	2fff85df 	.word	0x2fff85df
2ffeea40:	000f4240 	.word	0x000f4240

2ffeea44 <fdt_osc_read_freq>:
2ffeea44:	b5f7      	push	{r0, r1, r2, r4, r5, r6, r7, lr}
2ffeea46:	4607      	mov	r7, r0
2ffeea48:	4668      	mov	r0, sp
2ffeea4a:	460e      	mov	r6, r1
2ffeea4c:	f001 f84c 	bl	2ffefae8 <fdt_get_address>
2ffeea50:	2800      	cmp	r0, #0
2ffeea52:	d033      	beq.n	2ffeeabc <fdt_osc_read_freq+0x78>
2ffeea54:	491c      	ldr	r1, [pc, #112]	@ (2ffeeac8 <fdt_osc_read_freq+0x84>)
2ffeea56:	9800      	ldr	r0, [sp, #0]
2ffeea58:	f006 fbd5 	bl	2fff5206 <fdt_path_offset>
2ffeea5c:	1e01      	subs	r1, r0, #0
2ffeea5e:	db30      	blt.n	2ffeeac2 <fdt_osc_read_freq+0x7e>
2ffeea60:	9800      	ldr	r0, [sp, #0]
2ffeea62:	f006 fa04 	bl	2fff4e6e <fdt_first_subnode>
2ffeea66:	2800      	cmp	r0, #0
2ffeea68:	4605      	mov	r5, r0
2ffeea6a:	da02      	bge.n	2ffeea72 <fdt_osc_read_freq+0x2e>
2ffeea6c:	2400      	movs	r4, #0
2ffeea6e:	6034      	str	r4, [r6, #0]
2ffeea70:	e006      	b.n	2ffeea80 <fdt_osc_read_freq+0x3c>
2ffeea72:	9800      	ldr	r0, [sp, #0]
2ffeea74:	aa01      	add	r2, sp, #4
2ffeea76:	4629      	mov	r1, r5
2ffeea78:	f006 fa77 	bl	2fff4f6a <fdt_get_name>
2ffeea7c:	b918      	cbnz	r0, 2ffeea86 <fdt_osc_read_freq+0x42>
2ffeea7e:	9c01      	ldr	r4, [sp, #4]
2ffeea80:	4620      	mov	r0, r4
2ffeea82:	b003      	add	sp, #12
2ffeea84:	bdf0      	pop	{r4, r5, r6, r7, pc}
2ffeea86:	9a01      	ldr	r2, [sp, #4]
2ffeea88:	4639      	mov	r1, r7
2ffeea8a:	f006 fe01 	bl	2fff5690 <strncmp>
2ffeea8e:	4604      	mov	r4, r0
2ffeea90:	b978      	cbnz	r0, 2ffeeab2 <fdt_osc_read_freq+0x6e>
2ffeea92:	4628      	mov	r0, r5
2ffeea94:	f001 f842 	bl	2ffefb1c <fdt_get_status>
2ffeea98:	b158      	cbz	r0, 2ffeeab2 <fdt_osc_read_freq+0x6e>
2ffeea9a:	4a0c      	ldr	r2, [pc, #48]	@ (2ffeeacc <fdt_osc_read_freq+0x88>)
2ffeea9c:	ab01      	add	r3, sp, #4
2ffeea9e:	9800      	ldr	r0, [sp, #0]
2ffeeaa0:	4629      	mov	r1, r5
2ffeeaa2:	f006 fb55 	bl	2fff5150 <fdt_getprop>
2ffeeaa6:	2800      	cmp	r0, #0
2ffeeaa8:	d0e9      	beq.n	2ffeea7e <fdt_osc_read_freq+0x3a>
2ffeeaaa:	6803      	ldr	r3, [r0, #0]
2ffeeaac:	ba1b      	rev	r3, r3
2ffeeaae:	6033      	str	r3, [r6, #0]
2ffeeab0:	e7e6      	b.n	2ffeea80 <fdt_osc_read_freq+0x3c>
2ffeeab2:	9800      	ldr	r0, [sp, #0]
2ffeeab4:	4629      	mov	r1, r5
2ffeeab6:	f006 f9ed 	bl	2fff4e94 <fdt_next_subnode>
2ffeeaba:	e7d4      	b.n	2ffeea66 <fdt_osc_read_freq+0x22>
2ffeeabc:	f06f 0401 	mvn.w	r4, #1
2ffeeac0:	e7de      	b.n	2ffeea80 <fdt_osc_read_freq+0x3c>
2ffeeac2:	f04f 34ff 	mov.w	r4, #4294967295	@ 0xffffffff
2ffeeac6:	e7db      	b.n	2ffeea80 <fdt_osc_read_freq+0x3c>
2ffeeac8:	2fff8609 	.word	0x2fff8609
2ffeeacc:	2fff8611 	.word	0x2fff8611

2ffeead0 <fdt_clk_read_bool>:
2ffeead0:	b573      	push	{r0, r1, r4, r5, r6, lr}
2ffeead2:	4605      	mov	r5, r0
2ffeead4:	4668      	mov	r0, sp
2ffeead6:	460e      	mov	r6, r1
2ffeead8:	f001 f806 	bl	2ffefae8 <fdt_get_address>
2ffeeadc:	b910      	cbnz	r0, 2ffeeae4 <fdt_clk_read_bool+0x14>
2ffeeade:	2000      	movs	r0, #0
2ffeeae0:	b002      	add	sp, #8
2ffeeae2:	bd70      	pop	{r4, r5, r6, pc}
2ffeeae4:	4913      	ldr	r1, [pc, #76]	@ (2ffeeb34 <fdt_clk_read_bool+0x64>)
2ffeeae6:	9800      	ldr	r0, [sp, #0]
2ffeeae8:	f006 fb8d 	bl	2fff5206 <fdt_path_offset>
2ffeeaec:	1e01      	subs	r1, r0, #0
2ffeeaee:	dbf6      	blt.n	2ffeeade <fdt_clk_read_bool+0xe>
2ffeeaf0:	9800      	ldr	r0, [sp, #0]
2ffeeaf2:	f006 f9bc 	bl	2fff4e6e <fdt_first_subnode>
2ffeeaf6:	2800      	cmp	r0, #0
2ffeeaf8:	4604      	mov	r4, r0
2ffeeafa:	dbf0      	blt.n	2ffeeade <fdt_clk_read_bool+0xe>
2ffeeafc:	9800      	ldr	r0, [sp, #0]
2ffeeafe:	aa01      	add	r2, sp, #4
2ffeeb00:	4621      	mov	r1, r4
2ffeeb02:	f006 fa32 	bl	2fff4f6a <fdt_get_name>
2ffeeb06:	2800      	cmp	r0, #0
2ffeeb08:	d0e9      	beq.n	2ffeeade <fdt_clk_read_bool+0xe>
2ffeeb0a:	9a01      	ldr	r2, [sp, #4]
2ffeeb0c:	4629      	mov	r1, r5
2ffeeb0e:	f006 fdbf 	bl	2fff5690 <strncmp>
2ffeeb12:	4603      	mov	r3, r0
2ffeeb14:	b120      	cbz	r0, 2ffeeb20 <fdt_clk_read_bool+0x50>
2ffeeb16:	9800      	ldr	r0, [sp, #0]
2ffeeb18:	4621      	mov	r1, r4
2ffeeb1a:	f006 f9bb 	bl	2fff4e94 <fdt_next_subnode>
2ffeeb1e:	e7ea      	b.n	2ffeeaf6 <fdt_clk_read_bool+0x26>
2ffeeb20:	9800      	ldr	r0, [sp, #0]
2ffeeb22:	4632      	mov	r2, r6
2ffeeb24:	4621      	mov	r1, r4
2ffeeb26:	f006 fb13 	bl	2fff5150 <fdt_getprop>
2ffeeb2a:	2800      	cmp	r0, #0
2ffeeb2c:	d0f3      	beq.n	2ffeeb16 <fdt_clk_read_bool+0x46>
2ffeeb2e:	2001      	movs	r0, #1
2ffeeb30:	e7d6      	b.n	2ffeeae0 <fdt_clk_read_bool+0x10>
2ffeeb32:	bf00      	nop
2ffeeb34:	2fff8609 	.word	0x2fff8609

2ffeeb38 <fdt_clk_read_uint32_default>:
2ffeeb38:	b5f7      	push	{r0, r1, r2, r4, r5, r6, r7, lr}
2ffeeb3a:	4606      	mov	r6, r0
2ffeeb3c:	4668      	mov	r0, sp
2ffeeb3e:	460f      	mov	r7, r1
2ffeeb40:	4615      	mov	r5, r2
2ffeeb42:	f000 ffd1 	bl	2ffefae8 <fdt_get_address>
2ffeeb46:	b158      	cbz	r0, 2ffeeb60 <fdt_clk_read_uint32_default+0x28>
2ffeeb48:	4913      	ldr	r1, [pc, #76]	@ (2ffeeb98 <fdt_clk_read_uint32_default+0x60>)
2ffeeb4a:	9800      	ldr	r0, [sp, #0]
2ffeeb4c:	f006 fb5b 	bl	2fff5206 <fdt_path_offset>
2ffeeb50:	1e01      	subs	r1, r0, #0
2ffeeb52:	db05      	blt.n	2ffeeb60 <fdt_clk_read_uint32_default+0x28>
2ffeeb54:	9800      	ldr	r0, [sp, #0]
2ffeeb56:	f006 f98a 	bl	2fff4e6e <fdt_first_subnode>
2ffeeb5a:	2800      	cmp	r0, #0
2ffeeb5c:	4604      	mov	r4, r0
2ffeeb5e:	da02      	bge.n	2ffeeb66 <fdt_clk_read_uint32_default+0x2e>
2ffeeb60:	4628      	mov	r0, r5
2ffeeb62:	b003      	add	sp, #12
2ffeeb64:	bdf0      	pop	{r4, r5, r6, r7, pc}
2ffeeb66:	9800      	ldr	r0, [sp, #0]
2ffeeb68:	aa01      	add	r2, sp, #4
2ffeeb6a:	4621      	mov	r1, r4
2ffeeb6c:	f006 f9fd 	bl	2fff4f6a <fdt_get_name>
2ffeeb70:	2800      	cmp	r0, #0
2ffeeb72:	d0f5      	beq.n	2ffeeb60 <fdt_clk_read_uint32_default+0x28>
2ffeeb74:	9a01      	ldr	r2, [sp, #4]
2ffeeb76:	4631      	mov	r1, r6
2ffeeb78:	f006 fd8a 	bl	2fff5690 <strncmp>
2ffeeb7c:	b120      	cbz	r0, 2ffeeb88 <fdt_clk_read_uint32_default+0x50>
2ffeeb7e:	9800      	ldr	r0, [sp, #0]
2ffeeb80:	4621      	mov	r1, r4
2ffeeb82:	f006 f987 	bl	2fff4e94 <fdt_next_subnode>
2ffeeb86:	e7e8      	b.n	2ffeeb5a <fdt_clk_read_uint32_default+0x22>
2ffeeb88:	9800      	ldr	r0, [sp, #0]
2ffeeb8a:	462b      	mov	r3, r5
2ffeeb8c:	463a      	mov	r2, r7
2ffeeb8e:	4621      	mov	r1, r4
2ffeeb90:	f005 f828 	bl	2fff3be4 <fdt_read_uint32_default>
2ffeeb94:	4605      	mov	r5, r0
2ffeeb96:	e7e3      	b.n	2ffeeb60 <fdt_clk_read_uint32_default+0x28>
2ffeeb98:	2fff8609 	.word	0x2fff8609

2ffeeb9c <fdt_get_clock_id>:
2ffeeb9c:	b513      	push	{r0, r1, r4, lr}
2ffeeb9e:	4604      	mov	r4, r0
2ffeeba0:	a801      	add	r0, sp, #4
2ffeeba2:	f000 ffa1 	bl	2ffefae8 <fdt_get_address>
2ffeeba6:	b150      	cbz	r0, 2ffeebbe <fdt_get_clock_id+0x22>
2ffeeba8:	4a08      	ldr	r2, [pc, #32]	@ (2ffeebcc <fdt_get_clock_id+0x30>)
2ffeebaa:	2300      	movs	r3, #0
2ffeebac:	9801      	ldr	r0, [sp, #4]
2ffeebae:	4621      	mov	r1, r4
2ffeebb0:	f006 face 	bl	2fff5150 <fdt_getprop>
2ffeebb4:	b130      	cbz	r0, 2ffeebc4 <fdt_get_clock_id+0x28>
2ffeebb6:	6840      	ldr	r0, [r0, #4]
2ffeebb8:	ba00      	rev	r0, r0
2ffeebba:	b002      	add	sp, #8
2ffeebbc:	bd10      	pop	{r4, pc}
2ffeebbe:	f06f 0001 	mvn.w	r0, #1
2ffeebc2:	e7fa      	b.n	2ffeebba <fdt_get_clock_id+0x1e>
2ffeebc4:	f04f 30ff 	mov.w	r0, #4294967295	@ 0xffffffff
2ffeebc8:	e7f7      	b.n	2ffeebba <fdt_get_clock_id+0x1e>
2ffeebca:	bf00      	nop
2ffeebcc:	2fff860a 	.word	0x2fff860a

2ffeebd0 <stm32mp_stgen_config>:
2ffeebd0:	b570      	push	{r4, r5, r6, lr}
2ffeebd2:	4604      	mov	r4, r0
2ffeebd4:	4d10      	ldr	r5, [pc, #64]	@ (2ffeec18 <stm32mp_stgen_config+0x48>)
2ffeebd6:	6a2a      	ldr	r2, [r5, #32]
2ffeebd8:	4290      	cmp	r0, r2
2ffeebda:	d01b      	beq.n	2ffeec14 <stm32mp_stgen_config+0x44>
2ffeebdc:	682b      	ldr	r3, [r5, #0]
2ffeebde:	f023 0301 	bic.w	r3, r3, #1
2ffeebe2:	602b      	str	r3, [r5, #0]
2ffeebe4:	b152      	cbz	r2, 2ffeebfc <stm32mp_stgen_config+0x2c>
2ffeebe6:	68ee      	ldr	r6, [r5, #12]
2ffeebe8:	2300      	movs	r3, #0
2ffeebea:	68a8      	ldr	r0, [r5, #8]
2ffeebec:	fba0 0104 	umull	r0, r1, r0, r4
2ffeebf0:	fb04 1106 	mla	r1, r4, r6, r1
2ffeebf4:	f004 ec36 	blx	2fff3464 <__aeabi_uldivmod>
2ffeebf8:	60a8      	str	r0, [r5, #8]
2ffeebfa:	60e9      	str	r1, [r5, #12]
2ffeebfc:	4b06      	ldr	r3, [pc, #24]	@ (2ffeec18 <stm32mp_stgen_config+0x48>)
2ffeebfe:	621c      	str	r4, [r3, #32]
2ffeec00:	681a      	ldr	r2, [r3, #0]
2ffeec02:	f042 0201 	orr.w	r2, r2, #1
2ffeec06:	601a      	str	r2, [r3, #0]
2ffeec08:	ee0e 4f10 	mcr	15, 0, r4, cr14, cr0, {0}
2ffeec0c:	e8bd 4070 	ldmia.w	sp!, {r4, r5, r6, lr}
2ffeec10:	f7ff beee 	b.w	2ffee9f0 <generic_delay_timer_init>
2ffeec14:	bd70      	pop	{r4, r5, r6, pc}
2ffeec16:	bf00      	nop
2ffeec18:	5c008000 	.word	0x5c008000

2ffeec1c <stm32mp_stgen_restore_rate>:
2ffeec1c:	4b02      	ldr	r3, [pc, #8]	@ (2ffeec28 <stm32mp_stgen_restore_rate+0xc>)
2ffeec1e:	6a1b      	ldr	r3, [r3, #32]
2ffeec20:	ee0e 3f10 	mcr	15, 0, r3, cr14, cr0, {0}
2ffeec24:	4770      	bx	lr
2ffeec26:	bf00      	nop
2ffeec28:	5c008000 	.word	0x5c008000

2ffeec2c <stm32mp_ddr_set_reg>:
2ffeec2c:	b5f8      	push	{r3, r4, r5, r6, r7, lr}
2ffeec2e:	eb03 1301 	add.w	r3, r3, r1, lsl #4
2ffeec32:	68d9      	ldr	r1, [r3, #12]
2ffeec34:	7a1d      	ldrb	r5, [r3, #8]
2ffeec36:	2901      	cmp	r1, #1
2ffeec38:	6859      	ldr	r1, [r3, #4]
2ffeec3a:	f04f 0300 	mov.w	r3, #0
2ffeec3e:	bf0c      	ite	eq
2ffeec40:	6940      	ldreq	r0, [r0, #20]
2ffeec42:	6900      	ldrne	r0, [r0, #16]
2ffeec44:	1c8e      	adds	r6, r1, #2
2ffeec46:	42ab      	cmp	r3, r5
2ffeec48:	d300      	bcc.n	2ffeec4c <stm32mp_ddr_set_reg+0x20>
2ffeec4a:	bdf8      	pop	{r3, r4, r5, r6, r7, pc}
2ffeec4c:	f816 4023 	ldrb.w	r4, [r6, r3, lsl #2]
2ffeec50:	f831 7023 	ldrh.w	r7, [r1, r3, lsl #2]
2ffeec54:	2cff      	cmp	r4, #255	@ 0xff
2ffeec56:	d106      	bne.n	2ffeec66 <stm32mp_ddr_set_reg+0x3a>
2ffeec58:	4805      	ldr	r0, [pc, #20]	@ (2ffeec70 <stm32mp_ddr_set_reg+0x44>)
2ffeec5a:	f7fe fddd 	bl	2ffed818 <tf_log>
2ffeec5e:	f7fe fe77 	bl	2ffed950 <console_flush>
2ffeec62:	f7fa ebbc 	blx	2ffe93dc <do_panic>
2ffeec66:	5914      	ldr	r4, [r2, r4]
2ffeec68:	3301      	adds	r3, #1
2ffeec6a:	503c      	str	r4, [r7, r0]
2ffeec6c:	e7eb      	b.n	2ffeec46 <stm32mp_ddr_set_reg+0x1a>
2ffeec6e:	bf00      	nop
2ffeec70:	2fff8621 	.word	0x2fff8621

2ffeec74 <stm32mp_ddr_sw_selfref_entry>:
2ffeec74:	b5f8      	push	{r3, r4, r5, r6, r7, lr}
2ffeec76:	4604      	mov	r4, r0
2ffeec78:	6b03      	ldr	r3, [r0, #48]	@ 0x30
2ffeec7a:	f043 0320 	orr.w	r3, r3, #32
2ffeec7e:	6303      	str	r3, [r0, #48]	@ 0x30
2ffeec80:	ee1e 1f10 	mrc	15, 0, r1, cr14, cr0, {0}
2ffeec84:	ec57 6f0e 	mrrc	15, 0, r6, r7, cr14
2ffeec88:	4a0f      	ldr	r2, [pc, #60]	@ (2ffeecc8 <stm32mp_ddr_sw_selfref_entry+0x54>)
2ffeec8a:	f44f 70fa 	mov.w	r0, #500	@ 0x1f4
2ffeec8e:	2300      	movs	r3, #0
2ffeec90:	fba1 0100 	umull	r0, r1, r1, r0
2ffeec94:	f004 ebe6 	blx	2fff3464 <__aeabi_uldivmod>
2ffeec98:	1983      	adds	r3, r0, r6
2ffeec9a:	eb41 0107 	adc.w	r1, r1, r7
2ffeec9e:	ec57 6f0e 	mrrc	15, 0, r6, r7, cr14
2ffeeca2:	42b3      	cmp	r3, r6
2ffeeca4:	eb71 0207 	sbcs.w	r2, r1, r7
2ffeeca8:	d202      	bcs.n	2ffeecb0 <stm32mp_ddr_sw_selfref_entry+0x3c>
2ffeecaa:	f04f 30ff 	mov.w	r0, #4294967295	@ 0xffffffff
2ffeecae:	bdf8      	pop	{r3, r4, r5, r6, r7, pc}
2ffeecb0:	6862      	ldr	r2, [r4, #4]
2ffeecb2:	f002 0007 	and.w	r0, r2, #7
2ffeecb6:	2803      	cmp	r0, #3
2ffeecb8:	d1f1      	bne.n	2ffeec9e <stm32mp_ddr_sw_selfref_entry+0x2a>
2ffeecba:	f002 0230 	and.w	r2, r2, #48	@ 0x30
2ffeecbe:	2a20      	cmp	r2, #32
2ffeecc0:	d1ed      	bne.n	2ffeec9e <stm32mp_ddr_sw_selfref_entry+0x2a>
2ffeecc2:	2000      	movs	r0, #0
2ffeecc4:	e7f3      	b.n	2ffeecae <stm32mp_ddr_sw_selfref_entry+0x3a>
2ffeecc6:	bf00      	nop
2ffeecc8:	000f4240 	.word	0x000f4240

2ffeeccc <stm32mp_ddr_set_qd3_update_conditions>:
2ffeeccc:	f8d0 3490 	ldr.w	r3, [r0, #1168]	@ 0x490
2ffeecd0:	b510      	push	{r4, lr}
2ffeecd2:	4604      	mov	r4, r0
2ffeecd4:	07da      	lsls	r2, r3, #31
2ffeecd6:	d509      	bpl.n	2ffeecec <stm32mp_ddr_set_qd3_update_conditions+0x20>
2ffeecd8:	f005 fbc6 	bl	2fff4468 <stm32mp_ddr_disable_axi_port>
2ffeecdc:	b118      	cbz	r0, 2ffeece6 <stm32mp_ddr_set_qd3_update_conditions+0x1a>
2ffeecde:	f7fe fe37 	bl	2ffed950 <console_flush>
2ffeece2:	f7fa eb7c 	blx	2ffe93dc <do_panic>
2ffeece6:	4b0a      	ldr	r3, [pc, #40]	@ (2ffeed10 <stm32mp_ddr_set_qd3_update_conditions+0x44>)
2ffeece8:	2201      	movs	r2, #1
2ffeecea:	701a      	strb	r2, [r3, #0]
2ffeecec:	f8d4 3304 	ldr.w	r3, [r4, #772]	@ 0x304
2ffeecf0:	079b      	lsls	r3, r3, #30
2ffeecf2:	d405      	bmi.n	2ffeed00 <stm32mp_ddr_set_qd3_update_conditions+0x34>
2ffeecf4:	4620      	mov	r0, r4
2ffeecf6:	f005 fbe1 	bl	2fff44bc <stm32mp_ddr_disable_host_interface>
2ffeecfa:	4b06      	ldr	r3, [pc, #24]	@ (2ffeed14 <stm32mp_ddr_set_qd3_update_conditions+0x48>)
2ffeecfc:	2201      	movs	r2, #1
2ffeecfe:	701a      	strb	r2, [r3, #0]
2ffeed00:	f8d4 3320 	ldr.w	r3, [r4, #800]	@ 0x320
2ffeed04:	f023 0301 	bic.w	r3, r3, #1
2ffeed08:	f8c4 3320 	str.w	r3, [r4, #800]	@ 0x320
2ffeed0c:	bd10      	pop	{r4, pc}
2ffeed0e:	bf00      	nop
2ffeed10:	2fffc3f5 	.word	0x2fffc3f5
2ffeed14:	2fffc3f4 	.word	0x2fffc3f4

2ffeed18 <stm32mp_ddr_unset_qd3_update_conditions>:
2ffeed18:	b510      	push	{r4, lr}
2ffeed1a:	4604      	mov	r4, r0
2ffeed1c:	f005 fb7a 	bl	2fff4414 <stm32mp_ddr_wait_sw_done_ack>
2ffeed20:	4a09      	ldr	r2, [pc, #36]	@ (2ffeed48 <stm32mp_ddr_unset_qd3_update_conditions+0x30>)
2ffeed22:	7813      	ldrb	r3, [r2, #0]
2ffeed24:	b13b      	cbz	r3, 2ffeed36 <stm32mp_ddr_unset_qd3_update_conditions+0x1e>
2ffeed26:	f8d4 3304 	ldr.w	r3, [r4, #772]	@ 0x304
2ffeed2a:	f023 0302 	bic.w	r3, r3, #2
2ffeed2e:	f8c4 3304 	str.w	r3, [r4, #772]	@ 0x304
2ffeed32:	2300      	movs	r3, #0
2ffeed34:	7013      	strb	r3, [r2, #0]
2ffeed36:	4a05      	ldr	r2, [pc, #20]	@ (2ffeed4c <stm32mp_ddr_unset_qd3_update_conditions+0x34>)
2ffeed38:	7813      	ldrb	r3, [r2, #0]
2ffeed3a:	b123      	cbz	r3, 2ffeed46 <stm32mp_ddr_unset_qd3_update_conditions+0x2e>
2ffeed3c:	4620      	mov	r0, r4
2ffeed3e:	f005 fb86 	bl	2fff444e <stm32mp_ddr_enable_axi_port>
2ffeed42:	2300      	movs	r3, #0
2ffeed44:	7013      	strb	r3, [r2, #0]
2ffeed46:	bd10      	pop	{r4, pc}
2ffeed48:	2fffc3f4 	.word	0x2fffc3f4
2ffeed4c:	2fffc3f5 	.word	0x2fffc3f5

2ffeed50 <set_gpio.constprop.0>:
2ffeed50:	e92d 4ff7 	stmdb	sp!, {r0, r1, r2, r4, r5, r6, r7, r8, r9, sl, fp, lr}
2ffeed54:	460c      	mov	r4, r1
2ffeed56:	9001      	str	r0, [sp, #4]
2ffeed58:	4616      	mov	r6, r2
2ffeed5a:	461d      	mov	r5, r3
2ffeed5c:	e9dd 980c 	ldrd	r9, r8, [sp, #48]	@ 0x30
2ffeed60:	e9dd 7a0e 	ldrd	r7, sl, [sp, #56]	@ 0x38
2ffeed64:	f001 f95e 	bl	2fff0024 <stm32_get_gpio_bank_base>
2ffeed68:	4683      	mov	fp, r0
2ffeed6a:	9801      	ldr	r0, [sp, #4]
2ffeed6c:	f001 f97e 	bl	2fff006c <stm32_get_gpio_bank_clock>
2ffeed70:	9001      	str	r0, [sp, #4]
2ffeed72:	2c0f      	cmp	r4, #15
2ffeed74:	d903      	bls.n	2ffeed7e <set_gpio.constprop.0+0x2e>
2ffeed76:	4831      	ldr	r0, [pc, #196]	@ (2ffeee3c <set_gpio.constprop.0+0xec>)
2ffeed78:	21ea      	movs	r1, #234	@ 0xea
2ffeed7a:	f004 fcd7 	bl	2fff372c <__assert>
2ffeed7e:	40a5      	lsls	r5, r4
2ffeed80:	f7ff fd7e 	bl	2ffee880 <clk_enable>
2ffeed84:	ea4f 0c44 	mov.w	ip, r4, lsl #1
2ffeed88:	2203      	movs	r2, #3
2ffeed8a:	f8db 1000 	ldr.w	r1, [fp]
2ffeed8e:	2001      	movs	r0, #1
2ffeed90:	fa02 f20c 	lsl.w	r2, r2, ip
2ffeed94:	2c07      	cmp	r4, #7
2ffeed96:	ea21 0102 	bic.w	r1, r1, r2
2ffeed9a:	fa06 f60c 	lsl.w	r6, r6, ip
2ffeed9e:	ea46 0601 	orr.w	r6, r6, r1
2ffeeda2:	f8cb 6000 	str.w	r6, [fp]
2ffeeda6:	f8db 6004 	ldr.w	r6, [fp, #4]
2ffeedaa:	fa00 f004 	lsl.w	r0, r0, r4
2ffeedae:	ea26 0600 	bic.w	r6, r6, r0
2ffeedb2:	ea45 0506 	orr.w	r5, r5, r6
2ffeedb6:	f8cb 5004 	str.w	r5, [fp, #4]
2ffeedba:	ea6f 0100 	mvn.w	r1, r0
2ffeedbe:	f8db 0008 	ldr.w	r0, [fp, #8]
2ffeedc2:	fa09 f90c 	lsl.w	r9, r9, ip
2ffeedc6:	ea20 0002 	bic.w	r0, r0, r2
2ffeedca:	ea49 0000 	orr.w	r0, r9, r0
2ffeedce:	f8cb 0008 	str.w	r0, [fp, #8]
2ffeedd2:	f8db 000c 	ldr.w	r0, [fp, #12]
2ffeedd6:	fa08 f80c 	lsl.w	r8, r8, ip
2ffeedda:	ea20 0202 	bic.w	r2, r0, r2
2ffeedde:	ea48 0202 	orr.w	r2, r8, r2
2ffeede2:	f8cb 200c 	str.w	r2, [fp, #12]
2ffeede6:	f04f 020f 	mov.w	r2, #15
2ffeedea:	d817      	bhi.n	2ffeee1c <set_gpio.constprop.0+0xcc>
2ffeedec:	00a5      	lsls	r5, r4, #2
2ffeedee:	f8db 0020 	ldr.w	r0, [fp, #32]
2ffeedf2:	40aa      	lsls	r2, r5
2ffeedf4:	ea20 0202 	bic.w	r2, r0, r2
2ffeedf8:	fa0a f505 	lsl.w	r5, sl, r5
2ffeedfc:	432a      	orrs	r2, r5
2ffeedfe:	f8cb 2020 	str.w	r2, [fp, #32]
2ffeee02:	f8db 2014 	ldr.w	r2, [fp, #20]
2ffeee06:	40a7      	lsls	r7, r4
2ffeee08:	9801      	ldr	r0, [sp, #4]
2ffeee0a:	4011      	ands	r1, r2
2ffeee0c:	430f      	orrs	r7, r1
2ffeee0e:	f8cb 7014 	str.w	r7, [fp, #20]
2ffeee12:	b003      	add	sp, #12
2ffeee14:	e8bd 4ff0 	ldmia.w	sp!, {r4, r5, r6, r7, r8, r9, sl, fp, lr}
2ffeee18:	f7ff bd44 	b.w	2ffee8a4 <clk_disable>
2ffeee1c:	f8db 0024 	ldr.w	r0, [fp, #36]	@ 0x24
2ffeee20:	f1a4 0508 	sub.w	r5, r4, #8
2ffeee24:	00ad      	lsls	r5, r5, #2
2ffeee26:	40aa      	lsls	r2, r5
2ffeee28:	ea20 0202 	bic.w	r2, r0, r2
2ffeee2c:	fa0a fa05 	lsl.w	sl, sl, r5
2ffeee30:	ea42 020a 	orr.w	r2, r2, sl
2ffeee34:	f8cb 2024 	str.w	r2, [fp, #36]	@ 0x24
2ffeee38:	e7e3      	b.n	2ffeee02 <set_gpio.constprop.0+0xb2>
2ffeee3a:	bf00      	nop
2ffeee3c:	2fff863c 	.word	0x2fff863c

2ffeee40 <dt_set_pinctrl_config>:
2ffeee40:	e92d 4ff0 	stmdb	sp!, {r4, r5, r6, r7, r8, r9, sl, fp, lr}
2ffeee44:	b093      	sub	sp, #76	@ 0x4c
2ffeee46:	4604      	mov	r4, r0
2ffeee48:	a810      	add	r0, sp, #64	@ 0x40
2ffeee4a:	f000 fe4d 	bl	2ffefae8 <fdt_get_address>
2ffeee4e:	b920      	cbnz	r0, 2ffeee5a <dt_set_pinctrl_config+0x1a>
2ffeee50:	f04f 30ff 	mov.w	r0, #4294967295	@ 0xffffffff
2ffeee54:	b013      	add	sp, #76	@ 0x4c
2ffeee56:	e8bd 8ff0 	ldmia.w	sp!, {r4, r5, r6, r7, r8, r9, sl, fp, pc}
2ffeee5a:	4620      	mov	r0, r4
2ffeee5c:	f000 fe5e 	bl	2ffefb1c <fdt_get_status>
2ffeee60:	2800      	cmp	r0, #0
2ffeee62:	d0f5      	beq.n	2ffeee50 <dt_set_pinctrl_config+0x10>
2ffeee64:	4a7a      	ldr	r2, [pc, #488]	@ (2ffef050 <dt_set_pinctrl_config+0x210>)
2ffeee66:	ab0f      	add	r3, sp, #60	@ 0x3c
2ffeee68:	9810      	ldr	r0, [sp, #64]	@ 0x40
2ffeee6a:	4621      	mov	r1, r4
2ffeee6c:	f006 f970 	bl	2fff5150 <fdt_getprop>
2ffeee70:	9006      	str	r0, [sp, #24]
2ffeee72:	2800      	cmp	r0, #0
2ffeee74:	d0ec      	beq.n	2ffeee50 <dt_set_pinctrl_config+0x10>
2ffeee76:	f04f 0a00 	mov.w	sl, #0
2ffeee7a:	9b0f      	ldr	r3, [sp, #60]	@ 0x3c
2ffeee7c:	ebba 0f93 	cmp.w	sl, r3, lsr #2
2ffeee80:	d301      	bcc.n	2ffeee86 <dt_set_pinctrl_config+0x46>
2ffeee82:	2000      	movs	r0, #0
2ffeee84:	e7e6      	b.n	2ffeee54 <dt_set_pinctrl_config+0x14>
2ffeee86:	9b06      	ldr	r3, [sp, #24]
2ffeee88:	f853 002a 	ldr.w	r0, [r3, sl, lsl #2]
2ffeee8c:	f005 fb66 	bl	2fff455c <fdt32_to_cpu>
2ffeee90:	4601      	mov	r1, r0
2ffeee92:	9810      	ldr	r0, [sp, #64]	@ 0x40
2ffeee94:	f006 fa19 	bl	2fff52ca <fdt_node_offset_by_phandle>
2ffeee98:	1e01      	subs	r1, r0, #0
2ffeee9a:	dbd9      	blt.n	2ffeee50 <dt_set_pinctrl_config+0x10>
2ffeee9c:	9810      	ldr	r0, [sp, #64]	@ 0x40
2ffeee9e:	f005 ffe6 	bl	2fff4e6e <fdt_first_subnode>
2ffeeea2:	2800      	cmp	r0, #0
2ffeeea4:	4605      	mov	r5, r0
2ffeeea6:	da02      	bge.n	2ffeeeae <dt_set_pinctrl_config+0x6e>
2ffeeea8:	f10a 0a01 	add.w	sl, sl, #1
2ffeeeac:	e7e5      	b.n	2ffeee7a <dt_set_pinctrl_config+0x3a>
2ffeeeae:	9e10      	ldr	r6, [sp, #64]	@ 0x40
2ffeeeb0:	ab11      	add	r3, sp, #68	@ 0x44
2ffeeeb2:	4a68      	ldr	r2, [pc, #416]	@ (2ffef054 <dt_set_pinctrl_config+0x214>)
2ffeeeb4:	4629      	mov	r1, r5
2ffeeeb6:	4630      	mov	r0, r6
2ffeeeb8:	f006 f94a 	bl	2fff5150 <fdt_getprop>
2ffeeebc:	9007      	str	r0, [sp, #28]
2ffeeebe:	2800      	cmp	r0, #0
2ffeeec0:	d0c6      	beq.n	2ffeee50 <dt_set_pinctrl_config+0x10>
2ffeeec2:	4629      	mov	r1, r5
2ffeeec4:	4630      	mov	r0, r6
2ffeeec6:	f006 f9f0 	bl	2fff52aa <fdt_parent_offset>
2ffeeeca:	4601      	mov	r1, r0
2ffeeecc:	4630      	mov	r0, r6
2ffeeece:	f006 f9ec 	bl	2fff52aa <fdt_parent_offset>
2ffeeed2:	1e03      	subs	r3, r0, #0
2ffeeed4:	930a      	str	r3, [sp, #40]	@ 0x28
2ffeeed6:	dbbb      	blt.n	2ffeee50 <dt_set_pinctrl_config+0x10>
2ffeeed8:	4a5f      	ldr	r2, [pc, #380]	@ (2ffef058 <dt_set_pinctrl_config+0x218>)
2ffeeeda:	2300      	movs	r3, #0
2ffeeedc:	4629      	mov	r1, r5
2ffeeede:	4630      	mov	r0, r6
2ffeeee0:	f006 f936 	bl	2fff5150 <fdt_getprop>
2ffeeee4:	b110      	cbz	r0, 2ffeeeec <dt_set_pinctrl_config+0xac>
2ffeeee6:	6800      	ldr	r0, [r0, #0]
2ffeeee8:	f005 fb38 	bl	2fff455c <fdt32_to_cpu>
2ffeeeec:	9008      	str	r0, [sp, #32]
2ffeeeee:	2300      	movs	r3, #0
2ffeeef0:	4a5a      	ldr	r2, [pc, #360]	@ (2ffef05c <dt_set_pinctrl_config+0x21c>)
2ffeeef2:	4629      	mov	r1, r5
2ffeeef4:	4630      	mov	r0, r6
2ffeeef6:	f006 f92b 	bl	2fff5150 <fdt_getprop>
2ffeeefa:	4603      	mov	r3, r0
2ffeeefc:	b9a0      	cbnz	r0, 2ffeef28 <dt_set_pinctrl_config+0xe8>
2ffeeefe:	4a58      	ldr	r2, [pc, #352]	@ (2ffef060 <dt_set_pinctrl_config+0x220>)
2ffeef00:	4629      	mov	r1, r5
2ffeef02:	4630      	mov	r0, r6
2ffeef04:	f006 f924 	bl	2fff5150 <fdt_getprop>
2ffeef08:	3800      	subs	r0, #0
2ffeef0a:	bf18      	it	ne
2ffeef0c:	2001      	movne	r0, #1
2ffeef0e:	0043      	lsls	r3, r0, #1
2ffeef10:	9309      	str	r3, [sp, #36]	@ 0x24
2ffeef12:	f04f 0b00 	mov.w	fp, #0
2ffeef16:	9b11      	ldr	r3, [sp, #68]	@ 0x44
2ffeef18:	ebbb 0f93 	cmp.w	fp, r3, lsr #2
2ffeef1c:	d306      	bcc.n	2ffeef2c <dt_set_pinctrl_config+0xec>
2ffeef1e:	9810      	ldr	r0, [sp, #64]	@ 0x40
2ffeef20:	4629      	mov	r1, r5
2ffeef22:	f005 ffb7 	bl	2fff4e94 <fdt_next_subnode>
2ffeef26:	e7bc      	b.n	2ffeeea2 <dt_set_pinctrl_config+0x62>
2ffeef28:	2301      	movs	r3, #1
2ffeef2a:	e7f1      	b.n	2ffeef10 <dt_set_pinctrl_config+0xd0>
2ffeef2c:	9b07      	ldr	r3, [sp, #28]
2ffeef2e:	f853 002b 	ldr.w	r0, [r3, fp, lsl #2]
2ffeef32:	f005 fb13 	bl	2fff455c <fdt32_to_cpu>
2ffeef36:	f3c0 3304 	ubfx	r3, r0, #12, #5
2ffeef3a:	b2c4      	uxtb	r4, r0
2ffeef3c:	9305      	str	r3, [sp, #20]
2ffeef3e:	2c10      	cmp	r4, #16
2ffeef40:	f3c0 2303 	ubfx	r3, r0, #8, #4
2ffeef44:	930b      	str	r3, [sp, #44]	@ 0x2c
2ffeef46:	d833      	bhi.n	2ffeefb0 <dt_set_pinctrl_config+0x170>
2ffeef48:	2c00      	cmp	r4, #0
2ffeef4a:	d137      	bne.n	2ffeefbc <dt_set_pinctrl_config+0x17c>
2ffeef4c:	46a0      	mov	r8, r4
2ffeef4e:	4a45      	ldr	r2, [pc, #276]	@ (2ffef064 <dt_set_pinctrl_config+0x224>)
2ffeef50:	2300      	movs	r3, #0
2ffeef52:	4629      	mov	r1, r5
2ffeef54:	4630      	mov	r0, r6
2ffeef56:	f006 f8fb 	bl	2fff5150 <fdt_getprop>
2ffeef5a:	1e03      	subs	r3, r0, #0
2ffeef5c:	4629      	mov	r1, r5
2ffeef5e:	4a42      	ldr	r2, [pc, #264]	@ (2ffef068 <dt_set_pinctrl_config+0x228>)
2ffeef60:	bf18      	it	ne
2ffeef62:	2301      	movne	r3, #1
2ffeef64:	930d      	str	r3, [sp, #52]	@ 0x34
2ffeef66:	4630      	mov	r0, r6
2ffeef68:	2300      	movs	r3, #0
2ffeef6a:	f006 f8f1 	bl	2fff5150 <fdt_getprop>
2ffeef6e:	4607      	mov	r7, r0
2ffeef70:	b110      	cbz	r0, 2ffeef78 <dt_set_pinctrl_config+0x138>
2ffeef72:	bb4c      	cbnz	r4, 2ffeefc8 <dt_set_pinctrl_config+0x188>
2ffeef74:	2401      	movs	r4, #1
2ffeef76:	4627      	mov	r7, r4
2ffeef78:	4a3c      	ldr	r2, [pc, #240]	@ (2ffef06c <dt_set_pinctrl_config+0x22c>)
2ffeef7a:	2300      	movs	r3, #0
2ffeef7c:	4629      	mov	r1, r5
2ffeef7e:	4630      	mov	r0, r6
2ffeef80:	f006 f8e6 	bl	2fff5150 <fdt_getprop>
2ffeef84:	b110      	cbz	r0, 2ffeef8c <dt_set_pinctrl_config+0x14c>
2ffeef86:	b90c      	cbnz	r4, 2ffeef8c <dt_set_pinctrl_config+0x14c>
2ffeef88:	4627      	mov	r7, r4
2ffeef8a:	2401      	movs	r4, #1
2ffeef8c:	9805      	ldr	r0, [sp, #20]
2ffeef8e:	f001 f85d 	bl	2fff004c <stm32_get_gpio_bank_offset>
2ffeef92:	900c      	str	r0, [sp, #48]	@ 0x30
2ffeef94:	4630      	mov	r0, r6
2ffeef96:	990a      	ldr	r1, [sp, #40]	@ 0x28
2ffeef98:	f005 ff69 	bl	2fff4e6e <fdt_first_subnode>
2ffeef9c:	2800      	cmp	r0, #0
2ffeef9e:	4681      	mov	r9, r0
2ffeefa0:	da14      	bge.n	2ffeefcc <dt_set_pinctrl_config+0x18c>
2ffeefa2:	4833      	ldr	r0, [pc, #204]	@ (2ffef070 <dt_set_pinctrl_config+0x230>)
2ffeefa4:	f7fe fc38 	bl	2ffed818 <tf_log>
2ffeefa8:	f7fe fcd2 	bl	2ffed950 <console_flush>
2ffeefac:	f7fa ea16 	blx	2ffe93dc <do_panic>
2ffeefb0:	2c11      	cmp	r4, #17
2ffeefb2:	f04f 0800 	mov.w	r8, #0
2ffeefb6:	d005      	beq.n	2ffeefc4 <dt_set_pinctrl_config+0x184>
2ffeefb8:	2401      	movs	r4, #1
2ffeefba:	e7c8      	b.n	2ffeef4e <dt_set_pinctrl_config+0x10e>
2ffeefbc:	f104 38ff 	add.w	r8, r4, #4294967295	@ 0xffffffff
2ffeefc0:	2402      	movs	r4, #2
2ffeefc2:	e7c4      	b.n	2ffeef4e <dt_set_pinctrl_config+0x10e>
2ffeefc4:	2403      	movs	r4, #3
2ffeefc6:	e7c2      	b.n	2ffeef4e <dt_set_pinctrl_config+0x10e>
2ffeefc8:	2700      	movs	r7, #0
2ffeefca:	e7d5      	b.n	2ffeef78 <dt_set_pinctrl_config+0x138>
2ffeefcc:	4a29      	ldr	r2, [pc, #164]	@ (2ffef074 <dt_set_pinctrl_config+0x234>)
2ffeefce:	2300      	movs	r3, #0
2ffeefd0:	4649      	mov	r1, r9
2ffeefd2:	4630      	mov	r0, r6
2ffeefd4:	f006 f8bc 	bl	2fff5150 <fdt_getprop>
2ffeefd8:	b920      	cbnz	r0, 2ffeefe4 <dt_set_pinctrl_config+0x1a4>
2ffeefda:	4649      	mov	r1, r9
2ffeefdc:	4630      	mov	r0, r6
2ffeefde:	f005 ff59 	bl	2fff4e94 <fdt_next_subnode>
2ffeefe2:	e7db      	b.n	2ffeef9c <dt_set_pinctrl_config+0x15c>
2ffeefe4:	4a24      	ldr	r2, [pc, #144]	@ (2ffef078 <dt_set_pinctrl_config+0x238>)
2ffeefe6:	2300      	movs	r3, #0
2ffeefe8:	4649      	mov	r1, r9
2ffeefea:	4630      	mov	r0, r6
2ffeefec:	f006 f8b0 	bl	2fff5150 <fdt_getprop>
2ffeeff0:	2800      	cmp	r0, #0
2ffeeff2:	d0f2      	beq.n	2ffeefda <dt_set_pinctrl_config+0x19a>
2ffeeff4:	6800      	ldr	r0, [r0, #0]
2ffeeff6:	f005 fab1 	bl	2fff455c <fdt32_to_cpu>
2ffeeffa:	9b0c      	ldr	r3, [sp, #48]	@ 0x30
2ffeeffc:	4283      	cmp	r3, r0
2ffeeffe:	d1ec      	bne.n	2ffeefda <dt_set_pinctrl_config+0x19a>
2ffef000:	4648      	mov	r0, r9
2ffef002:	f000 fd8b 	bl	2ffefb1c <fdt_get_status>
2ffef006:	2800      	cmp	r0, #0
2ffef008:	d0e7      	beq.n	2ffeefda <dt_set_pinctrl_config+0x19a>
2ffef00a:	f1b9 0f00 	cmp.w	r9, #0
2ffef00e:	d0c8      	beq.n	2ffeefa2 <dt_set_pinctrl_config+0x162>
2ffef010:	4648      	mov	r0, r9
2ffef012:	f7ff fdc3 	bl	2ffeeb9c <fdt_get_clock_id>
2ffef016:	f1b0 0900 	subs.w	r9, r0, #0
2ffef01a:	f6ff af19 	blt.w	2ffeee50 <dt_set_pinctrl_config+0x10>
2ffef01e:	9805      	ldr	r0, [sp, #20]
2ffef020:	f001 f824 	bl	2fff006c <stm32_get_gpio_bank_clock>
2ffef024:	4548      	cmp	r0, r9
2ffef026:	d003      	beq.n	2ffef030 <dt_set_pinctrl_config+0x1f0>
2ffef028:	4814      	ldr	r0, [pc, #80]	@ (2ffef07c <dt_set_pinctrl_config+0x23c>)
2ffef02a:	21aa      	movs	r1, #170	@ 0xaa
2ffef02c:	f004 fb7e 	bl	2fff372c <__assert>
2ffef030:	9b09      	ldr	r3, [sp, #36]	@ 0x24
2ffef032:	4622      	mov	r2, r4
2ffef034:	990b      	ldr	r1, [sp, #44]	@ 0x2c
2ffef036:	f10b 0b01 	add.w	fp, fp, #1
2ffef03a:	9301      	str	r3, [sp, #4]
2ffef03c:	9b08      	ldr	r3, [sp, #32]
2ffef03e:	9805      	ldr	r0, [sp, #20]
2ffef040:	9300      	str	r3, [sp, #0]
2ffef042:	f8cd 800c 	str.w	r8, [sp, #12]
2ffef046:	9b0d      	ldr	r3, [sp, #52]	@ 0x34
2ffef048:	9702      	str	r7, [sp, #8]
2ffef04a:	f7ff fe81 	bl	2ffeed50 <set_gpio.constprop.0>
2ffef04e:	e762      	b.n	2ffeef16 <dt_set_pinctrl_config+0xd6>
2ffef050:	2fff8659 	.word	0x2fff8659
2ffef054:	2fff8663 	.word	0x2fff8663
2ffef058:	2fff866a 	.word	0x2fff866a
2ffef05c:	2fff8674 	.word	0x2fff8674
2ffef060:	2fff8681 	.word	0x2fff8681
2ffef064:	2fff8690 	.word	0x2fff8690
2ffef068:	2fff86a1 	.word	0x2fff86a1
2ffef06c:	2fff86ad 	.word	0x2fff86ad
2ffef070:	2fff86c8 	.word	0x2fff86c8
2ffef074:	2fff86b8 	.word	0x2fff86b8
2ffef078:	2fff72ef 	.word	0x2fff72ef
2ffef07c:	2fff863c 	.word	0x2fff863c

2ffef080 <nvmem_driver_register>:
2ffef080:	4b06      	ldr	r3, [pc, #24]	@ (2ffef09c <nvmem_driver_register+0x1c>)
2ffef082:	b510      	push	{r4, lr}
2ffef084:	4604      	mov	r4, r0
2ffef086:	6858      	ldr	r0, [r3, #4]
2ffef088:	b128      	cbz	r0, 2ffef096 <nvmem_driver_register+0x16>
2ffef08a:	4805      	ldr	r0, [pc, #20]	@ (2ffef0a0 <nvmem_driver_register+0x20>)
2ffef08c:	f7fe fbc4 	bl	2ffed818 <tf_log>
2ffef090:	f06f 000b 	mvn.w	r0, #11
2ffef094:	bd10      	pop	{r4, pc}
2ffef096:	e883 0016 	stmia.w	r3, {r1, r2, r4}
2ffef09a:	e7fb      	b.n	2ffef094 <nvmem_driver_register+0x14>
2ffef09c:	2fffbb48 	.word	0x2fffbb48
2ffef0a0:	2fff86e5 	.word	0x2fff86e5

2ffef0a4 <nvmem_get_cell_by_index>:
2ffef0a4:	b5f7      	push	{r0, r1, r2, r4, r5, r6, r7, lr}
2ffef0a6:	4617      	mov	r7, r2
2ffef0a8:	4a1c      	ldr	r2, [pc, #112]	@ (2ffef11c <nvmem_get_cell_by_index+0x78>)
2ffef0aa:	461d      	mov	r5, r3
2ffef0ac:	2400      	movs	r4, #0
2ffef0ae:	ab01      	add	r3, sp, #4
2ffef0b0:	9401      	str	r4, [sp, #4]
2ffef0b2:	4606      	mov	r6, r0
2ffef0b4:	f006 f84c 	bl	2fff5150 <fdt_getprop>
2ffef0b8:	b928      	cbnz	r0, 2ffef0c6 <nvmem_get_cell_by_index+0x22>
2ffef0ba:	4819      	ldr	r0, [pc, #100]	@ (2ffef120 <nvmem_get_cell_by_index+0x7c>)
2ffef0bc:	f7fe fbac 	bl	2ffed818 <tf_log>
2ffef0c0:	9801      	ldr	r0, [sp, #4]
2ffef0c2:	b003      	add	sp, #12
2ffef0c4:	bdf0      	pop	{r4, r5, r6, r7, pc}
2ffef0c6:	f850 1027 	ldr.w	r1, [r0, r7, lsl #2]
2ffef0ca:	4630      	mov	r0, r6
2ffef0cc:	ba09      	rev	r1, r1
2ffef0ce:	f006 f8fc 	bl	2fff52ca <fdt_node_offset_by_phandle>
2ffef0d2:	4a14      	ldr	r2, [pc, #80]	@ (2ffef124 <nvmem_get_cell_by_index+0x80>)
2ffef0d4:	4607      	mov	r7, r0
2ffef0d6:	4601      	mov	r1, r0
2ffef0d8:	ab01      	add	r3, sp, #4
2ffef0da:	4630      	mov	r0, r6
2ffef0dc:	f006 f838 	bl	2fff5150 <fdt_getprop>
2ffef0e0:	b1c0      	cbz	r0, 2ffef114 <nvmem_get_cell_by_index+0x70>
2ffef0e2:	9b01      	ldr	r3, [sp, #4]
2ffef0e4:	2b08      	cmp	r3, #8
2ffef0e6:	d115      	bne.n	2ffef114 <nvmem_get_cell_by_index+0x70>
2ffef0e8:	6803      	ldr	r3, [r0, #0]
2ffef0ea:	4639      	mov	r1, r7
2ffef0ec:	ba1b      	rev	r3, r3
2ffef0ee:	602b      	str	r3, [r5, #0]
2ffef0f0:	6843      	ldr	r3, [r0, #4]
2ffef0f2:	4630      	mov	r0, r6
2ffef0f4:	ba1b      	rev	r3, r3
2ffef0f6:	606b      	str	r3, [r5, #4]
2ffef0f8:	f006 f8d7 	bl	2fff52aa <fdt_parent_offset>
2ffef0fc:	4b0a      	ldr	r3, [pc, #40]	@ (2ffef128 <nvmem_get_cell_by_index+0x84>)
2ffef0fe:	4602      	mov	r2, r0
2ffef100:	6899      	ldr	r1, [r3, #8]
2ffef102:	4281      	cmp	r1, r0
2ffef104:	d102      	bne.n	2ffef10c <nvmem_get_cell_by_index+0x68>
2ffef106:	60ab      	str	r3, [r5, #8]
2ffef108:	4620      	mov	r0, r4
2ffef10a:	e7da      	b.n	2ffef0c2 <nvmem_get_cell_by_index+0x1e>
2ffef10c:	4907      	ldr	r1, [pc, #28]	@ (2ffef12c <nvmem_get_cell_by_index+0x88>)
2ffef10e:	4808      	ldr	r0, [pc, #32]	@ (2ffef130 <nvmem_get_cell_by_index+0x8c>)
2ffef110:	f7fe fb82 	bl	2ffed818 <tf_log>
2ffef114:	f04f 30ff 	mov.w	r0, #4294967295	@ 0xffffffff
2ffef118:	e7d3      	b.n	2ffef0c2 <nvmem_get_cell_by_index+0x1e>
2ffef11a:	bf00      	nop
2ffef11c:	2fff872f 	.word	0x2fff872f
2ffef120:	2fff873b 	.word	0x2fff873b
2ffef124:	2fff72ef 	.word	0x2fff72ef
2ffef128:	2fffbb48 	.word	0x2fffbb48
2ffef12c:	2fff877b 	.word	0x2fff877b
2ffef130:	2fff8752 	.word	0x2fff8752

2ffef134 <nvmem_get_cell_by_name>:
2ffef134:	b570      	push	{r4, r5, r6, lr}
2ffef136:	461e      	mov	r6, r3
2ffef138:	4613      	mov	r3, r2
2ffef13a:	4604      	mov	r4, r0
2ffef13c:	4a07      	ldr	r2, [pc, #28]	@ (2ffef15c <nvmem_get_cell_by_name+0x28>)
2ffef13e:	460d      	mov	r5, r1
2ffef140:	f006 f907 	bl	2fff5352 <fdt_stringlist_search>
2ffef144:	1e02      	subs	r2, r0, #0
2ffef146:	db06      	blt.n	2ffef156 <nvmem_get_cell_by_name+0x22>
2ffef148:	4633      	mov	r3, r6
2ffef14a:	4629      	mov	r1, r5
2ffef14c:	4620      	mov	r0, r4
2ffef14e:	e8bd 4070 	ldmia.w	sp!, {r4, r5, r6, lr}
2ffef152:	f7ff bfa7 	b.w	2ffef0a4 <nvmem_get_cell_by_index>
2ffef156:	f04f 30ff 	mov.w	r0, #4294967295	@ 0xffffffff
2ffef15a:	bd70      	pop	{r4, r5, r6, pc}
2ffef15c:	2fff876a 	.word	0x2fff876a

2ffef160 <stm32_tamp_nvram_write_bkp>:
2ffef160:	e92d 41f0 	stmdb	sp!, {r4, r5, r6, r7, r8, lr}
2ffef164:	460d      	mov	r5, r1
2ffef166:	ea4f 0891 	mov.w	r8, r1, lsr #2
2ffef16a:	4606      	mov	r6, r0
2ffef16c:	4641      	mov	r1, r8
2ffef16e:	4617      	mov	r7, r2
2ffef170:	f005 fa0c 	bl	2fff458c <stm32_tamp_nvram_reg_get_zone>
2ffef174:	1e04      	subs	r4, r0, #0
2ffef176:	db1f      	blt.n	2ffef1b8 <stm32_tamp_nvram_write_bkp+0x58>
2ffef178:	2041      	movs	r0, #65	@ 0x41
2ffef17a:	f7ff fbb7 	bl	2ffee8ec <clk_is_enabled>
2ffef17e:	6a33      	ldr	r3, [r6, #32]
2ffef180:	f853 3024 	ldr.w	r3, [r3, r4, lsl #2]
2ffef184:	2b03      	cmp	r3, #3
2ffef186:	d804      	bhi.n	2ffef192 <stm32_tamp_nvram_write_bkp+0x32>
2ffef188:	b12b      	cbz	r3, 2ffef196 <stm32_tamp_nvram_write_bkp+0x36>
2ffef18a:	b138      	cbz	r0, 2ffef19c <stm32_tamp_nvram_write_bkp+0x3c>
2ffef18c:	6833      	ldr	r3, [r6, #0]
2ffef18e:	50ef      	str	r7, [r5, r3]
2ffef190:	e001      	b.n	2ffef196 <stm32_tamp_nvram_write_bkp+0x36>
2ffef192:	2b04      	cmp	r3, #4
2ffef194:	d10b      	bne.n	2ffef1ae <stm32_tamp_nvram_write_bkp+0x4e>
2ffef196:	2000      	movs	r0, #0
2ffef198:	e8bd 81f0 	ldmia.w	sp!, {r4, r5, r6, r7, r8, pc}
2ffef19c:	2041      	movs	r0, #65	@ 0x41
2ffef19e:	f7ff fb6f 	bl	2ffee880 <clk_enable>
2ffef1a2:	6833      	ldr	r3, [r6, #0]
2ffef1a4:	2041      	movs	r0, #65	@ 0x41
2ffef1a6:	50ef      	str	r7, [r5, r3]
2ffef1a8:	f7ff fb7c 	bl	2ffee8a4 <clk_disable>
2ffef1ac:	e7f3      	b.n	2ffef196 <stm32_tamp_nvram_write_bkp+0x36>
2ffef1ae:	4804      	ldr	r0, [pc, #16]	@ (2ffef1c0 <stm32_tamp_nvram_write_bkp+0x60>)
2ffef1b0:	4642      	mov	r2, r8
2ffef1b2:	4621      	mov	r1, r4
2ffef1b4:	f7fe fb30 	bl	2ffed818 <tf_log>
2ffef1b8:	f04f 30ff 	mov.w	r0, #4294967295	@ 0xffffffff
2ffef1bc:	e7ec      	b.n	2ffef198 <stm32_tamp_nvram_write_bkp+0x38>
2ffef1be:	bf00      	nop
2ffef1c0:	2fff878d 	.word	0x2fff878d

2ffef1c4 <stm32_tamp_nvram_read_bkp.constprop.0.isra.0>:
2ffef1c4:	e92d 41f0 	stmdb	sp!, {r4, r5, r6, r7, r8, lr}
2ffef1c8:	460e      	mov	r6, r1
2ffef1ca:	ea4f 0891 	mov.w	r8, r1, lsr #2
2ffef1ce:	4607      	mov	r7, r0
2ffef1d0:	4641      	mov	r1, r8
2ffef1d2:	4615      	mov	r5, r2
2ffef1d4:	f005 f9da 	bl	2fff458c <stm32_tamp_nvram_reg_get_zone>
2ffef1d8:	1e04      	subs	r4, r0, #0
2ffef1da:	db14      	blt.n	2ffef206 <stm32_tamp_nvram_read_bkp.constprop.0.isra.0+0x42>
2ffef1dc:	2041      	movs	r0, #65	@ 0x41
2ffef1de:	f7ff fb85 	bl	2ffee8ec <clk_is_enabled>
2ffef1e2:	6a3b      	ldr	r3, [r7, #32]
2ffef1e4:	f853 3024 	ldr.w	r3, [r3, r4, lsl #2]
2ffef1e8:	2b03      	cmp	r3, #3
2ffef1ea:	d908      	bls.n	2ffef1fe <stm32_tamp_nvram_read_bkp.constprop.0.isra.0+0x3a>
2ffef1ec:	2b04      	cmp	r3, #4
2ffef1ee:	d017      	beq.n	2ffef220 <stm32_tamp_nvram_read_bkp.constprop.0.isra.0+0x5c>
2ffef1f0:	480c      	ldr	r0, [pc, #48]	@ (2ffef224 <stm32_tamp_nvram_read_bkp.constprop.0.isra.0+0x60>)
2ffef1f2:	4642      	mov	r2, r8
2ffef1f4:	4621      	mov	r1, r4
2ffef1f6:	e8bd 41f0 	ldmia.w	sp!, {r4, r5, r6, r7, r8, lr}
2ffef1fa:	f7fe bb0d 	b.w	2ffed818 <tf_log>
2ffef1fe:	b120      	cbz	r0, 2ffef20a <stm32_tamp_nvram_read_bkp.constprop.0.isra.0+0x46>
2ffef200:	683b      	ldr	r3, [r7, #0]
2ffef202:	58f3      	ldr	r3, [r6, r3]
2ffef204:	602b      	str	r3, [r5, #0]
2ffef206:	e8bd 81f0 	ldmia.w	sp!, {r4, r5, r6, r7, r8, pc}
2ffef20a:	2041      	movs	r0, #65	@ 0x41
2ffef20c:	f7ff fb38 	bl	2ffee880 <clk_enable>
2ffef210:	683b      	ldr	r3, [r7, #0]
2ffef212:	2041      	movs	r0, #65	@ 0x41
2ffef214:	58f3      	ldr	r3, [r6, r3]
2ffef216:	602b      	str	r3, [r5, #0]
2ffef218:	e8bd 41f0 	ldmia.w	sp!, {r4, r5, r6, r7, r8, lr}
2ffef21c:	f7ff bb42 	b.w	2ffee8a4 <clk_disable>
2ffef220:	2300      	movs	r3, #0
2ffef222:	e7ef      	b.n	2ffef204 <stm32_tamp_nvram_read_bkp.constprop.0.isra.0+0x40>
2ffef224:	2fff878d 	.word	0x2fff878d

2ffef228 <stm32_tamp_nvram_read_cell>:
2ffef228:	e92d 4ff7 	stmdb	sp!, {r0, r1, r2, r4, r5, r6, r7, r8, r9, sl, fp, lr}
2ffef22c:	460e      	mov	r6, r1
2ffef22e:	6881      	ldr	r1, [r0, #8]
2ffef230:	f8d1 8004 	ldr.w	r8, [r1, #4]
2ffef234:	6841      	ldr	r1, [r0, #4]
2ffef236:	4291      	cmp	r1, r2
2ffef238:	d904      	bls.n	2ffef244 <stm32_tamp_nvram_read_cell+0x1c>
2ffef23a:	f04f 30ff 	mov.w	r0, #4294967295	@ 0xffffffff
2ffef23e:	b003      	add	sp, #12
2ffef240:	e8bd 8ff0 	ldmia.w	sp!, {r4, r5, r6, r7, r8, r9, sl, fp, pc}
2ffef244:	b103      	cbz	r3, 2ffef248 <stm32_tamp_nvram_read_cell+0x20>
2ffef246:	6019      	str	r1, [r3, #0]
2ffef248:	6807      	ldr	r7, [r0, #0]
2ffef24a:	f04f 0900 	mov.w	r9, #0
2ffef24e:	6845      	ldr	r5, [r0, #4]
2ffef250:	463c      	mov	r4, r7
2ffef252:	443d      	add	r5, r7
2ffef254:	42a5      	cmp	r5, r4
2ffef256:	d801      	bhi.n	2ffef25c <stm32_tamp_nvram_read_cell+0x34>
2ffef258:	2000      	movs	r0, #0
2ffef25a:	e7f0      	b.n	2ffef23e <stm32_tamp_nvram_read_cell+0x16>
2ffef25c:	f024 0103 	bic.w	r1, r4, #3
2ffef260:	f104 0a04 	add.w	sl, r4, #4
2ffef264:	4555      	cmp	r5, sl
2ffef266:	d31c      	bcc.n	2ffef2a2 <stm32_tamp_nvram_read_cell+0x7a>
2ffef268:	1e63      	subs	r3, r4, #1
2ffef26a:	f043 0303 	orr.w	r3, r3, #3
2ffef26e:	3301      	adds	r3, #1
2ffef270:	428b      	cmp	r3, r1
2ffef272:	d116      	bne.n	2ffef2a2 <stm32_tamp_nvram_read_cell+0x7a>
2ffef274:	eba4 0b07 	sub.w	fp, r4, r7
2ffef278:	aa01      	add	r2, sp, #4
2ffef27a:	44b3      	add	fp, r6
2ffef27c:	4621      	mov	r1, r4
2ffef27e:	f8cd 9004 	str.w	r9, [sp, #4]
2ffef282:	4640      	mov	r0, r8
2ffef284:	f7ff ff9e 	bl	2ffef1c4 <stm32_tamp_nvram_read_bkp.constprop.0.isra.0>
2ffef288:	2204      	movs	r2, #4
2ffef28a:	4658      	mov	r0, fp
2ffef28c:	eb0d 0102 	add.w	r1, sp, r2
2ffef290:	f006 f8c9 	bl	2fff5426 <memcpy>
2ffef294:	4583      	cmp	fp, r0
2ffef296:	d014      	beq.n	2ffef2c2 <stm32_tamp_nvram_read_cell+0x9a>
2ffef298:	08a1      	lsrs	r1, r4, #2
2ffef29a:	480b      	ldr	r0, [pc, #44]	@ (2ffef2c8 <stm32_tamp_nvram_read_cell+0xa0>)
2ffef29c:	f7fe fabc 	bl	2ffed818 <tf_log>
2ffef2a0:	e7cb      	b.n	2ffef23a <stm32_tamp_nvram_read_cell+0x12>
2ffef2a2:	eba4 0a01 	sub.w	sl, r4, r1
2ffef2a6:	aa01      	add	r2, sp, #4
2ffef2a8:	f8cd 9004 	str.w	r9, [sp, #4]
2ffef2ac:	4640      	mov	r0, r8
2ffef2ae:	ea4f 0aca 	mov.w	sl, sl, lsl #3
2ffef2b2:	f7ff ff87 	bl	2ffef1c4 <stm32_tamp_nvram_read_bkp.constprop.0.isra.0>
2ffef2b6:	9b01      	ldr	r3, [sp, #4]
2ffef2b8:	fa23 f30a 	lsr.w	r3, r3, sl
2ffef2bc:	f104 0a01 	add.w	sl, r4, #1
2ffef2c0:	5533      	strb	r3, [r6, r4]
2ffef2c2:	4654      	mov	r4, sl
2ffef2c4:	e7c6      	b.n	2ffef254 <stm32_tamp_nvram_read_cell+0x2c>
2ffef2c6:	bf00      	nop
2ffef2c8:	2fff87b4 	.word	0x2fff87b4

2ffef2cc <stm32_tamp_nvram_write_cell>:
2ffef2cc:	e92d 4ff0 	stmdb	sp!, {r4, r5, r6, r7, r8, r9, sl, fp, lr}
2ffef2d0:	460e      	mov	r6, r1
2ffef2d2:	6845      	ldr	r5, [r0, #4]
2ffef2d4:	b085      	sub	sp, #20
2ffef2d6:	6883      	ldr	r3, [r0, #8]
2ffef2d8:	4295      	cmp	r5, r2
2ffef2da:	f8d3 9004 	ldr.w	r9, [r3, #4]
2ffef2de:	d327      	bcc.n	2ffef330 <stm32_tamp_nvram_write_cell+0x64>
2ffef2e0:	f8d0 8000 	ldr.w	r8, [r0]
2ffef2e4:	f10d 0a0c 	add.w	sl, sp, #12
2ffef2e8:	4445      	add	r5, r8
2ffef2ea:	4644      	mov	r4, r8
2ffef2ec:	42a5      	cmp	r5, r4
2ffef2ee:	d801      	bhi.n	2ffef2f4 <stm32_tamp_nvram_write_cell+0x28>
2ffef2f0:	2400      	movs	r4, #0
2ffef2f2:	e02b      	b.n	2ffef34c <stm32_tamp_nvram_write_cell+0x80>
2ffef2f4:	eba4 0708 	sub.w	r7, r4, r8
2ffef2f8:	f104 0b04 	add.w	fp, r4, #4
2ffef2fc:	455d      	cmp	r5, fp
2ffef2fe:	f024 0103 	bic.w	r1, r4, #3
2ffef302:	eb06 0007 	add.w	r0, r6, r7
2ffef306:	d325      	bcc.n	2ffef354 <stm32_tamp_nvram_write_cell+0x88>
2ffef308:	1e62      	subs	r2, r4, #1
2ffef30a:	f042 0203 	orr.w	r2, r2, #3
2ffef30e:	3201      	adds	r2, #1
2ffef310:	428a      	cmp	r2, r1
2ffef312:	d11f      	bne.n	2ffef354 <stm32_tamp_nvram_write_cell+0x88>
2ffef314:	2300      	movs	r3, #0
2ffef316:	4601      	mov	r1, r0
2ffef318:	9303      	str	r3, [sp, #12]
2ffef31a:	2204      	movs	r2, #4
2ffef31c:	08a7      	lsrs	r7, r4, #2
2ffef31e:	4650      	mov	r0, sl
2ffef320:	f006 f881 	bl	2fff5426 <memcpy>
2ffef324:	4582      	cmp	sl, r0
2ffef326:	d006      	beq.n	2ffef336 <stm32_tamp_nvram_write_cell+0x6a>
2ffef328:	4818      	ldr	r0, [pc, #96]	@ (2ffef38c <stm32_tamp_nvram_write_cell+0xc0>)
2ffef32a:	4639      	mov	r1, r7
2ffef32c:	f7fe fa74 	bl	2ffed818 <tf_log>
2ffef330:	f04f 34ff 	mov.w	r4, #4294967295	@ 0xffffffff
2ffef334:	e00a      	b.n	2ffef34c <stm32_tamp_nvram_write_cell+0x80>
2ffef336:	9a03      	ldr	r2, [sp, #12]
2ffef338:	4621      	mov	r1, r4
2ffef33a:	4648      	mov	r0, r9
2ffef33c:	f7ff ff10 	bl	2ffef160 <stm32_tamp_nvram_write_bkp>
2ffef340:	4604      	mov	r4, r0
2ffef342:	b308      	cbz	r0, 2ffef388 <stm32_tamp_nvram_write_cell+0xbc>
2ffef344:	4811      	ldr	r0, [pc, #68]	@ (2ffef38c <stm32_tamp_nvram_write_cell+0xc0>)
2ffef346:	4639      	mov	r1, r7
2ffef348:	f7fe fa66 	bl	2ffed818 <tf_log>
2ffef34c:	4620      	mov	r0, r4
2ffef34e:	b005      	add	sp, #20
2ffef350:	e8bd 8ff0 	ldmia.w	sp!, {r4, r5, r6, r7, r8, r9, sl, fp, pc}
2ffef354:	f816 b007 	ldrb.w	fp, [r6, r7]
2ffef358:	2300      	movs	r3, #0
2ffef35a:	1a67      	subs	r7, r4, r1
2ffef35c:	4652      	mov	r2, sl
2ffef35e:	9303      	str	r3, [sp, #12]
2ffef360:	4648      	mov	r0, r9
2ffef362:	00ff      	lsls	r7, r7, #3
2ffef364:	9101      	str	r1, [sp, #4]
2ffef366:	f7ff ff2d 	bl	2ffef1c4 <stm32_tamp_nvram_read_bkp.constprop.0.isra.0>
2ffef36a:	9a03      	ldr	r2, [sp, #12]
2ffef36c:	23ff      	movs	r3, #255	@ 0xff
2ffef36e:	9901      	ldr	r1, [sp, #4]
2ffef370:	fa03 f007 	lsl.w	r0, r3, r7
2ffef374:	ea22 0200 	bic.w	r2, r2, r0
2ffef378:	4648      	mov	r0, r9
2ffef37a:	fa0b f307 	lsl.w	r3, fp, r7
2ffef37e:	f104 0b01 	add.w	fp, r4, #1
2ffef382:	431a      	orrs	r2, r3
2ffef384:	f7ff feec 	bl	2ffef160 <stm32_tamp_nvram_write_bkp>
2ffef388:	465c      	mov	r4, fp
2ffef38a:	e7af      	b.n	2ffef2ec <stm32_tamp_nvram_write_cell+0x20>
2ffef38c:	2fff87b4 	.word	0x2fff87b4

2ffef390 <stm32_tamp_nvram_update_rights>:
2ffef390:	e92d 4ff0 	stmdb	sp!, {r4, r5, r6, r7, r8, r9, sl, fp, lr}
2ffef394:	2041      	movs	r0, #65	@ 0x41
2ffef396:	b089      	sub	sp, #36	@ 0x24
2ffef398:	f7ff faa8 	bl	2ffee8ec <clk_is_enabled>
2ffef39c:	f080 0001 	eor.w	r0, r0, #1
2ffef3a0:	f010 03ff 	ands.w	r3, r0, #255	@ 0xff
2ffef3a4:	9303      	str	r3, [sp, #12]
2ffef3a6:	d002      	beq.n	2ffef3ae <stm32_tamp_nvram_update_rights+0x1e>
2ffef3a8:	2041      	movs	r0, #65	@ 0x41
2ffef3aa:	f7ff fa69 	bl	2ffee880 <clk_enable>
2ffef3ae:	4d24      	ldr	r5, [pc, #144]	@ (2ffef440 <stm32_tamp_nvram_update_rights+0xb0>)
2ffef3b0:	f04f 0b0c 	mov.w	fp, #12
2ffef3b4:	f8df 808c 	ldr.w	r8, [pc, #140]	@ 2ffef444 <stm32_tamp_nvram_update_rights+0xb4>
2ffef3b8:	ae05      	add	r6, sp, #20
2ffef3ba:	f8d5 a024 	ldr.w	sl, [r5, #36]	@ 0x24
2ffef3be:	2400      	movs	r4, #0
2ffef3c0:	9404      	str	r4, [sp, #16]
2ffef3c2:	46c1      	mov	r9, r8
2ffef3c4:	f8da 7000 	ldr.w	r7, [sl]
2ffef3c8:	3f01      	subs	r7, #1
2ffef3ca:	42bc      	cmp	r4, r7
2ffef3cc:	d30c      	bcc.n	2ffef3e8 <stm32_tamp_nvram_update_rights+0x58>
2ffef3ce:	69ab      	ldr	r3, [r5, #24]
2ffef3d0:	481b      	ldr	r0, [pc, #108]	@ (2ffef440 <stm32_tamp_nvram_update_rights+0xb0>)
2ffef3d2:	f8c5 901c 	str.w	r9, [r5, #28]
2ffef3d6:	3b01      	subs	r3, #1
2ffef3d8:	f849 3024 	str.w	r3, [r9, r4, lsl #2]
2ffef3dc:	f002 fea6 	bl	2fff212c <stm32_tamp_nvram_get_access_rights>
2ffef3e0:	6228      	str	r0, [r5, #32]
2ffef3e2:	bb20      	cbnz	r0, 2ffef42e <stm32_tamp_nvram_update_rights+0x9e>
2ffef3e4:	4818      	ldr	r0, [pc, #96]	@ (2ffef448 <stm32_tamp_nvram_update_rights+0xb8>)
2ffef3e6:	e015      	b.n	2ffef414 <stm32_tamp_nvram_update_rights+0x84>
2ffef3e8:	f8da 3004 	ldr.w	r3, [sl, #4]
2ffef3ec:	fb0b 3304 	mla	r3, fp, r4, r3
2ffef3f0:	e893 0007 	ldmia.w	r3, {r0, r1, r2}
2ffef3f4:	ab04      	add	r3, sp, #16
2ffef3f6:	e886 0007 	stmia.w	r6, {r0, r1, r2}
2ffef3fa:	9300      	str	r3, [sp, #0]
2ffef3fc:	e896 000e 	ldmia.w	r6, {r1, r2, r3}
2ffef400:	6868      	ldr	r0, [r5, #4]
2ffef402:	f005 f8d8 	bl	2fff45b6 <stm32_tamp_nvram_reg_field_read>
2ffef406:	b160      	cbz	r0, 2ffef422 <stm32_tamp_nvram_update_rights+0x92>
2ffef408:	4810      	ldr	r0, [pc, #64]	@ (2ffef44c <stm32_tamp_nvram_update_rights+0xbc>)
2ffef40a:	f7fe fa05 	bl	2ffed818 <tf_log>
2ffef40e:	4810      	ldr	r0, [pc, #64]	@ (2ffef450 <stm32_tamp_nvram_update_rights+0xc0>)
2ffef410:	2300      	movs	r3, #0
2ffef412:	61eb      	str	r3, [r5, #28]
2ffef414:	f7fe fa00 	bl	2ffed818 <tf_log>
2ffef418:	f06f 000b 	mvn.w	r0, #11
2ffef41c:	b009      	add	sp, #36	@ 0x24
2ffef41e:	e8bd 8ff0 	ldmia.w	sp!, {r4, r5, r6, r7, r8, r9, sl, fp, pc}
2ffef422:	9b04      	ldr	r3, [sp, #16]
2ffef424:	3401      	adds	r4, #1
2ffef426:	3b01      	subs	r3, #1
2ffef428:	f848 3b04 	str.w	r3, [r8], #4
2ffef42c:	e7cd      	b.n	2ffef3ca <stm32_tamp_nvram_update_rights+0x3a>
2ffef42e:	9b03      	ldr	r3, [sp, #12]
2ffef430:	b90b      	cbnz	r3, 2ffef436 <stm32_tamp_nvram_update_rights+0xa6>
2ffef432:	2000      	movs	r0, #0
2ffef434:	e7f2      	b.n	2ffef41c <stm32_tamp_nvram_update_rights+0x8c>
2ffef436:	2041      	movs	r0, #65	@ 0x41
2ffef438:	f7ff fa34 	bl	2ffee8a4 <clk_disable>
2ffef43c:	e7f9      	b.n	2ffef432 <stm32_tamp_nvram_update_rights+0xa2>
2ffef43e:	bf00      	nop
2ffef440:	2fffbb60 	.word	0x2fffbb60
2ffef444:	2fffbb54 	.word	0x2fffbb54
2ffef448:	2fff8824 	.word	0x2fff8824
2ffef44c:	2fff87cd 	.word	0x2fff87cd
2ffef450:	2fff87f4 	.word	0x2fff87f4

2ffef454 <stm32_tamp_nvram_init>:
2ffef454:	b573      	push	{r0, r1, r4, r5, r6, lr}
2ffef456:	2600      	movs	r6, #0
2ffef458:	4668      	mov	r0, sp
2ffef45a:	e9cd 6600 	strd	r6, r6, [sp]
2ffef45e:	f000 fb43 	bl	2ffefae8 <fdt_get_address>
2ffef462:	b918      	cbnz	r0, 2ffef46c <stm32_tamp_nvram_init+0x18>
2ffef464:	f7fe fa74 	bl	2ffed950 <console_flush>
2ffef468:	f7f9 efb8 	blx	2ffe93dc <do_panic>
2ffef46c:	4a25      	ldr	r2, [pc, #148]	@ (2ffef504 <stm32_tamp_nvram_init+0xb0>)
2ffef46e:	f04f 31ff 	mov.w	r1, #4294967295	@ 0xffffffff
2ffef472:	9800      	ldr	r0, [sp, #0]
2ffef474:	f005 ffa0 	bl	2fff53b8 <fdt_node_offset_by_compatible>
2ffef478:	1e05      	subs	r5, r0, #0
2ffef47a:	da03      	bge.n	2ffef484 <stm32_tamp_nvram_init+0x30>
2ffef47c:	f04f 30ff 	mov.w	r0, #4294967295	@ 0xffffffff
2ffef480:	b002      	add	sp, #8
2ffef482:	bd70      	pop	{r4, r5, r6, pc}
2ffef484:	4c20      	ldr	r4, [pc, #128]	@ (2ffef508 <stm32_tamp_nvram_init+0xb4>)
2ffef486:	f002 fe4d 	bl	2fff2124 <stm32_tamp_nvram_get_cdata>
2ffef48a:	4a20      	ldr	r2, [pc, #128]	@ (2ffef50c <stm32_tamp_nvram_init+0xb8>)
2ffef48c:	ab01      	add	r3, sp, #4
2ffef48e:	6260      	str	r0, [r4, #36]	@ 0x24
2ffef490:	4629      	mov	r1, r5
2ffef492:	9800      	ldr	r0, [sp, #0]
2ffef494:	f005 fe5c 	bl	2fff5150 <fdt_getprop>
2ffef498:	4603      	mov	r3, r0
2ffef49a:	2800      	cmp	r0, #0
2ffef49c:	d0ee      	beq.n	2ffef47c <stm32_tamp_nvram_init+0x28>
2ffef49e:	9a01      	ldr	r2, [sp, #4]
2ffef4a0:	2a08      	cmp	r2, #8
2ffef4a2:	d1eb      	bne.n	2ffef47c <stm32_tamp_nvram_init+0x28>
2ffef4a4:	6800      	ldr	r0, [r0, #0]
2ffef4a6:	4629      	mov	r1, r5
2ffef4a8:	f005 f86e 	bl	2fff4588 <fdt32_to_cpu>
2ffef4ac:	6020      	str	r0, [r4, #0]
2ffef4ae:	6858      	ldr	r0, [r3, #4]
2ffef4b0:	f005 f86a 	bl	2fff4588 <fdt32_to_cpu>
2ffef4b4:	60a0      	str	r0, [r4, #8]
2ffef4b6:	9800      	ldr	r0, [sp, #0]
2ffef4b8:	f005 fef7 	bl	2fff52aa <fdt_parent_offset>
2ffef4bc:	1e01      	subs	r1, r0, #0
2ffef4be:	dbdd      	blt.n	2ffef47c <stm32_tamp_nvram_init+0x28>
2ffef4c0:	4a12      	ldr	r2, [pc, #72]	@ (2ffef50c <stm32_tamp_nvram_init+0xb8>)
2ffef4c2:	ab01      	add	r3, sp, #4
2ffef4c4:	9800      	ldr	r0, [sp, #0]
2ffef4c6:	f005 fe43 	bl	2fff5150 <fdt_getprop>
2ffef4ca:	4603      	mov	r3, r0
2ffef4cc:	2800      	cmp	r0, #0
2ffef4ce:	d0d5      	beq.n	2ffef47c <stm32_tamp_nvram_init+0x28>
2ffef4d0:	9a01      	ldr	r2, [sp, #4]
2ffef4d2:	2a08      	cmp	r2, #8
2ffef4d4:	d1d2      	bne.n	2ffef47c <stm32_tamp_nvram_init+0x28>
2ffef4d6:	6800      	ldr	r0, [r0, #0]
2ffef4d8:	f005 f856 	bl	2fff4588 <fdt32_to_cpu>
2ffef4dc:	6060      	str	r0, [r4, #4]
2ffef4de:	6858      	ldr	r0, [r3, #4]
2ffef4e0:	f005 f852 	bl	2fff4588 <fdt32_to_cpu>
2ffef4e4:	68a3      	ldr	r3, [r4, #8]
2ffef4e6:	60e0      	str	r0, [r4, #12]
2ffef4e8:	089b      	lsrs	r3, r3, #2
2ffef4ea:	61a3      	str	r3, [r4, #24]
2ffef4ec:	f7ff ff50 	bl	2ffef390 <stm32_tamp_nvram_update_rights>
2ffef4f0:	9b00      	ldr	r3, [sp, #0]
2ffef4f2:	4622      	mov	r2, r4
2ffef4f4:	4906      	ldr	r1, [pc, #24]	@ (2ffef510 <stm32_tamp_nvram_init+0xbc>)
2ffef4f6:	4628      	mov	r0, r5
2ffef4f8:	6165      	str	r5, [r4, #20]
2ffef4fa:	6123      	str	r3, [r4, #16]
2ffef4fc:	f7ff fdc0 	bl	2ffef080 <nvmem_driver_register>
2ffef500:	4630      	mov	r0, r6
2ffef502:	e7bd      	b.n	2ffef480 <stm32_tamp_nvram_init+0x2c>
2ffef504:	2fff8853 	.word	0x2fff8853
2ffef508:	2fffbb60 	.word	0x2fffbb60
2ffef50c:	2fff72ef 	.word	0x2fff72ef
2ffef510:	2fff5c9c 	.word	0x2fff5c9c

2ffef514 <regulator_get_by_name>:
2ffef514:	b570      	push	{r4, r5, r6, lr}
2ffef516:	4605      	mov	r5, r0
2ffef518:	b9b0      	cbnz	r0, 2ffef548 <regulator_get_by_name+0x34>
2ffef51a:	480d      	ldr	r0, [pc, #52]	@ (2ffef550 <regulator_get_by_name+0x3c>)
2ffef51c:	2146      	movs	r1, #70	@ 0x46
2ffef51e:	f004 f905 	bl	2fff372c <__assert>
2ffef522:	6818      	ldr	r0, [r3, #0]
2ffef524:	4629      	mov	r1, r5
2ffef526:	f006 f88b 	bl	2fff5640 <strcmp>
2ffef52a:	b158      	cbz	r0, 2ffef544 <regulator_get_by_name+0x30>
2ffef52c:	3414      	adds	r4, #20
2ffef52e:	3e01      	subs	r6, #1
2ffef530:	d002      	beq.n	2ffef538 <regulator_get_by_name+0x24>
2ffef532:	6823      	ldr	r3, [r4, #0]
2ffef534:	2b00      	cmp	r3, #0
2ffef536:	d1f4      	bne.n	2ffef522 <regulator_get_by_name+0xe>
2ffef538:	4906      	ldr	r1, [pc, #24]	@ (2ffef554 <regulator_get_by_name+0x40>)
2ffef53a:	462a      	mov	r2, r5
2ffef53c:	4806      	ldr	r0, [pc, #24]	@ (2ffef558 <regulator_get_by_name+0x44>)
2ffef53e:	2400      	movs	r4, #0
2ffef540:	f7fe f96a 	bl	2ffed818 <tf_log>
2ffef544:	4620      	mov	r0, r4
2ffef546:	bd70      	pop	{r4, r5, r6, pc}
2ffef548:	4c04      	ldr	r4, [pc, #16]	@ (2ffef55c <regulator_get_by_name+0x48>)
2ffef54a:	2614      	movs	r6, #20
2ffef54c:	e7ef      	b.n	2ffef52e <regulator_get_by_name+0x1a>
2ffef54e:	bf00      	nop
2ffef550:	2fff886b 	.word	0x2fff886b
2ffef554:	2fff8b01 	.word	0x2fff8b01
2ffef558:	2fff8891 	.word	0x2fff8891
2ffef55c:	2fffbb8c 	.word	0x2fffbb8c

2ffef560 <regulator_get_by_supply_name>:
2ffef560:	b530      	push	{r4, r5, lr}
2ffef562:	b091      	sub	sp, #68	@ 0x44
2ffef564:	4613      	mov	r3, r2
2ffef566:	4604      	mov	r4, r0
2ffef568:	4a15      	ldr	r2, [pc, #84]	@ (2ffef5c0 <regulator_get_by_supply_name+0x60>)
2ffef56a:	460d      	mov	r5, r1
2ffef56c:	4668      	mov	r0, sp
2ffef56e:	213f      	movs	r1, #63	@ 0x3f
2ffef570:	f006 f84e 	bl	2fff5610 <snprintf>
2ffef574:	283e      	cmp	r0, #62	@ 0x3e
2ffef576:	d903      	bls.n	2ffef580 <regulator_get_by_supply_name+0x20>
2ffef578:	4812      	ldr	r0, [pc, #72]	@ (2ffef5c4 <regulator_get_by_supply_name+0x64>)
2ffef57a:	215b      	movs	r1, #91	@ 0x5b
2ffef57c:	f004 f8d6 	bl	2fff372c <__assert>
2ffef580:	2300      	movs	r3, #0
2ffef582:	466a      	mov	r2, sp
2ffef584:	4629      	mov	r1, r5
2ffef586:	4620      	mov	r0, r4
2ffef588:	f005 fde2 	bl	2fff5150 <fdt_getprop>
2ffef58c:	b120      	cbz	r0, 2ffef598 <regulator_get_by_supply_name+0x38>
2ffef58e:	6800      	ldr	r0, [r0, #0]
2ffef590:	f005 f829 	bl	2fff45e6 <fdt32_to_cpu>
2ffef594:	1e02      	subs	r2, r0, #0
2ffef596:	da10      	bge.n	2ffef5ba <regulator_get_by_supply_name+0x5a>
2ffef598:	2000      	movs	r0, #0
2ffef59a:	b011      	add	sp, #68	@ 0x44
2ffef59c:	bd30      	pop	{r4, r5, pc}
2ffef59e:	6841      	ldr	r1, [r0, #4]
2ffef5a0:	428a      	cmp	r2, r1
2ffef5a2:	d0fa      	beq.n	2ffef59a <regulator_get_by_supply_name+0x3a>
2ffef5a4:	3014      	adds	r0, #20
2ffef5a6:	3b01      	subs	r3, #1
2ffef5a8:	d002      	beq.n	2ffef5b0 <regulator_get_by_supply_name+0x50>
2ffef5aa:	6801      	ldr	r1, [r0, #0]
2ffef5ac:	2900      	cmp	r1, #0
2ffef5ae:	d1f6      	bne.n	2ffef59e <regulator_get_by_supply_name+0x3e>
2ffef5b0:	4905      	ldr	r1, [pc, #20]	@ (2ffef5c8 <regulator_get_by_supply_name+0x68>)
2ffef5b2:	4806      	ldr	r0, [pc, #24]	@ (2ffef5cc <regulator_get_by_supply_name+0x6c>)
2ffef5b4:	f7fe f930 	bl	2ffed818 <tf_log>
2ffef5b8:	e7ee      	b.n	2ffef598 <regulator_get_by_supply_name+0x38>
2ffef5ba:	4805      	ldr	r0, [pc, #20]	@ (2ffef5d0 <regulator_get_by_supply_name+0x70>)
2ffef5bc:	2314      	movs	r3, #20
2ffef5be:	e7f2      	b.n	2ffef5a6 <regulator_get_by_supply_name+0x46>
2ffef5c0:	2fff88a4 	.word	0x2fff88a4
2ffef5c4:	2fff886b 	.word	0x2fff886b
2ffef5c8:	2fff8ae8 	.word	0x2fff8ae8
2ffef5cc:	2fff88ae 	.word	0x2fff88ae
2ffef5d0:	2fffbb8c 	.word	0x2fffbb8c

2ffef5d4 <regulator_enable>:
2ffef5d4:	b538      	push	{r3, r4, r5, lr}
2ffef5d6:	4604      	mov	r4, r0
2ffef5d8:	b918      	cbnz	r0, 2ffef5e2 <regulator_enable+0xe>
2ffef5da:	4809      	ldr	r0, [pc, #36]	@ (2ffef600 <regulator_enable+0x2c>)
2ffef5dc:	218c      	movs	r1, #140	@ 0x8c
2ffef5de:	f004 f8a5 	bl	2fff372c <__assert>
2ffef5e2:	6800      	ldr	r0, [r0, #0]
2ffef5e4:	6843      	ldr	r3, [r0, #4]
2ffef5e6:	681b      	ldr	r3, [r3, #0]
2ffef5e8:	b13b      	cbz	r3, 2ffef5fa <regulator_enable+0x26>
2ffef5ea:	2101      	movs	r1, #1
2ffef5ec:	4798      	blx	r3
2ffef5ee:	4605      	mov	r5, r0
2ffef5f0:	6920      	ldr	r0, [r4, #16]
2ffef5f2:	f7ff f9a5 	bl	2ffee940 <udelay>
2ffef5f6:	4628      	mov	r0, r5
2ffef5f8:	bd38      	pop	{r3, r4, r5, pc}
2ffef5fa:	f06f 0512 	mvn.w	r5, #18
2ffef5fe:	e7f7      	b.n	2ffef5f0 <regulator_enable+0x1c>
2ffef600:	2fff886b 	.word	0x2fff886b

2ffef604 <regulator_disable>:
2ffef604:	b538      	push	{r3, r4, r5, lr}
2ffef606:	4604      	mov	r4, r0
2ffef608:	b918      	cbnz	r0, 2ffef612 <regulator_disable+0xe>
2ffef60a:	480c      	ldr	r0, [pc, #48]	@ (2ffef63c <regulator_disable+0x38>)
2ffef60c:	219f      	movs	r1, #159	@ 0x9f
2ffef60e:	f004 f88d 	bl	2fff372c <__assert>
2ffef612:	8981      	ldrh	r1, [r0, #12]
2ffef614:	f011 0101 	ands.w	r1, r1, #1
2ffef618:	d10d      	bne.n	2ffef636 <regulator_disable+0x32>
2ffef61a:	6800      	ldr	r0, [r0, #0]
2ffef61c:	6843      	ldr	r3, [r0, #4]
2ffef61e:	681b      	ldr	r3, [r3, #0]
2ffef620:	b133      	cbz	r3, 2ffef630 <regulator_disable+0x2c>
2ffef622:	4798      	blx	r3
2ffef624:	4605      	mov	r5, r0
2ffef626:	6920      	ldr	r0, [r4, #16]
2ffef628:	f7ff f98a 	bl	2ffee940 <udelay>
2ffef62c:	4628      	mov	r0, r5
2ffef62e:	bd38      	pop	{r3, r4, r5, pc}
2ffef630:	f06f 0512 	mvn.w	r5, #18
2ffef634:	e7f7      	b.n	2ffef626 <regulator_disable+0x22>
2ffef636:	2500      	movs	r5, #0
2ffef638:	e7f8      	b.n	2ffef62c <regulator_disable+0x28>
2ffef63a:	bf00      	nop
2ffef63c:	2fff886b 	.word	0x2fff886b

2ffef640 <regulator_get_voltage>:
2ffef640:	b538      	push	{r3, r4, r5, lr}
2ffef642:	4604      	mov	r4, r0
2ffef644:	b920      	cbnz	r0, 2ffef650 <regulator_get_voltage+0x10>
2ffef646:	480f      	ldr	r0, [pc, #60]	@ (2ffef684 <regulator_get_voltage+0x44>)
2ffef648:	f44f 7184 	mov.w	r1, #264	@ 0x108
2ffef64c:	f004 f86e 	bl	2fff372c <__assert>
2ffef650:	6800      	ldr	r0, [r0, #0]
2ffef652:	6843      	ldr	r3, [r0, #4]
2ffef654:	68db      	ldr	r3, [r3, #12]
2ffef656:	b913      	cbnz	r3, 2ffef65e <regulator_get_voltage+0x1e>
2ffef658:	8925      	ldrh	r5, [r4, #8]
2ffef65a:	4628      	mov	r0, r5
2ffef65c:	bd38      	pop	{r3, r4, r5, pc}
2ffef65e:	f004 ffc9 	bl	2fff45f4 <lock_driver.isra.0>
2ffef662:	6820      	ldr	r0, [r4, #0]
2ffef664:	6843      	ldr	r3, [r0, #4]
2ffef666:	68db      	ldr	r3, [r3, #12]
2ffef668:	4798      	blx	r3
2ffef66a:	1e05      	subs	r5, r0, #0
2ffef66c:	da05      	bge.n	2ffef67a <regulator_get_voltage+0x3a>
2ffef66e:	6823      	ldr	r3, [r4, #0]
2ffef670:	462a      	mov	r2, r5
2ffef672:	4805      	ldr	r0, [pc, #20]	@ (2ffef688 <regulator_get_voltage+0x48>)
2ffef674:	6819      	ldr	r1, [r3, #0]
2ffef676:	f7fe f8cf 	bl	2ffed818 <tf_log>
2ffef67a:	6820      	ldr	r0, [r4, #0]
2ffef67c:	f004 ffb5 	bl	2fff45ea <unlock_driver.isra.0>
2ffef680:	e7eb      	b.n	2ffef65a <regulator_get_voltage+0x1a>
2ffef682:	bf00      	nop
2ffef684:	2fff886b 	.word	0x2fff886b
2ffef688:	2fff88c9 	.word	0x2fff88c9

2ffef68c <regulator_set_voltage>:
2ffef68c:	b538      	push	{r3, r4, r5, lr}
2ffef68e:	460c      	mov	r4, r1
2ffef690:	4605      	mov	r5, r0
2ffef692:	b918      	cbnz	r0, 2ffef69c <regulator_set_voltage+0x10>
2ffef694:	4816      	ldr	r0, [pc, #88]	@ (2ffef6f0 <regulator_set_voltage+0x64>)
2ffef696:	21d6      	movs	r1, #214	@ 0xd6
2ffef698:	f004 f848 	bl	2fff372c <__assert>
2ffef69c:	8903      	ldrh	r3, [r0, #8]
2ffef69e:	428b      	cmp	r3, r1
2ffef6a0:	d81e      	bhi.n	2ffef6e0 <regulator_set_voltage+0x54>
2ffef6a2:	8943      	ldrh	r3, [r0, #10]
2ffef6a4:	428b      	cmp	r3, r1
2ffef6a6:	d31b      	bcc.n	2ffef6e0 <regulator_set_voltage+0x54>
2ffef6a8:	f7ff ffca 	bl	2ffef640 <regulator_get_voltage>
2ffef6ac:	42a0      	cmp	r0, r4
2ffef6ae:	d01a      	beq.n	2ffef6e6 <regulator_set_voltage+0x5a>
2ffef6b0:	6828      	ldr	r0, [r5, #0]
2ffef6b2:	6843      	ldr	r3, [r0, #4]
2ffef6b4:	689b      	ldr	r3, [r3, #8]
2ffef6b6:	b1c3      	cbz	r3, 2ffef6ea <regulator_set_voltage+0x5e>
2ffef6b8:	f004 ff9c 	bl	2fff45f4 <lock_driver.isra.0>
2ffef6bc:	6828      	ldr	r0, [r5, #0]
2ffef6be:	4621      	mov	r1, r4
2ffef6c0:	6843      	ldr	r3, [r0, #4]
2ffef6c2:	689b      	ldr	r3, [r3, #8]
2ffef6c4:	4798      	blx	r3
2ffef6c6:	1e04      	subs	r4, r0, #0
2ffef6c8:	da05      	bge.n	2ffef6d6 <regulator_set_voltage+0x4a>
2ffef6ca:	682b      	ldr	r3, [r5, #0]
2ffef6cc:	4622      	mov	r2, r4
2ffef6ce:	4809      	ldr	r0, [pc, #36]	@ (2ffef6f4 <regulator_set_voltage+0x68>)
2ffef6d0:	6819      	ldr	r1, [r3, #0]
2ffef6d2:	f7fe f8a1 	bl	2ffed818 <tf_log>
2ffef6d6:	6828      	ldr	r0, [r5, #0]
2ffef6d8:	f004 ff87 	bl	2fff45ea <unlock_driver.isra.0>
2ffef6dc:	4620      	mov	r0, r4
2ffef6de:	bd38      	pop	{r3, r4, r5, pc}
2ffef6e0:	f04f 34ff 	mov.w	r4, #4294967295	@ 0xffffffff
2ffef6e4:	e7fa      	b.n	2ffef6dc <regulator_set_voltage+0x50>
2ffef6e6:	2400      	movs	r4, #0
2ffef6e8:	e7f8      	b.n	2ffef6dc <regulator_set_voltage+0x50>
2ffef6ea:	f06f 0412 	mvn.w	r4, #18
2ffef6ee:	e7f5      	b.n	2ffef6dc <regulator_set_voltage+0x50>
2ffef6f0:	2fff886b 	.word	0x2fff886b
2ffef6f4:	2fff88ef 	.word	0x2fff88ef

2ffef6f8 <regulator_list_voltages>:
2ffef6f8:	b5f8      	push	{r3, r4, r5, r6, r7, lr}
2ffef6fa:	460e      	mov	r6, r1
2ffef6fc:	4617      	mov	r7, r2
2ffef6fe:	4604      	mov	r4, r0
2ffef700:	b920      	cbnz	r0, 2ffef70c <regulator_list_voltages+0x14>
2ffef702:	f44f 7195 	mov.w	r1, #298	@ 0x12a
2ffef706:	482f      	ldr	r0, [pc, #188]	@ (2ffef7c4 <regulator_list_voltages+0xcc>)
2ffef708:	f004 f810 	bl	2fff372c <__assert>
2ffef70c:	b911      	cbnz	r1, 2ffef714 <regulator_list_voltages+0x1c>
2ffef70e:	f240 112b 	movw	r1, #299	@ 0x12b
2ffef712:	e7f8      	b.n	2ffef706 <regulator_list_voltages+0xe>
2ffef714:	b912      	cbnz	r2, 2ffef71c <regulator_list_voltages+0x24>
2ffef716:	f44f 7196 	mov.w	r1, #300	@ 0x12c
2ffef71a:	e7f4      	b.n	2ffef706 <regulator_list_voltages+0xe>
2ffef71c:	6800      	ldr	r0, [r0, #0]
2ffef71e:	6843      	ldr	r3, [r0, #4]
2ffef720:	691b      	ldr	r3, [r3, #16]
2ffef722:	2b00      	cmp	r3, #0
2ffef724:	d03f      	beq.n	2ffef7a6 <regulator_list_voltages+0xae>
2ffef726:	f004 ff65 	bl	2fff45f4 <lock_driver.isra.0>
2ffef72a:	6820      	ldr	r0, [r4, #0]
2ffef72c:	463a      	mov	r2, r7
2ffef72e:	4631      	mov	r1, r6
2ffef730:	6843      	ldr	r3, [r0, #4]
2ffef732:	691b      	ldr	r3, [r3, #16]
2ffef734:	4798      	blx	r3
2ffef736:	4605      	mov	r5, r0
2ffef738:	6820      	ldr	r0, [r4, #0]
2ffef73a:	f004 ff56 	bl	2fff45ea <unlock_driver.isra.0>
2ffef73e:	2d00      	cmp	r5, #0
2ffef740:	da07      	bge.n	2ffef752 <regulator_list_voltages+0x5a>
2ffef742:	6823      	ldr	r3, [r4, #0]
2ffef744:	462a      	mov	r2, r5
2ffef746:	4820      	ldr	r0, [pc, #128]	@ (2ffef7c8 <regulator_list_voltages+0xd0>)
2ffef748:	6819      	ldr	r1, [r3, #0]
2ffef74a:	f7fe f865 	bl	2ffed818 <tf_log>
2ffef74e:	4628      	mov	r0, r5
2ffef750:	bdf8      	pop	{r3, r4, r5, r6, r7, pc}
2ffef752:	683b      	ldr	r3, [r7, #0]
2ffef754:	6830      	ldr	r0, [r6, #0]
2ffef756:	8962      	ldrh	r2, [r4, #10]
2ffef758:	eb00 0143 	add.w	r1, r0, r3, lsl #1
2ffef75c:	2b01      	cmp	r3, #1
2ffef75e:	f831 1c02 	ldrh.w	r1, [r1, #-2]
2ffef762:	d923      	bls.n	2ffef7ac <regulator_list_voltages+0xb4>
2ffef764:	428a      	cmp	r2, r1
2ffef766:	d306      	bcc.n	2ffef776 <regulator_list_voltages+0x7e>
2ffef768:	d00a      	beq.n	2ffef780 <regulator_list_voltages+0x88>
2ffef76a:	6823      	ldr	r3, [r4, #0]
2ffef76c:	4817      	ldr	r0, [pc, #92]	@ (2ffef7cc <regulator_list_voltages+0xd4>)
2ffef76e:	6819      	ldr	r1, [r3, #0]
2ffef770:	f7fe f852 	bl	2ffed818 <tf_log>
2ffef774:	e023      	b.n	2ffef7be <regulator_list_voltages+0xc6>
2ffef776:	3b01      	subs	r3, #1
2ffef778:	e7ee      	b.n	2ffef758 <regulator_list_voltages+0x60>
2ffef77a:	3b01      	subs	r3, #1
2ffef77c:	3202      	adds	r2, #2
2ffef77e:	6032      	str	r2, [r6, #0]
2ffef780:	2b01      	cmp	r3, #1
2ffef782:	d004      	beq.n	2ffef78e <regulator_list_voltages+0x96>
2ffef784:	6832      	ldr	r2, [r6, #0]
2ffef786:	8921      	ldrh	r1, [r4, #8]
2ffef788:	8810      	ldrh	r0, [r2, #0]
2ffef78a:	4288      	cmp	r0, r1
2ffef78c:	d3f5      	bcc.n	2ffef77a <regulator_list_voltages+0x82>
2ffef78e:	6831      	ldr	r1, [r6, #0]
2ffef790:	8922      	ldrh	r2, [r4, #8]
2ffef792:	8809      	ldrh	r1, [r1, #0]
2ffef794:	4291      	cmp	r1, r2
2ffef796:	d003      	beq.n	2ffef7a0 <regulator_list_voltages+0xa8>
2ffef798:	6823      	ldr	r3, [r4, #0]
2ffef79a:	480d      	ldr	r0, [pc, #52]	@ (2ffef7d0 <regulator_list_voltages+0xd8>)
2ffef79c:	6819      	ldr	r1, [r3, #0]
2ffef79e:	e7e7      	b.n	2ffef770 <regulator_list_voltages+0x78>
2ffef7a0:	603b      	str	r3, [r7, #0]
2ffef7a2:	2500      	movs	r5, #0
2ffef7a4:	e7d3      	b.n	2ffef74e <regulator_list_voltages+0x56>
2ffef7a6:	f06f 0512 	mvn.w	r5, #18
2ffef7aa:	e7d0      	b.n	2ffef74e <regulator_list_voltages+0x56>
2ffef7ac:	428a      	cmp	r2, r1
2ffef7ae:	d1dc      	bne.n	2ffef76a <regulator_list_voltages+0x72>
2ffef7b0:	2b00      	cmp	r3, #0
2ffef7b2:	d1ec      	bne.n	2ffef78e <regulator_list_voltages+0x96>
2ffef7b4:	6823      	ldr	r3, [r4, #0]
2ffef7b6:	4807      	ldr	r0, [pc, #28]	@ (2ffef7d4 <regulator_list_voltages+0xdc>)
2ffef7b8:	6819      	ldr	r1, [r3, #0]
2ffef7ba:	f7fe f82d 	bl	2ffed818 <tf_log>
2ffef7be:	f06f 0515 	mvn.w	r5, #21
2ffef7c2:	e7c4      	b.n	2ffef74e <regulator_list_voltages+0x56>
2ffef7c4:	2fff886b 	.word	0x2fff886b
2ffef7c8:	2fff8912 	.word	0x2fff8912
2ffef7cc:	2fff893b 	.word	0x2fff893b
2ffef7d0:	2fff8986 	.word	0x2fff8986
2ffef7d4:	2fff895f 	.word	0x2fff895f

2ffef7d8 <regulator_get_range>:
2ffef7d8:	b508      	push	{r3, lr}
2ffef7da:	b920      	cbnz	r0, 2ffef7e6 <regulator_get_range+0xe>
2ffef7dc:	4805      	ldr	r0, [pc, #20]	@ (2ffef7f4 <regulator_get_range+0x1c>)
2ffef7de:	f240 1173 	movw	r1, #371	@ 0x173
2ffef7e2:	f003 ffa3 	bl	2fff372c <__assert>
2ffef7e6:	b109      	cbz	r1, 2ffef7ec <regulator_get_range+0x14>
2ffef7e8:	8903      	ldrh	r3, [r0, #8]
2ffef7ea:	800b      	strh	r3, [r1, #0]
2ffef7ec:	b10a      	cbz	r2, 2ffef7f2 <regulator_get_range+0x1a>
2ffef7ee:	8943      	ldrh	r3, [r0, #10]
2ffef7f0:	8013      	strh	r3, [r2, #0]
2ffef7f2:	bd08      	pop	{r3, pc}
2ffef7f4:	2fff886b 	.word	0x2fff886b

2ffef7f8 <regulator_set_flag>:
2ffef7f8:	b570      	push	{r4, r5, r6, lr}
2ffef7fa:	4605      	mov	r5, r0
2ffef7fc:	4608      	mov	r0, r1
2ffef7fe:	460c      	mov	r4, r1
2ffef800:	f004 fb6a 	bl	2fff3ed8 <__popcountsi2>
2ffef804:	2801      	cmp	r0, #1
2ffef806:	d128      	bne.n	2ffef85a <regulator_set_flag+0x62>
2ffef808:	1e63      	subs	r3, r4, #1
2ffef80a:	2b01      	cmp	r3, #1
2ffef80c:	d804      	bhi.n	2ffef818 <regulator_set_flag+0x20>
2ffef80e:	89ab      	ldrh	r3, [r5, #12]
2ffef810:	2600      	movs	r6, #0
2ffef812:	431c      	orrs	r4, r3
2ffef814:	81ac      	strh	r4, [r5, #12]
2ffef816:	e009      	b.n	2ffef82c <regulator_set_flag+0x34>
2ffef818:	6828      	ldr	r0, [r5, #0]
2ffef81a:	6843      	ldr	r3, [r0, #4]
2ffef81c:	695b      	ldr	r3, [r3, #20]
2ffef81e:	b93b      	cbnz	r3, 2ffef830 <regulator_set_flag+0x38>
2ffef820:	6801      	ldr	r1, [r0, #0]
2ffef822:	f06f 0612 	mvn.w	r6, #18
2ffef826:	480e      	ldr	r0, [pc, #56]	@ (2ffef860 <regulator_set_flag+0x68>)
2ffef828:	f7fd fff6 	bl	2ffed818 <tf_log>
2ffef82c:	4630      	mov	r0, r6
2ffef82e:	bd70      	pop	{r4, r5, r6, pc}
2ffef830:	f004 fee0 	bl	2fff45f4 <lock_driver.isra.0>
2ffef834:	6828      	ldr	r0, [r5, #0]
2ffef836:	4621      	mov	r1, r4
2ffef838:	6843      	ldr	r3, [r0, #4]
2ffef83a:	695b      	ldr	r3, [r3, #20]
2ffef83c:	4798      	blx	r3
2ffef83e:	4606      	mov	r6, r0
2ffef840:	6828      	ldr	r0, [r5, #0]
2ffef842:	f004 fed2 	bl	2fff45ea <unlock_driver.isra.0>
2ffef846:	2e00      	cmp	r6, #0
2ffef848:	d0e1      	beq.n	2ffef80e <regulator_set_flag+0x16>
2ffef84a:	6829      	ldr	r1, [r5, #0]
2ffef84c:	4633      	mov	r3, r6
2ffef84e:	4805      	ldr	r0, [pc, #20]	@ (2ffef864 <regulator_set_flag+0x6c>)
2ffef850:	4622      	mov	r2, r4
2ffef852:	6809      	ldr	r1, [r1, #0]
2ffef854:	f7fd ffe0 	bl	2ffed818 <tf_log>
2ffef858:	e7e8      	b.n	2ffef82c <regulator_set_flag+0x34>
2ffef85a:	f06f 0615 	mvn.w	r6, #21
2ffef85e:	e7e5      	b.n	2ffef82c <regulator_set_flag+0x34>
2ffef860:	2fff89aa 	.word	0x2fff89aa
2ffef864:	2fff89c4 	.word	0x2fff89c4

2ffef868 <regulator_register>:
2ffef868:	b57f      	push	{r0, r1, r2, r3, r4, r5, r6, lr}
2ffef86a:	460e      	mov	r6, r1
2ffef86c:	b9a8      	cbnz	r0, 2ffef89a <regulator_register+0x32>
2ffef86e:	4853      	ldr	r0, [pc, #332]	@ (2ffef9bc <regulator_register+0x154>)
2ffef870:	f44f 7105 	mov.w	r1, #532	@ 0x214
2ffef874:	f003 ff5a 	bl	2fff372c <__assert>
2ffef878:	3414      	adds	r4, #20
2ffef87a:	3b01      	subs	r3, #1
2ffef87c:	d002      	beq.n	2ffef884 <regulator_register+0x1c>
2ffef87e:	6822      	ldr	r2, [r4, #0]
2ffef880:	2a00      	cmp	r2, #0
2ffef882:	d1f9      	bne.n	2ffef878 <regulator_register+0x10>
2ffef884:	4b4e      	ldr	r3, [pc, #312]	@ (2ffef9c0 <regulator_register+0x158>)
2ffef886:	429c      	cmp	r4, r3
2ffef888:	d90a      	bls.n	2ffef8a0 <regulator_register+0x38>
2ffef88a:	484e      	ldr	r0, [pc, #312]	@ (2ffef9c4 <regulator_register+0x15c>)
2ffef88c:	f06f 050b 	mvn.w	r5, #11
2ffef890:	f7fd ffc2 	bl	2ffed818 <tf_log>
2ffef894:	4628      	mov	r0, r5
2ffef896:	b004      	add	sp, #16
2ffef898:	bd70      	pop	{r4, r5, r6, pc}
2ffef89a:	4c4b      	ldr	r4, [pc, #300]	@ (2ffef9c8 <regulator_register+0x160>)
2ffef89c:	2314      	movs	r3, #20
2ffef89e:	e7ec      	b.n	2ffef87a <regulator_register+0x12>
2ffef8a0:	6903      	ldr	r3, [r0, #16]
2ffef8a2:	6020      	str	r0, [r4, #0]
2ffef8a4:	6123      	str	r3, [r4, #16]
2ffef8a6:	6843      	ldr	r3, [r0, #4]
2ffef8a8:	691b      	ldr	r3, [r3, #16]
2ffef8aa:	2b00      	cmp	r3, #0
2ffef8ac:	d071      	beq.n	2ffef992 <regulator_register+0x12a>
2ffef8ae:	f004 fea1 	bl	2fff45f4 <lock_driver.isra.0>
2ffef8b2:	6820      	ldr	r0, [r4, #0]
2ffef8b4:	aa03      	add	r2, sp, #12
2ffef8b6:	a902      	add	r1, sp, #8
2ffef8b8:	6843      	ldr	r3, [r0, #4]
2ffef8ba:	691b      	ldr	r3, [r3, #16]
2ffef8bc:	4798      	blx	r3
2ffef8be:	4605      	mov	r5, r0
2ffef8c0:	6820      	ldr	r0, [r4, #0]
2ffef8c2:	f004 fe92 	bl	2fff45ea <unlock_driver.isra.0>
2ffef8c6:	2d00      	cmp	r5, #0
2ffef8c8:	da06      	bge.n	2ffef8d8 <regulator_register+0x70>
2ffef8ca:	6823      	ldr	r3, [r4, #0]
2ffef8cc:	462a      	mov	r2, r5
2ffef8ce:	483f      	ldr	r0, [pc, #252]	@ (2ffef9cc <regulator_register+0x164>)
2ffef8d0:	6819      	ldr	r1, [r3, #0]
2ffef8d2:	f7fd ffa1 	bl	2ffed818 <tf_log>
2ffef8d6:	e7dd      	b.n	2ffef894 <regulator_register+0x2c>
2ffef8d8:	9a02      	ldr	r2, [sp, #8]
2ffef8da:	8813      	ldrh	r3, [r2, #0]
2ffef8dc:	8123      	strh	r3, [r4, #8]
2ffef8de:	9b03      	ldr	r3, [sp, #12]
2ffef8e0:	f103 4300 	add.w	r3, r3, #2147483648	@ 0x80000000
2ffef8e4:	3b01      	subs	r3, #1
2ffef8e6:	f832 3013 	ldrh.w	r3, [r2, r3, lsl #1]
2ffef8ea:	8163      	strh	r3, [r4, #10]
2ffef8ec:	a801      	add	r0, sp, #4
2ffef8ee:	f000 f8fb 	bl	2ffefae8 <fdt_get_address>
2ffef8f2:	2800      	cmp	r0, #0
2ffef8f4:	d05e      	beq.n	2ffef9b4 <regulator_register+0x14c>
2ffef8f6:	9801      	ldr	r0, [sp, #4]
2ffef8f8:	4631      	mov	r1, r6
2ffef8fa:	f003 fecb 	bl	2fff3694 <fdt_get_phandle>
2ffef8fe:	6060      	str	r0, [r4, #4]
2ffef900:	2300      	movs	r3, #0
2ffef902:	4a33      	ldr	r2, [pc, #204]	@ (2ffef9d0 <regulator_register+0x168>)
2ffef904:	4631      	mov	r1, r6
2ffef906:	9801      	ldr	r0, [sp, #4]
2ffef908:	f005 fc22 	bl	2fff5150 <fdt_getprop>
2ffef90c:	b158      	cbz	r0, 2ffef926 <regulator_register+0xbe>
2ffef90e:	6800      	ldr	r0, [r0, #0]
2ffef910:	f44f 737a 	mov.w	r3, #1000	@ 0x3e8
2ffef914:	f004 fe67 	bl	2fff45e6 <fdt32_to_cpu>
2ffef918:	fbb0 f2f3 	udiv	r2, r0, r3
2ffef91c:	8961      	ldrh	r1, [r4, #10]
2ffef91e:	b293      	uxth	r3, r2
2ffef920:	4299      	cmp	r1, r3
2ffef922:	d339      	bcc.n	2ffef998 <regulator_register+0x130>
2ffef924:	8123      	strh	r3, [r4, #8]
2ffef926:	4a2b      	ldr	r2, [pc, #172]	@ (2ffef9d4 <regulator_register+0x16c>)
2ffef928:	2300      	movs	r3, #0
2ffef92a:	9801      	ldr	r0, [sp, #4]
2ffef92c:	4631      	mov	r1, r6
2ffef92e:	f005 fc0f 	bl	2fff5150 <fdt_getprop>
2ffef932:	b158      	cbz	r0, 2ffef94c <regulator_register+0xe4>
2ffef934:	6800      	ldr	r0, [r0, #0]
2ffef936:	f44f 737a 	mov.w	r3, #1000	@ 0x3e8
2ffef93a:	f004 fe54 	bl	2fff45e6 <fdt32_to_cpu>
2ffef93e:	fbb0 f2f3 	udiv	r2, r0, r3
2ffef942:	8921      	ldrh	r1, [r4, #8]
2ffef944:	b293      	uxth	r3, r2
2ffef946:	4299      	cmp	r1, r3
2ffef948:	d82f      	bhi.n	2ffef9aa <regulator_register+0x142>
2ffef94a:	8163      	strh	r3, [r4, #10]
2ffef94c:	aa03      	add	r2, sp, #12
2ffef94e:	a902      	add	r1, sp, #8
2ffef950:	4620      	mov	r0, r4
2ffef952:	f7ff fed1 	bl	2ffef6f8 <regulator_list_voltages>
2ffef956:	4605      	mov	r5, r0
2ffef958:	b110      	cbz	r0, 2ffef960 <regulator_register+0xf8>
2ffef95a:	f110 0f13 	cmn.w	r0, #19
2ffef95e:	d199      	bne.n	2ffef894 <regulator_register+0x2c>
2ffef960:	9d01      	ldr	r5, [sp, #4]
2ffef962:	2300      	movs	r3, #0
2ffef964:	4a1c      	ldr	r2, [pc, #112]	@ (2ffef9d8 <regulator_register+0x170>)
2ffef966:	4631      	mov	r1, r6
2ffef968:	4628      	mov	r0, r5
2ffef96a:	f005 fbf1 	bl	2fff5150 <fdt_getprop>
2ffef96e:	b118      	cbz	r0, 2ffef978 <regulator_register+0x110>
2ffef970:	89a3      	ldrh	r3, [r4, #12]
2ffef972:	f043 0301 	orr.w	r3, r3, #1
2ffef976:	81a3      	strh	r3, [r4, #12]
2ffef978:	4a18      	ldr	r2, [pc, #96]	@ (2ffef9dc <regulator_register+0x174>)
2ffef97a:	2300      	movs	r3, #0
2ffef97c:	4631      	mov	r1, r6
2ffef97e:	4628      	mov	r0, r5
2ffef980:	f005 fbe6 	bl	2fff5150 <fdt_getprop>
2ffef984:	b118      	cbz	r0, 2ffef98e <regulator_register+0x126>
2ffef986:	6800      	ldr	r0, [r0, #0]
2ffef988:	f004 fe2d 	bl	2fff45e6 <fdt32_to_cpu>
2ffef98c:	6120      	str	r0, [r4, #16]
2ffef98e:	2500      	movs	r5, #0
2ffef990:	e780      	b.n	2ffef894 <regulator_register+0x2c>
2ffef992:	f64f 73ff 	movw	r3, #65535	@ 0xffff
2ffef996:	e7a8      	b.n	2ffef8ea <regulator_register+0x82>
2ffef998:	6823      	ldr	r3, [r4, #0]
2ffef99a:	b292      	uxth	r2, r2
2ffef99c:	4810      	ldr	r0, [pc, #64]	@ (2ffef9e0 <regulator_register+0x178>)
2ffef99e:	6819      	ldr	r1, [r3, #0]
2ffef9a0:	f06f 0515 	mvn.w	r5, #21
2ffef9a4:	f7fd ff38 	bl	2ffed818 <tf_log>
2ffef9a8:	e774      	b.n	2ffef894 <regulator_register+0x2c>
2ffef9aa:	6823      	ldr	r3, [r4, #0]
2ffef9ac:	b292      	uxth	r2, r2
2ffef9ae:	480d      	ldr	r0, [pc, #52]	@ (2ffef9e4 <regulator_register+0x17c>)
2ffef9b0:	6819      	ldr	r1, [r3, #0]
2ffef9b2:	e7f5      	b.n	2ffef9a0 <regulator_register+0x138>
2ffef9b4:	f06f 0501 	mvn.w	r5, #1
2ffef9b8:	e76c      	b.n	2ffef894 <regulator_register+0x2c>
2ffef9ba:	bf00      	nop
2ffef9bc:	2fff886b 	.word	0x2fff886b
2ffef9c0:	2fffbcf4 	.word	0x2fffbcf4
2ffef9c4:	2fff89e7 	.word	0x2fff89e7
2ffef9c8:	2fffbb8c 	.word	0x2fffbb8c
2ffef9cc:	2fff8a2d 	.word	0x2fff8a2d
2ffef9d0:	2fff8a51 	.word	0x2fff8a51
2ffef9d4:	2fff8a85 	.word	0x2fff8a85
2ffef9d8:	2fff8ab8 	.word	0x2fff8ab8
2ffef9dc:	2fff8acc 	.word	0x2fff8acc
2ffef9e0:	2fff8a69 	.word	0x2fff8a69
2ffef9e4:	2fff8a9d 	.word	0x2fff8a9d

2ffef9e8 <fixed_regulator_register>:
2ffef9e8:	e92d 4ff7 	stmdb	sp!, {r0, r1, r2, r4, r5, r6, r7, r8, r9, sl, fp, lr}
2ffef9ec:	a801      	add	r0, sp, #4
2ffef9ee:	f000 f87b 	bl	2ffefae8 <fdt_get_address>
2ffef9f2:	2800      	cmp	r0, #0
2ffef9f4:	d04a      	beq.n	2ffefa8c <fixed_regulator_register+0xa4>
2ffef9f6:	4a27      	ldr	r2, [pc, #156]	@ (2ffefa94 <fixed_regulator_register+0xac>)
2ffef9f8:	f04f 31ff 	mov.w	r1, #4294967295	@ 0xffffffff
2ffef9fc:	9801      	ldr	r0, [sp, #4]
2ffef9fe:	f04f 0800 	mov.w	r8, #0
2ffefa02:	4d25      	ldr	r5, [pc, #148]	@ (2ffefa98 <fixed_regulator_register+0xb0>)
2ffefa04:	f005 fcd8 	bl	2fff53b8 <fdt_node_offset_by_compatible>
2ffefa08:	f8df 9090 	ldr.w	r9, [pc, #144]	@ 2ffefa9c <fixed_regulator_register+0xb4>
2ffefa0c:	4604      	mov	r4, r0
2ffefa0e:	f8df a090 	ldr.w	sl, [pc, #144]	@ 2ffefaa0 <fixed_regulator_register+0xb8>
2ffefa12:	f8df b080 	ldr.w	fp, [pc, #128]	@ 2ffefa94 <fixed_regulator_register+0xac>
2ffefa16:	2c00      	cmp	r4, #0
2ffefa18:	da01      	bge.n	2ffefa1e <fixed_regulator_register+0x36>
2ffefa1a:	2600      	movs	r6, #0
2ffefa1c:	e023      	b.n	2ffefa66 <fixed_regulator_register+0x7e>
2ffefa1e:	9801      	ldr	r0, [sp, #4]
2ffefa20:	2200      	movs	r2, #0
2ffefa22:	4621      	mov	r1, r4
2ffefa24:	f005 faa1 	bl	2fff4f6a <fdt_get_name>
2ffefa28:	4603      	mov	r3, r0
2ffefa2a:	4607      	mov	r7, r0
2ffefa2c:	464a      	mov	r2, r9
2ffefa2e:	211f      	movs	r1, #31
2ffefa30:	4628      	mov	r0, r5
2ffefa32:	f005 fded 	bl	2fff5610 <snprintf>
2ffefa36:	3801      	subs	r0, #1
2ffefa38:	281d      	cmp	r0, #29
2ffefa3a:	d903      	bls.n	2ffefa44 <fixed_regulator_register+0x5c>
2ffefa3c:	2143      	movs	r1, #67	@ 0x43
2ffefa3e:	4819      	ldr	r0, [pc, #100]	@ (2ffefaa4 <fixed_regulator_register+0xbc>)
2ffefa40:	f003 fe74 	bl	2fff372c <__assert>
2ffefa44:	622d      	str	r5, [r5, #32]
2ffefa46:	4621      	mov	r1, r4
2ffefa48:	62ad      	str	r5, [r5, #40]	@ 0x28
2ffefa4a:	f105 0020 	add.w	r0, r5, #32
2ffefa4e:	f8c5 a024 	str.w	sl, [r5, #36]	@ 0x24
2ffefa52:	f7ff ff09 	bl	2ffef868 <regulator_register>
2ffefa56:	4606      	mov	r6, r0
2ffefa58:	b148      	cbz	r0, 2ffefa6e <fixed_regulator_register+0x86>
2ffefa5a:	4913      	ldr	r1, [pc, #76]	@ (2ffefaa8 <fixed_regulator_register+0xc0>)
2ffefa5c:	463b      	mov	r3, r7
2ffefa5e:	4813      	ldr	r0, [pc, #76]	@ (2ffefaac <fixed_regulator_register+0xc4>)
2ffefa60:	224c      	movs	r2, #76	@ 0x4c
2ffefa62:	f7fd fed9 	bl	2ffed818 <tf_log>
2ffefa66:	4630      	mov	r0, r6
2ffefa68:	b003      	add	sp, #12
2ffefa6a:	e8bd 8ff0 	ldmia.w	sp!, {r4, r5, r6, r7, r8, r9, sl, fp, pc}
2ffefa6e:	f108 0801 	add.w	r8, r8, #1
2ffefa72:	f1b8 0f03 	cmp.w	r8, #3
2ffefa76:	d101      	bne.n	2ffefa7c <fixed_regulator_register+0x94>
2ffefa78:	2151      	movs	r1, #81	@ 0x51
2ffefa7a:	e7e0      	b.n	2ffefa3e <fixed_regulator_register+0x56>
2ffefa7c:	9801      	ldr	r0, [sp, #4]
2ffefa7e:	4621      	mov	r1, r4
2ffefa80:	465a      	mov	r2, fp
2ffefa82:	3534      	adds	r5, #52	@ 0x34
2ffefa84:	f005 fc98 	bl	2fff53b8 <fdt_node_offset_by_compatible>
2ffefa88:	4604      	mov	r4, r0
2ffefa8a:	e7c4      	b.n	2ffefa16 <fixed_regulator_register+0x2e>
2ffefa8c:	f04f 36ff 	mov.w	r6, #4294967295	@ 0xffffffff
2ffefa90:	e7e9      	b.n	2ffefa66 <fixed_regulator_register+0x7e>
2ffefa92:	bf00      	nop
2ffefa94:	2fff8b17 	.word	0x2fff8b17
2ffefa98:	2fffbd08 	.word	0x2fffbd08
2ffefa9c:	2fff7d1b 	.word	0x2fff7d1b
2ffefaa0:	2fffa52c 	.word	0x2fffa52c
2ffefaa4:	2fff8b27 	.word	0x2fff8b27
2ffefaa8:	2fff8b6c 	.word	0x2fff8b6c
2ffefaac:	2fff8b4e 	.word	0x2fff8b4e

2ffefab0 <fdt_get_node_parent_address_cells>:
2ffefab0:	b510      	push	{r4, lr}
2ffefab2:	4601      	mov	r1, r0
2ffefab4:	4c06      	ldr	r4, [pc, #24]	@ (2ffefad0 <fdt_get_node_parent_address_cells+0x20>)
2ffefab6:	6820      	ldr	r0, [r4, #0]
2ffefab8:	f005 fbf7 	bl	2fff52aa <fdt_parent_offset>
2ffefabc:	1e01      	subs	r1, r0, #0
2ffefabe:	db04      	blt.n	2ffefaca <fdt_get_node_parent_address_cells+0x1a>
2ffefac0:	6820      	ldr	r0, [r4, #0]
2ffefac2:	e8bd 4010 	ldmia.w	sp!, {r4, lr}
2ffefac6:	f003 bd7f 	b.w	2fff35c8 <fdt_address_cells>
2ffefaca:	f04f 30ff 	mov.w	r0, #4294967295	@ 0xffffffff
2ffeface:	bd10      	pop	{r4, pc}
2ffefad0:	2fffbd74 	.word	0x2fffbd74

2ffefad4 <dt_open_and_check>:
2ffefad4:	b510      	push	{r4, lr}
2ffefad6:	4604      	mov	r4, r0
2ffefad8:	f003 fd10 	bl	2fff34fc <fdt_check_header>
2ffefadc:	b908      	cbnz	r0, 2ffefae2 <dt_open_and_check+0xe>
2ffefade:	4b01      	ldr	r3, [pc, #4]	@ (2ffefae4 <dt_open_and_check+0x10>)
2ffefae0:	601c      	str	r4, [r3, #0]
2ffefae2:	bd10      	pop	{r4, pc}
2ffefae4:	2fffbd74 	.word	0x2fffbd74

2ffefae8 <fdt_get_address>:
2ffefae8:	4b03      	ldr	r3, [pc, #12]	@ (2ffefaf8 <fdt_get_address+0x10>)
2ffefaea:	681b      	ldr	r3, [r3, #0]
2ffefaec:	b113      	cbz	r3, 2ffefaf4 <fdt_get_address+0xc>
2ffefaee:	6003      	str	r3, [r0, #0]
2ffefaf0:	2001      	movs	r0, #1
2ffefaf2:	4770      	bx	lr
2ffefaf4:	4618      	mov	r0, r3
2ffefaf6:	4770      	bx	lr
2ffefaf8:	2fffbd74 	.word	0x2fffbd74

2ffefafc <fdt_check_node>:
2ffefafc:	4b06      	ldr	r3, [pc, #24]	@ (2ffefb18 <fdt_check_node+0x1c>)
2ffefafe:	b507      	push	{r0, r1, r2, lr}
2ffefb00:	4601      	mov	r1, r0
2ffefb02:	6818      	ldr	r0, [r3, #0]
2ffefb04:	aa01      	add	r2, sp, #4
2ffefb06:	f005 fa30 	bl	2fff4f6a <fdt_get_name>
2ffefb0a:	b110      	cbz	r0, 2ffefb12 <fdt_check_node+0x16>
2ffefb0c:	9801      	ldr	r0, [sp, #4]
2ffefb0e:	43c0      	mvns	r0, r0
2ffefb10:	0fc0      	lsrs	r0, r0, #31
2ffefb12:	b003      	add	sp, #12
2ffefb14:	f85d fb04 	ldr.w	pc, [sp], #4
2ffefb18:	2fffbd74 	.word	0x2fffbd74

2ffefb1c <fdt_get_status>:
2ffefb1c:	b570      	push	{r4, r5, r6, lr}
2ffefb1e:	4601      	mov	r1, r0
2ffefb20:	4e17      	ldr	r6, [pc, #92]	@ (2ffefb80 <fdt_get_status+0x64>)
2ffefb22:	4605      	mov	r5, r0
2ffefb24:	4a17      	ldr	r2, [pc, #92]	@ (2ffefb84 <fdt_get_status+0x68>)
2ffefb26:	2300      	movs	r3, #0
2ffefb28:	6830      	ldr	r0, [r6, #0]
2ffefb2a:	f005 fb11 	bl	2fff5150 <fdt_getprop>
2ffefb2e:	4604      	mov	r4, r0
2ffefb30:	b1c0      	cbz	r0, 2ffefb64 <fdt_get_status+0x48>
2ffefb32:	4815      	ldr	r0, [pc, #84]	@ (2ffefb88 <fdt_get_status+0x6c>)
2ffefb34:	f005 fda4 	bl	2fff5680 <strlen>
2ffefb38:	4913      	ldr	r1, [pc, #76]	@ (2ffefb88 <fdt_get_status+0x6c>)
2ffefb3a:	4602      	mov	r2, r0
2ffefb3c:	4620      	mov	r0, r4
2ffefb3e:	f005 fda7 	bl	2fff5690 <strncmp>
2ffefb42:	fab0 f480 	clz	r4, r0
2ffefb46:	0964      	lsrs	r4, r4, #5
2ffefb48:	4a10      	ldr	r2, [pc, #64]	@ (2ffefb8c <fdt_get_status+0x70>)
2ffefb4a:	4629      	mov	r1, r5
2ffefb4c:	6830      	ldr	r0, [r6, #0]
2ffefb4e:	2300      	movs	r3, #0
2ffefb50:	f005 fafe 	bl	2fff5150 <fdt_getprop>
2ffefb54:	4605      	mov	r5, r0
2ffefb56:	b938      	cbnz	r0, 2ffefb68 <fdt_get_status+0x4c>
2ffefb58:	2c01      	cmp	r4, #1
2ffefb5a:	d101      	bne.n	2ffefb60 <fdt_get_status+0x44>
2ffefb5c:	f044 0402 	orr.w	r4, r4, #2
2ffefb60:	4620      	mov	r0, r4
2ffefb62:	bd70      	pop	{r4, r5, r6, pc}
2ffefb64:	2401      	movs	r4, #1
2ffefb66:	e7ef      	b.n	2ffefb48 <fdt_get_status+0x2c>
2ffefb68:	4807      	ldr	r0, [pc, #28]	@ (2ffefb88 <fdt_get_status+0x6c>)
2ffefb6a:	f005 fd89 	bl	2fff5680 <strlen>
2ffefb6e:	4906      	ldr	r1, [pc, #24]	@ (2ffefb88 <fdt_get_status+0x6c>)
2ffefb70:	4602      	mov	r2, r0
2ffefb72:	4628      	mov	r0, r5
2ffefb74:	f005 fd8c 	bl	2fff5690 <strncmp>
2ffefb78:	2800      	cmp	r0, #0
2ffefb7a:	d0ef      	beq.n	2ffefb5c <fdt_get_status+0x40>
2ffefb7c:	e7f0      	b.n	2ffefb60 <fdt_get_status+0x44>
2ffefb7e:	bf00      	nop
2ffefb80:	2fffbd74 	.word	0x2fffbd74
2ffefb84:	2fff8b91 	.word	0x2fff8b91
2ffefb88:	2fff8b85 	.word	0x2fff8b85
2ffefb8c:	2fff8b8a 	.word	0x2fff8b8a

2ffefb90 <dt_set_stdout_pinctrl>:
2ffefb90:	b508      	push	{r3, lr}
2ffefb92:	4b06      	ldr	r3, [pc, #24]	@ (2ffefbac <dt_set_stdout_pinctrl+0x1c>)
2ffefb94:	6818      	ldr	r0, [r3, #0]
2ffefb96:	f7fa fa31 	bl	2ffe9ffc <fdt_get_stdout_node_offset>
2ffefb9a:	2800      	cmp	r0, #0
2ffefb9c:	db03      	blt.n	2ffefba6 <dt_set_stdout_pinctrl+0x16>
2ffefb9e:	e8bd 4008 	ldmia.w	sp!, {r3, lr}
2ffefba2:	f7ff b94d 	b.w	2ffeee40 <dt_set_pinctrl_config>
2ffefba6:	f04f 30ff 	mov.w	r0, #4294967295	@ 0xffffffff
2ffefbaa:	bd08      	pop	{r3, pc}
2ffefbac:	2fffbd74 	.word	0x2fffbd74

2ffefbb0 <dt_fill_device_info>:
2ffefbb0:	b570      	push	{r4, r5, r6, lr}
2ffefbb2:	4605      	mov	r5, r0
2ffefbb4:	4608      	mov	r0, r1
2ffefbb6:	460c      	mov	r4, r1
2ffefbb8:	f7ff ff7a 	bl	2ffefab0 <fdt_get_node_parent_address_cells>
2ffefbbc:	2801      	cmp	r0, #1
2ffefbbe:	d003      	beq.n	2ffefbc8 <dt_fill_device_info+0x18>
2ffefbc0:	4818      	ldr	r0, [pc, #96]	@ (2ffefc24 <dt_fill_device_info+0x74>)
2ffefbc2:	2188      	movs	r1, #136	@ 0x88
2ffefbc4:	f003 fdb2 	bl	2fff372c <__assert>
2ffefbc8:	4e17      	ldr	r6, [pc, #92]	@ (2ffefc28 <dt_fill_device_info+0x78>)
2ffefbca:	2300      	movs	r3, #0
2ffefbcc:	4a17      	ldr	r2, [pc, #92]	@ (2ffefc2c <dt_fill_device_info+0x7c>)
2ffefbce:	4621      	mov	r1, r4
2ffefbd0:	6830      	ldr	r0, [r6, #0]
2ffefbd2:	f005 fabd 	bl	2fff5150 <fdt_getprop>
2ffefbd6:	b110      	cbz	r0, 2ffefbde <dt_fill_device_info+0x2e>
2ffefbd8:	6800      	ldr	r0, [r0, #0]
2ffefbda:	f004 fd17 	bl	2fff460c <fdt32_to_cpu>
2ffefbde:	6028      	str	r0, [r5, #0]
2ffefbe0:	2300      	movs	r3, #0
2ffefbe2:	4a13      	ldr	r2, [pc, #76]	@ (2ffefc30 <dt_fill_device_info+0x80>)
2ffefbe4:	4621      	mov	r1, r4
2ffefbe6:	6830      	ldr	r0, [r6, #0]
2ffefbe8:	f005 fab2 	bl	2fff5150 <fdt_getprop>
2ffefbec:	b198      	cbz	r0, 2ffefc16 <dt_fill_device_info+0x66>
2ffefbee:	6840      	ldr	r0, [r0, #4]
2ffefbf0:	f004 fd0c 	bl	2fff460c <fdt32_to_cpu>
2ffefbf4:	6068      	str	r0, [r5, #4]
2ffefbf6:	2300      	movs	r3, #0
2ffefbf8:	4a0e      	ldr	r2, [pc, #56]	@ (2ffefc34 <dt_fill_device_info+0x84>)
2ffefbfa:	4621      	mov	r1, r4
2ffefbfc:	6830      	ldr	r0, [r6, #0]
2ffefbfe:	f005 faa7 	bl	2fff5150 <fdt_getprop>
2ffefc02:	b158      	cbz	r0, 2ffefc1c <dt_fill_device_info+0x6c>
2ffefc04:	6840      	ldr	r0, [r0, #4]
2ffefc06:	f004 fd01 	bl	2fff460c <fdt32_to_cpu>
2ffefc0a:	60a8      	str	r0, [r5, #8]
2ffefc0c:	4620      	mov	r0, r4
2ffefc0e:	f7ff ff85 	bl	2ffefb1c <fdt_get_status>
2ffefc12:	60e8      	str	r0, [r5, #12]
2ffefc14:	bd70      	pop	{r4, r5, r6, pc}
2ffefc16:	f04f 30ff 	mov.w	r0, #4294967295	@ 0xffffffff
2ffefc1a:	e7eb      	b.n	2ffefbf4 <dt_fill_device_info+0x44>
2ffefc1c:	f04f 30ff 	mov.w	r0, #4294967295	@ 0xffffffff
2ffefc20:	e7f3      	b.n	2ffefc0a <dt_fill_device_info+0x5a>
2ffefc22:	bf00      	nop
2ffefc24:	2fff8b98 	.word	0x2fff8b98
2ffefc28:	2fffbd74 	.word	0x2fffbd74
2ffefc2c:	2fff72ef 	.word	0x2fff72ef
2ffefc30:	2fff860a 	.word	0x2fff860a
2ffefc34:	2fff8bb4 	.word	0x2fff8bb4

2ffefc38 <dt_get_node>:
2ffefc38:	b538      	push	{r3, r4, r5, lr}
2ffefc3a:	4605      	mov	r5, r0
2ffefc3c:	4b07      	ldr	r3, [pc, #28]	@ (2ffefc5c <dt_get_node+0x24>)
2ffefc3e:	6818      	ldr	r0, [r3, #0]
2ffefc40:	f005 fbba 	bl	2fff53b8 <fdt_node_offset_by_compatible>
2ffefc44:	1e04      	subs	r4, r0, #0
2ffefc46:	db05      	blt.n	2ffefc54 <dt_get_node+0x1c>
2ffefc48:	4621      	mov	r1, r4
2ffefc4a:	4628      	mov	r0, r5
2ffefc4c:	f7ff ffb0 	bl	2ffefbb0 <dt_fill_device_info>
2ffefc50:	4620      	mov	r0, r4
2ffefc52:	bd38      	pop	{r3, r4, r5, pc}
2ffefc54:	f04f 34ff 	mov.w	r4, #4294967295	@ 0xffffffff
2ffefc58:	e7fa      	b.n	2ffefc50 <dt_get_node+0x18>
2ffefc5a:	bf00      	nop
2ffefc5c:	2fffbd74 	.word	0x2fffbd74

2ffefc60 <dt_get_stdout_uart_info>:
2ffefc60:	b538      	push	{r3, r4, r5, lr}
2ffefc62:	4605      	mov	r5, r0
2ffefc64:	4b07      	ldr	r3, [pc, #28]	@ (2ffefc84 <dt_get_stdout_uart_info+0x24>)
2ffefc66:	6818      	ldr	r0, [r3, #0]
2ffefc68:	f7fa f9c8 	bl	2ffe9ffc <fdt_get_stdout_node_offset>
2ffefc6c:	1e04      	subs	r4, r0, #0
2ffefc6e:	db05      	blt.n	2ffefc7c <dt_get_stdout_uart_info+0x1c>
2ffefc70:	4621      	mov	r1, r4
2ffefc72:	4628      	mov	r0, r5
2ffefc74:	f7ff ff9c 	bl	2ffefbb0 <dt_fill_device_info>
2ffefc78:	4620      	mov	r0, r4
2ffefc7a:	bd38      	pop	{r3, r4, r5, pc}
2ffefc7c:	f04f 34ff 	mov.w	r4, #4294967295	@ 0xffffffff
2ffefc80:	e7fa      	b.n	2ffefc78 <dt_get_stdout_uart_info+0x18>
2ffefc82:	bf00      	nop
2ffefc84:	2fffbd74 	.word	0x2fffbd74

2ffefc88 <dt_match_instance_by_compatible>:
2ffefc88:	e92d 41f0 	stmdb	sp!, {r4, r5, r6, r7, r8, lr}
2ffefc8c:	4602      	mov	r2, r0
2ffefc8e:	4f17      	ldr	r7, [pc, #92]	@ (2ffefcec <dt_match_instance_by_compatible+0x64>)
2ffefc90:	4605      	mov	r5, r0
2ffefc92:	f8df 805c 	ldr.w	r8, [pc, #92]	@ 2ffefcf0 <dt_match_instance_by_compatible+0x68>
2ffefc96:	460e      	mov	r6, r1
2ffefc98:	6838      	ldr	r0, [r7, #0]
2ffefc9a:	f04f 31ff 	mov.w	r1, #4294967295	@ 0xffffffff
2ffefc9e:	f005 fb8b 	bl	2fff53b8 <fdt_node_offset_by_compatible>
2ffefca2:	4604      	mov	r4, r0
2ffefca4:	2c00      	cmp	r4, #0
2ffefca6:	da04      	bge.n	2ffefcb2 <dt_match_instance_by_compatible+0x2a>
2ffefca8:	f04f 34ff 	mov.w	r4, #4294967295	@ 0xffffffff
2ffefcac:	4620      	mov	r0, r4
2ffefcae:	e8bd 81f0 	ldmia.w	sp!, {r4, r5, r6, r7, r8, pc}
2ffefcb2:	4620      	mov	r0, r4
2ffefcb4:	f7ff fefc 	bl	2ffefab0 <fdt_get_node_parent_address_cells>
2ffefcb8:	2801      	cmp	r0, #1
2ffefcba:	d003      	beq.n	2ffefcc4 <dt_match_instance_by_compatible+0x3c>
2ffefcbc:	480d      	ldr	r0, [pc, #52]	@ (2ffefcf4 <dt_match_instance_by_compatible+0x6c>)
2ffefcbe:	21d4      	movs	r1, #212	@ 0xd4
2ffefcc0:	f003 fd34 	bl	2fff372c <__assert>
2ffefcc4:	6838      	ldr	r0, [r7, #0]
2ffefcc6:	2300      	movs	r3, #0
2ffefcc8:	4642      	mov	r2, r8
2ffefcca:	4621      	mov	r1, r4
2ffefccc:	f005 fa40 	bl	2fff5150 <fdt_getprop>
2ffefcd0:	b120      	cbz	r0, 2ffefcdc <dt_match_instance_by_compatible+0x54>
2ffefcd2:	6800      	ldr	r0, [r0, #0]
2ffefcd4:	f004 fc9a 	bl	2fff460c <fdt32_to_cpu>
2ffefcd8:	42b0      	cmp	r0, r6
2ffefcda:	d0e7      	beq.n	2ffefcac <dt_match_instance_by_compatible+0x24>
2ffefcdc:	6838      	ldr	r0, [r7, #0]
2ffefcde:	4621      	mov	r1, r4
2ffefce0:	462a      	mov	r2, r5
2ffefce2:	f005 fb69 	bl	2fff53b8 <fdt_node_offset_by_compatible>
2ffefce6:	4604      	mov	r4, r0
2ffefce8:	e7dc      	b.n	2ffefca4 <dt_match_instance_by_compatible+0x1c>
2ffefcea:	bf00      	nop
2ffefcec:	2fffbd74 	.word	0x2fffbd74
2ffefcf0:	2fff72ef 	.word	0x2fff72ef
2ffefcf4:	2fff8b98 	.word	0x2fff8b98

2ffefcf8 <dt_get_ddr_size>:
2ffefcf8:	b570      	push	{r4, r5, r6, lr}
2ffefcfa:	4d0f      	ldr	r5, [pc, #60]	@ (2ffefd38 <dt_get_ddr_size+0x40>)
2ffefcfc:	682c      	ldr	r4, [r5, #0]
2ffefcfe:	b964      	cbnz	r4, 2ffefd1a <dt_get_ddr_size+0x22>
2ffefd00:	4e0e      	ldr	r6, [pc, #56]	@ (2ffefd3c <dt_get_ddr_size+0x44>)
2ffefd02:	f04f 31ff 	mov.w	r1, #4294967295	@ 0xffffffff
2ffefd06:	4a0e      	ldr	r2, [pc, #56]	@ (2ffefd40 <dt_get_ddr_size+0x48>)
2ffefd08:	6830      	ldr	r0, [r6, #0]
2ffefd0a:	f005 fb55 	bl	2fff53b8 <fdt_node_offset_by_compatible>
2ffefd0e:	1e01      	subs	r1, r0, #0
2ffefd10:	da05      	bge.n	2ffefd1e <dt_get_ddr_size+0x26>
2ffefd12:	490c      	ldr	r1, [pc, #48]	@ (2ffefd44 <dt_get_ddr_size+0x4c>)
2ffefd14:	480c      	ldr	r0, [pc, #48]	@ (2ffefd48 <dt_get_ddr_size+0x50>)
2ffefd16:	f7fd fd7f 	bl	2ffed818 <tf_log>
2ffefd1a:	4620      	mov	r0, r4
2ffefd1c:	bd70      	pop	{r4, r5, r6, pc}
2ffefd1e:	4a0b      	ldr	r2, [pc, #44]	@ (2ffefd4c <dt_get_ddr_size+0x54>)
2ffefd20:	4623      	mov	r3, r4
2ffefd22:	6830      	ldr	r0, [r6, #0]
2ffefd24:	f003 ff5e 	bl	2fff3be4 <fdt_read_uint32_default>
2ffefd28:	6028      	str	r0, [r5, #0]
2ffefd2a:	2104      	movs	r1, #4
2ffefd2c:	4628      	mov	r0, r5
2ffefd2e:	f7f9 eb8e 	blx	2ffe944c <flush_dcache_range>
2ffefd32:	682c      	ldr	r4, [r5, #0]
2ffefd34:	e7f1      	b.n	2ffefd1a <dt_get_ddr_size+0x22>
2ffefd36:	bf00      	nop
2ffefd38:	2fffbd70 	.word	0x2fffbd70
2ffefd3c:	2fffbd74 	.word	0x2fffbd74
2ffefd40:	2fff7197 	.word	0x2fff7197
2ffefd44:	2fff8c7e 	.word	0x2fff8c7e
2ffefd48:	2fff8bbb 	.word	0x2fff8bbb
2ffefd4c:	2fff8bdc 	.word	0x2fff8bdc

2ffefd50 <dt_get_vdd_regulator>:
2ffefd50:	b510      	push	{r4, lr}
2ffefd52:	f04f 31ff 	mov.w	r1, #4294967295	@ 0xffffffff
2ffefd56:	4c07      	ldr	r4, [pc, #28]	@ (2ffefd74 <dt_get_vdd_regulator+0x24>)
2ffefd58:	4a07      	ldr	r2, [pc, #28]	@ (2ffefd78 <dt_get_vdd_regulator+0x28>)
2ffefd5a:	6820      	ldr	r0, [r4, #0]
2ffefd5c:	f005 fb2c 	bl	2fff53b8 <fdt_node_offset_by_compatible>
2ffefd60:	1e01      	subs	r1, r0, #0
2ffefd62:	db05      	blt.n	2ffefd70 <dt_get_vdd_regulator+0x20>
2ffefd64:	6820      	ldr	r0, [r4, #0]
2ffefd66:	4a05      	ldr	r2, [pc, #20]	@ (2ffefd7c <dt_get_vdd_regulator+0x2c>)
2ffefd68:	e8bd 4010 	ldmia.w	sp!, {r4, lr}
2ffefd6c:	f7ff bbf8 	b.w	2ffef560 <regulator_get_by_supply_name>
2ffefd70:	2000      	movs	r0, #0
2ffefd72:	bd10      	pop	{r4, pc}
2ffefd74:	2fffbd74 	.word	0x2fffbd74
2ffefd78:	2fff8be8 	.word	0x2fff8be8
2ffefd7c:	2fff8bfc 	.word	0x2fff8bfc

2ffefd80 <dt_get_board_model>:
2ffefd80:	b510      	push	{r4, lr}
2ffefd82:	4c08      	ldr	r4, [pc, #32]	@ (2ffefda4 <dt_get_board_model+0x24>)
2ffefd84:	4908      	ldr	r1, [pc, #32]	@ (2ffefda8 <dt_get_board_model+0x28>)
2ffefd86:	6820      	ldr	r0, [r4, #0]
2ffefd88:	f005 fa3d 	bl	2fff5206 <fdt_path_offset>
2ffefd8c:	1e01      	subs	r1, r0, #0
2ffefd8e:	db06      	blt.n	2ffefd9e <dt_get_board_model+0x1e>
2ffefd90:	6820      	ldr	r0, [r4, #0]
2ffefd92:	2300      	movs	r3, #0
2ffefd94:	e8bd 4010 	ldmia.w	sp!, {r4, lr}
2ffefd98:	4a04      	ldr	r2, [pc, #16]	@ (2ffefdac <dt_get_board_model+0x2c>)
2ffefd9a:	f005 b9d9 	b.w	2fff5150 <fdt_getprop>
2ffefd9e:	2000      	movs	r0, #0
2ffefda0:	bd10      	pop	{r4, pc}
2ffefda2:	bf00      	nop
2ffefda4:	2fffbd74 	.word	0x2fffbd74
2ffefda8:	2fff8c00 	.word	0x2fff8c00
2ffefdac:	2fff8c02 	.word	0x2fff8c02

2ffefdb0 <dt_find_otp_name>:
2ffefdb0:	e92d 41f3 	stmdb	sp!, {r0, r1, r4, r5, r6, r7, r8, lr}
2ffefdb4:	460f      	mov	r7, r1
2ffefdb6:	4616      	mov	r6, r2
2ffefdb8:	4605      	mov	r5, r0
2ffefdba:	b358      	cbz	r0, 2ffefe14 <dt_find_otp_name+0x64>
2ffefdbc:	b351      	cbz	r1, 2ffefe14 <dt_find_otp_name+0x64>
2ffefdbe:	f8df 8080 	ldr.w	r8, [pc, #128]	@ 2ffefe40 <dt_find_otp_name+0x90>
2ffefdc2:	f04f 31ff 	mov.w	r1, #4294967295	@ 0xffffffff
2ffefdc6:	4a1f      	ldr	r2, [pc, #124]	@ (2ffefe44 <dt_find_otp_name+0x94>)
2ffefdc8:	f8d8 0000 	ldr.w	r0, [r8]
2ffefdcc:	f005 faf4 	bl	2fff53b8 <fdt_node_offset_by_compatible>
2ffefdd0:	1e04      	subs	r4, r0, #0
2ffefdd2:	db0b      	blt.n	2ffefdec <dt_find_otp_name+0x3c>
2ffefdd4:	f8d8 0000 	ldr.w	r0, [r8]
2ffefdd8:	4621      	mov	r1, r4
2ffefdda:	462a      	mov	r2, r5
2ffefddc:	f005 f933 	bl	2fff5046 <fdt_subnode_offset>
2ffefde0:	1e04      	subs	r4, r0, #0
2ffefde2:	da07      	bge.n	2ffefdf4 <dt_find_otp_name+0x44>
2ffefde4:	4818      	ldr	r0, [pc, #96]	@ (2ffefe48 <dt_find_otp_name+0x98>)
2ffefde6:	4629      	mov	r1, r5
2ffefde8:	f7fd fd16 	bl	2ffed818 <tf_log>
2ffefdec:	4620      	mov	r0, r4
2ffefdee:	b002      	add	sp, #8
2ffefdf0:	e8bd 81f0 	ldmia.w	sp!, {r4, r5, r6, r7, r8, pc}
2ffefdf4:	4a15      	ldr	r2, [pc, #84]	@ (2ffefe4c <dt_find_otp_name+0x9c>)
2ffefdf6:	ab01      	add	r3, sp, #4
2ffefdf8:	f8d8 0000 	ldr.w	r0, [r8]
2ffefdfc:	4621      	mov	r1, r4
2ffefdfe:	f005 f9a7 	bl	2fff5150 <fdt_getprop>
2ffefe02:	4602      	mov	r2, r0
2ffefe04:	b110      	cbz	r0, 2ffefe0c <dt_find_otp_name+0x5c>
2ffefe06:	9b01      	ldr	r3, [sp, #4]
2ffefe08:	2b08      	cmp	r3, #8
2ffefe0a:	d006      	beq.n	2ffefe1a <dt_find_otp_name+0x6a>
2ffefe0c:	4810      	ldr	r0, [pc, #64]	@ (2ffefe50 <dt_find_otp_name+0xa0>)
2ffefe0e:	4629      	mov	r1, r5
2ffefe10:	f7fd fd02 	bl	2ffed818 <tf_log>
2ffefe14:	f06f 040e 	mvn.w	r4, #14
2ffefe18:	e7e8      	b.n	2ffefdec <dt_find_otp_name+0x3c>
2ffefe1a:	6800      	ldr	r0, [r0, #0]
2ffefe1c:	f004 fbf6 	bl	2fff460c <fdt32_to_cpu>
2ffefe20:	0783      	lsls	r3, r0, #30
2ffefe22:	d002      	beq.n	2ffefe2a <dt_find_otp_name+0x7a>
2ffefe24:	480b      	ldr	r0, [pc, #44]	@ (2ffefe54 <dt_find_otp_name+0xa4>)
2ffefe26:	4629      	mov	r1, r5
2ffefe28:	e7f2      	b.n	2ffefe10 <dt_find_otp_name+0x60>
2ffefe2a:	0880      	lsrs	r0, r0, #2
2ffefe2c:	6038      	str	r0, [r7, #0]
2ffefe2e:	b90e      	cbnz	r6, 2ffefe34 <dt_find_otp_name+0x84>
2ffefe30:	2400      	movs	r4, #0
2ffefe32:	e7db      	b.n	2ffefdec <dt_find_otp_name+0x3c>
2ffefe34:	6850      	ldr	r0, [r2, #4]
2ffefe36:	f004 fbe9 	bl	2fff460c <fdt32_to_cpu>
2ffefe3a:	00c0      	lsls	r0, r0, #3
2ffefe3c:	6030      	str	r0, [r6, #0]
2ffefe3e:	e7f7      	b.n	2ffefe30 <dt_find_otp_name+0x80>
2ffefe40:	2fffbd74 	.word	0x2fffbd74
2ffefe44:	2fff8c08 	.word	0x2fff8c08
2ffefe48:	2fff8c1a 	.word	0x2fff8c1a
2ffefe4c:	2fff72ef 	.word	0x2fff72ef
2ffefe50:	2fff8c34 	.word	0x2fff8c34
2ffefe54:	2fff8c57 	.word	0x2fff8c57

2ffefe58 <dt_get_otp_by_phandle>:
2ffefe58:	e92d 41f0 	stmdb	sp!, {r4, r5, r6, r7, r8, lr}
2ffefe5c:	4680      	mov	r8, r0
2ffefe5e:	4d1d      	ldr	r5, [pc, #116]	@ (2ffefed4 <dt_get_otp_by_phandle+0x7c>)
2ffefe60:	460e      	mov	r6, r1
2ffefe62:	4617      	mov	r7, r2
2ffefe64:	f04f 31ff 	mov.w	r1, #4294967295	@ 0xffffffff
2ffefe68:	4a1b      	ldr	r2, [pc, #108]	@ (2ffefed8 <dt_get_otp_by_phandle+0x80>)
2ffefe6a:	6828      	ldr	r0, [r5, #0]
2ffefe6c:	f005 faa4 	bl	2fff53b8 <fdt_node_offset_by_compatible>
2ffefe70:	2800      	cmp	r0, #0
2ffefe72:	db08      	blt.n	2ffefe86 <dt_get_otp_by_phandle+0x2e>
2ffefe74:	4601      	mov	r1, r0
2ffefe76:	6828      	ldr	r0, [r5, #0]
2ffefe78:	f004 fff9 	bl	2fff4e6e <fdt_first_subnode>
2ffefe7c:	2800      	cmp	r0, #0
2ffefe7e:	4604      	mov	r4, r0
2ffefe80:	da03      	bge.n	2ffefe8a <dt_get_otp_by_phandle+0x32>
2ffefe82:	f04f 30ff 	mov.w	r0, #4294967295	@ 0xffffffff
2ffefe86:	e8bd 81f0 	ldmia.w	sp!, {r4, r5, r6, r7, r8, pc}
2ffefe8a:	6828      	ldr	r0, [r5, #0]
2ffefe8c:	4621      	mov	r1, r4
2ffefe8e:	f003 fc01 	bl	2fff3694 <fdt_get_phandle>
2ffefe92:	4540      	cmp	r0, r8
2ffefe94:	d010      	beq.n	2ffefeb8 <dt_get_otp_by_phandle+0x60>
2ffefe96:	6828      	ldr	r0, [r5, #0]
2ffefe98:	4621      	mov	r1, r4
2ffefe9a:	f004 fffb 	bl	2fff4e94 <fdt_next_subnode>
2ffefe9e:	e7ed      	b.n	2ffefe7c <dt_get_otp_by_phandle+0x24>
2ffefea0:	6818      	ldr	r0, [r3, #0]
2ffefea2:	f004 fbb3 	bl	2fff460c <fdt32_to_cpu>
2ffefea6:	4602      	mov	r2, r0
2ffefea8:	6858      	ldr	r0, [r3, #4]
2ffefeaa:	0892      	lsrs	r2, r2, #2
2ffefeac:	f004 fbae 	bl	2fff460c <fdt32_to_cpu>
2ffefeb0:	6038      	str	r0, [r7, #0]
2ffefeb2:	2000      	movs	r0, #0
2ffefeb4:	6032      	str	r2, [r6, #0]
2ffefeb6:	e7e6      	b.n	2ffefe86 <dt_get_otp_by_phandle+0x2e>
2ffefeb8:	4a08      	ldr	r2, [pc, #32]	@ (2ffefedc <dt_get_otp_by_phandle+0x84>)
2ffefeba:	2300      	movs	r3, #0
2ffefebc:	6828      	ldr	r0, [r5, #0]
2ffefebe:	4621      	mov	r1, r4
2ffefec0:	f005 f946 	bl	2fff5150 <fdt_getprop>
2ffefec4:	4603      	mov	r3, r0
2ffefec6:	2800      	cmp	r0, #0
2ffefec8:	d1ea      	bne.n	2ffefea0 <dt_get_otp_by_phandle+0x48>
2ffefeca:	f7fd fd41 	bl	2ffed950 <console_flush>
2ffefece:	f7f9 ea86 	blx	2ffe93dc <do_panic>
2ffefed2:	bf00      	nop
2ffefed4:	2fffbd74 	.word	0x2fffbd74
2ffefed8:	2fff8c08 	.word	0x2fff8c08
2ffefedc:	2fff72ef 	.word	0x2fff72ef

2ffefee0 <fconf_populate_stm32mp_fuse_provisioning>:
2ffefee0:	e92d 4ff0 	stmdb	sp!, {r4, r5, r6, r7, r8, r9, sl, fp, lr}
2ffefee4:	f04f 31ff 	mov.w	r1, #4294967295	@ 0xffffffff
2ffefee8:	4a40      	ldr	r2, [pc, #256]	@ (2ffeffec <fconf_populate_stm32mp_fuse_provisioning+0x10c>)
2ffefeea:	b089      	sub	sp, #36	@ 0x24
2ffefeec:	4606      	mov	r6, r0
2ffefeee:	f005 fa63 	bl	2fff53b8 <fdt_node_offset_by_compatible>
2ffefef2:	1e01      	subs	r1, r0, #0
2ffefef4:	db05      	blt.n	2ffeff02 <fconf_populate_stm32mp_fuse_provisioning+0x22>
2ffefef6:	4630      	mov	r0, r6
2ffefef8:	f004 ffb9 	bl	2fff4e6e <fdt_first_subnode>
2ffefefc:	2800      	cmp	r0, #0
2ffefefe:	4605      	mov	r5, r0
2ffeff00:	da03      	bge.n	2ffeff0a <fconf_populate_stm32mp_fuse_provisioning+0x2a>
2ffeff02:	2000      	movs	r0, #0
2ffeff04:	b009      	add	sp, #36	@ 0x24
2ffeff06:	e8bd 8ff0 	ldmia.w	sp!, {r4, r5, r6, r7, r8, r9, sl, fp, pc}
2ffeff0a:	4a39      	ldr	r2, [pc, #228]	@ (2ffefff0 <fconf_populate_stm32mp_fuse_provisioning+0x110>)
2ffeff0c:	2300      	movs	r3, #0
2ffeff0e:	4629      	mov	r1, r5
2ffeff10:	4630      	mov	r0, r6
2ffeff12:	f005 f91d 	bl	2fff5150 <fdt_getprop>
2ffeff16:	b918      	cbnz	r0, 2ffeff20 <fconf_populate_stm32mp_fuse_provisioning+0x40>
2ffeff18:	f7fd fd1a 	bl	2ffed950 <console_flush>
2ffeff1c:	f7f9 ea5e 	blx	2ffe93dc <do_panic>
2ffeff20:	6800      	ldr	r0, [r0, #0]
2ffeff22:	aa06      	add	r2, sp, #24
2ffeff24:	a905      	add	r1, sp, #20
2ffeff26:	ba00      	rev	r0, r0
2ffeff28:	f7ff ff96 	bl	2ffefe58 <dt_get_otp_by_phandle>
2ffeff2c:	b118      	cbz	r0, 2ffeff36 <fconf_populate_stm32mp_fuse_provisioning+0x56>
2ffeff2e:	4831      	ldr	r0, [pc, #196]	@ (2ffefff4 <fconf_populate_stm32mp_fuse_provisioning+0x114>)
2ffeff30:	f7fd fc72 	bl	2ffed818 <tf_log>
2ffeff34:	e7f0      	b.n	2ffeff18 <fconf_populate_stm32mp_fuse_provisioning+0x38>
2ffeff36:	4a30      	ldr	r2, [pc, #192]	@ (2ffefff8 <fconf_populate_stm32mp_fuse_provisioning+0x118>)
2ffeff38:	ab04      	add	r3, sp, #16
2ffeff3a:	4629      	mov	r1, r5
2ffeff3c:	4630      	mov	r0, r6
2ffeff3e:	f005 f907 	bl	2fff5150 <fdt_getprop>
2ffeff42:	4680      	mov	r8, r0
2ffeff44:	2800      	cmp	r0, #0
2ffeff46:	d0e7      	beq.n	2ffeff18 <fconf_populate_stm32mp_fuse_provisioning+0x38>
2ffeff48:	9b04      	ldr	r3, [sp, #16]
2ffeff4a:	2b00      	cmp	r3, #0
2ffeff4c:	dbe4      	blt.n	2ffeff18 <fconf_populate_stm32mp_fuse_provisioning+0x38>
2ffeff4e:	0799      	lsls	r1, r3, #30
2ffeff50:	d1e2      	bne.n	2ffeff18 <fconf_populate_stm32mp_fuse_provisioning+0x38>
2ffeff52:	9a06      	ldr	r2, [sp, #24]
2ffeff54:	0897      	lsrs	r7, r2, #2
2ffeff56:	0792      	lsls	r2, r2, #30
2ffeff58:	bf18      	it	ne
2ffeff5a:	3701      	addne	r7, #1
2ffeff5c:	ebb7 0f93 	cmp.w	r7, r3, lsr #2
2ffeff60:	d040      	beq.n	2ffeffe4 <fconf_populate_stm32mp_fuse_provisioning+0x104>
2ffeff62:	4826      	ldr	r0, [pc, #152]	@ (2ffefffc <fconf_populate_stm32mp_fuse_provisioning+0x11c>)
2ffeff64:	e7e4      	b.n	2ffeff30 <fconf_populate_stm32mp_fuse_provisioning+0x50>
2ffeff66:	9805      	ldr	r0, [sp, #20]
2ffeff68:	f10d 010f 	add.w	r1, sp, #15
2ffeff6c:	4458      	add	r0, fp
2ffeff6e:	f000 fbe9 	bl	2fff0744 <bsec_read_sw_lock>
2ffeff72:	2800      	cmp	r0, #0
2ffeff74:	d1d0      	bne.n	2ffeff18 <fconf_populate_stm32mp_fuse_provisioning+0x38>
2ffeff76:	f89d 200f 	ldrb.w	r2, [sp, #15]
2ffeff7a:	b10a      	cbz	r2, 2ffeff80 <fconf_populate_stm32mp_fuse_provisioning+0xa0>
2ffeff7c:	4820      	ldr	r0, [pc, #128]	@ (2fff0000 <fconf_populate_stm32mp_fuse_provisioning+0x120>)
2ffeff7e:	e7d7      	b.n	2ffeff30 <fconf_populate_stm32mp_fuse_provisioning+0x50>
2ffeff80:	f858 402b 	ldr.w	r4, [r8, fp, lsl #2]
2ffeff84:	a807      	add	r0, sp, #28
2ffeff86:	9905      	ldr	r1, [sp, #20]
2ffeff88:	f3c4 2a07 	ubfx	sl, r4, #8, #8
2ffeff8c:	f3c4 4907 	ubfx	r9, r4, #16, #8
2ffeff90:	0623      	lsls	r3, r4, #24
2ffeff92:	4459      	add	r1, fp
2ffeff94:	ea4f 4a0a 	mov.w	sl, sl, lsl #16
2ffeff98:	ea4f 2909 	mov.w	r9, r9, lsl #8
2ffeff9c:	0e24      	lsrs	r4, r4, #24
2ffeff9e:	9301      	str	r3, [sp, #4]
2ffeffa0:	f000 fca2 	bl	2fff08e8 <bsec_shadow_read_otp>
2ffeffa4:	2800      	cmp	r0, #0
2ffeffa6:	d1b7      	bne.n	2ffeff18 <fconf_populate_stm32mp_fuse_provisioning+0x38>
2ffeffa8:	9a07      	ldr	r2, [sp, #28]
2ffeffaa:	b11a      	cbz	r2, 2ffeffb4 <fconf_populate_stm32mp_fuse_provisioning+0xd4>
2ffeffac:	9905      	ldr	r1, [sp, #20]
2ffeffae:	4815      	ldr	r0, [pc, #84]	@ (2fff0004 <fconf_populate_stm32mp_fuse_provisioning+0x124>)
2ffeffb0:	f7fd fc32 	bl	2ffed818 <tf_log>
2ffeffb4:	9a07      	ldr	r2, [sp, #28]
2ffeffb6:	9b01      	ldr	r3, [sp, #4]
2ffeffb8:	ea44 0002 	orr.w	r0, r4, r2
2ffeffbc:	4318      	orrs	r0, r3
2ffeffbe:	9905      	ldr	r1, [sp, #20]
2ffeffc0:	ea40 000a 	orr.w	r0, r0, sl
2ffeffc4:	4459      	add	r1, fp
2ffeffc6:	ea40 0009 	orr.w	r0, r0, r9
2ffeffca:	f000 fbd5 	bl	2fff0778 <bsec_write_otp>
2ffeffce:	2800      	cmp	r0, #0
2ffeffd0:	d1a2      	bne.n	2ffeff18 <fconf_populate_stm32mp_fuse_provisioning+0x38>
2ffeffd2:	f10b 0b01 	add.w	fp, fp, #1
2ffeffd6:	455f      	cmp	r7, fp
2ffeffd8:	d1c5      	bne.n	2ffeff66 <fconf_populate_stm32mp_fuse_provisioning+0x86>
2ffeffda:	4629      	mov	r1, r5
2ffeffdc:	4630      	mov	r0, r6
2ffeffde:	f004 ff59 	bl	2fff4e94 <fdt_next_subnode>
2ffeffe2:	e78b      	b.n	2ffefefc <fconf_populate_stm32mp_fuse_provisioning+0x1c>
2ffeffe4:	f04f 0b00 	mov.w	fp, #0
2ffeffe8:	e7f5      	b.n	2ffeffd6 <fconf_populate_stm32mp_fuse_provisioning+0xf6>
2ffeffea:	bf00      	nop
2ffeffec:	2fff8c8e 	.word	0x2fff8c8e
2ffefff0:	2fff872f 	.word	0x2fff872f
2ffefff4:	2fff8c9e 	.word	0x2fff8c9e
2ffefff8:	2fff8cb2 	.word	0x2fff8cb2
2ffefffc:	2fff8cc2 	.word	0x2fff8cc2
2fff0000:	2fff8cd5 	.word	0x2fff8cd5
2fff0004:	2fff8ce9 	.word	0x2fff8ce9

2fff0008 <configure_mmu>:
2fff0008:	4805      	ldr	r0, [pc, #20]	@ (2fff0020 <configure_mmu+0x18>)
2fff000a:	b508      	push	{r3, lr}
2fff000c:	f7fd ff9c 	bl	2ffedf48 <mmap_add>
2fff0010:	f7fd ffbc 	bl	2ffedf8c <init_xlat_tables>
2fff0014:	e8bd 4008 	ldmia.w	sp!, {r3, lr}
2fff0018:	2000      	movs	r0, #0
2fff001a:	f7fd bfd5 	b.w	2ffedfc8 <enable_mmu_svc_mon>
2fff001e:	bf00      	nop
2fff0020:	2fff56e8 	.word	0x2fff56e8

2fff0024 <stm32_get_gpio_bank_base>:
2fff0024:	2819      	cmp	r0, #25
2fff0026:	b508      	push	{r3, lr}
2fff0028:	d00a      	beq.n	2fff0040 <stm32_get_gpio_bank_base+0x1c>
2fff002a:	280a      	cmp	r0, #10
2fff002c:	d903      	bls.n	2fff0036 <stm32_get_gpio_bank_base+0x12>
2fff002e:	4805      	ldr	r0, [pc, #20]	@ (2fff0044 <stm32_get_gpio_bank_base+0x20>)
2fff0030:	216c      	movs	r1, #108	@ 0x6c
2fff0032:	f003 fb7b 	bl	2fff372c <__assert>
2fff0036:	f500 20a0 	add.w	r0, r0, #327680	@ 0x50000
2fff003a:	3002      	adds	r0, #2
2fff003c:	0300      	lsls	r0, r0, #12
2fff003e:	bd08      	pop	{r3, pc}
2fff0040:	4801      	ldr	r0, [pc, #4]	@ (2fff0048 <stm32_get_gpio_bank_base+0x24>)
2fff0042:	e7fc      	b.n	2fff003e <stm32_get_gpio_bank_base+0x1a>
2fff0044:	2fff8d1a 	.word	0x2fff8d1a
2fff0048:	54004000 	.word	0x54004000

2fff004c <stm32_get_gpio_bank_offset>:
2fff004c:	2819      	cmp	r0, #25
2fff004e:	b508      	push	{r3, lr}
2fff0050:	d007      	beq.n	2fff0062 <stm32_get_gpio_bank_offset+0x16>
2fff0052:	280a      	cmp	r0, #10
2fff0054:	d903      	bls.n	2fff005e <stm32_get_gpio_bank_offset+0x12>
2fff0056:	4804      	ldr	r0, [pc, #16]	@ (2fff0068 <stm32_get_gpio_bank_offset+0x1c>)
2fff0058:	217c      	movs	r1, #124	@ 0x7c
2fff005a:	f003 fb67 	bl	2fff372c <__assert>
2fff005e:	0300      	lsls	r0, r0, #12
2fff0060:	bd08      	pop	{r3, pc}
2fff0062:	2000      	movs	r0, #0
2fff0064:	e7fc      	b.n	2fff0060 <stm32_get_gpio_bank_offset+0x14>
2fff0066:	bf00      	nop
2fff0068:	2fff8d1a 	.word	0x2fff8d1a

2fff006c <stm32_get_gpio_bank_clock>:
2fff006c:	2819      	cmp	r0, #25
2fff006e:	b508      	push	{r3, lr}
2fff0070:	d007      	beq.n	2fff0082 <stm32_get_gpio_bank_clock+0x16>
2fff0072:	280a      	cmp	r0, #10
2fff0074:	d903      	bls.n	2fff007e <stm32_get_gpio_bank_clock+0x12>
2fff0076:	4804      	ldr	r0, [pc, #16]	@ (2fff0088 <stm32_get_gpio_bank_clock+0x1c>)
2fff0078:	219a      	movs	r1, #154	@ 0x9a
2fff007a:	f003 fb57 	bl	2fff372c <__assert>
2fff007e:	3054      	adds	r0, #84	@ 0x54
2fff0080:	bd08      	pop	{r3, pc}
2fff0082:	205f      	movs	r0, #95	@ 0x5f
2fff0084:	e7fc      	b.n	2fff0080 <stm32_get_gpio_bank_clock+0x14>
2fff0086:	bf00      	nop
2fff0088:	2fff8d1a 	.word	0x2fff8d1a

2fff008c <stm32mp_get_chip_version>:
2fff008c:	b513      	push	{r0, r1, r4, lr}
2fff008e:	2400      	movs	r4, #0
2fff0090:	9401      	str	r4, [sp, #4]
2fff0092:	a801      	add	r0, sp, #4
2fff0094:	f001 ff9a 	bl	2fff1fcc <stm32mp1_dbgmcu_get_chip_version>
2fff0098:	42a0      	cmp	r0, r4
2fff009a:	da05      	bge.n	2fff00a8 <stm32mp_get_chip_version+0x1c>
2fff009c:	4803      	ldr	r0, [pc, #12]	@ (2fff00ac <stm32mp_get_chip_version+0x20>)
2fff009e:	f7fd fbbb 	bl	2ffed818 <tf_log>
2fff00a2:	4620      	mov	r0, r4
2fff00a4:	b002      	add	sp, #8
2fff00a6:	bd10      	pop	{r4, pc}
2fff00a8:	9801      	ldr	r0, [sp, #4]
2fff00aa:	e7fb      	b.n	2fff00a4 <stm32mp_get_chip_version+0x18>
2fff00ac:	2fff8d3e 	.word	0x2fff8d3e

2fff00b0 <stm32mp_get_chip_dev_id>:
2fff00b0:	b507      	push	{r0, r1, r2, lr}
2fff00b2:	a801      	add	r0, sp, #4
2fff00b4:	f001 ffa0 	bl	2fff1ff8 <stm32mp1_dbgmcu_get_chip_dev_id>
2fff00b8:	2800      	cmp	r0, #0
2fff00ba:	da05      	bge.n	2fff00c8 <stm32mp_get_chip_dev_id+0x18>
2fff00bc:	4804      	ldr	r0, [pc, #16]	@ (2fff00d0 <stm32mp_get_chip_dev_id+0x20>)
2fff00be:	f7fd fbab 	bl	2ffed818 <tf_log>
2fff00c2:	f44f 63a0 	mov.w	r3, #1280	@ 0x500
2fff00c6:	9301      	str	r3, [sp, #4]
2fff00c8:	9801      	ldr	r0, [sp, #4]
2fff00ca:	b003      	add	sp, #12
2fff00cc:	f85d fb04 	ldr.w	pc, [sp], #4
2fff00d0:	2fff8d67 	.word	0x2fff8d67

2fff00d4 <get_part_number>:
2fff00d4:	b510      	push	{r4, lr}
2fff00d6:	4c0a      	ldr	r4, [pc, #40]	@ (2fff0100 <get_part_number+0x2c>)
2fff00d8:	6820      	ldr	r0, [r4, #0]
2fff00da:	b980      	cbnz	r0, 2fff00fe <get_part_number+0x2a>
2fff00dc:	4809      	ldr	r0, [pc, #36]	@ (2fff0104 <get_part_number+0x30>)
2fff00de:	4621      	mov	r1, r4
2fff00e0:	f7fd fd58 	bl	2ffedb94 <stm32_get_otp_value>
2fff00e4:	b118      	cbz	r0, 2fff00ee <get_part_number+0x1a>
2fff00e6:	f7fd fc33 	bl	2ffed950 <console_flush>
2fff00ea:	f7f9 e978 	blx	2ffe93dc <do_panic>
2fff00ee:	7823      	ldrb	r3, [r4, #0]
2fff00f0:	6023      	str	r3, [r4, #0]
2fff00f2:	f7ff ffdd 	bl	2fff00b0 <stm32mp_get_chip_dev_id>
2fff00f6:	6823      	ldr	r3, [r4, #0]
2fff00f8:	ea43 4000 	orr.w	r0, r3, r0, lsl #16
2fff00fc:	6020      	str	r0, [r4, #0]
2fff00fe:	bd10      	pop	{r4, pc}
2fff0100:	2fffbd78 	.word	0x2fffbd78
2fff0104:	2fff8d8d 	.word	0x2fff8d8d

2fff0108 <stm32mp_get_soc_name>:
2fff0108:	b57f      	push	{r0, r1, r2, r3, r4, r5, r6, lr}
2fff010a:	4605      	mov	r5, r0
2fff010c:	f7ff ffe2 	bl	2fff00d4 <get_part_number>
2fff0110:	4b39      	ldr	r3, [pc, #228]	@ (2fff01f8 <stm32mp_get_soc_name+0xf0>)
2fff0112:	4298      	cmp	r0, r3
2fff0114:	d046      	beq.n	2fff01a4 <stm32mp_get_soc_name+0x9c>
2fff0116:	d833      	bhi.n	2fff0180 <stm32mp_get_soc_name+0x78>
2fff0118:	3b51      	subs	r3, #81	@ 0x51
2fff011a:	4298      	cmp	r0, r3
2fff011c:	d838      	bhi.n	2fff0190 <stm32mp_get_soc_name+0x88>
2fff011e:	3b0c      	subs	r3, #12
2fff0120:	4298      	cmp	r0, r3
2fff0122:	d81e      	bhi.n	2fff0162 <stm32mp_get_soc_name+0x5a>
2fff0124:	f1b0 6fa0 	cmp.w	r0, #83886080	@ 0x5000000
2fff0128:	d03e      	beq.n	2fff01a8 <stm32mp_get_soc_name+0xa0>
2fff012a:	4a34      	ldr	r2, [pc, #208]	@ (2fff01fc <stm32mp_get_soc_name+0xf4>)
2fff012c:	4c34      	ldr	r4, [pc, #208]	@ (2fff0200 <stm32mp_get_soc_name+0xf8>)
2fff012e:	4b35      	ldr	r3, [pc, #212]	@ (2fff0204 <stm32mp_get_soc_name+0xfc>)
2fff0130:	4290      	cmp	r0, r2
2fff0132:	bf18      	it	ne
2fff0134:	461c      	movne	r4, r3
2fff0136:	4834      	ldr	r0, [pc, #208]	@ (2fff0208 <stm32mp_get_soc_name+0x100>)
2fff0138:	a903      	add	r1, sp, #12
2fff013a:	f7fd fd2b 	bl	2ffedb94 <stm32_get_otp_value>
2fff013e:	2800      	cmp	r0, #0
2fff0140:	d03a      	beq.n	2fff01b8 <stm32mp_get_soc_name+0xb0>
2fff0142:	f7fd fc05 	bl	2ffed950 <console_flush>
2fff0146:	f7f9 e94a 	blx	2ffe93dc <do_panic>
2fff014a:	2b0b      	cmp	r3, #11
2fff014c:	d820      	bhi.n	2fff0190 <stm32mp_get_soc_name+0x88>
2fff014e:	e8df f003 	tbb	[pc, r3]
2fff0152:	062d      	.short	0x062d
2fff0154:	1f1f1f1f 	.word	0x1f1f1f1f
2fff0158:	1f1f1f1f 	.word	0x1f1f1f1f
2fff015c:	2725      	.short	0x2725
2fff015e:	4c2b      	ldr	r4, [pc, #172]	@ (2fff020c <stm32mp_get_soc_name+0x104>)
2fff0160:	e7e9      	b.n	2fff0136 <stm32mp_get_soc_name+0x2e>
2fff0162:	f100 437b 	add.w	r3, r0, #4211081216	@ 0xfb000000
2fff0166:	3b24      	subs	r3, #36	@ 0x24
2fff0168:	2b0b      	cmp	r3, #11
2fff016a:	d811      	bhi.n	2fff0190 <stm32mp_get_soc_name+0x88>
2fff016c:	e8df f003 	tbb	[pc, r3]
2fff0170:	10100620 	.word	0x10100620
2fff0174:	10101010 	.word	0x10101010
2fff0178:	14121010 	.word	0x14121010
2fff017c:	4c24      	ldr	r4, [pc, #144]	@ (2fff0210 <stm32mp_get_soc_name+0x108>)
2fff017e:	e7da      	b.n	2fff0136 <stm32mp_get_soc_name+0x2e>
2fff0180:	4b24      	ldr	r3, [pc, #144]	@ (2fff0214 <stm32mp_get_soc_name+0x10c>)
2fff0182:	4298      	cmp	r0, r3
2fff0184:	d016      	beq.n	2fff01b4 <stm32mp_get_soc_name+0xac>
2fff0186:	f100 437b 	add.w	r3, r0, #4211081216	@ 0xfb000000
2fff018a:	3ba4      	subs	r3, #164	@ 0xa4
2fff018c:	2b0b      	cmp	r3, #11
2fff018e:	d9dc      	bls.n	2fff014a <stm32mp_get_soc_name+0x42>
2fff0190:	4c1c      	ldr	r4, [pc, #112]	@ (2fff0204 <stm32mp_get_soc_name+0xfc>)
2fff0192:	e7d0      	b.n	2fff0136 <stm32mp_get_soc_name+0x2e>
2fff0194:	4c20      	ldr	r4, [pc, #128]	@ (2fff0218 <stm32mp_get_soc_name+0x110>)
2fff0196:	e7ce      	b.n	2fff0136 <stm32mp_get_soc_name+0x2e>
2fff0198:	4c20      	ldr	r4, [pc, #128]	@ (2fff021c <stm32mp_get_soc_name+0x114>)
2fff019a:	e7cc      	b.n	2fff0136 <stm32mp_get_soc_name+0x2e>
2fff019c:	4c20      	ldr	r4, [pc, #128]	@ (2fff0220 <stm32mp_get_soc_name+0x118>)
2fff019e:	e7ca      	b.n	2fff0136 <stm32mp_get_soc_name+0x2e>
2fff01a0:	4c20      	ldr	r4, [pc, #128]	@ (2fff0224 <stm32mp_get_soc_name+0x11c>)
2fff01a2:	e7c8      	b.n	2fff0136 <stm32mp_get_soc_name+0x2e>
2fff01a4:	4c20      	ldr	r4, [pc, #128]	@ (2fff0228 <stm32mp_get_soc_name+0x120>)
2fff01a6:	e7c6      	b.n	2fff0136 <stm32mp_get_soc_name+0x2e>
2fff01a8:	4c20      	ldr	r4, [pc, #128]	@ (2fff022c <stm32mp_get_soc_name+0x124>)
2fff01aa:	e7c4      	b.n	2fff0136 <stm32mp_get_soc_name+0x2e>
2fff01ac:	4c20      	ldr	r4, [pc, #128]	@ (2fff0230 <stm32mp_get_soc_name+0x128>)
2fff01ae:	e7c2      	b.n	2fff0136 <stm32mp_get_soc_name+0x2e>
2fff01b0:	4c20      	ldr	r4, [pc, #128]	@ (2fff0234 <stm32mp_get_soc_name+0x12c>)
2fff01b2:	e7c0      	b.n	2fff0136 <stm32mp_get_soc_name+0x2e>
2fff01b4:	4c20      	ldr	r4, [pc, #128]	@ (2fff0238 <stm32mp_get_soc_name+0x130>)
2fff01b6:	e7be      	b.n	2fff0136 <stm32mp_get_soc_name+0x2e>
2fff01b8:	9b03      	ldr	r3, [sp, #12]
2fff01ba:	f3c3 63c2 	ubfx	r3, r3, #27, #3
2fff01be:	3b01      	subs	r3, #1
2fff01c0:	2b03      	cmp	r3, #3
2fff01c2:	bf96      	itet	ls
2fff01c4:	4a1d      	ldrls	r2, [pc, #116]	@ (2fff023c <stm32mp_get_soc_name+0x134>)
2fff01c6:	4e1e      	ldrhi	r6, [pc, #120]	@ (2fff0240 <stm32mp_get_soc_name+0x138>)
2fff01c8:	f852 6023 	ldrls.w	r6, [r2, r3, lsl #2]
2fff01cc:	f7ff ff5e 	bl	2fff008c <stm32mp_get_chip_version>
2fff01d0:	4a1c      	ldr	r2, [pc, #112]	@ (2fff0244 <stm32mp_get_soc_name+0x13c>)
2fff01d2:	f5a0 5000 	sub.w	r0, r0, #8192	@ 0x2000
2fff01d6:	9600      	str	r6, [sp, #0]
2fff01d8:	2803      	cmp	r0, #3
2fff01da:	f04f 0114 	mov.w	r1, #20
2fff01de:	bf96      	itet	ls
2fff01e0:	4b19      	ldrls	r3, [pc, #100]	@ (2fff0248 <stm32mp_get_soc_name+0x140>)
2fff01e2:	4b1a      	ldrhi	r3, [pc, #104]	@ (2fff024c <stm32mp_get_soc_name+0x144>)
2fff01e4:	f853 3020 	ldrls.w	r3, [r3, r0, lsl #2]
2fff01e8:	4628      	mov	r0, r5
2fff01ea:	9301      	str	r3, [sp, #4]
2fff01ec:	4623      	mov	r3, r4
2fff01ee:	f005 fa0f 	bl	2fff5610 <snprintf>
2fff01f2:	b004      	add	sp, #16
2fff01f4:	bd70      	pop	{r4, r5, r6, pc}
2fff01f6:	bf00      	nop
2fff01f8:	05000080 	.word	0x05000080
2fff01fc:	05000001 	.word	0x05000001
2fff0200:	2fff8da2 	.word	0x2fff8da2
2fff0204:	2fff8dd9 	.word	0x2fff8dd9
2fff0208:	2fff8dde 	.word	0x2fff8dde
2fff020c:	2fff8dca 	.word	0x2fff8dca
2fff0210:	2fff8dac 	.word	0x2fff8dac
2fff0214:	05000081 	.word	0x05000081
2fff0218:	2fff8db1 	.word	0x2fff8db1
2fff021c:	2fff8db6 	.word	0x2fff8db6
2fff0220:	2fff8dcf 	.word	0x2fff8dcf
2fff0224:	2fff8dd4 	.word	0x2fff8dd4
2fff0228:	2fff8dbb 	.word	0x2fff8dbb
2fff022c:	2fff8d9d 	.word	0x2fff8d9d
2fff0230:	2fff8dc5 	.word	0x2fff8dc5
2fff0234:	2fff8da7 	.word	0x2fff8da7
2fff0238:	2fff8dc0 	.word	0x2fff8dc0
2fff023c:	2fff5cb4 	.word	0x2fff5cb4
2fff0240:	2fff8ddb 	.word	0x2fff8ddb
2fff0244:	2fff8dea 	.word	0x2fff8dea
2fff0248:	2fff5ca4 	.word	0x2fff5ca4
2fff024c:	2fff8ddc 	.word	0x2fff8ddc

2fff0250 <stm32mp_print_cpuinfo>:
2fff0250:	b57f      	push	{r0, r1, r2, r3, r4, r5, r6, lr}
2fff0252:	a801      	add	r0, sp, #4
2fff0254:	f7ff ff58 	bl	2fff0108 <stm32mp_get_soc_name>
2fff0258:	4803      	ldr	r0, [pc, #12]	@ (2fff0268 <stm32mp_print_cpuinfo+0x18>)
2fff025a:	a901      	add	r1, sp, #4
2fff025c:	f7fd fadc 	bl	2ffed818 <tf_log>
2fff0260:	b007      	add	sp, #28
2fff0262:	f85d fb04 	ldr.w	pc, [sp], #4
2fff0266:	bf00      	nop
2fff0268:	2fff8dfd 	.word	0x2fff8dfd

2fff026c <stm32mp_print_boardinfo>:
2fff026c:	b507      	push	{r0, r1, r2, lr}
2fff026e:	2300      	movs	r3, #0
2fff0270:	4806      	ldr	r0, [pc, #24]	@ (2fff028c <stm32mp_print_boardinfo+0x20>)
2fff0272:	a901      	add	r1, sp, #4
2fff0274:	9301      	str	r3, [sp, #4]
2fff0276:	f7fd fc8d 	bl	2ffedb94 <stm32_get_otp_value>
2fff027a:	b918      	cbnz	r0, 2fff0284 <stm32mp_print_boardinfo+0x18>
2fff027c:	9801      	ldr	r0, [sp, #4]
2fff027e:	b108      	cbz	r0, 2fff0284 <stm32mp_print_boardinfo+0x18>
2fff0280:	f7fd fcf0 	bl	2ffedc64 <stm32_display_board_info>
2fff0284:	b003      	add	sp, #12
2fff0286:	f85d fb04 	ldr.w	pc, [sp], #4
2fff028a:	bf00      	nop
2fff028c:	2fff8e07 	.word	0x2fff8e07

2fff0290 <stm32mp_check_closed_device>:
2fff0290:	b507      	push	{r0, r1, r2, lr}
2fff0292:	a901      	add	r1, sp, #4
2fff0294:	4806      	ldr	r0, [pc, #24]	@ (2fff02b0 <stm32mp_check_closed_device+0x20>)
2fff0296:	f7fd fc7d 	bl	2ffedb94 <stm32_get_otp_value>
2fff029a:	9b01      	ldr	r3, [sp, #4]
2fff029c:	f003 0340 	and.w	r3, r3, #64	@ 0x40
2fff02a0:	4303      	orrs	r3, r0
2fff02a2:	4804      	ldr	r0, [pc, #16]	@ (2fff02b4 <stm32mp_check_closed_device+0x24>)
2fff02a4:	4b04      	ldr	r3, [pc, #16]	@ (2fff02b8 <stm32mp_check_closed_device+0x28>)
2fff02a6:	bf18      	it	ne
2fff02a8:	4618      	movne	r0, r3
2fff02aa:	b003      	add	sp, #12
2fff02ac:	f85d fb04 	ldr.w	pc, [sp], #4
2fff02b0:	2fff8e10 	.word	0x2fff8e10
2fff02b4:	a764d182 	.word	0xa764d182
2fff02b8:	34d9ccc5 	.word	0x34d9ccc5

2fff02bc <stm32_iwdg_get_instance>:
2fff02bc:	b508      	push	{r3, lr}
2fff02be:	4b07      	ldr	r3, [pc, #28]	@ (2fff02dc <stm32_iwdg_get_instance+0x20>)
2fff02c0:	4298      	cmp	r0, r3
2fff02c2:	d006      	beq.n	2fff02d2 <stm32_iwdg_get_instance+0x16>
2fff02c4:	4b06      	ldr	r3, [pc, #24]	@ (2fff02e0 <stm32_iwdg_get_instance+0x24>)
2fff02c6:	4298      	cmp	r0, r3
2fff02c8:	d005      	beq.n	2fff02d6 <stm32_iwdg_get_instance+0x1a>
2fff02ca:	f7fd fb41 	bl	2ffed950 <console_flush>
2fff02ce:	f7f9 e886 	blx	2ffe93dc <do_panic>
2fff02d2:	2001      	movs	r0, #1
2fff02d4:	bd08      	pop	{r3, pc}
2fff02d6:	2000      	movs	r0, #0
2fff02d8:	e7fc      	b.n	2fff02d4 <stm32_iwdg_get_instance+0x18>
2fff02da:	bf00      	nop
2fff02dc:	5a002000 	.word	0x5a002000
2fff02e0:	5c003000 	.word	0x5c003000

2fff02e4 <stm32_iwdg_get_otp_config>:
2fff02e4:	b513      	push	{r0, r1, r4, lr}
2fff02e6:	4604      	mov	r4, r0
2fff02e8:	4809      	ldr	r0, [pc, #36]	@ (2fff0310 <stm32_iwdg_get_otp_config+0x2c>)
2fff02ea:	a901      	add	r1, sp, #4
2fff02ec:	f7fd fc52 	bl	2ffedb94 <stm32_get_otp_value>
2fff02f0:	b118      	cbz	r0, 2fff02fa <stm32_iwdg_get_otp_config+0x16>
2fff02f2:	f7fd fb2d 	bl	2ffed950 <console_flush>
2fff02f6:	f7f9 e872 	blx	2ffe93dc <do_panic>
2fff02fa:	9a01      	ldr	r2, [sp, #4]
2fff02fc:	3403      	adds	r4, #3
2fff02fe:	2301      	movs	r3, #1
2fff0300:	40a3      	lsls	r3, r4
2fff0302:	4213      	tst	r3, r2
2fff0304:	bf14      	ite	ne
2fff0306:	2001      	movne	r0, #1
2fff0308:	2000      	moveq	r0, #0
2fff030a:	b002      	add	sp, #8
2fff030c:	bd10      	pop	{r4, pc}
2fff030e:	bf00      	nop
2fff0310:	2fff8e19 	.word	0x2fff8e19

2fff0314 <stm32mp_skip_boot_device_after_standby>:
2fff0314:	b510      	push	{r4, lr}
2fff0316:	4c09      	ldr	r4, [pc, #36]	@ (2fff033c <stm32mp_skip_boot_device_after_standby+0x28>)
2fff0318:	6823      	ldr	r3, [r4, #0]
2fff031a:	3301      	adds	r3, #1
2fff031c:	d109      	bne.n	2fff0332 <stm32mp_skip_boot_device_after_standby+0x1e>
2fff031e:	f004 f990 	bl	2fff4642 <stm32mp_is_wakeup_from_standby>
2fff0322:	b120      	cbz	r0, 2fff032e <stm32mp_skip_boot_device_after_standby+0x1a>
2fff0324:	2301      	movs	r3, #1
2fff0326:	6023      	str	r3, [r4, #0]
2fff0328:	f001 fdb6 	bl	2fff1e98 <stm32_pm_get_optee_ep>
2fff032c:	b908      	cbnz	r0, 2fff0332 <stm32mp_skip_boot_device_after_standby+0x1e>
2fff032e:	2300      	movs	r3, #0
2fff0330:	6023      	str	r3, [r4, #0]
2fff0332:	6820      	ldr	r0, [r4, #0]
2fff0334:	1e43      	subs	r3, r0, #1
2fff0336:	4258      	negs	r0, r3
2fff0338:	4158      	adcs	r0, r3
2fff033a:	bd10      	pop	{r4, pc}
2fff033c:	2fffa54c 	.word	0x2fffa54c

2fff0340 <stm32mp_bkpram_get_access>:
2fff0340:	4a06      	ldr	r2, [pc, #24]	@ (2fff035c <stm32mp_bkpram_get_access+0x1c>)
2fff0342:	2001      	movs	r0, #1
2fff0344:	6853      	ldr	r3, [r2, #4]
2fff0346:	6b11      	ldr	r1, [r2, #48]	@ 0x30
2fff0348:	43db      	mvns	r3, r3
2fff034a:	f003 0307 	and.w	r3, r3, #7
2fff034e:	f443 031f 	orr.w	r3, r3, #10420224	@ 0x9f0000
2fff0352:	400b      	ands	r3, r1
2fff0354:	bf18      	it	ne
2fff0356:	63d3      	strne	r3, [r2, #60]	@ 0x3c
2fff0358:	4770      	bx	lr
2fff035a:	bf00      	nop
2fff035c:	5c00a000 	.word	0x5c00a000

2fff0360 <tzc400_set_action>:
2fff0360:	b508      	push	{r3, lr}
2fff0362:	4b06      	ldr	r3, [pc, #24]	@ (2fff037c <tzc400_set_action+0x1c>)
2fff0364:	681b      	ldr	r3, [r3, #0]
2fff0366:	b91b      	cbnz	r3, 2fff0370 <tzc400_set_action+0x10>
2fff0368:	21b5      	movs	r1, #181	@ 0xb5
2fff036a:	4805      	ldr	r0, [pc, #20]	@ (2fff0380 <tzc400_set_action+0x20>)
2fff036c:	f003 f9de 	bl	2fff372c <__assert>
2fff0370:	2803      	cmp	r0, #3
2fff0372:	d901      	bls.n	2fff0378 <tzc400_set_action+0x18>
2fff0374:	21b6      	movs	r1, #182	@ 0xb6
2fff0376:	e7f8      	b.n	2fff036a <tzc400_set_action+0xa>
2fff0378:	6058      	str	r0, [r3, #4]
2fff037a:	bd08      	pop	{r3, pc}
2fff037c:	2fffbd7c 	.word	0x2fffbd7c
2fff0380:	2fff8e31 	.word	0x2fff8e31

2fff0384 <tzc400_init>:
2fff0384:	b508      	push	{r3, lr}
2fff0386:	b918      	cbnz	r0, 2fff0390 <tzc400_init+0xc>
2fff0388:	4812      	ldr	r0, [pc, #72]	@ (2fff03d4 <tzc400_init+0x50>)
2fff038a:	21c2      	movs	r1, #194	@ 0xc2
2fff038c:	f003 f9ce 	bl	2fff372c <__assert>
2fff0390:	f8d0 3fe0 	ldr.w	r3, [r0, #4064]	@ 0xfe0
2fff0394:	f8d0 1fe4 	ldr.w	r1, [r0, #4068]	@ 0xfe4
2fff0398:	4a0f      	ldr	r2, [pc, #60]	@ (2fff03d8 <tzc400_init+0x54>)
2fff039a:	0209      	lsls	r1, r1, #8
2fff039c:	6010      	str	r0, [r2, #0]
2fff039e:	f401 6170 	and.w	r1, r1, #3840	@ 0xf00
2fff03a2:	4319      	orrs	r1, r3
2fff03a4:	f5b1 6f8c 	cmp.w	r1, #1120	@ 0x460
2fff03a8:	d006      	beq.n	2fff03b8 <tzc400_init+0x34>
2fff03aa:	480c      	ldr	r0, [pc, #48]	@ (2fff03dc <tzc400_init+0x58>)
2fff03ac:	f7fd fa34 	bl	2ffed818 <tf_log>
2fff03b0:	f7fd face 	bl	2ffed950 <console_flush>
2fff03b4:	f7f9 e812 	blx	2ffe93dc <do_panic>
2fff03b8:	6803      	ldr	r3, [r0, #0]
2fff03ba:	f3c3 6101 	ubfx	r1, r3, #24, #2
2fff03be:	3101      	adds	r1, #1
2fff03c0:	7151      	strb	r1, [r2, #5]
2fff03c2:	f3c3 2105 	ubfx	r1, r3, #8, #6
2fff03c6:	f003 031f 	and.w	r3, r3, #31
2fff03ca:	3101      	adds	r1, #1
2fff03cc:	3301      	adds	r3, #1
2fff03ce:	7111      	strb	r1, [r2, #4]
2fff03d0:	7193      	strb	r3, [r2, #6]
2fff03d2:	bd08      	pop	{r3, pc}
2fff03d4:	2fff8e31 	.word	0x2fff8e31
2fff03d8:	2fffbd7c 	.word	0x2fffbd7c
2fff03dc:	2fff8e4a 	.word	0x2fff8e4a

2fff03e0 <tzc400_configure_region0>:
2fff03e0:	b508      	push	{r3, lr}
2fff03e2:	4b08      	ldr	r3, [pc, #32]	@ (2fff0404 <tzc400_configure_region0+0x24>)
2fff03e4:	681b      	ldr	r3, [r3, #0]
2fff03e6:	b91b      	cbnz	r3, 2fff03f0 <tzc400_configure_region0+0x10>
2fff03e8:	21e0      	movs	r1, #224	@ 0xe0
2fff03ea:	4807      	ldr	r0, [pc, #28]	@ (2fff0408 <tzc400_configure_region0+0x28>)
2fff03ec:	f003 f99e 	bl	2fff372c <__assert>
2fff03f0:	2803      	cmp	r0, #3
2fff03f2:	d901      	bls.n	2fff03f8 <tzc400_configure_region0+0x18>
2fff03f4:	21e1      	movs	r1, #225	@ 0xe1
2fff03f6:	e7f8      	b.n	2fff03ea <tzc400_configure_region0+0xa>
2fff03f8:	0780      	lsls	r0, r0, #30
2fff03fa:	f8c3 0110 	str.w	r0, [r3, #272]	@ 0x110
2fff03fe:	f8c3 1114 	str.w	r1, [r3, #276]	@ 0x114
2fff0402:	bd08      	pop	{r3, pc}
2fff0404:	2fffbd7c 	.word	0x2fffbd7c
2fff0408:	2fff8e31 	.word	0x2fff8e31

2fff040c <tzc400_configure_region>:
2fff040c:	e92d 47f0 	stmdb	sp!, {r4, r5, r6, r7, r8, r9, sl, lr}
2fff0410:	4d2d      	ldr	r5, [pc, #180]	@ (2fff04c8 <tzc400_configure_region+0xbc>)
2fff0412:	e9dd 7c08 	ldrd	r7, ip, [sp, #32]
2fff0416:	682c      	ldr	r4, [r5, #0]
2fff0418:	f8dd e028 	ldr.w	lr, [sp, #40]	@ 0x28
2fff041c:	b91c      	cbnz	r4, 2fff0426 <tzc400_configure_region+0x1a>
2fff041e:	21f7      	movs	r1, #247	@ 0xf7
2fff0420:	482a      	ldr	r0, [pc, #168]	@ (2fff04cc <tzc400_configure_region+0xc0>)
2fff0422:	f003 f983 	bl	2fff372c <__assert>
2fff0426:	796e      	ldrb	r6, [r5, #5]
2fff0428:	280f      	cmp	r0, #15
2fff042a:	bf02      	ittt	eq
2fff042c:	2001      	moveq	r0, #1
2fff042e:	40b0      	lsleq	r0, r6
2fff0430:	f100 30ff 	addeq.w	r0, r0, #4294967295	@ 0xffffffff
2fff0434:	fa30 f606 	lsrs.w	r6, r0, r6
2fff0438:	d102      	bne.n	2fff0440 <tzc400_configure_region+0x34>
2fff043a:	79ae      	ldrb	r6, [r5, #6]
2fff043c:	428e      	cmp	r6, r1
2fff043e:	d801      	bhi.n	2fff0444 <tzc400_configure_region+0x38>
2fff0440:	21ff      	movs	r1, #255	@ 0xff
2fff0442:	e7ed      	b.n	2fff0420 <tzc400_configure_region+0x14>
2fff0444:	792e      	ldrb	r6, [r5, #4]
2fff0446:	f04f 35ff 	mov.w	r5, #4294967295	@ 0xffffffff
2fff044a:	f1c6 0a40 	rsb	sl, r6, #64	@ 0x40
2fff044e:	f1a6 0920 	sub.w	r9, r6, #32
2fff0452:	f1c6 0620 	rsb	r6, r6, #32
2fff0456:	fa25 f80a 	lsr.w	r8, r5, sl
2fff045a:	fa05 f909 	lsl.w	r9, r5, r9
2fff045e:	fa25 f606 	lsr.w	r6, r5, r6
2fff0462:	ea48 0809 	orr.w	r8, r8, r9
2fff0466:	ea48 0806 	orr.w	r8, r8, r6
2fff046a:	fa25 f50a 	lsr.w	r5, r5, sl
2fff046e:	45b8      	cmp	r8, r7
2fff0470:	eb75 050c 	sbcs.w	r5, r5, ip
2fff0474:	d303      	bcc.n	2fff047e <tzc400_configure_region+0x72>
2fff0476:	42ba      	cmp	r2, r7
2fff0478:	eb73 050c 	sbcs.w	r5, r3, ip
2fff047c:	d302      	bcc.n	2fff0484 <tzc400_configure_region+0x78>
2fff047e:	f44f 7183 	mov.w	r1, #262	@ 0x106
2fff0482:	e7cd      	b.n	2fff0420 <tzc400_configure_region+0x14>
2fff0484:	1c7d      	adds	r5, r7, #1
2fff0486:	4315      	orrs	r5, r2
2fff0488:	f3c5 050b 	ubfx	r5, r5, #0, #12
2fff048c:	b115      	cbz	r5, 2fff0494 <tzc400_configure_region+0x88>
2fff048e:	f44f 7185 	mov.w	r1, #266	@ 0x10a
2fff0492:	e7c5      	b.n	2fff0420 <tzc400_configure_region+0x14>
2fff0494:	f1be 0f03 	cmp.w	lr, #3
2fff0498:	d902      	bls.n	2fff04a0 <tzc400_configure_region+0x94>
2fff049a:	f44f 7186 	mov.w	r1, #268	@ 0x10c
2fff049e:	e7bf      	b.n	2fff0420 <tzc400_configure_region+0x14>
2fff04a0:	eb04 1141 	add.w	r1, r4, r1, lsl #5
2fff04a4:	ea40 708e 	orr.w	r0, r0, lr, lsl #30
2fff04a8:	f8c1 2100 	str.w	r2, [r1, #256]	@ 0x100
2fff04ac:	f8c1 3104 	str.w	r3, [r1, #260]	@ 0x104
2fff04b0:	9b0b      	ldr	r3, [sp, #44]	@ 0x2c
2fff04b2:	f8c1 7108 	str.w	r7, [r1, #264]	@ 0x108
2fff04b6:	f8c1 c10c 	str.w	ip, [r1, #268]	@ 0x10c
2fff04ba:	f8c1 0110 	str.w	r0, [r1, #272]	@ 0x110
2fff04be:	f8c1 3114 	str.w	r3, [r1, #276]	@ 0x114
2fff04c2:	e8bd 87f0 	ldmia.w	sp!, {r4, r5, r6, r7, r8, r9, sl, pc}
2fff04c6:	bf00      	nop
2fff04c8:	2fffbd7c 	.word	0x2fffbd7c
2fff04cc:	2fff8e31 	.word	0x2fff8e31

2fff04d0 <tzc400_update_filters>:
2fff04d0:	b538      	push	{r3, r4, r5, lr}
2fff04d2:	4b0e      	ldr	r3, [pc, #56]	@ (2fff050c <tzc400_update_filters+0x3c>)
2fff04d4:	795c      	ldrb	r4, [r3, #5]
2fff04d6:	fa31 f204 	lsrs.w	r2, r1, r4
2fff04da:	d102      	bne.n	2fff04e2 <tzc400_update_filters+0x12>
2fff04dc:	799a      	ldrb	r2, [r3, #6]
2fff04de:	4282      	cmp	r2, r0
2fff04e0:	d804      	bhi.n	2fff04ec <tzc400_update_filters+0x1c>
2fff04e2:	480b      	ldr	r0, [pc, #44]	@ (2fff0510 <tzc400_update_filters+0x40>)
2fff04e4:	f44f 718b 	mov.w	r1, #278	@ 0x116
2fff04e8:	f003 f920 	bl	2fff372c <__assert>
2fff04ec:	681a      	ldr	r2, [r3, #0]
2fff04ee:	f1c4 0420 	rsb	r4, r4, #32
2fff04f2:	0140      	lsls	r0, r0, #5
2fff04f4:	f04f 35ff 	mov.w	r5, #4294967295	@ 0xffffffff
2fff04f8:	f502 7288 	add.w	r2, r2, #272	@ 0x110
2fff04fc:	fa25 f404 	lsr.w	r4, r5, r4
2fff0500:	5813      	ldr	r3, [r2, r0]
2fff0502:	ea23 0304 	bic.w	r3, r3, r4
2fff0506:	4319      	orrs	r1, r3
2fff0508:	5011      	str	r1, [r2, r0]
2fff050a:	bd38      	pop	{r3, r4, r5, pc}
2fff050c:	2fffbd7c 	.word	0x2fffbd7c
2fff0510:	2fff8e31 	.word	0x2fff8e31

2fff0514 <tzc400_enable_filters>:
2fff0514:	b538      	push	{r3, r4, r5, lr}
2fff0516:	4b16      	ldr	r3, [pc, #88]	@ (2fff0570 <tzc400_enable_filters+0x5c>)
2fff0518:	681a      	ldr	r2, [r3, #0]
2fff051a:	b122      	cbz	r2, 2fff0526 <tzc400_enable_filters+0x12>
2fff051c:	795c      	ldrb	r4, [r3, #5]
2fff051e:	2100      	movs	r1, #0
2fff0520:	428c      	cmp	r4, r1
2fff0522:	d805      	bhi.n	2fff0530 <tzc400_enable_filters+0x1c>
2fff0524:	bd38      	pop	{r3, r4, r5, pc}
2fff0526:	4813      	ldr	r0, [pc, #76]	@ (2fff0574 <tzc400_enable_filters+0x60>)
2fff0528:	f240 1121 	movw	r1, #289	@ 0x121
2fff052c:	f003 f8fe 	bl	2fff372c <__assert>
2fff0530:	6893      	ldr	r3, [r2, #8]
2fff0532:	f102 0508 	add.w	r5, r2, #8
2fff0536:	f3c3 4303 	ubfx	r3, r3, #16, #4
2fff053a:	40cb      	lsrs	r3, r1
2fff053c:	07db      	lsls	r3, r3, #31
2fff053e:	d507      	bpl.n	2fff0550 <tzc400_enable_filters+0x3c>
2fff0540:	b1a1      	cbz	r1, 2fff056c <tzc400_enable_filters+0x58>
2fff0542:	480d      	ldr	r0, [pc, #52]	@ (2fff0578 <tzc400_enable_filters+0x64>)
2fff0544:	f7fd f968 	bl	2ffed818 <tf_log>
2fff0548:	f7fd fa02 	bl	2ffed950 <console_flush>
2fff054c:	f7f8 ef46 	blx	2ffe93dc <do_panic>
2fff0550:	6890      	ldr	r0, [r2, #8]
2fff0552:	2301      	movs	r3, #1
2fff0554:	f3c0 4003 	ubfx	r0, r0, #16, #4
2fff0558:	408b      	lsls	r3, r1
2fff055a:	4303      	orrs	r3, r0
2fff055c:	f003 000f 	and.w	r0, r3, #15
2fff0560:	6090      	str	r0, [r2, #8]
2fff0562:	6828      	ldr	r0, [r5, #0]
2fff0564:	f3c0 4003 	ubfx	r0, r0, #16, #4
2fff0568:	4283      	cmp	r3, r0
2fff056a:	d1fa      	bne.n	2fff0562 <tzc400_enable_filters+0x4e>
2fff056c:	3101      	adds	r1, #1
2fff056e:	e7d7      	b.n	2fff0520 <tzc400_enable_filters+0xc>
2fff0570:	2fffbd7c 	.word	0x2fffbd7c
2fff0574:	2fff8e31 	.word	0x2fff8e31
2fff0578:	2fff8e6e 	.word	0x2fff8e6e

2fff057c <tzc400_disable_filters>:
2fff057c:	4811      	ldr	r0, [pc, #68]	@ (2fff05c4 <tzc400_disable_filters+0x48>)
2fff057e:	b538      	push	{r3, r4, r5, lr}
2fff0580:	6803      	ldr	r3, [r0, #0]
2fff0582:	b923      	cbnz	r3, 2fff058e <tzc400_disable_filters+0x12>
2fff0584:	4810      	ldr	r0, [pc, #64]	@ (2fff05c8 <tzc400_disable_filters+0x4c>)
2fff0586:	f240 1143 	movw	r1, #323	@ 0x143
2fff058a:	f003 f8cf 	bl	2fff372c <__assert>
2fff058e:	689a      	ldr	r2, [r3, #8]
2fff0590:	f103 0108 	add.w	r1, r3, #8
2fff0594:	7944      	ldrb	r4, [r0, #5]
2fff0596:	2501      	movs	r5, #1
2fff0598:	f3c2 4200 	ubfx	r2, r2, #16, #1
2fff059c:	4294      	cmp	r4, r2
2fff059e:	d800      	bhi.n	2fff05a2 <tzc400_disable_filters+0x26>
2fff05a0:	bd38      	pop	{r3, r4, r5, pc}
2fff05a2:	680b      	ldr	r3, [r1, #0]
2fff05a4:	fa05 f002 	lsl.w	r0, r5, r2
2fff05a8:	0c1b      	lsrs	r3, r3, #16
2fff05aa:	ea23 0300 	bic.w	r3, r3, r0
2fff05ae:	f003 030f 	and.w	r3, r3, #15
2fff05b2:	600b      	str	r3, [r1, #0]
2fff05b4:	6808      	ldr	r0, [r1, #0]
2fff05b6:	f3c0 4003 	ubfx	r0, r0, #16, #4
2fff05ba:	4283      	cmp	r3, r0
2fff05bc:	d1fa      	bne.n	2fff05b4 <tzc400_disable_filters+0x38>
2fff05be:	3201      	adds	r2, #1
2fff05c0:	e7ec      	b.n	2fff059c <tzc400_disable_filters+0x20>
2fff05c2:	bf00      	nop
2fff05c4:	2fffbd7c 	.word	0x2fffbd7c
2fff05c8:	2fff8e31 	.word	0x2fff8e31

2fff05cc <is_otp_invalid_mode>:
2fff05cc:	4b07      	ldr	r3, [pc, #28]	@ (2fff05ec <is_otp_invalid_mode+0x20>)
2fff05ce:	b510      	push	{r4, lr}
2fff05d0:	68db      	ldr	r3, [r3, #12]
2fff05d2:	f003 0304 	and.w	r3, r3, #4
2fff05d6:	2b00      	cmp	r3, #0
2fff05d8:	bf14      	ite	ne
2fff05da:	2401      	movne	r4, #1
2fff05dc:	2400      	moveq	r4, #0
2fff05de:	d002      	beq.n	2fff05e6 <is_otp_invalid_mode+0x1a>
2fff05e0:	4803      	ldr	r0, [pc, #12]	@ (2fff05f0 <is_otp_invalid_mode+0x24>)
2fff05e2:	f7fd f919 	bl	2ffed818 <tf_log>
2fff05e6:	4620      	mov	r0, r4
2fff05e8:	bd10      	pop	{r4, pc}
2fff05ea:	bf00      	nop
2fff05ec:	5c005000 	.word	0x5c005000
2fff05f0:	2fff8ea0 	.word	0x2fff8ea0

2fff05f4 <bsec_lock>:
2fff05f4:	b508      	push	{r3, lr}
2fff05f6:	f003 fda7 	bl	2fff4148 <stm32mp_lock_available>
2fff05fa:	b120      	cbz	r0, 2fff0606 <bsec_lock+0x12>
2fff05fc:	e8bd 4008 	ldmia.w	sp!, {r3, lr}
2fff0600:	4801      	ldr	r0, [pc, #4]	@ (2fff0608 <bsec_lock+0x14>)
2fff0602:	f009 b94d 	b.w	2fff98a0 <__spin_lock_from_thumb>
2fff0606:	bd08      	pop	{r3, pc}
2fff0608:	2fffbd84 	.word	0x2fffbd84

2fff060c <bsec_unlock>:
2fff060c:	b508      	push	{r3, lr}
2fff060e:	f003 fd9b 	bl	2fff4148 <stm32mp_lock_available>
2fff0612:	b120      	cbz	r0, 2fff061e <bsec_unlock+0x12>
2fff0614:	e8bd 4008 	ldmia.w	sp!, {r3, lr}
2fff0618:	4801      	ldr	r0, [pc, #4]	@ (2fff0620 <bsec_unlock+0x14>)
2fff061a:	f009 b94d 	b.w	2fff98b8 <__spin_unlock_from_thumb>
2fff061e:	bd08      	pop	{r3, pc}
2fff0620:	2fffbd84 	.word	0x2fffbd84

2fff0624 <bsec_power_safmem>:
2fff0624:	b510      	push	{r4, lr}
2fff0626:	4604      	mov	r4, r0
2fff0628:	f7ff ffe4 	bl	2fff05f4 <bsec_lock>
2fff062c:	4a12      	ldr	r2, [pc, #72]	@ (2fff0678 <bsec_power_safmem+0x54>)
2fff062e:	6813      	ldr	r3, [r2, #0]
2fff0630:	b16c      	cbz	r4, 2fff064e <bsec_power_safmem+0x2a>
2fff0632:	f64f 74ff 	movw	r4, #65535	@ 0xffff
2fff0636:	f043 0301 	orr.w	r3, r3, #1
2fff063a:	6013      	str	r3, [r2, #0]
2fff063c:	68d3      	ldr	r3, [r2, #12]
2fff063e:	0699      	lsls	r1, r3, #26
2fff0640:	d413      	bmi.n	2fff066a <bsec_power_safmem+0x46>
2fff0642:	b984      	cbnz	r4, 2fff0666 <bsec_power_safmem+0x42>
2fff0644:	f7ff ffe2 	bl	2fff060c <bsec_unlock>
2fff0648:	f06f 0006 	mvn.w	r0, #6
2fff064c:	bd10      	pop	{r4, pc}
2fff064e:	f023 0301 	bic.w	r3, r3, #1
2fff0652:	f64f 74ff 	movw	r4, #65535	@ 0xffff
2fff0656:	6013      	str	r3, [r2, #0]
2fff0658:	68d3      	ldr	r3, [r2, #12]
2fff065a:	069b      	lsls	r3, r3, #26
2fff065c:	d505      	bpl.n	2fff066a <bsec_power_safmem+0x46>
2fff065e:	2c00      	cmp	r4, #0
2fff0660:	d0f0      	beq.n	2fff0644 <bsec_power_safmem+0x20>
2fff0662:	3c01      	subs	r4, #1
2fff0664:	e7f8      	b.n	2fff0658 <bsec_power_safmem+0x34>
2fff0666:	3c01      	subs	r4, #1
2fff0668:	e7e8      	b.n	2fff063c <bsec_power_safmem+0x18>
2fff066a:	f7ff ffcf 	bl	2fff060c <bsec_unlock>
2fff066e:	2c00      	cmp	r4, #0
2fff0670:	d0ea      	beq.n	2fff0648 <bsec_power_safmem+0x24>
2fff0672:	2000      	movs	r0, #0
2fff0674:	e7ea      	b.n	2fff064c <bsec_power_safmem+0x28>
2fff0676:	bf00      	nop
2fff0678:	5c005000 	.word	0x5c005000

2fff067c <otp_bank_offset>:
2fff067c:	285f      	cmp	r0, #95	@ 0x5f
2fff067e:	b508      	push	{r3, lr}
2fff0680:	d903      	bls.n	2fff068a <otp_bank_offset+0xe>
2fff0682:	4803      	ldr	r0, [pc, #12]	@ (2fff0690 <otp_bank_offset+0x14>)
2fff0684:	21bb      	movs	r1, #187	@ 0xbb
2fff0686:	f003 f851 	bl	2fff372c <__assert>
2fff068a:	0940      	lsrs	r0, r0, #5
2fff068c:	0080      	lsls	r0, r0, #2
2fff068e:	bd08      	pop	{r3, pc}
2fff0690:	2fff8eba 	.word	0x2fff8eba

2fff0694 <bsec_check_error>:
2fff0694:	b538      	push	{r3, r4, r5, lr}
2fff0696:	f000 031f 	and.w	r3, r0, #31
2fff069a:	2401      	movs	r4, #1
2fff069c:	460d      	mov	r5, r1
2fff069e:	409c      	lsls	r4, r3
2fff06a0:	f7ff ffec 	bl	2fff067c <otp_bank_offset>
2fff06a4:	4b07      	ldr	r3, [pc, #28]	@ (2fff06c4 <bsec_check_error+0x30>)
2fff06a6:	4602      	mov	r2, r0
2fff06a8:	58c0      	ldr	r0, [r0, r3]
2fff06aa:	4020      	ands	r0, r4
2fff06ac:	d107      	bne.n	2fff06be <bsec_check_error+0x2a>
2fff06ae:	b12d      	cbz	r5, 2fff06bc <bsec_check_error+0x28>
2fff06b0:	3b18      	subs	r3, #24
2fff06b2:	58d0      	ldr	r0, [r2, r3]
2fff06b4:	4020      	ands	r0, r4
2fff06b6:	bf18      	it	ne
2fff06b8:	f06f 0001 	mvnne.w	r0, #1
2fff06bc:	bd38      	pop	{r3, r4, r5, pc}
2fff06be:	f04f 30ff 	mov.w	r0, #4294967295	@ 0xffffffff
2fff06c2:	e7fb      	b.n	2fff06bc <bsec_check_error+0x28>
2fff06c4:	5c005034 	.word	0x5c005034

2fff06c8 <bsec_probe>:
2fff06c8:	b508      	push	{r3, lr}
2fff06ca:	f7ff ff7f 	bl	2fff05cc <is_otp_invalid_mode>
2fff06ce:	b980      	cbnz	r0, 2fff06f2 <bsec_probe+0x2a>
2fff06d0:	4a0a      	ldr	r2, [pc, #40]	@ (2fff06fc <bsec_probe+0x34>)
2fff06d2:	f8d2 3ff4 	ldr.w	r3, [r2, #4084]	@ 0xff4
2fff06d6:	f8d2 2ff8 	ldr.w	r2, [r2, #4088]	@ 0xff8
2fff06da:	b2db      	uxtb	r3, r3
2fff06dc:	2b11      	cmp	r3, #17
2fff06de:	d001      	beq.n	2fff06e4 <bsec_probe+0x1c>
2fff06e0:	2b20      	cmp	r3, #32
2fff06e2:	d102      	bne.n	2fff06ea <bsec_probe+0x22>
2fff06e4:	4b06      	ldr	r3, [pc, #24]	@ (2fff0700 <bsec_probe+0x38>)
2fff06e6:	429a      	cmp	r2, r3
2fff06e8:	d006      	beq.n	2fff06f8 <bsec_probe+0x30>
2fff06ea:	f7fd f931 	bl	2ffed950 <console_flush>
2fff06ee:	f7f8 ee76 	blx	2ffe93dc <do_panic>
2fff06f2:	f04f 30ff 	mov.w	r0, #4294967295	@ 0xffffffff
2fff06f6:	bd08      	pop	{r3, pc}
2fff06f8:	2000      	movs	r0, #0
2fff06fa:	e7fc      	b.n	2fff06f6 <bsec_probe+0x2e>
2fff06fc:	5c005000 	.word	0x5c005000
2fff0700:	00100032 	.word	0x00100032

2fff0704 <bsec_read_debug_conf>:
2fff0704:	4b01      	ldr	r3, [pc, #4]	@ (2fff070c <bsec_read_debug_conf+0x8>)
2fff0706:	6958      	ldr	r0, [r3, #20]
2fff0708:	4770      	bx	lr
2fff070a:	bf00      	nop
2fff070c:	5c005000 	.word	0x5c005000

2fff0710 <bsec_read_sr_lock>:
2fff0710:	b538      	push	{r3, r4, r5, lr}
2fff0712:	4604      	mov	r4, r0
2fff0714:	460d      	mov	r5, r1
2fff0716:	f7ff ffb1 	bl	2fff067c <otp_bank_offset>
2fff071a:	f004 021f 	and.w	r2, r4, #31
2fff071e:	2301      	movs	r3, #1
2fff0720:	2c5f      	cmp	r4, #95	@ 0x5f
2fff0722:	fa03 f302 	lsl.w	r3, r3, r2
2fff0726:	d808      	bhi.n	2fff073a <bsec_read_sr_lock+0x2a>
2fff0728:	4a05      	ldr	r2, [pc, #20]	@ (2fff0740 <bsec_read_sr_lock+0x30>)
2fff072a:	5882      	ldr	r2, [r0, r2]
2fff072c:	2000      	movs	r0, #0
2fff072e:	4213      	tst	r3, r2
2fff0730:	bf14      	ite	ne
2fff0732:	2301      	movne	r3, #1
2fff0734:	2300      	moveq	r3, #0
2fff0736:	702b      	strb	r3, [r5, #0]
2fff0738:	bd38      	pop	{r3, r4, r5, pc}
2fff073a:	f06f 0003 	mvn.w	r0, #3
2fff073e:	e7fb      	b.n	2fff0738 <bsec_read_sr_lock+0x28>
2fff0740:	5c005094 	.word	0x5c005094

2fff0744 <bsec_read_sw_lock>:
2fff0744:	b538      	push	{r3, r4, r5, lr}
2fff0746:	4604      	mov	r4, r0
2fff0748:	460d      	mov	r5, r1
2fff074a:	f7ff ff97 	bl	2fff067c <otp_bank_offset>
2fff074e:	f004 021f 	and.w	r2, r4, #31
2fff0752:	2301      	movs	r3, #1
2fff0754:	2c5f      	cmp	r4, #95	@ 0x5f
2fff0756:	fa03 f302 	lsl.w	r3, r3, r2
2fff075a:	d808      	bhi.n	2fff076e <bsec_read_sw_lock+0x2a>
2fff075c:	4a05      	ldr	r2, [pc, #20]	@ (2fff0774 <bsec_read_sw_lock+0x30>)
2fff075e:	5882      	ldr	r2, [r0, r2]
2fff0760:	2000      	movs	r0, #0
2fff0762:	4213      	tst	r3, r2
2fff0764:	bf14      	ite	ne
2fff0766:	2301      	movne	r3, #1
2fff0768:	2300      	moveq	r3, #0
2fff076a:	702b      	strb	r3, [r5, #0]
2fff076c:	bd38      	pop	{r3, r4, r5, pc}
2fff076e:	f06f 0003 	mvn.w	r0, #3
2fff0772:	e7fb      	b.n	2fff076c <bsec_read_sw_lock+0x28>
2fff0774:	5c00507c 	.word	0x5c00507c

2fff0778 <bsec_write_otp>:
2fff0778:	b573      	push	{r0, r1, r4, r5, r6, lr}
2fff077a:	4606      	mov	r6, r0
2fff077c:	460c      	mov	r4, r1
2fff077e:	f7ff ff25 	bl	2fff05cc <is_otp_invalid_mode>
2fff0782:	b9c8      	cbnz	r0, 2fff07b8 <bsec_write_otp+0x40>
2fff0784:	f10d 0107 	add.w	r1, sp, #7
2fff0788:	4620      	mov	r0, r4
2fff078a:	f7ff ffdb 	bl	2fff0744 <bsec_read_sw_lock>
2fff078e:	4605      	mov	r5, r0
2fff0790:	b138      	cbz	r0, 2fff07a2 <bsec_write_otp+0x2a>
2fff0792:	4602      	mov	r2, r0
2fff0794:	4621      	mov	r1, r4
2fff0796:	480a      	ldr	r0, [pc, #40]	@ (2fff07c0 <bsec_write_otp+0x48>)
2fff0798:	f7fd f83e 	bl	2ffed818 <tf_log>
2fff079c:	4628      	mov	r0, r5
2fff079e:	b002      	add	sp, #8
2fff07a0:	bd70      	pop	{r4, r5, r6, pc}
2fff07a2:	f104 54b8 	add.w	r4, r4, #385875968	@ 0x17000000
2fff07a6:	f7ff ff25 	bl	2fff05f4 <bsec_lock>
2fff07aa:	f504 54a4 	add.w	r4, r4, #5248	@ 0x1480
2fff07ae:	00a4      	lsls	r4, r4, #2
2fff07b0:	6026      	str	r6, [r4, #0]
2fff07b2:	f7ff ff2b 	bl	2fff060c <bsec_unlock>
2fff07b6:	e7f1      	b.n	2fff079c <bsec_write_otp+0x24>
2fff07b8:	f04f 35ff 	mov.w	r5, #4294967295	@ 0xffffffff
2fff07bc:	e7ee      	b.n	2fff079c <bsec_write_otp+0x24>
2fff07be:	bf00      	nop
2fff07c0:	2fff8ed2 	.word	0x2fff8ed2

2fff07c4 <bsec_read_sp_lock>:
2fff07c4:	b538      	push	{r3, r4, r5, lr}
2fff07c6:	4604      	mov	r4, r0
2fff07c8:	460d      	mov	r5, r1
2fff07ca:	f7ff ff57 	bl	2fff067c <otp_bank_offset>
2fff07ce:	f004 021f 	and.w	r2, r4, #31
2fff07d2:	2301      	movs	r3, #1
2fff07d4:	2c5f      	cmp	r4, #95	@ 0x5f
2fff07d6:	fa03 f302 	lsl.w	r3, r3, r2
2fff07da:	d808      	bhi.n	2fff07ee <bsec_read_sp_lock+0x2a>
2fff07dc:	4a05      	ldr	r2, [pc, #20]	@ (2fff07f4 <bsec_read_sp_lock+0x30>)
2fff07de:	5882      	ldr	r2, [r0, r2]
2fff07e0:	2000      	movs	r0, #0
2fff07e2:	4213      	tst	r3, r2
2fff07e4:	bf14      	ite	ne
2fff07e6:	2301      	movne	r3, #1
2fff07e8:	2300      	moveq	r3, #0
2fff07ea:	702b      	strb	r3, [r5, #0]
2fff07ec:	bd38      	pop	{r3, r4, r5, pc}
2fff07ee:	f06f 0003 	mvn.w	r0, #3
2fff07f2:	e7fb      	b.n	2fff07ec <bsec_read_sp_lock+0x28>
2fff07f4:	5c005064 	.word	0x5c005064

2fff07f8 <bsec_program_otp>:
2fff07f8:	b5f7      	push	{r0, r1, r2, r4, r5, r6, r7, lr}
2fff07fa:	4606      	mov	r6, r0
2fff07fc:	460d      	mov	r5, r1
2fff07fe:	f7ff fee5 	bl	2fff05cc <is_otp_invalid_mode>
2fff0802:	2800      	cmp	r0, #0
2fff0804:	d161      	bne.n	2fff08ca <bsec_program_otp+0xd2>
2fff0806:	f10d 0107 	add.w	r1, sp, #7
2fff080a:	4628      	mov	r0, r5
2fff080c:	f7ff ffda 	bl	2fff07c4 <bsec_read_sp_lock>
2fff0810:	4604      	mov	r4, r0
2fff0812:	b138      	cbz	r0, 2fff0824 <bsec_program_otp+0x2c>
2fff0814:	4602      	mov	r2, r0
2fff0816:	4629      	mov	r1, r5
2fff0818:	482d      	ldr	r0, [pc, #180]	@ (2fff08d0 <bsec_program_otp+0xd8>)
2fff081a:	f7fc fffd 	bl	2ffed818 <tf_log>
2fff081e:	4620      	mov	r0, r4
2fff0820:	b003      	add	sp, #12
2fff0822:	bdf0      	pop	{r4, r5, r6, r7, pc}
2fff0824:	4628      	mov	r0, r5
2fff0826:	f7ff ff29 	bl	2fff067c <otp_bank_offset>
2fff082a:	f005 021f 	and.w	r2, r5, #31
2fff082e:	2301      	movs	r3, #1
2fff0830:	2d5f      	cmp	r5, #95	@ 0x5f
2fff0832:	fa03 f302 	lsl.w	r3, r3, r2
2fff0836:	d908      	bls.n	2fff084a <bsec_program_otp+0x52>
2fff0838:	4826      	ldr	r0, [pc, #152]	@ (2fff08d4 <bsec_program_otp+0xdc>)
2fff083a:	f06f 0203 	mvn.w	r2, #3
2fff083e:	4629      	mov	r1, r5
2fff0840:	f06f 0403 	mvn.w	r4, #3
2fff0844:	f7fc ffe8 	bl	2ffed818 <tf_log>
2fff0848:	e7e9      	b.n	2fff081e <bsec_program_otp+0x26>
2fff084a:	4a23      	ldr	r2, [pc, #140]	@ (2fff08d8 <bsec_program_otp+0xe0>)
2fff084c:	f89d 7007 	ldrb.w	r7, [sp, #7]
2fff0850:	5882      	ldr	r2, [r0, r2]
2fff0852:	4013      	ands	r3, r2
2fff0854:	b907      	cbnz	r7, 2fff0858 <bsec_program_otp+0x60>
2fff0856:	b12b      	cbz	r3, 2fff0864 <bsec_program_otp+0x6c>
2fff0858:	4820      	ldr	r0, [pc, #128]	@ (2fff08dc <bsec_program_otp+0xe4>)
2fff085a:	f06f 0404 	mvn.w	r4, #4
2fff085e:	f7fc ffdb 	bl	2ffed818 <tf_log>
2fff0862:	e7dc      	b.n	2fff081e <bsec_program_otp+0x26>
2fff0864:	4c1e      	ldr	r4, [pc, #120]	@ (2fff08e0 <bsec_program_otp+0xe8>)
2fff0866:	6923      	ldr	r3, [r4, #16]
2fff0868:	06d8      	lsls	r0, r3, #27
2fff086a:	d502      	bpl.n	2fff0872 <bsec_program_otp+0x7a>
2fff086c:	481d      	ldr	r0, [pc, #116]	@ (2fff08e4 <bsec_program_otp+0xec>)
2fff086e:	f7fc ffd3 	bl	2ffed818 <tf_log>
2fff0872:	68e3      	ldr	r3, [r4, #12]
2fff0874:	0699      	lsls	r1, r3, #26
2fff0876:	d406      	bmi.n	2fff0886 <bsec_program_otp+0x8e>
2fff0878:	2001      	movs	r0, #1
2fff087a:	f7ff fed3 	bl	2fff0624 <bsec_power_safmem>
2fff087e:	4604      	mov	r4, r0
2fff0880:	2800      	cmp	r0, #0
2fff0882:	d1cc      	bne.n	2fff081e <bsec_program_otp+0x26>
2fff0884:	2701      	movs	r7, #1
2fff0886:	f7ff feb5 	bl	2fff05f4 <bsec_lock>
2fff088a:	4b15      	ldr	r3, [pc, #84]	@ (2fff08e0 <bsec_program_otp+0xe8>)
2fff088c:	f445 7280 	orr.w	r2, r5, #256	@ 0x100
2fff0890:	609e      	str	r6, [r3, #8]
2fff0892:	605a      	str	r2, [r3, #4]
2fff0894:	68da      	ldr	r2, [r3, #12]
2fff0896:	0712      	lsls	r2, r2, #28
2fff0898:	d4fc      	bmi.n	2fff0894 <bsec_program_otp+0x9c>
2fff089a:	68db      	ldr	r3, [r3, #12]
2fff089c:	06db      	lsls	r3, r3, #27
2fff089e:	d411      	bmi.n	2fff08c4 <bsec_program_otp+0xcc>
2fff08a0:	2101      	movs	r1, #1
2fff08a2:	4628      	mov	r0, r5
2fff08a4:	f7ff fef6 	bl	2fff0694 <bsec_check_error>
2fff08a8:	4604      	mov	r4, r0
2fff08aa:	f7ff feaf 	bl	2fff060c <bsec_unlock>
2fff08ae:	2f00      	cmp	r7, #0
2fff08b0:	d0b5      	beq.n	2fff081e <bsec_program_otp+0x26>
2fff08b2:	2000      	movs	r0, #0
2fff08b4:	f7ff feb6 	bl	2fff0624 <bsec_power_safmem>
2fff08b8:	2800      	cmp	r0, #0
2fff08ba:	d0b0      	beq.n	2fff081e <bsec_program_otp+0x26>
2fff08bc:	f7fd f848 	bl	2ffed950 <console_flush>
2fff08c0:	f7f8 ed8c 	blx	2ffe93dc <do_panic>
2fff08c4:	f06f 0404 	mvn.w	r4, #4
2fff08c8:	e7ef      	b.n	2fff08aa <bsec_program_otp+0xb2>
2fff08ca:	f04f 34ff 	mov.w	r4, #4294967295	@ 0xffffffff
2fff08ce:	e7a6      	b.n	2fff081e <bsec_program_otp+0x26>
2fff08d0:	2fff8efc 	.word	0x2fff8efc
2fff08d4:	2fff8f25 	.word	0x2fff8f25
2fff08d8:	5c00504c 	.word	0x5c00504c
2fff08dc:	2fff8f4c 	.word	0x2fff8f4c
2fff08e0:	5c005000 	.word	0x5c005000
2fff08e4:	2fff8f75 	.word	0x2fff8f75

2fff08e8 <bsec_shadow_read_otp>:
2fff08e8:	e92d 41f3 	stmdb	sp!, {r0, r1, r4, r5, r6, r7, r8, lr}
2fff08ec:	4607      	mov	r7, r0
2fff08ee:	460d      	mov	r5, r1
2fff08f0:	f7ff fe6c 	bl	2fff05cc <is_otp_invalid_mode>
2fff08f4:	4606      	mov	r6, r0
2fff08f6:	2800      	cmp	r0, #0
2fff08f8:	d13a      	bne.n	2fff0970 <bsec_shadow_read_otp+0x88>
2fff08fa:	f10d 0107 	add.w	r1, sp, #7
2fff08fe:	4628      	mov	r0, r5
2fff0900:	f7ff ff06 	bl	2fff0710 <bsec_read_sr_lock>
2fff0904:	4604      	mov	r4, r0
2fff0906:	b168      	cbz	r0, 2fff0924 <bsec_shadow_read_otp+0x3c>
2fff0908:	4602      	mov	r2, r0
2fff090a:	4629      	mov	r1, r5
2fff090c:	4820      	ldr	r0, [pc, #128]	@ (2fff0990 <bsec_shadow_read_otp+0xa8>)
2fff090e:	f7fc ff83 	bl	2ffed818 <tf_log>
2fff0912:	4820      	ldr	r0, [pc, #128]	@ (2fff0994 <bsec_shadow_read_otp+0xac>)
2fff0914:	4622      	mov	r2, r4
2fff0916:	4629      	mov	r1, r5
2fff0918:	f7fc ff7e 	bl	2ffed818 <tf_log>
2fff091c:	4620      	mov	r0, r4
2fff091e:	b002      	add	sp, #8
2fff0920:	e8bd 81f0 	ldmia.w	sp!, {r4, r5, r6, r7, r8, pc}
2fff0924:	f8df 8070 	ldr.w	r8, [pc, #112]	@ 2fff0998 <bsec_shadow_read_otp+0xb0>
2fff0928:	f8d8 300c 	ldr.w	r3, [r8, #12]
2fff092c:	069b      	lsls	r3, r3, #26
2fff092e:	d406      	bmi.n	2fff093e <bsec_shadow_read_otp+0x56>
2fff0930:	2001      	movs	r0, #1
2fff0932:	f7ff fe77 	bl	2fff0624 <bsec_power_safmem>
2fff0936:	4604      	mov	r4, r0
2fff0938:	2800      	cmp	r0, #0
2fff093a:	d1ea      	bne.n	2fff0912 <bsec_shadow_read_otp+0x2a>
2fff093c:	2601      	movs	r6, #1
2fff093e:	f7ff fe59 	bl	2fff05f4 <bsec_lock>
2fff0942:	4a15      	ldr	r2, [pc, #84]	@ (2fff0998 <bsec_shadow_read_otp+0xb0>)
2fff0944:	f8c8 5004 	str.w	r5, [r8, #4]
2fff0948:	68d3      	ldr	r3, [r2, #12]
2fff094a:	f013 0808 	ands.w	r8, r3, #8
2fff094e:	d1fb      	bne.n	2fff0948 <bsec_shadow_read_otp+0x60>
2fff0950:	2101      	movs	r1, #1
2fff0952:	4628      	mov	r0, r5
2fff0954:	f7ff fe9e 	bl	2fff0694 <bsec_check_error>
2fff0958:	4604      	mov	r4, r0
2fff095a:	f7ff fe57 	bl	2fff060c <bsec_unlock>
2fff095e:	b156      	cbz	r6, 2fff0976 <bsec_shadow_read_otp+0x8e>
2fff0960:	4640      	mov	r0, r8
2fff0962:	f7ff fe5f 	bl	2fff0624 <bsec_power_safmem>
2fff0966:	b130      	cbz	r0, 2fff0976 <bsec_shadow_read_otp+0x8e>
2fff0968:	f7fc fff2 	bl	2ffed950 <console_flush>
2fff096c:	f7f8 ed36 	blx	2ffe93dc <do_panic>
2fff0970:	f04f 34ff 	mov.w	r4, #4294967295	@ 0xffffffff
2fff0974:	e7cd      	b.n	2fff0912 <bsec_shadow_read_otp+0x2a>
2fff0976:	2c00      	cmp	r4, #0
2fff0978:	d1cb      	bne.n	2fff0912 <bsec_shadow_read_otp+0x2a>
2fff097a:	4629      	mov	r1, r5
2fff097c:	4638      	mov	r0, r7
2fff097e:	f003 fe83 	bl	2fff4688 <bsec_read_otp>
2fff0982:	4604      	mov	r4, r0
2fff0984:	2800      	cmp	r0, #0
2fff0986:	d0c9      	beq.n	2fff091c <bsec_shadow_read_otp+0x34>
2fff0988:	4602      	mov	r2, r0
2fff098a:	4629      	mov	r1, r5
2fff098c:	4803      	ldr	r0, [pc, #12]	@ (2fff099c <bsec_shadow_read_otp+0xb4>)
2fff098e:	e7c3      	b.n	2fff0918 <bsec_shadow_read_otp+0x30>
2fff0990:	2fff8fa4 	.word	0x2fff8fa4
2fff0994:	2fff8fcd 	.word	0x2fff8fcd
2fff0998:	5c005000 	.word	0x5c005000
2fff099c:	2fff8feb 	.word	0x2fff8feb

2fff09a0 <ddr_sw_self_refresh_exit>:
2fff09a0:	e92d 47f0 	stmdb	sp!, {r4, r5, r6, r7, r8, r9, sl, lr}
2fff09a4:	f003 fbcd 	bl	2fff4142 <stm32mp_rcc_base>
2fff09a8:	4606      	mov	r6, r0
2fff09aa:	f7fd f8af 	bl	2ffedb0c <stm32mp_pwr_base>
2fff09ae:	4607      	mov	r7, r0
2fff09b0:	f7fd f8a4 	bl	2ffedafc <stm32mp_ddrctrl_base>
2fff09b4:	4605      	mov	r5, r0
2fff09b6:	f7fd f8a5 	bl	2ffedb04 <stm32mp_ddrphyc_base>
2fff09ba:	4604      	mov	r4, r0
2fff09bc:	f003 fe7a 	bl	2fff46b4 <ddr_enable_clock>
2fff09c0:	4628      	mov	r0, r5
2fff09c2:	f7fe f983 	bl	2ffeeccc <stm32mp_ddr_set_qd3_update_conditions>
2fff09c6:	f8d5 31b0 	ldr.w	r3, [r5, #432]	@ 0x1b0
2fff09ca:	4628      	mov	r0, r5
2fff09cc:	f023 0301 	bic.w	r3, r3, #1
2fff09d0:	f8c5 31b0 	str.w	r3, [r5, #432]	@ 0x1b0
2fff09d4:	f7fe f9a0 	bl	2ffeed18 <stm32mp_ddr_unset_qd3_update_conditions>
2fff09d8:	f001 ff6e 	bl	2fff28b8 <stm32mp1_clk_rcc_regs_lock>
2fff09dc:	f8d6 30d8 	ldr.w	r3, [r6, #216]	@ 0xd8
2fff09e0:	f043 7380 	orr.w	r3, r3, #16777216	@ 0x1000000
2fff09e4:	f8c6 30d8 	str.w	r3, [r6, #216]	@ 0xd8
2fff09e8:	f001 ff6c 	bl	2fff28c4 <stm32mp1_clk_rcc_regs_unlock>
2fff09ec:	6963      	ldr	r3, [r4, #20]
2fff09ee:	2032      	movs	r0, #50	@ 0x32
2fff09f0:	f023 4300 	bic.w	r3, r3, #2147483648	@ 0x80000000
2fff09f4:	6163      	str	r3, [r4, #20]
2fff09f6:	f8d4 31cc 	ldr.w	r3, [r4, #460]	@ 0x1cc
2fff09fa:	f023 4300 	bic.w	r3, r3, #2147483648	@ 0x80000000
2fff09fe:	f8c4 31cc 	str.w	r3, [r4, #460]	@ 0x1cc
2fff0a02:	f8d4 320c 	ldr.w	r3, [r4, #524]	@ 0x20c
2fff0a06:	f023 4300 	bic.w	r3, r3, #2147483648	@ 0x80000000
2fff0a0a:	f8c4 320c 	str.w	r3, [r4, #524]	@ 0x20c
2fff0a0e:	f8d4 324c 	ldr.w	r3, [r4, #588]	@ 0x24c
2fff0a12:	f023 4300 	bic.w	r3, r3, #2147483648	@ 0x80000000
2fff0a16:	f8c4 324c 	str.w	r3, [r4, #588]	@ 0x24c
2fff0a1a:	f8d4 328c 	ldr.w	r3, [r4, #652]	@ 0x28c
2fff0a1e:	f023 4300 	bic.w	r3, r3, #2147483648	@ 0x80000000
2fff0a22:	f8c4 328c 	str.w	r3, [r4, #652]	@ 0x28c
2fff0a26:	f7fd ff8b 	bl	2ffee940 <udelay>
2fff0a2a:	f001 ff45 	bl	2fff28b8 <stm32mp1_clk_rcc_regs_lock>
2fff0a2e:	f8d6 30d8 	ldr.w	r3, [r6, #216]	@ 0xd8
2fff0a32:	f023 7380 	bic.w	r3, r3, #16777216	@ 0x1000000
2fff0a36:	f8c6 30d8 	str.w	r3, [r6, #216]	@ 0xd8
2fff0a3a:	f001 ff43 	bl	2fff28c4 <stm32mp1_clk_rcc_regs_unlock>
2fff0a3e:	6963      	ldr	r3, [r4, #20]
2fff0a40:	200a      	movs	r0, #10
2fff0a42:	f023 4380 	bic.w	r3, r3, #1073741824	@ 0x40000000
2fff0a46:	6163      	str	r3, [r4, #20]
2fff0a48:	f7fd ff7a 	bl	2ffee940 <udelay>
2fff0a4c:	6963      	ldr	r3, [r4, #20]
2fff0a4e:	2001      	movs	r0, #1
2fff0a50:	f043 4380 	orr.w	r3, r3, #1073741824	@ 0x40000000
2fff0a54:	6163      	str	r3, [r4, #20]
2fff0a56:	2317      	movs	r3, #23
2fff0a58:	6063      	str	r3, [r4, #4]
2fff0a5a:	f7fd ff71 	bl	2ffee940 <udelay>
2fff0a5e:	ee1e 1f10 	mrc	15, 0, r1, cr14, cr0, {0}
2fff0a62:	ec5a 9f0e 	mrrc	15, 0, r9, sl, cr14
2fff0a66:	4a44      	ldr	r2, [pc, #272]	@ (2fff0b78 <ddr_sw_self_refresh_exit+0x1d8>)
2fff0a68:	f44f 70fa 	mov.w	r0, #500	@ 0x1f4
2fff0a6c:	2300      	movs	r3, #0
2fff0a6e:	fba1 0100 	umull	r0, r1, r1, r0
2fff0a72:	f002 ecf8 	blx	2fff3464 <__aeabi_uldivmod>
2fff0a76:	eb10 0309 	adds.w	r3, r0, r9
2fff0a7a:	eb41 020a 	adc.w	r2, r1, sl
2fff0a7e:	68e1      	ldr	r1, [r4, #12]
2fff0a80:	07c9      	lsls	r1, r1, #31
2fff0a82:	d568      	bpl.n	2fff0b56 <ddr_sw_self_refresh_exit+0x1b6>
2fff0a84:	4628      	mov	r0, r5
2fff0a86:	f7fe f921 	bl	2ffeeccc <stm32mp_ddr_set_qd3_update_conditions>
2fff0a8a:	f8d5 31b0 	ldr.w	r3, [r5, #432]	@ 0x1b0
2fff0a8e:	4628      	mov	r0, r5
2fff0a90:	f043 0301 	orr.w	r3, r3, #1
2fff0a94:	f8c5 31b0 	str.w	r3, [r5, #432]	@ 0x1b0
2fff0a98:	f7fe f93e 	bl	2ffeed18 <stm32mp_ddr_unset_qd3_update_conditions>
2fff0a9c:	f7fd f83a 	bl	2ffedb14 <stm32mp_pwr_regs_lock>
2fff0aa0:	68fb      	ldr	r3, [r7, #12]
2fff0aa2:	f423 5380 	bic.w	r3, r3, #4096	@ 0x1000
2fff0aa6:	60fb      	str	r3, [r7, #12]
2fff0aa8:	f7fd f840 	bl	2ffedb2c <stm32mp_pwr_regs_unlock>
2fff0aac:	f8d4 3180 	ldr.w	r3, [r4, #384]	@ 0x180
2fff0ab0:	4628      	mov	r0, r5
2fff0ab2:	f023 4300 	bic.w	r3, r3, #2147483648	@ 0x80000000
2fff0ab6:	f8c4 3180 	str.w	r3, [r4, #384]	@ 0x180
2fff0aba:	6a63      	ldr	r3, [r4, #36]	@ 0x24
2fff0abc:	f023 0308 	bic.w	r3, r3, #8
2fff0ac0:	6263      	str	r3, [r4, #36]	@ 0x24
2fff0ac2:	6a63      	ldr	r3, [r4, #36]	@ 0x24
2fff0ac4:	f043 0302 	orr.w	r3, r3, #2
2fff0ac8:	6263      	str	r3, [r4, #36]	@ 0x24
2fff0aca:	6a63      	ldr	r3, [r4, #36]	@ 0x24
2fff0acc:	f423 63e0 	bic.w	r3, r3, #1792	@ 0x700
2fff0ad0:	6263      	str	r3, [r4, #36]	@ 0x24
2fff0ad2:	6a63      	ldr	r3, [r4, #36]	@ 0x24
2fff0ad4:	f423 1370 	bic.w	r3, r3, #3932160	@ 0x3c0000
2fff0ad8:	6263      	str	r3, [r4, #36]	@ 0x24
2fff0ada:	6aa3      	ldr	r3, [r4, #40]	@ 0x28
2fff0adc:	f023 0304 	bic.w	r3, r3, #4
2fff0ae0:	62a3      	str	r3, [r4, #40]	@ 0x28
2fff0ae2:	6aa3      	ldr	r3, [r4, #40]	@ 0x28
2fff0ae4:	f023 0308 	bic.w	r3, r3, #8
2fff0ae8:	62a3      	str	r3, [r4, #40]	@ 0x28
2fff0aea:	6ae3      	ldr	r3, [r4, #44]	@ 0x2c
2fff0aec:	f043 5380 	orr.w	r3, r3, #268435456	@ 0x10000000
2fff0af0:	62e3      	str	r3, [r4, #44]	@ 0x2c
2fff0af2:	6ae3      	ldr	r3, [r4, #44]	@ 0x2c
2fff0af4:	f423 0370 	bic.w	r3, r3, #15728640	@ 0xf00000
2fff0af8:	62e3      	str	r3, [r4, #44]	@ 0x2c
2fff0afa:	6ae3      	ldr	r3, [r4, #44]	@ 0x2c
2fff0afc:	f023 7380 	bic.w	r3, r3, #16777216	@ 0x1000000
2fff0b00:	62e3      	str	r3, [r4, #44]	@ 0x2c
2fff0b02:	6ae3      	ldr	r3, [r4, #44]	@ 0x2c
2fff0b04:	f423 2370 	bic.w	r3, r3, #983040	@ 0xf0000
2fff0b08:	62e3      	str	r3, [r4, #44]	@ 0x2c
2fff0b0a:	f003 fcfc 	bl	2fff4506 <stm32mp_ddr_sw_selfref_exit>
2fff0b0e:	ee1e 1f10 	mrc	15, 0, r1, cr14, cr0, {0}
2fff0b12:	ec59 8f0e 	mrrc	15, 0, r8, r9, cr14
2fff0b16:	4a18      	ldr	r2, [pc, #96]	@ (2fff0b78 <ddr_sw_self_refresh_exit+0x1d8>)
2fff0b18:	f44f 70fa 	mov.w	r0, #500	@ 0x1f4
2fff0b1c:	2300      	movs	r3, #0
2fff0b1e:	4644      	mov	r4, r8
2fff0b20:	fba1 0100 	umull	r0, r1, r1, r0
2fff0b24:	f002 ec9e 	blx	2fff3464 <__aeabi_uldivmod>
2fff0b28:	1900      	adds	r0, r0, r4
2fff0b2a:	eb41 0109 	adc.w	r1, r1, r9
2fff0b2e:	686b      	ldr	r3, [r5, #4]
2fff0b30:	f003 0307 	and.w	r3, r3, #7
2fff0b34:	2b01      	cmp	r3, #1
2fff0b36:	d118      	bne.n	2fff0b6a <ddr_sw_self_refresh_exit+0x1ca>
2fff0b38:	4628      	mov	r0, r5
2fff0b3a:	f003 fc88 	bl	2fff444e <stm32mp_ddr_enable_axi_port>
2fff0b3e:	f001 febb 	bl	2fff28b8 <stm32mp1_clk_rcc_regs_lock>
2fff0b42:	f8d6 30d8 	ldr.w	r3, [r6, #216]	@ 0xd8
2fff0b46:	f443 7380 	orr.w	r3, r3, #256	@ 0x100
2fff0b4a:	f8c6 30d8 	str.w	r3, [r6, #216]	@ 0xd8
2fff0b4e:	f001 feb9 	bl	2fff28c4 <stm32mp1_clk_rcc_regs_unlock>
2fff0b52:	2000      	movs	r0, #0
2fff0b54:	e007      	b.n	2fff0b66 <ddr_sw_self_refresh_exit+0x1c6>
2fff0b56:	ec51 0f0e 	mrrc	15, 0, r0, r1, cr14
2fff0b5a:	4283      	cmp	r3, r0
2fff0b5c:	eb72 0101 	sbcs.w	r1, r2, r1
2fff0b60:	d28d      	bcs.n	2fff0a7e <ddr_sw_self_refresh_exit+0xde>
2fff0b62:	f04f 30ff 	mov.w	r0, #4294967295	@ 0xffffffff
2fff0b66:	e8bd 87f0 	ldmia.w	sp!, {r4, r5, r6, r7, r8, r9, sl, pc}
2fff0b6a:	ec53 2f0e 	mrrc	15, 0, r2, r3, cr14
2fff0b6e:	4290      	cmp	r0, r2
2fff0b70:	eb71 0303 	sbcs.w	r3, r1, r3
2fff0b74:	d2db      	bcs.n	2fff0b2e <ddr_sw_self_refresh_exit+0x18e>
2fff0b76:	e7f4      	b.n	2fff0b62 <ddr_sw_self_refresh_exit+0x1c2>
2fff0b78:	000f4240 	.word	0x000f4240

2fff0b7c <ddr_read_sr_mode>:
2fff0b7c:	b508      	push	{r3, lr}
2fff0b7e:	f7fc ffbd 	bl	2ffedafc <stm32mp_ddrctrl_base>
2fff0b82:	6b03      	ldr	r3, [r0, #48]	@ 0x30
2fff0b84:	4a02      	ldr	r2, [pc, #8]	@ (2fff0b90 <ddr_read_sr_mode+0x14>)
2fff0b86:	f003 0309 	and.w	r3, r3, #9
2fff0b8a:	5cd0      	ldrb	r0, [r2, r3]
2fff0b8c:	bd08      	pop	{r3, pc}
2fff0b8e:	bf00      	nop
2fff0b90:	2fff9020 	.word	0x2fff9020

2fff0b94 <ddr_set_sr_mode>:
2fff0b94:	2802      	cmp	r0, #2
2fff0b96:	b538      	push	{r3, r4, r5, lr}
2fff0b98:	d06a      	beq.n	2fff0c70 <ddr_set_sr_mode+0xdc>
2fff0b9a:	2803      	cmp	r0, #3
2fff0b9c:	f000 80a6 	beq.w	2fff0cec <ddr_set_sr_mode+0x158>
2fff0ba0:	2801      	cmp	r0, #1
2fff0ba2:	f040 80e6 	bne.w	2fff0d72 <ddr_set_sr_mode+0x1de>
2fff0ba6:	f003 facc 	bl	2fff4142 <stm32mp_rcc_base>
2fff0baa:	4604      	mov	r4, r0
2fff0bac:	f7fc ffa6 	bl	2ffedafc <stm32mp_ddrctrl_base>
2fff0bb0:	4605      	mov	r5, r0
2fff0bb2:	f001 fe81 	bl	2fff28b8 <stm32mp1_clk_rcc_regs_lock>
2fff0bb6:	f8d4 30d8 	ldr.w	r3, [r4, #216]	@ 0xd8
2fff0bba:	f043 0302 	orr.w	r3, r3, #2
2fff0bbe:	f8c4 30d8 	str.w	r3, [r4, #216]	@ 0xd8
2fff0bc2:	f8d4 30d8 	ldr.w	r3, [r4, #216]	@ 0xd8
2fff0bc6:	f043 0301 	orr.w	r3, r3, #1
2fff0bca:	f8c4 30d8 	str.w	r3, [r4, #216]	@ 0xd8
2fff0bce:	f8d4 30d8 	ldr.w	r3, [r4, #216]	@ 0xd8
2fff0bd2:	f043 0308 	orr.w	r3, r3, #8
2fff0bd6:	f8c4 30d8 	str.w	r3, [r4, #216]	@ 0xd8
2fff0bda:	f8d4 30d8 	ldr.w	r3, [r4, #216]	@ 0xd8
2fff0bde:	f043 0304 	orr.w	r3, r3, #4
2fff0be2:	f8c4 30d8 	str.w	r3, [r4, #216]	@ 0xd8
2fff0be6:	f8d4 30d8 	ldr.w	r3, [r4, #216]	@ 0xd8
2fff0bea:	f043 0380 	orr.w	r3, r3, #128	@ 0x80
2fff0bee:	f8c4 30d8 	str.w	r3, [r4, #216]	@ 0xd8
2fff0bf2:	f8d4 30d8 	ldr.w	r3, [r4, #216]	@ 0xd8
2fff0bf6:	f443 6380 	orr.w	r3, r3, #1024	@ 0x400
2fff0bfa:	f8c4 30d8 	str.w	r3, [r4, #216]	@ 0xd8
2fff0bfe:	f8d4 30d8 	ldr.w	r3, [r4, #216]	@ 0xd8
2fff0c02:	f043 0340 	orr.w	r3, r3, #64	@ 0x40
2fff0c06:	f8c4 30d8 	str.w	r3, [r4, #216]	@ 0xd8
2fff0c0a:	f8d4 30d8 	ldr.w	r3, [r4, #216]	@ 0xd8
2fff0c0e:	f443 7300 	orr.w	r3, r3, #512	@ 0x200
2fff0c12:	f8c4 30d8 	str.w	r3, [r4, #216]	@ 0xd8
2fff0c16:	f8d4 30d8 	ldr.w	r3, [r4, #216]	@ 0xd8
2fff0c1a:	f043 0310 	orr.w	r3, r3, #16
2fff0c1e:	f8c4 30d8 	str.w	r3, [r4, #216]	@ 0xd8
2fff0c22:	f8d4 30d8 	ldr.w	r3, [r4, #216]	@ 0xd8
2fff0c26:	f423 7380 	bic.w	r3, r3, #256	@ 0x100
2fff0c2a:	f8c4 30d8 	str.w	r3, [r4, #216]	@ 0xd8
2fff0c2e:	f8d4 30d8 	ldr.w	r3, [r4, #216]	@ 0xd8
2fff0c32:	f423 03e0 	bic.w	r3, r3, #7340032	@ 0x700000
2fff0c36:	f8c4 30d8 	str.w	r3, [r4, #216]	@ 0xd8
2fff0c3a:	f001 fe43 	bl	2fff28c4 <stm32mp1_clk_rcc_regs_unlock>
2fff0c3e:	4628      	mov	r0, r5
2fff0c40:	f7fe f844 	bl	2ffeeccc <stm32mp_ddr_set_qd3_update_conditions>
2fff0c44:	6bab      	ldr	r3, [r5, #56]	@ 0x38
2fff0c46:	4628      	mov	r0, r5
2fff0c48:	f023 0301 	bic.w	r3, r3, #1
2fff0c4c:	63ab      	str	r3, [r5, #56]	@ 0x38
2fff0c4e:	6b6b      	ldr	r3, [r5, #52]	@ 0x34
2fff0c50:	f423 037f 	bic.w	r3, r3, #16711680	@ 0xff0000
2fff0c54:	f443 3380 	orr.w	r3, r3, #65536	@ 0x10000
2fff0c58:	636b      	str	r3, [r5, #52]	@ 0x34
2fff0c5a:	f7fe f85d 	bl	2ffeed18 <stm32mp_ddr_unset_qd3_update_conditions>
2fff0c5e:	6b2b      	ldr	r3, [r5, #48]	@ 0x30
2fff0c60:	f023 0308 	bic.w	r3, r3, #8
2fff0c64:	632b      	str	r3, [r5, #48]	@ 0x30
2fff0c66:	6b2b      	ldr	r3, [r5, #48]	@ 0x30
2fff0c68:	f023 0301 	bic.w	r3, r3, #1
2fff0c6c:	632b      	str	r3, [r5, #48]	@ 0x30
2fff0c6e:	bd38      	pop	{r3, r4, r5, pc}
2fff0c70:	f003 fa67 	bl	2fff4142 <stm32mp_rcc_base>
2fff0c74:	4604      	mov	r4, r0
2fff0c76:	f7fc ff41 	bl	2ffedafc <stm32mp_ddrctrl_base>
2fff0c7a:	4605      	mov	r5, r0
2fff0c7c:	f001 fe1c 	bl	2fff28b8 <stm32mp1_clk_rcc_regs_lock>
2fff0c80:	f8d4 30d8 	ldr.w	r3, [r4, #216]	@ 0xd8
2fff0c84:	f443 7380 	orr.w	r3, r3, #256	@ 0x100
2fff0c88:	f8c4 30d8 	str.w	r3, [r4, #216]	@ 0xd8
2fff0c8c:	f8d4 30d8 	ldr.w	r3, [r4, #216]	@ 0xd8
2fff0c90:	f023 0302 	bic.w	r3, r3, #2
2fff0c94:	f8c4 30d8 	str.w	r3, [r4, #216]	@ 0xd8
2fff0c98:	f8d4 30d8 	ldr.w	r3, [r4, #216]	@ 0xd8
2fff0c9c:	f023 0308 	bic.w	r3, r3, #8
2fff0ca0:	f8c4 30d8 	str.w	r3, [r4, #216]	@ 0xd8
2fff0ca4:	f8d4 30d8 	ldr.w	r3, [r4, #216]	@ 0xd8
2fff0ca8:	f043 0320 	orr.w	r3, r3, #32
2fff0cac:	f8c4 30d8 	str.w	r3, [r4, #216]	@ 0xd8
2fff0cb0:	f8d4 30d8 	ldr.w	r3, [r4, #216]	@ 0xd8
2fff0cb4:	f423 03e0 	bic.w	r3, r3, #7340032	@ 0x700000
2fff0cb8:	f443 1300 	orr.w	r3, r3, #2097152	@ 0x200000
2fff0cbc:	f8c4 30d8 	str.w	r3, [r4, #216]	@ 0xd8
2fff0cc0:	f001 fe00 	bl	2fff28c4 <stm32mp1_clk_rcc_regs_unlock>
2fff0cc4:	4628      	mov	r0, r5
2fff0cc6:	f7fe f801 	bl	2ffeeccc <stm32mp_ddr_set_qd3_update_conditions>
2fff0cca:	6bab      	ldr	r3, [r5, #56]	@ 0x38
2fff0ccc:	4628      	mov	r0, r5
2fff0cce:	f043 0301 	orr.w	r3, r3, #1
2fff0cd2:	63ab      	str	r3, [r5, #56]	@ 0x38
2fff0cd4:	6b6b      	ldr	r3, [r5, #52]	@ 0x34
2fff0cd6:	f423 037f 	bic.w	r3, r3, #16711680	@ 0xff0000
2fff0cda:	f443 3380 	orr.w	r3, r3, #65536	@ 0x10000
2fff0cde:	636b      	str	r3, [r5, #52]	@ 0x34
2fff0ce0:	f7fe f81a 	bl	2ffeed18 <stm32mp_ddr_unset_qd3_update_conditions>
2fff0ce4:	6b2b      	ldr	r3, [r5, #48]	@ 0x30
2fff0ce6:	f043 0308 	orr.w	r3, r3, #8
2fff0cea:	e7bf      	b.n	2fff0c6c <ddr_set_sr_mode+0xd8>
2fff0cec:	f003 fa29 	bl	2fff4142 <stm32mp_rcc_base>
2fff0cf0:	4605      	mov	r5, r0
2fff0cf2:	f7fc ff03 	bl	2ffedafc <stm32mp_ddrctrl_base>
2fff0cf6:	4604      	mov	r4, r0
2fff0cf8:	f001 fdde 	bl	2fff28b8 <stm32mp1_clk_rcc_regs_lock>
2fff0cfc:	f8d5 30d8 	ldr.w	r3, [r5, #216]	@ 0xd8
2fff0d00:	f443 7380 	orr.w	r3, r3, #256	@ 0x100
2fff0d04:	f8c5 30d8 	str.w	r3, [r5, #216]	@ 0xd8
2fff0d08:	f8d5 30d8 	ldr.w	r3, [r5, #216]	@ 0xd8
2fff0d0c:	f043 0302 	orr.w	r3, r3, #2
2fff0d10:	f8c5 30d8 	str.w	r3, [r5, #216]	@ 0xd8
2fff0d14:	f8d5 30d8 	ldr.w	r3, [r5, #216]	@ 0xd8
2fff0d18:	f043 0308 	orr.w	r3, r3, #8
2fff0d1c:	f8c5 30d8 	str.w	r3, [r5, #216]	@ 0xd8
2fff0d20:	f8d5 30d8 	ldr.w	r3, [r5, #216]	@ 0xd8
2fff0d24:	f043 0320 	orr.w	r3, r3, #32
2fff0d28:	f8c5 30d8 	str.w	r3, [r5, #216]	@ 0xd8
2fff0d2c:	f8d5 30d8 	ldr.w	r3, [r5, #216]	@ 0xd8
2fff0d30:	f423 03e0 	bic.w	r3, r3, #7340032	@ 0x700000
2fff0d34:	f443 1380 	orr.w	r3, r3, #1048576	@ 0x100000
2fff0d38:	f8c5 30d8 	str.w	r3, [r5, #216]	@ 0xd8
2fff0d3c:	f001 fdc2 	bl	2fff28c4 <stm32mp1_clk_rcc_regs_unlock>
2fff0d40:	4620      	mov	r0, r4
2fff0d42:	f7fd ffc3 	bl	2ffeeccc <stm32mp_ddr_set_qd3_update_conditions>
2fff0d46:	6ba3      	ldr	r3, [r4, #56]	@ 0x38
2fff0d48:	4620      	mov	r0, r4
2fff0d4a:	f043 0301 	orr.w	r3, r3, #1
2fff0d4e:	63a3      	str	r3, [r4, #56]	@ 0x38
2fff0d50:	6b63      	ldr	r3, [r4, #52]	@ 0x34
2fff0d52:	f423 037f 	bic.w	r3, r3, #16711680	@ 0xff0000
2fff0d56:	f443 3380 	orr.w	r3, r3, #65536	@ 0x10000
2fff0d5a:	6363      	str	r3, [r4, #52]	@ 0x34
2fff0d5c:	f7fd ffdc 	bl	2ffeed18 <stm32mp_ddr_unset_qd3_update_conditions>
2fff0d60:	6b23      	ldr	r3, [r4, #48]	@ 0x30
2fff0d62:	f043 0308 	orr.w	r3, r3, #8
2fff0d66:	6323      	str	r3, [r4, #48]	@ 0x30
2fff0d68:	6b23      	ldr	r3, [r4, #48]	@ 0x30
2fff0d6a:	f043 0301 	orr.w	r3, r3, #1
2fff0d6e:	6323      	str	r3, [r4, #48]	@ 0x30
2fff0d70:	e77d      	b.n	2fff0c6e <ddr_set_sr_mode+0xda>
2fff0d72:	4803      	ldr	r0, [pc, #12]	@ (2fff0d80 <ddr_set_sr_mode+0x1ec>)
2fff0d74:	f7fc fd50 	bl	2ffed818 <tf_log>
2fff0d78:	f7fc fdea 	bl	2ffed950 <console_flush>
2fff0d7c:	f7f8 eb2e 	blx	2ffe93dc <do_panic>
2fff0d80:	2fff9004 	.word	0x2fff9004

2fff0d84 <i2c_transfer_config.isra.0>:
2fff0d84:	b530      	push	{r4, r5, lr}
2fff0d86:	9d03      	ldr	r5, [sp, #12]
2fff0d88:	f3c1 0109 	ubfx	r1, r1, #0, #10
2fff0d8c:	432b      	orrs	r3, r5
2fff0d8e:	0412      	lsls	r2, r2, #16
2fff0d90:	430b      	orrs	r3, r1
2fff0d92:	f402 027f 	and.w	r2, r2, #16711680	@ 0xff0000
2fff0d96:	4313      	orrs	r3, r2
2fff0d98:	4a04      	ldr	r2, [pc, #16]	@ (2fff0dac <i2c_transfer_config.isra.0+0x28>)
2fff0d9a:	6844      	ldr	r4, [r0, #4]
2fff0d9c:	ea42 5255 	orr.w	r2, r2, r5, lsr #21
2fff0da0:	ea24 0402 	bic.w	r4, r4, r2
2fff0da4:	4323      	orrs	r3, r4
2fff0da6:	6043      	str	r3, [r0, #4]
2fff0da8:	bd30      	pop	{r4, r5, pc}
2fff0daa:	bf00      	nop
2fff0dac:	03ff63ff 	.word	0x03ff63ff

2fff0db0 <i2c_read.constprop.0>:
2fff0db0:	e92d 4ff0 	stmdb	sp!, {r4, r5, r6, r7, r8, r9, sl, fp, lr}
2fff0db4:	b085      	sub	sp, #20
2fff0db6:	469a      	mov	sl, r3
2fff0db8:	4604      	mov	r4, r0
2fff0dba:	9b10      	ldr	r3, [sp, #64]	@ 0x40
2fff0dbc:	4689      	mov	r9, r1
2fff0dbe:	f8bd 503c 	ldrh.w	r5, [sp, #60]	@ 0x3c
2fff0dc2:	4690      	mov	r8, r2
2fff0dc4:	2b10      	cmp	r3, #16
2fff0dc6:	d002      	beq.n	2fff0dce <i2c_read.constprop.0+0x1e>
2fff0dc8:	2b40      	cmp	r3, #64	@ 0x40
2fff0dca:	f040 80d9 	bne.w	2fff0f80 <i2c_read.constprop.0+0x1d0>
2fff0dce:	6923      	ldr	r3, [r4, #16]
2fff0dd0:	2b20      	cmp	r3, #32
2fff0dd2:	f040 80d8 	bne.w	2fff0f86 <i2c_read.constprop.0+0x1d6>
2fff0dd6:	7b23      	ldrb	r3, [r4, #12]
2fff0dd8:	2b00      	cmp	r3, #0
2fff0dda:	f040 80d4 	bne.w	2fff0f86 <i2c_read.constprop.0+0x1d6>
2fff0dde:	9b0e      	ldr	r3, [sp, #56]	@ 0x38
2fff0de0:	2b00      	cmp	r3, #0
2fff0de2:	f000 80d3 	beq.w	2fff0f8c <i2c_read.constprop.0+0x1dc>
2fff0de6:	2d00      	cmp	r5, #0
2fff0de8:	f000 80d0 	beq.w	2fff0f8c <i2c_read.constprop.0+0x1dc>
2fff0dec:	68a0      	ldr	r0, [r4, #8]
2fff0dee:	f04f 0b01 	mov.w	fp, #1
2fff0df2:	f7fd fd45 	bl	2ffee880 <clk_enable>
2fff0df6:	f884 b00c 	strb.w	fp, [r4, #12]
2fff0dfa:	ee1e 1f10 	mrc	15, 0, r1, cr14, cr0, {0}
2fff0dfe:	ec53 2f0e 	mrrc	15, 0, r2, r3, cr14
2fff0e02:	f246 10a8 	movw	r0, #25000	@ 0x61a8
2fff0e06:	e9cd 2302 	strd	r2, r3, [sp, #8]
2fff0e0a:	9e02      	ldr	r6, [sp, #8]
2fff0e0c:	2300      	movs	r3, #0
2fff0e0e:	4a61      	ldr	r2, [pc, #388]	@ (2fff0f94 <i2c_read.constprop.0+0x1e4>)
2fff0e10:	fba1 0100 	umull	r0, r1, r1, r0
2fff0e14:	f002 eb26 	blx	2fff3464 <__aeabi_uldivmod>
2fff0e18:	9b03      	ldr	r3, [sp, #12]
2fff0e1a:	465a      	mov	r2, fp
2fff0e1c:	1986      	adds	r6, r0, r6
2fff0e1e:	4620      	mov	r0, r4
2fff0e20:	eb41 0703 	adc.w	r7, r1, r3
2fff0e24:	f44f 4100 	mov.w	r1, #32768	@ 0x8000
2fff0e28:	e9cd 6700 	strd	r6, r7, [sp]
2fff0e2c:	f003 fd1a 	bl	2fff4864 <i2c_wait_flag>
2fff0e30:	4603      	mov	r3, r0
2fff0e32:	b150      	cbz	r0, 2fff0e4a <i2c_read.constprop.0+0x9a>
2fff0e34:	f06f 0604 	mvn.w	r6, #4
2fff0e38:	68a0      	ldr	r0, [r4, #8]
2fff0e3a:	2300      	movs	r3, #0
2fff0e3c:	7323      	strb	r3, [r4, #12]
2fff0e3e:	f7fd fd31 	bl	2ffee8a4 <clk_disable>
2fff0e42:	4630      	mov	r0, r6
2fff0e44:	b005      	add	sp, #20
2fff0e46:	e8bd 8ff0 	ldmia.w	sp!, {r4, r5, r6, r7, r8, r9, sl, fp, pc}
2fff0e4a:	61a0      	str	r0, [r4, #24]
2fff0e4c:	2222      	movs	r2, #34	@ 0x22
2fff0e4e:	6122      	str	r2, [r4, #16]
2fff0e50:	9a10      	ldr	r2, [sp, #64]	@ 0x40
2fff0e52:	6820      	ldr	r0, [r4, #0]
2fff0e54:	6162      	str	r2, [r4, #20]
2fff0e56:	2a40      	cmp	r2, #64	@ 0x40
2fff0e58:	d00c      	beq.n	2fff0e74 <i2c_read.constprop.0+0xc4>
2fff0e5a:	6820      	ldr	r0, [r4, #0]
2fff0e5c:	2dff      	cmp	r5, #255	@ 0xff
2fff0e5e:	4b4e      	ldr	r3, [pc, #312]	@ (2fff0f98 <i2c_read.constprop.0+0x1e8>)
2fff0e60:	d836      	bhi.n	2fff0ed0 <i2c_read.constprop.0+0x120>
2fff0e62:	9300      	str	r3, [sp, #0]
2fff0e64:	462a      	mov	r2, r5
2fff0e66:	f04f 7300 	mov.w	r3, #33554432	@ 0x2000000
2fff0e6a:	4649      	mov	r1, r9
2fff0e6c:	46a8      	mov	r8, r5
2fff0e6e:	f7ff ff89 	bl	2fff0d84 <i2c_transfer_config.isra.0>
2fff0e72:	e036      	b.n	2fff0ee2 <i2c_read.constprop.0+0x132>
2fff0e74:	4a49      	ldr	r2, [pc, #292]	@ (2fff0f9c <i2c_read.constprop.0+0x1ec>)
2fff0e76:	4649      	mov	r1, r9
2fff0e78:	9200      	str	r2, [sp, #0]
2fff0e7a:	4652      	mov	r2, sl
2fff0e7c:	f7ff ff82 	bl	2fff0d84 <i2c_transfer_config.isra.0>
2fff0e80:	4632      	mov	r2, r6
2fff0e82:	463b      	mov	r3, r7
2fff0e84:	4620      	mov	r0, r4
2fff0e86:	f003 fd55 	bl	2fff4934 <i2c_wait_txis>
2fff0e8a:	2800      	cmp	r0, #0
2fff0e8c:	d1d2      	bne.n	2fff0e34 <i2c_read.constprop.0+0x84>
2fff0e8e:	6823      	ldr	r3, [r4, #0]
2fff0e90:	f1ba 0f01 	cmp.w	sl, #1
2fff0e94:	d10d      	bne.n	2fff0eb2 <i2c_read.constprop.0+0x102>
2fff0e96:	fa5f f888 	uxtb.w	r8, r8
2fff0e9a:	f883 8028 	strb.w	r8, [r3, #40]	@ 0x28
2fff0e9e:	2200      	movs	r2, #0
2fff0ea0:	2140      	movs	r1, #64	@ 0x40
2fff0ea2:	4620      	mov	r0, r4
2fff0ea4:	e9cd 6700 	strd	r6, r7, [sp]
2fff0ea8:	f003 fcdc 	bl	2fff4864 <i2c_wait_flag>
2fff0eac:	2800      	cmp	r0, #0
2fff0eae:	d0d4      	beq.n	2fff0e5a <i2c_read.constprop.0+0xaa>
2fff0eb0:	e7c0      	b.n	2fff0e34 <i2c_read.constprop.0+0x84>
2fff0eb2:	ea4f 2218 	mov.w	r2, r8, lsr #8
2fff0eb6:	4620      	mov	r0, r4
2fff0eb8:	f883 2028 	strb.w	r2, [r3, #40]	@ 0x28
2fff0ebc:	4632      	mov	r2, r6
2fff0ebe:	463b      	mov	r3, r7
2fff0ec0:	f003 fd38 	bl	2fff4934 <i2c_wait_txis>
2fff0ec4:	2800      	cmp	r0, #0
2fff0ec6:	d1b5      	bne.n	2fff0e34 <i2c_read.constprop.0+0x84>
2fff0ec8:	6823      	ldr	r3, [r4, #0]
2fff0eca:	fa5f f888 	uxtb.w	r8, r8
2fff0ece:	e7e4      	b.n	2fff0e9a <i2c_read.constprop.0+0xea>
2fff0ed0:	9300      	str	r3, [sp, #0]
2fff0ed2:	22ff      	movs	r2, #255	@ 0xff
2fff0ed4:	f04f 7380 	mov.w	r3, #16777216	@ 0x1000000
2fff0ed8:	4649      	mov	r1, r9
2fff0eda:	f04f 08ff 	mov.w	r8, #255	@ 0xff
2fff0ede:	f7ff ff51 	bl	2fff0d84 <i2c_transfer_config.isra.0>
2fff0ee2:	9b0e      	ldr	r3, [sp, #56]	@ 0x38
2fff0ee4:	f103 3aff 	add.w	sl, r3, #4294967295	@ 0xffffffff
2fff0ee8:	2200      	movs	r2, #0
2fff0eea:	2104      	movs	r1, #4
2fff0eec:	4620      	mov	r0, r4
2fff0eee:	e9cd 6700 	strd	r6, r7, [sp]
2fff0ef2:	f003 fcb7 	bl	2fff4864 <i2c_wait_flag>
2fff0ef6:	2800      	cmp	r0, #0
2fff0ef8:	d19c      	bne.n	2fff0e34 <i2c_read.constprop.0+0x84>
2fff0efa:	6823      	ldr	r3, [r4, #0]
2fff0efc:	3d01      	subs	r5, #1
2fff0efe:	f893 3024 	ldrb.w	r3, [r3, #36]	@ 0x24
2fff0f02:	f80a 3f01 	strb.w	r3, [sl, #1]!
2fff0f06:	d118      	bne.n	2fff0f3a <i2c_read.constprop.0+0x18a>
2fff0f08:	4632      	mov	r2, r6
2fff0f0a:	463b      	mov	r3, r7
2fff0f0c:	4620      	mov	r0, r4
2fff0f0e:	f003 fd32 	bl	2fff4976 <i2c_wait_stop>
2fff0f12:	4606      	mov	r6, r0
2fff0f14:	2800      	cmp	r0, #0
2fff0f16:	d18d      	bne.n	2fff0e34 <i2c_read.constprop.0+0x84>
2fff0f18:	6823      	ldr	r3, [r4, #0]
2fff0f1a:	2220      	movs	r2, #32
2fff0f1c:	61da      	str	r2, [r3, #28]
2fff0f1e:	6821      	ldr	r1, [r4, #0]
2fff0f20:	684b      	ldr	r3, [r1, #4]
2fff0f22:	f023 73ff 	bic.w	r3, r3, #33423360	@ 0x1fe0000
2fff0f26:	f423 338b 	bic.w	r3, r3, #71168	@ 0x11600
2fff0f2a:	f423 73ff 	bic.w	r3, r3, #510	@ 0x1fe
2fff0f2e:	f023 0301 	bic.w	r3, r3, #1
2fff0f32:	604b      	str	r3, [r1, #4]
2fff0f34:	6122      	str	r2, [r4, #16]
2fff0f36:	6165      	str	r5, [r4, #20]
2fff0f38:	e77e      	b.n	2fff0e38 <i2c_read.constprop.0+0x88>
2fff0f3a:	f1b8 0801 	subs.w	r8, r8, #1
2fff0f3e:	d1d3      	bne.n	2fff0ee8 <i2c_read.constprop.0+0x138>
2fff0f40:	4642      	mov	r2, r8
2fff0f42:	2180      	movs	r1, #128	@ 0x80
2fff0f44:	4620      	mov	r0, r4
2fff0f46:	e9cd 6700 	strd	r6, r7, [sp]
2fff0f4a:	f003 fc8b 	bl	2fff4864 <i2c_wait_flag>
2fff0f4e:	2800      	cmp	r0, #0
2fff0f50:	f47f af70 	bne.w	2fff0e34 <i2c_read.constprop.0+0x84>
2fff0f54:	6820      	ldr	r0, [r4, #0]
2fff0f56:	2dff      	cmp	r5, #255	@ 0xff
2fff0f58:	f8cd 8000 	str.w	r8, [sp]
2fff0f5c:	d908      	bls.n	2fff0f70 <i2c_read.constprop.0+0x1c0>
2fff0f5e:	f04f 7380 	mov.w	r3, #16777216	@ 0x1000000
2fff0f62:	22ff      	movs	r2, #255	@ 0xff
2fff0f64:	4649      	mov	r1, r9
2fff0f66:	f04f 08ff 	mov.w	r8, #255	@ 0xff
2fff0f6a:	f7ff ff0b 	bl	2fff0d84 <i2c_transfer_config.isra.0>
2fff0f6e:	e7bb      	b.n	2fff0ee8 <i2c_read.constprop.0+0x138>
2fff0f70:	f04f 7300 	mov.w	r3, #33554432	@ 0x2000000
2fff0f74:	b2aa      	uxth	r2, r5
2fff0f76:	4649      	mov	r1, r9
2fff0f78:	46a8      	mov	r8, r5
2fff0f7a:	f7ff ff03 	bl	2fff0d84 <i2c_transfer_config.isra.0>
2fff0f7e:	e7b3      	b.n	2fff0ee8 <i2c_read.constprop.0+0x138>
2fff0f80:	f04f 36ff 	mov.w	r6, #4294967295	@ 0xffffffff
2fff0f84:	e75d      	b.n	2fff0e42 <i2c_read.constprop.0+0x92>
2fff0f86:	f06f 060f 	mvn.w	r6, #15
2fff0f8a:	e75a      	b.n	2fff0e42 <i2c_read.constprop.0+0x92>
2fff0f8c:	f06f 0615 	mvn.w	r6, #21
2fff0f90:	e757      	b.n	2fff0e42 <i2c_read.constprop.0+0x92>
2fff0f92:	bf00      	nop
2fff0f94:	000f4240 	.word	0x000f4240
2fff0f98:	80002400 	.word	0x80002400
2fff0f9c:	80002000 	.word	0x80002000

2fff0fa0 <i2c_write>:
2fff0fa0:	e92d 4ff0 	stmdb	sp!, {r4, r5, r6, r7, r8, r9, sl, fp, lr}
2fff0fa4:	b085      	sub	sp, #20
2fff0fa6:	469a      	mov	sl, r3
2fff0fa8:	4604      	mov	r4, r0
2fff0faa:	9b11      	ldr	r3, [sp, #68]	@ 0x44
2fff0fac:	460e      	mov	r6, r1
2fff0fae:	f8bd 503c 	ldrh.w	r5, [sp, #60]	@ 0x3c
2fff0fb2:	4617      	mov	r7, r2
2fff0fb4:	2b10      	cmp	r3, #16
2fff0fb6:	d002      	beq.n	2fff0fbe <i2c_write+0x1e>
2fff0fb8:	2b40      	cmp	r3, #64	@ 0x40
2fff0fba:	f040 80ef 	bne.w	2fff119c <i2c_write+0x1fc>
2fff0fbe:	6923      	ldr	r3, [r4, #16]
2fff0fc0:	2b20      	cmp	r3, #32
2fff0fc2:	f040 80ee 	bne.w	2fff11a2 <i2c_write+0x202>
2fff0fc6:	7b23      	ldrb	r3, [r4, #12]
2fff0fc8:	2b00      	cmp	r3, #0
2fff0fca:	f040 80ea 	bne.w	2fff11a2 <i2c_write+0x202>
2fff0fce:	9b0e      	ldr	r3, [sp, #56]	@ 0x38
2fff0fd0:	2b00      	cmp	r3, #0
2fff0fd2:	f000 80e9 	beq.w	2fff11a8 <i2c_write+0x208>
2fff0fd6:	2d00      	cmp	r5, #0
2fff0fd8:	f000 80e6 	beq.w	2fff11a8 <i2c_write+0x208>
2fff0fdc:	68a0      	ldr	r0, [r4, #8]
2fff0fde:	f04f 0b01 	mov.w	fp, #1
2fff0fe2:	f7fd fc4d 	bl	2ffee880 <clk_enable>
2fff0fe6:	f884 b00c 	strb.w	fp, [r4, #12]
2fff0fea:	ee1e 1f10 	mrc	15, 0, r1, cr14, cr0, {0}
2fff0fee:	ec53 2f0e 	mrrc	15, 0, r2, r3, cr14
2fff0ff2:	f246 10a8 	movw	r0, #25000	@ 0x61a8
2fff0ff6:	e9cd 2302 	strd	r2, r3, [sp, #8]
2fff0ffa:	f8dd 8008 	ldr.w	r8, [sp, #8]
2fff0ffe:	2300      	movs	r3, #0
2fff1000:	4a6b      	ldr	r2, [pc, #428]	@ (2fff11b0 <i2c_write+0x210>)
2fff1002:	fba1 0100 	umull	r0, r1, r1, r0
2fff1006:	f002 ea2e 	blx	2fff3464 <__aeabi_uldivmod>
2fff100a:	9b03      	ldr	r3, [sp, #12]
2fff100c:	465a      	mov	r2, fp
2fff100e:	eb10 0008 	adds.w	r0, r0, r8
2fff1012:	eb41 0103 	adc.w	r1, r1, r3
2fff1016:	e9cd 0100 	strd	r0, r1, [sp]
2fff101a:	f44f 4100 	mov.w	r1, #32768	@ 0x8000
2fff101e:	4620      	mov	r0, r4
2fff1020:	f003 fc20 	bl	2fff4864 <i2c_wait_flag>
2fff1024:	b150      	cbz	r0, 2fff103c <i2c_write+0x9c>
2fff1026:	f06f 0504 	mvn.w	r5, #4
2fff102a:	68a0      	ldr	r0, [r4, #8]
2fff102c:	2300      	movs	r3, #0
2fff102e:	7323      	strb	r3, [r4, #12]
2fff1030:	f7fd fc38 	bl	2ffee8a4 <clk_disable>
2fff1034:	4628      	mov	r0, r5
2fff1036:	b005      	add	sp, #20
2fff1038:	e8bd 8ff0 	ldmia.w	sp!, {r4, r5, r6, r7, r8, r9, sl, fp, pc}
2fff103c:	61a0      	str	r0, [r4, #24]
2fff103e:	2321      	movs	r3, #33	@ 0x21
2fff1040:	6123      	str	r3, [r4, #16]
2fff1042:	46ab      	mov	fp, r5
2fff1044:	9b11      	ldr	r3, [sp, #68]	@ 0x44
2fff1046:	6163      	str	r3, [r4, #20]
2fff1048:	ee1e 0f10 	mrc	15, 0, r0, cr14, cr0, {0}
2fff104c:	ec53 2f0e 	mrrc	15, 0, r2, r3, cr14
2fff1050:	9910      	ldr	r1, [sp, #64]	@ 0x40
2fff1052:	e9cd 2302 	strd	r2, r3, [sp, #8]
2fff1056:	f8dd 8008 	ldr.w	r8, [sp, #8]
2fff105a:	f44f 737a 	mov.w	r3, #1000	@ 0x3e8
2fff105e:	4359      	muls	r1, r3
2fff1060:	4a53      	ldr	r2, [pc, #332]	@ (2fff11b0 <i2c_write+0x210>)
2fff1062:	2300      	movs	r3, #0
2fff1064:	fba1 0100 	umull	r0, r1, r1, r0
2fff1068:	f002 e9fc 	blx	2fff3464 <__aeabi_uldivmod>
2fff106c:	9b03      	ldr	r3, [sp, #12]
2fff106e:	eb10 0808 	adds.w	r8, r0, r8
2fff1072:	eb41 0903 	adc.w	r9, r1, r3
2fff1076:	9b11      	ldr	r3, [sp, #68]	@ 0x44
2fff1078:	6820      	ldr	r0, [r4, #0]
2fff107a:	2b40      	cmp	r3, #64	@ 0x40
2fff107c:	4b4d      	ldr	r3, [pc, #308]	@ (2fff11b4 <i2c_write+0x214>)
2fff107e:	9300      	str	r3, [sp, #0]
2fff1080:	d168      	bne.n	2fff1154 <i2c_write+0x1b4>
2fff1082:	f04f 7380 	mov.w	r3, #16777216	@ 0x1000000
2fff1086:	4652      	mov	r2, sl
2fff1088:	4631      	mov	r1, r6
2fff108a:	f7ff fe7b 	bl	2fff0d84 <i2c_transfer_config.isra.0>
2fff108e:	4642      	mov	r2, r8
2fff1090:	464b      	mov	r3, r9
2fff1092:	4620      	mov	r0, r4
2fff1094:	f003 fc4e 	bl	2fff4934 <i2c_wait_txis>
2fff1098:	2800      	cmp	r0, #0
2fff109a:	d1c4      	bne.n	2fff1026 <i2c_write+0x86>
2fff109c:	6823      	ldr	r3, [r4, #0]
2fff109e:	f1ba 0f01 	cmp.w	sl, #1
2fff10a2:	d118      	bne.n	2fff10d6 <i2c_write+0x136>
2fff10a4:	b2ff      	uxtb	r7, r7
2fff10a6:	f883 7028 	strb.w	r7, [r3, #40]	@ 0x28
2fff10aa:	2200      	movs	r2, #0
2fff10ac:	2180      	movs	r1, #128	@ 0x80
2fff10ae:	4620      	mov	r0, r4
2fff10b0:	e9cd 8900 	strd	r8, r9, [sp]
2fff10b4:	f003 fbd6 	bl	2fff4864 <i2c_wait_flag>
2fff10b8:	4603      	mov	r3, r0
2fff10ba:	2800      	cmp	r0, #0
2fff10bc:	d1b3      	bne.n	2fff1026 <i2c_write+0x86>
2fff10be:	6820      	ldr	r0, [r4, #0]
2fff10c0:	2dff      	cmp	r5, #255	@ 0xff
2fff10c2:	9300      	str	r3, [sp, #0]
2fff10c4:	d914      	bls.n	2fff10f0 <i2c_write+0x150>
2fff10c6:	f04f 7380 	mov.w	r3, #16777216	@ 0x1000000
2fff10ca:	22ff      	movs	r2, #255	@ 0xff
2fff10cc:	4631      	mov	r1, r6
2fff10ce:	25ff      	movs	r5, #255	@ 0xff
2fff10d0:	f7ff fe58 	bl	2fff0d84 <i2c_transfer_config.isra.0>
2fff10d4:	e012      	b.n	2fff10fc <i2c_write+0x15c>
2fff10d6:	0a3a      	lsrs	r2, r7, #8
2fff10d8:	4620      	mov	r0, r4
2fff10da:	f883 2028 	strb.w	r2, [r3, #40]	@ 0x28
2fff10de:	4642      	mov	r2, r8
2fff10e0:	464b      	mov	r3, r9
2fff10e2:	f003 fc27 	bl	2fff4934 <i2c_wait_txis>
2fff10e6:	2800      	cmp	r0, #0
2fff10e8:	d19d      	bne.n	2fff1026 <i2c_write+0x86>
2fff10ea:	6823      	ldr	r3, [r4, #0]
2fff10ec:	b2ff      	uxtb	r7, r7
2fff10ee:	e7da      	b.n	2fff10a6 <i2c_write+0x106>
2fff10f0:	f04f 7300 	mov.w	r3, #33554432	@ 0x2000000
2fff10f4:	462a      	mov	r2, r5
2fff10f6:	4631      	mov	r1, r6
2fff10f8:	f7ff fe44 	bl	2fff0d84 <i2c_transfer_config.isra.0>
2fff10fc:	9b0e      	ldr	r3, [sp, #56]	@ 0x38
2fff10fe:	1e5f      	subs	r7, r3, #1
2fff1100:	4642      	mov	r2, r8
2fff1102:	464b      	mov	r3, r9
2fff1104:	4620      	mov	r0, r4
2fff1106:	f003 fc15 	bl	2fff4934 <i2c_wait_txis>
2fff110a:	2800      	cmp	r0, #0
2fff110c:	d18b      	bne.n	2fff1026 <i2c_write+0x86>
2fff110e:	f817 2f01 	ldrb.w	r2, [r7, #1]!
2fff1112:	f1bb 0b01 	subs.w	fp, fp, #1
2fff1116:	6823      	ldr	r3, [r4, #0]
2fff1118:	f883 2028 	strb.w	r2, [r3, #40]	@ 0x28
2fff111c:	d11c      	bne.n	2fff1158 <i2c_write+0x1b8>
2fff111e:	4642      	mov	r2, r8
2fff1120:	464b      	mov	r3, r9
2fff1122:	4620      	mov	r0, r4
2fff1124:	f003 fc27 	bl	2fff4976 <i2c_wait_stop>
2fff1128:	4605      	mov	r5, r0
2fff112a:	2800      	cmp	r0, #0
2fff112c:	f47f af7b 	bne.w	2fff1026 <i2c_write+0x86>
2fff1130:	6823      	ldr	r3, [r4, #0]
2fff1132:	2220      	movs	r2, #32
2fff1134:	61da      	str	r2, [r3, #28]
2fff1136:	6821      	ldr	r1, [r4, #0]
2fff1138:	684b      	ldr	r3, [r1, #4]
2fff113a:	f023 73ff 	bic.w	r3, r3, #33423360	@ 0x1fe0000
2fff113e:	f423 338b 	bic.w	r3, r3, #71168	@ 0x11600
2fff1142:	f423 73ff 	bic.w	r3, r3, #510	@ 0x1fe
2fff1146:	f023 0301 	bic.w	r3, r3, #1
2fff114a:	604b      	str	r3, [r1, #4]
2fff114c:	6122      	str	r2, [r4, #16]
2fff114e:	f8c4 b014 	str.w	fp, [r4, #20]
2fff1152:	e76a      	b.n	2fff102a <i2c_write+0x8a>
2fff1154:	2dff      	cmp	r5, #255	@ 0xff
2fff1156:	e7b5      	b.n	2fff10c4 <i2c_write+0x124>
2fff1158:	3d01      	subs	r5, #1
2fff115a:	d1d1      	bne.n	2fff1100 <i2c_write+0x160>
2fff115c:	462a      	mov	r2, r5
2fff115e:	2180      	movs	r1, #128	@ 0x80
2fff1160:	4620      	mov	r0, r4
2fff1162:	e9cd 8900 	strd	r8, r9, [sp]
2fff1166:	f003 fb7d 	bl	2fff4864 <i2c_wait_flag>
2fff116a:	2800      	cmp	r0, #0
2fff116c:	f47f af5b 	bne.w	2fff1026 <i2c_write+0x86>
2fff1170:	6820      	ldr	r0, [r4, #0]
2fff1172:	f1bb 0fff 	cmp.w	fp, #255	@ 0xff
2fff1176:	9500      	str	r5, [sp, #0]
2fff1178:	d907      	bls.n	2fff118a <i2c_write+0x1ea>
2fff117a:	f04f 7380 	mov.w	r3, #16777216	@ 0x1000000
2fff117e:	22ff      	movs	r2, #255	@ 0xff
2fff1180:	4631      	mov	r1, r6
2fff1182:	25ff      	movs	r5, #255	@ 0xff
2fff1184:	f7ff fdfe 	bl	2fff0d84 <i2c_transfer_config.isra.0>
2fff1188:	e7ba      	b.n	2fff1100 <i2c_write+0x160>
2fff118a:	f04f 7300 	mov.w	r3, #33554432	@ 0x2000000
2fff118e:	fa1f f28b 	uxth.w	r2, fp
2fff1192:	4631      	mov	r1, r6
2fff1194:	465d      	mov	r5, fp
2fff1196:	f7ff fdf5 	bl	2fff0d84 <i2c_transfer_config.isra.0>
2fff119a:	e7b1      	b.n	2fff1100 <i2c_write+0x160>
2fff119c:	f04f 35ff 	mov.w	r5, #4294967295	@ 0xffffffff
2fff11a0:	e748      	b.n	2fff1034 <i2c_write+0x94>
2fff11a2:	f06f 050f 	mvn.w	r5, #15
2fff11a6:	e745      	b.n	2fff1034 <i2c_write+0x94>
2fff11a8:	f06f 0515 	mvn.w	r5, #21
2fff11ac:	e742      	b.n	2fff1034 <i2c_write+0x94>
2fff11ae:	bf00      	nop
2fff11b0:	000f4240 	.word	0x000f4240
2fff11b4:	80002000 	.word	0x80002000

2fff11b8 <stm32_i2c_get_setup_from_fdt>:
2fff11b8:	b570      	push	{r4, r5, r6, lr}
2fff11ba:	2319      	movs	r3, #25
2fff11bc:	4615      	mov	r5, r2
2fff11be:	4606      	mov	r6, r0
2fff11c0:	4a10      	ldr	r2, [pc, #64]	@ (2fff1204 <stm32_i2c_get_setup_from_fdt+0x4c>)
2fff11c2:	460c      	mov	r4, r1
2fff11c4:	f002 fd0e 	bl	2fff3be4 <fdt_read_uint32_default>
2fff11c8:	61e8      	str	r0, [r5, #28]
2fff11ca:	230a      	movs	r3, #10
2fff11cc:	4a0e      	ldr	r2, [pc, #56]	@ (2fff1208 <stm32_i2c_get_setup_from_fdt+0x50>)
2fff11ce:	4621      	mov	r1, r4
2fff11d0:	4630      	mov	r0, r6
2fff11d2:	f002 fd07 	bl	2fff3be4 <fdt_read_uint32_default>
2fff11d6:	6228      	str	r0, [r5, #32]
2fff11d8:	4621      	mov	r1, r4
2fff11da:	4a0c      	ldr	r2, [pc, #48]	@ (2fff120c <stm32_i2c_get_setup_from_fdt+0x54>)
2fff11dc:	4630      	mov	r0, r6
2fff11de:	4b0c      	ldr	r3, [pc, #48]	@ (2fff1210 <stm32_i2c_get_setup_from_fdt+0x58>)
2fff11e0:	f002 fd00 	bl	2fff3be4 <fdt_read_uint32_default>
2fff11e4:	4a0b      	ldr	r2, [pc, #44]	@ (2fff1214 <stm32_i2c_get_setup_from_fdt+0x5c>)
2fff11e6:	4601      	mov	r1, r0
2fff11e8:	4290      	cmp	r0, r2
2fff11ea:	d805      	bhi.n	2fff11f8 <stm32_i2c_get_setup_from_fdt+0x40>
2fff11ec:	6268      	str	r0, [r5, #36]	@ 0x24
2fff11ee:	4620      	mov	r0, r4
2fff11f0:	e8bd 4070 	ldmia.w	sp!, {r4, r5, r6, lr}
2fff11f4:	f7fd be24 	b.w	2ffeee40 <dt_set_pinctrl_config>
2fff11f8:	4807      	ldr	r0, [pc, #28]	@ (2fff1218 <stm32_i2c_get_setup_from_fdt+0x60>)
2fff11fa:	f7fc fb0d 	bl	2ffed818 <tf_log>
2fff11fe:	f06f 000e 	mvn.w	r0, #14
2fff1202:	bd70      	pop	{r4, r5, r6, pc}
2fff1204:	2fff902a 	.word	0x2fff902a
2fff1208:	2fff9041 	.word	0x2fff9041
2fff120c:	2fff8611 	.word	0x2fff8611
2fff1210:	000186a0 	.word	0x000186a0
2fff1214:	000f4240 	.word	0x000f4240
2fff1218:	2fff9059 	.word	0x2fff9059

2fff121c <stm32_i2c_init>:
2fff121c:	e92d 4ff0 	stmdb	sp!, {r4, r5, r6, r7, r8, r9, sl, fp, lr}
2fff1220:	460d      	mov	r5, r1
2fff1222:	b0a3      	sub	sp, #140	@ 0x8c
2fff1224:	4604      	mov	r4, r0
2fff1226:	2800      	cmp	r0, #0
2fff1228:	f000 8207 	beq.w	2fff163a <stm32_i2c_init+0x41e>
2fff122c:	6903      	ldr	r3, [r0, #16]
2fff122e:	b903      	cbnz	r3, 2fff1232 <stm32_i2c_init+0x16>
2fff1230:	7303      	strb	r3, [r0, #12]
2fff1232:	68a0      	ldr	r0, [r4, #8]
2fff1234:	2324      	movs	r3, #36	@ 0x24
2fff1236:	6123      	str	r3, [r4, #16]
2fff1238:	f7fd fb46 	bl	2ffee8c8 <clk_get_rate>
2fff123c:	9002      	str	r0, [sp, #8]
2fff123e:	b940      	cbnz	r0, 2fff1252 <stm32_i2c_init+0x36>
2fff1240:	4897      	ldr	r0, [pc, #604]	@ (2fff14a0 <stm32_i2c_init+0x284>)
2fff1242:	f06f 0715 	mvn.w	r7, #21
2fff1246:	f7fc fae7 	bl	2ffed818 <tf_log>
2fff124a:	4638      	mov	r0, r7
2fff124c:	b023      	add	sp, #140	@ 0x8c
2fff124e:	e8bd 8ff0 	ldmia.w	sp!, {r4, r5, r6, r7, r8, r9, sl, fp, pc}
2fff1252:	6a23      	ldr	r3, [r4, #32]
2fff1254:	9a02      	ldr	r2, [sp, #8]
2fff1256:	429a      	cmp	r2, r3
2fff1258:	d02c      	beq.n	2fff12b4 <stm32_i2c_init+0x98>
2fff125a:	4b92      	ldr	r3, [pc, #584]	@ (2fff14a4 <stm32_i2c_init+0x288>)
2fff125c:	eb03 0652 	add.w	r6, r3, r2, lsr #1
2fff1260:	fbb6 f6f2 	udiv	r6, r6, r2
2fff1264:	0073      	lsls	r3, r6, #1
2fff1266:	9309      	str	r3, [sp, #36]	@ 0x24
2fff1268:	6a69      	ldr	r1, [r5, #36]	@ 0x24
2fff126a:	4b8f      	ldr	r3, [pc, #572]	@ (2fff14a8 <stm32_i2c_init+0x28c>)
2fff126c:	4299      	cmp	r1, r3
2fff126e:	d97f      	bls.n	2fff1370 <stm32_i2c_init+0x154>
2fff1270:	4b8e      	ldr	r3, [pc, #568]	@ (2fff14ac <stm32_i2c_init+0x290>)
2fff1272:	4299      	cmp	r1, r3
2fff1274:	d97f      	bls.n	2fff1376 <stm32_i2c_init+0x15a>
2fff1276:	4b8e      	ldr	r3, [pc, #568]	@ (2fff14b0 <stm32_i2c_init+0x294>)
2fff1278:	4299      	cmp	r1, r3
2fff127a:	d87f      	bhi.n	2fff137c <stm32_i2c_init+0x160>
2fff127c:	f04f 0902 	mov.w	r9, #2
2fff1280:	4a8c      	ldr	r2, [pc, #560]	@ (2fff14b4 <stm32_i2c_init+0x298>)
2fff1282:	ea4f 1349 	mov.w	r3, r9, lsl #5
2fff1286:	eb02 1149 	add.w	r1, r2, r9, lsl #5
2fff128a:	f852 8003 	ldr.w	r8, [r2, r3]
2fff128e:	4b85      	ldr	r3, [pc, #532]	@ (2fff14a4 <stm32_i2c_init+0x288>)
2fff1290:	688a      	ldr	r2, [r1, #8]
2fff1292:	eb03 0358 	add.w	r3, r3, r8, lsr #1
2fff1296:	69e8      	ldr	r0, [r5, #28]
2fff1298:	fbb3 f3f8 	udiv	r3, r3, r8
2fff129c:	4290      	cmp	r0, r2
2fff129e:	9307      	str	r3, [sp, #28]
2fff12a0:	6849      	ldr	r1, [r1, #4]
2fff12a2:	6a2b      	ldr	r3, [r5, #32]
2fff12a4:	f240 8084 	bls.w	2fff13b0 <stm32_i2c_init+0x194>
2fff12a8:	9100      	str	r1, [sp, #0]
2fff12aa:	4601      	mov	r1, r0
2fff12ac:	4882      	ldr	r0, [pc, #520]	@ (2fff14b8 <stm32_i2c_init+0x29c>)
2fff12ae:	f7fc fab3 	bl	2ffed818 <tf_log>
2fff12b2:	e066      	b.n	2fff1382 <stm32_i2c_init+0x166>
2fff12b4:	69e6      	ldr	r6, [r4, #28]
2fff12b6:	68a0      	ldr	r0, [r4, #8]
2fff12b8:	f026 6670 	bic.w	r6, r6, #251658240	@ 0xf000000
2fff12bc:	f7fd fae0 	bl	2ffee880 <clk_enable>
2fff12c0:	6822      	ldr	r2, [r4, #0]
2fff12c2:	2120      	movs	r1, #32
2fff12c4:	6813      	ldr	r3, [r2, #0]
2fff12c6:	f023 0301 	bic.w	r3, r3, #1
2fff12ca:	6013      	str	r3, [r2, #0]
2fff12cc:	6823      	ldr	r3, [r4, #0]
2fff12ce:	611e      	str	r6, [r3, #16]
2fff12d0:	6822      	ldr	r2, [r4, #0]
2fff12d2:	6893      	ldr	r3, [r2, #8]
2fff12d4:	f423 4300 	bic.w	r3, r3, #32768	@ 0x8000
2fff12d8:	6093      	str	r3, [r2, #8]
2fff12da:	686b      	ldr	r3, [r5, #4]
2fff12dc:	6822      	ldr	r2, [r4, #0]
2fff12de:	2b01      	cmp	r3, #1
2fff12e0:	682b      	ldr	r3, [r5, #0]
2fff12e2:	bf0c      	ite	eq
2fff12e4:	f443 4300 	orreq.w	r3, r3, #32768	@ 0x8000
2fff12e8:	f443 4304 	orrne.w	r3, r3, #33792	@ 0x8400
2fff12ec:	6093      	str	r3, [r2, #8]
2fff12ee:	2200      	movs	r2, #0
2fff12f0:	6823      	ldr	r3, [r4, #0]
2fff12f2:	605a      	str	r2, [r3, #4]
2fff12f4:	686b      	ldr	r3, [r5, #4]
2fff12f6:	2b02      	cmp	r3, #2
2fff12f8:	bf01      	itttt	eq
2fff12fa:	6822      	ldreq	r2, [r4, #0]
2fff12fc:	6853      	ldreq	r3, [r2, #4]
2fff12fe:	f443 6300 	orreq.w	r3, r3, #2048	@ 0x800
2fff1302:	6053      	streq	r3, [r2, #4]
2fff1304:	6822      	ldr	r2, [r4, #0]
2fff1306:	6853      	ldr	r3, [r2, #4]
2fff1308:	f043 7300 	orr.w	r3, r3, #33554432	@ 0x2000000
2fff130c:	f443 4300 	orr.w	r3, r3, #32768	@ 0x8000
2fff1310:	6053      	str	r3, [r2, #4]
2fff1312:	6822      	ldr	r2, [r4, #0]
2fff1314:	68d3      	ldr	r3, [r2, #12]
2fff1316:	f423 4300 	bic.w	r3, r3, #32768	@ 0x8000
2fff131a:	60d3      	str	r3, [r2, #12]
2fff131c:	68ea      	ldr	r2, [r5, #12]
2fff131e:	68ab      	ldr	r3, [r5, #8]
2fff1320:	4313      	orrs	r3, r2
2fff1322:	692a      	ldr	r2, [r5, #16]
2fff1324:	ea43 2302 	orr.w	r3, r3, r2, lsl #8
2fff1328:	6822      	ldr	r2, [r4, #0]
2fff132a:	60d3      	str	r3, [r2, #12]
2fff132c:	69aa      	ldr	r2, [r5, #24]
2fff132e:	696b      	ldr	r3, [r5, #20]
2fff1330:	4313      	orrs	r3, r2
2fff1332:	6822      	ldr	r2, [r4, #0]
2fff1334:	6013      	str	r3, [r2, #0]
2fff1336:	6822      	ldr	r2, [r4, #0]
2fff1338:	6813      	ldr	r3, [r2, #0]
2fff133a:	f043 0301 	orr.w	r3, r3, #1
2fff133e:	6013      	str	r3, [r2, #0]
2fff1340:	2300      	movs	r3, #0
2fff1342:	61a3      	str	r3, [r4, #24]
2fff1344:	6163      	str	r3, [r4, #20]
2fff1346:	6aab      	ldr	r3, [r5, #40]	@ 0x28
2fff1348:	7b27      	ldrb	r7, [r4, #12]
2fff134a:	fab3 f383 	clz	r3, r3
2fff134e:	6121      	str	r1, [r4, #16]
2fff1350:	095b      	lsrs	r3, r3, #5
2fff1352:	031b      	lsls	r3, r3, #12
2fff1354:	2f00      	cmp	r7, #0
2fff1356:	f000 8155 	beq.w	2fff1604 <stm32_i2c_init+0x3e8>
2fff135a:	4858      	ldr	r0, [pc, #352]	@ (2fff14bc <stm32_i2c_init+0x2a0>)
2fff135c:	f06f 010f 	mvn.w	r1, #15
2fff1360:	f06f 070f 	mvn.w	r7, #15
2fff1364:	f7fc fa58 	bl	2ffed818 <tf_log>
2fff1368:	68a0      	ldr	r0, [r4, #8]
2fff136a:	f7fd fa9b 	bl	2ffee8a4 <clk_disable>
2fff136e:	e76c      	b.n	2fff124a <stm32_i2c_init+0x2e>
2fff1370:	f04f 0900 	mov.w	r9, #0
2fff1374:	e784      	b.n	2fff1280 <stm32_i2c_init+0x64>
2fff1376:	f04f 0901 	mov.w	r9, #1
2fff137a:	e781      	b.n	2fff1280 <stm32_i2c_init+0x64>
2fff137c:	4850      	ldr	r0, [pc, #320]	@ (2fff14c0 <stm32_i2c_init+0x2a4>)
2fff137e:	f7fc fa4b 	bl	2ffed818 <tf_log>
2fff1382:	f06f 0715 	mvn.w	r7, #21
2fff1386:	484f      	ldr	r0, [pc, #316]	@ (2fff14c4 <stm32_i2c_init+0x2a8>)
2fff1388:	f7fc fa46 	bl	2ffed818 <tf_log>
2fff138c:	6a6b      	ldr	r3, [r5, #36]	@ 0x24
2fff138e:	4846      	ldr	r0, [pc, #280]	@ (2fff14a8 <stm32_i2c_init+0x28c>)
2fff1390:	4283      	cmp	r3, r0
2fff1392:	f240 8133 	bls.w	2fff15fc <stm32_i2c_init+0x3e0>
2fff1396:	4946      	ldr	r1, [pc, #280]	@ (2fff14b0 <stm32_i2c_init+0x294>)
2fff1398:	428b      	cmp	r3, r1
2fff139a:	d804      	bhi.n	2fff13a6 <stm32_i2c_init+0x18a>
2fff139c:	4a43      	ldr	r2, [pc, #268]	@ (2fff14ac <stm32_i2c_init+0x290>)
2fff139e:	4293      	cmp	r3, r2
2fff13a0:	bf94      	ite	ls
2fff13a2:	4601      	movls	r1, r0
2fff13a4:	4611      	movhi	r1, r2
2fff13a6:	4848      	ldr	r0, [pc, #288]	@ (2fff14c8 <stm32_i2c_init+0x2ac>)
2fff13a8:	6269      	str	r1, [r5, #36]	@ 0x24
2fff13aa:	f7fc fa35 	bl	2ffed818 <tf_log>
2fff13ae:	e75b      	b.n	2fff1268 <stm32_i2c_init+0x4c>
2fff13b0:	428b      	cmp	r3, r1
2fff13b2:	f63f af79 	bhi.w	2fff12a8 <stm32_i2c_init+0x8c>
2fff13b6:	f895 102c 	ldrb.w	r1, [r5, #44]	@ 0x2c
2fff13ba:	2910      	cmp	r1, #16
2fff13bc:	d904      	bls.n	2fff13c8 <stm32_i2c_init+0x1ac>
2fff13be:	4843      	ldr	r0, [pc, #268]	@ (2fff14cc <stm32_i2c_init+0x2b0>)
2fff13c0:	2210      	movs	r2, #16
2fff13c2:	f7fc fa29 	bl	2ffed818 <tf_log>
2fff13c6:	e7dc      	b.n	2fff1382 <stm32_i2c_init+0x166>
2fff13c8:	6aaf      	ldr	r7, [r5, #40]	@ 0x28
2fff13ca:	bb6f      	cbnz	r7, 2fff1428 <stm32_i2c_init+0x20c>
2fff13cc:	46be      	mov	lr, r7
2fff13ce:	fb06 f201 	mul.w	r2, r6, r1
2fff13d2:	3103      	adds	r1, #3
2fff13d4:	9205      	str	r2, [sp, #20]
2fff13d6:	4a37      	ldr	r2, [pc, #220]	@ (2fff14b4 <stm32_i2c_init+0x298>)
2fff13d8:	4371      	muls	r1, r6
2fff13da:	eb02 1c49 	add.w	ip, r2, r9, lsl #5
2fff13de:	1a5b      	subs	r3, r3, r1
2fff13e0:	f8dc 200c 	ldr.w	r2, [ip, #12]
2fff13e4:	4431      	add	r1, r6
2fff13e6:	4413      	add	r3, r2
2fff13e8:	1bdb      	subs	r3, r3, r7
2fff13ea:	9303      	str	r3, [sp, #12]
2fff13ec:	f8dc 3010 	ldr.w	r3, [ip, #16]
2fff13f0:	4401      	add	r1, r0
2fff13f2:	1a5b      	subs	r3, r3, r1
2fff13f4:	2150      	movs	r1, #80	@ 0x50
2fff13f6:	eba3 030e 	sub.w	r3, r3, lr
2fff13fa:	9304      	str	r3, [sp, #16]
2fff13fc:	f8dc 3014 	ldr.w	r3, [ip, #20]
2fff1400:	18c3      	adds	r3, r0, r3
2fff1402:	a80e      	add	r0, sp, #56	@ 0x38
2fff1404:	9308      	str	r3, [sp, #32]
2fff1406:	9b03      	ldr	r3, [sp, #12]
2fff1408:	ea23 73e3 	bic.w	r3, r3, r3, asr #31
2fff140c:	9303      	str	r3, [sp, #12]
2fff140e:	9b04      	ldr	r3, [sp, #16]
2fff1410:	ea23 73e3 	bic.w	r3, r3, r3, asr #31
2fff1414:	9304      	str	r3, [sp, #16]
2fff1416:	f7f8 e8e2 	blx	2ffe95dc <zero_normalmem>
2fff141a:	4630      	mov	r0, r6
2fff141c:	2300      	movs	r3, #0
2fff141e:	f04f 0c10 	mov.w	ip, #16
2fff1422:	4682      	mov	sl, r0
2fff1424:	2100      	movs	r1, #0
2fff1426:	e00d      	b.n	2fff1444 <stm32_i2c_init+0x228>
2fff1428:	2732      	movs	r7, #50	@ 0x32
2fff142a:	f44f 7e82 	mov.w	lr, #260	@ 0x104
2fff142e:	e7ce      	b.n	2fff13ce <stm32_i2c_init+0x1b2>
2fff1430:	4486      	add	lr, r0
2fff1432:	3201      	adds	r2, #1
2fff1434:	b292      	uxth	r2, r2
2fff1436:	2a10      	cmp	r2, #16
2fff1438:	d10c      	bne.n	2fff1454 <stm32_i2c_init+0x238>
2fff143a:	459c      	cmp	ip, r3
2fff143c:	d023      	beq.n	2fff1486 <stm32_i2c_init+0x26a>
2fff143e:	4482      	add	sl, r0
2fff1440:	2910      	cmp	r1, #16
2fff1442:	d020      	beq.n	2fff1486 <stm32_i2c_init+0x26a>
2fff1444:	9a08      	ldr	r2, [sp, #32]
2fff1446:	9106      	str	r1, [sp, #24]
2fff1448:	3101      	adds	r1, #1
2fff144a:	4552      	cmp	r2, sl
2fff144c:	b289      	uxth	r1, r1
2fff144e:	d8f6      	bhi.n	2fff143e <stm32_i2c_init+0x222>
2fff1450:	46b6      	mov	lr, r6
2fff1452:	2200      	movs	r2, #0
2fff1454:	f8dd b00c 	ldr.w	fp, [sp, #12]
2fff1458:	45f3      	cmp	fp, lr
2fff145a:	d8e9      	bhi.n	2fff1430 <stm32_i2c_init+0x214>
2fff145c:	f8dd b010 	ldr.w	fp, [sp, #16]
2fff1460:	45f3      	cmp	fp, lr
2fff1462:	d3e5      	bcc.n	2fff1430 <stm32_i2c_init+0x214>
2fff1464:	459c      	cmp	ip, r3
2fff1466:	d0e3      	beq.n	2fff1430 <stm32_i2c_init+0x214>
2fff1468:	eb03 0183 	add.w	r1, r3, r3, lsl #2
2fff146c:	f8dd c018 	ldr.w	ip, [sp, #24]
2fff1470:	3188      	adds	r1, #136	@ 0x88
2fff1472:	4469      	add	r1, sp
2fff1474:	f801 cc50 	strb.w	ip, [r1, #-80]
2fff1478:	469c      	mov	ip, r3
2fff147a:	f801 2c4f 	strb.w	r2, [r1, #-79]
2fff147e:	f04f 0201 	mov.w	r2, #1
2fff1482:	f801 2c4c 	strb.w	r2, [r1, #-76]
2fff1486:	4430      	add	r0, r6
2fff1488:	3301      	adds	r3, #1
2fff148a:	2b10      	cmp	r3, #16
2fff148c:	d1c9      	bne.n	2fff1422 <stm32_i2c_init+0x206>
2fff148e:	f1bc 0f10 	cmp.w	ip, #16
2fff1492:	d11f      	bne.n	2fff14d4 <stm32_i2c_init+0x2b8>
2fff1494:	480e      	ldr	r0, [pc, #56]	@ (2fff14d0 <stm32_i2c_init+0x2b4>)
2fff1496:	f04f 37ff 	mov.w	r7, #4294967295	@ 0xffffffff
2fff149a:	f7fc f9bd 	bl	2ffed818 <tf_log>
2fff149e:	e772      	b.n	2fff1386 <stm32_i2c_init+0x16a>
2fff14a0:	2fff9077 	.word	0x2fff9077
2fff14a4:	3b9aca00 	.word	0x3b9aca00
2fff14a8:	000186a0 	.word	0x000186a0
2fff14ac:	00061a80 	.word	0x00061a80
2fff14b0:	000f4240 	.word	0x000f4240
2fff14b4:	2fff5cc4 	.word	0x2fff5cc4
2fff14b8:	2fff90ab 	.word	0x2fff90ab
2fff14bc:	2fff9192 	.word	0x2fff9192
2fff14c0:	2fff908d 	.word	0x2fff908d
2fff14c4:	2fff912f 	.word	0x2fff912f
2fff14c8:	2fff914f 	.word	0x2fff914f
2fff14cc:	2fff90df 	.word	0x2fff90df
2fff14d0:	2fff90f8 	.word	0x2fff90f8
2fff14d4:	9a09      	ldr	r2, [sp, #36]	@ 0x24
2fff14d6:	f10d 0c38 	add.w	ip, sp, #56	@ 0x38
2fff14da:	9b05      	ldr	r3, [sp, #20]
2fff14dc:	4630      	mov	r0, r6
2fff14de:	f04f 0e00 	mov.w	lr, #0
2fff14e2:	f04f 31ff 	mov.w	r1, #4294967295	@ 0xffffffff
2fff14e6:	4413      	add	r3, r2
2fff14e8:	2250      	movs	r2, #80	@ 0x50
2fff14ea:	443b      	add	r3, r7
2fff14ec:	9308      	str	r3, [sp, #32]
2fff14ee:	2364      	movs	r3, #100	@ 0x64
2fff14f0:	fbb8 f3f3 	udiv	r3, r8, r3
2fff14f4:	4353      	muls	r3, r2
2fff14f6:	4a52      	ldr	r2, [pc, #328]	@ (2fff1640 <stm32_i2c_init+0x424>)
2fff14f8:	fbb2 f3f3 	udiv	r3, r2, r3
2fff14fc:	930a      	str	r3, [sp, #40]	@ 0x28
2fff14fe:	fbb2 f3f8 	udiv	r3, r2, r8
2fff1502:	930b      	str	r3, [sp, #44]	@ 0x2c
2fff1504:	f06f 4300 	mvn.w	r3, #2147483648	@ 0x80000000
2fff1508:	9303      	str	r3, [sp, #12]
2fff150a:	4b4e      	ldr	r3, [pc, #312]	@ (2fff1644 <stm32_i2c_init+0x428>)
2fff150c:	eb03 1349 	add.w	r3, r3, r9, lsl #5
2fff1510:	9306      	str	r3, [sp, #24]
2fff1512:	9b05      	ldr	r3, [sp, #20]
2fff1514:	443b      	add	r3, r7
2fff1516:	930d      	str	r3, [sp, #52]	@ 0x34
2fff1518:	f89c 3004 	ldrb.w	r3, [ip, #4]
2fff151c:	2b00      	cmp	r3, #0
2fff151e:	d045      	beq.n	2fff15ac <stm32_i2c_init+0x390>
2fff1520:	9b06      	ldr	r3, [sp, #24]
2fff1522:	f04f 0900 	mov.w	r9, #0
2fff1526:	699b      	ldr	r3, [r3, #24]
2fff1528:	9305      	str	r3, [sp, #20]
2fff152a:	9b08      	ldr	r3, [sp, #32]
2fff152c:	4403      	add	r3, r0
2fff152e:	9304      	str	r3, [sp, #16]
2fff1530:	4698      	mov	r8, r3
2fff1532:	9b05      	ldr	r3, [sp, #20]
2fff1534:	4543      	cmp	r3, r8
2fff1536:	d833      	bhi.n	2fff15a0 <stm32_i2c_init+0x384>
2fff1538:	9b0d      	ldr	r3, [sp, #52]	@ 0x34
2fff153a:	eba8 0303 	sub.w	r3, r8, r3
2fff153e:	ebb6 0f93 	cmp.w	r6, r3, lsr #2
2fff1542:	d22d      	bcs.n	2fff15a0 <stm32_i2c_init+0x384>
2fff1544:	6a2b      	ldr	r3, [r5, #32]
2fff1546:	f04f 0a00 	mov.w	sl, #0
2fff154a:	69ea      	ldr	r2, [r5, #28]
2fff154c:	9f07      	ldr	r7, [sp, #28]
2fff154e:	441a      	add	r2, r3
2fff1550:	4442      	add	r2, r8
2fff1552:	9b04      	ldr	r3, [sp, #16]
2fff1554:	1bd7      	subs	r7, r2, r7
2fff1556:	970c      	str	r7, [sp, #48]	@ 0x30
2fff1558:	f8dd b02c 	ldr.w	fp, [sp, #44]	@ 0x2c
2fff155c:	18d7      	adds	r7, r2, r3
2fff155e:	45bb      	cmp	fp, r7
2fff1560:	d818      	bhi.n	2fff1594 <stm32_i2c_init+0x378>
2fff1562:	f8dd b028 	ldr.w	fp, [sp, #40]	@ 0x28
2fff1566:	45bb      	cmp	fp, r7
2fff1568:	d314      	bcc.n	2fff1594 <stm32_i2c_init+0x378>
2fff156a:	9f06      	ldr	r7, [sp, #24]
2fff156c:	69ff      	ldr	r7, [r7, #28]
2fff156e:	429f      	cmp	r7, r3
2fff1570:	d810      	bhi.n	2fff1594 <stm32_i2c_init+0x378>
2fff1572:	429e      	cmp	r6, r3
2fff1574:	d20e      	bcs.n	2fff1594 <stm32_i2c_init+0x378>
2fff1576:	9f0c      	ldr	r7, [sp, #48]	@ 0x30
2fff1578:	f8dd b00c 	ldr.w	fp, [sp, #12]
2fff157c:	441f      	add	r7, r3
2fff157e:	2f00      	cmp	r7, #0
2fff1580:	bfb8      	it	lt
2fff1582:	427f      	neglt	r7, r7
2fff1584:	45bb      	cmp	fp, r7
2fff1586:	bfc1      	itttt	gt
2fff1588:	f88c 9003 	strbgt.w	r9, [ip, #3]
2fff158c:	4671      	movgt	r1, lr
2fff158e:	f88c a002 	strbgt.w	sl, [ip, #2]
2fff1592:	9703      	strgt	r7, [sp, #12]
2fff1594:	4403      	add	r3, r0
2fff1596:	f10a 0a01 	add.w	sl, sl, #1
2fff159a:	f5ba 7f80 	cmp.w	sl, #256	@ 0x100
2fff159e:	d1db      	bne.n	2fff1558 <stm32_i2c_init+0x33c>
2fff15a0:	4480      	add	r8, r0
2fff15a2:	f109 0901 	add.w	r9, r9, #1
2fff15a6:	f5b9 7f80 	cmp.w	r9, #256	@ 0x100
2fff15aa:	d1c2      	bne.n	2fff1532 <stm32_i2c_init+0x316>
2fff15ac:	4430      	add	r0, r6
2fff15ae:	f10e 0e01 	add.w	lr, lr, #1
2fff15b2:	f1be 0f10 	cmp.w	lr, #16
2fff15b6:	f10c 0c05 	add.w	ip, ip, #5
2fff15ba:	d1ad      	bne.n	2fff1518 <stm32_i2c_init+0x2fc>
2fff15bc:	1c4b      	adds	r3, r1, #1
2fff15be:	d101      	bne.n	2fff15c4 <stm32_i2c_init+0x3a8>
2fff15c0:	4821      	ldr	r0, [pc, #132]	@ (2fff1648 <stm32_i2c_init+0x42c>)
2fff15c2:	e768      	b.n	2fff1496 <stm32_i2c_init+0x27a>
2fff15c4:	eb01 0381 	add.w	r3, r1, r1, lsl #2
2fff15c8:	3388      	adds	r3, #136	@ 0x88
2fff15ca:	446b      	add	r3, sp
2fff15cc:	f813 6c4d 	ldrb.w	r6, [r3, #-77]
2fff15d0:	f813 2c4e 	ldrb.w	r2, [r3, #-78]
2fff15d4:	ea46 7601 	orr.w	r6, r6, r1, lsl #28
2fff15d8:	ea46 2602 	orr.w	r6, r6, r2, lsl #8
2fff15dc:	f813 2c50 	ldrb.w	r2, [r3, #-80]
2fff15e0:	f813 3c4f 	ldrb.w	r3, [r3, #-79]
2fff15e4:	0512      	lsls	r2, r2, #20
2fff15e6:	041b      	lsls	r3, r3, #16
2fff15e8:	f402 0270 	and.w	r2, r2, #15728640	@ 0xf00000
2fff15ec:	4316      	orrs	r6, r2
2fff15ee:	f403 2370 	and.w	r3, r3, #983040	@ 0xf0000
2fff15f2:	431e      	orrs	r6, r3
2fff15f4:	9b02      	ldr	r3, [sp, #8]
2fff15f6:	61e6      	str	r6, [r4, #28]
2fff15f8:	6223      	str	r3, [r4, #32]
2fff15fa:	e65c      	b.n	2fff12b6 <stm32_i2c_init+0x9a>
2fff15fc:	4813      	ldr	r0, [pc, #76]	@ (2fff164c <stm32_i2c_init+0x430>)
2fff15fe:	f7fc f90b 	bl	2ffed818 <tf_log>
2fff1602:	e622      	b.n	2fff124a <stm32_i2c_init+0x2e>
2fff1604:	6820      	ldr	r0, [r4, #0]
2fff1606:	2224      	movs	r2, #36	@ 0x24
2fff1608:	6122      	str	r2, [r4, #16]
2fff160a:	6802      	ldr	r2, [r0, #0]
2fff160c:	f022 0201 	bic.w	r2, r2, #1
2fff1610:	6002      	str	r2, [r0, #0]
2fff1612:	6820      	ldr	r0, [r4, #0]
2fff1614:	6802      	ldr	r2, [r0, #0]
2fff1616:	f422 5280 	bic.w	r2, r2, #4096	@ 0x1000
2fff161a:	6002      	str	r2, [r0, #0]
2fff161c:	6820      	ldr	r0, [r4, #0]
2fff161e:	6802      	ldr	r2, [r0, #0]
2fff1620:	4313      	orrs	r3, r2
2fff1622:	6003      	str	r3, [r0, #0]
2fff1624:	6822      	ldr	r2, [r4, #0]
2fff1626:	6813      	ldr	r3, [r2, #0]
2fff1628:	f043 0301 	orr.w	r3, r3, #1
2fff162c:	6013      	str	r3, [r2, #0]
2fff162e:	6121      	str	r1, [r4, #16]
2fff1630:	68a0      	ldr	r0, [r4, #8]
2fff1632:	7327      	strb	r7, [r4, #12]
2fff1634:	f7fd f936 	bl	2ffee8a4 <clk_disable>
2fff1638:	e607      	b.n	2fff124a <stm32_i2c_init+0x2e>
2fff163a:	f06f 0701 	mvn.w	r7, #1
2fff163e:	e604      	b.n	2fff124a <stm32_i2c_init+0x2e>
2fff1640:	3b9aca00 	.word	0x3b9aca00
2fff1644:	2fff5cc4 	.word	0x2fff5cc4
2fff1648:	2fff9115 	.word	0x2fff9115
2fff164c:	2fff916e 	.word	0x2fff916e

2fff1650 <stm32_i2c_is_device_ready>:
2fff1650:	e92d 4ff7 	stmdb	sp!, {r0, r1, r2, r4, r5, r6, r7, r8, r9, sl, fp, lr}
2fff1654:	461f      	mov	r7, r3
2fff1656:	6903      	ldr	r3, [r0, #16]
2fff1658:	4604      	mov	r4, r0
2fff165a:	468a      	mov	sl, r1
2fff165c:	4693      	mov	fp, r2
2fff165e:	2b20      	cmp	r3, #32
2fff1660:	f040 808a 	bne.w	2fff1778 <stm32_i2c_is_device_ready+0x128>
2fff1664:	7b05      	ldrb	r5, [r0, #12]
2fff1666:	2d00      	cmp	r5, #0
2fff1668:	f040 8086 	bne.w	2fff1778 <stm32_i2c_is_device_ready+0x128>
2fff166c:	6880      	ldr	r0, [r0, #8]
2fff166e:	f7fd f907 	bl	2ffee880 <clk_enable>
2fff1672:	6165      	str	r5, [r4, #20]
2fff1674:	2301      	movs	r3, #1
2fff1676:	7323      	strb	r3, [r4, #12]
2fff1678:	6823      	ldr	r3, [r4, #0]
2fff167a:	699d      	ldr	r5, [r3, #24]
2fff167c:	f415 4500 	ands.w	r5, r5, #32768	@ 0x8000
2fff1680:	d136      	bne.n	2fff16f0 <stm32_i2c_is_device_ready+0xa0>
2fff1682:	f3ca 0a09 	ubfx	sl, sl, #0, #10
2fff1686:	2324      	movs	r3, #36	@ 0x24
2fff1688:	6123      	str	r3, [r4, #16]
2fff168a:	f44f 737a 	mov.w	r3, #1000	@ 0x3e8
2fff168e:	435f      	muls	r7, r3
2fff1690:	61a5      	str	r5, [r4, #24]
2fff1692:	6823      	ldr	r3, [r4, #0]
2fff1694:	689a      	ldr	r2, [r3, #8]
2fff1696:	0552      	lsls	r2, r2, #21
2fff1698:	bf56      	itet	pl
2fff169a:	f04a 7200 	orrpl.w	r2, sl, #33554432	@ 0x2000000
2fff169e:	f44a 5220 	orrmi.w	r2, sl, #10240	@ 0x2800
2fff16a2:	f442 5200 	orrpl.w	r2, r2, #8192	@ 0x2000
2fff16a6:	605a      	str	r2, [r3, #4]
2fff16a8:	ee1e 0f10 	mrc	15, 0, r0, cr14, cr0, {0}
2fff16ac:	ec59 8f0e 	mrrc	15, 0, r8, r9, cr14
2fff16b0:	4a32      	ldr	r2, [pc, #200]	@ (2fff177c <stm32_i2c_is_device_ready+0x12c>)
2fff16b2:	2300      	movs	r3, #0
2fff16b4:	fba7 0100 	umull	r0, r1, r7, r0
2fff16b8:	4646      	mov	r6, r8
2fff16ba:	f001 eed4 	blx	2fff3464 <__aeabi_uldivmod>
2fff16be:	1986      	adds	r6, r0, r6
2fff16c0:	eb41 0809 	adc.w	r8, r1, r9
2fff16c4:	f8d4 9000 	ldr.w	r9, [r4]
2fff16c8:	f109 0c18 	add.w	ip, r9, #24
2fff16cc:	f8dc 2000 	ldr.w	r2, [ip]
2fff16d0:	f012 0230 	ands.w	r2, r2, #48	@ 0x30
2fff16d4:	d116      	bne.n	2fff1704 <stm32_i2c_is_device_ready+0xb4>
2fff16d6:	ec51 0f0e 	mrrc	15, 0, r0, r1, cr14
2fff16da:	4286      	cmp	r6, r0
2fff16dc:	eb78 0301 	sbcs.w	r3, r8, r1
2fff16e0:	d2f4      	bcs.n	2fff16cc <stm32_i2c_is_device_ready+0x7c>
2fff16e2:	69a3      	ldr	r3, [r4, #24]
2fff16e4:	6162      	str	r2, [r4, #20]
2fff16e6:	f043 0320 	orr.w	r3, r3, #32
2fff16ea:	61a3      	str	r3, [r4, #24]
2fff16ec:	2320      	movs	r3, #32
2fff16ee:	6123      	str	r3, [r4, #16]
2fff16f0:	2500      	movs	r5, #0
2fff16f2:	68a0      	ldr	r0, [r4, #8]
2fff16f4:	2300      	movs	r3, #0
2fff16f6:	7323      	strb	r3, [r4, #12]
2fff16f8:	f7fd f8d4 	bl	2ffee8a4 <clk_disable>
2fff16fc:	4628      	mov	r0, r5
2fff16fe:	b003      	add	sp, #12
2fff1700:	e8bd 8ff0 	ldmia.w	sp!, {r4, r5, r6, r7, r8, r9, sl, fp, pc}
2fff1704:	f8d9 2018 	ldr.w	r2, [r9, #24]
2fff1708:	e9cd 6800 	strd	r6, r8, [sp]
2fff170c:	f012 0210 	ands.w	r2, r2, #16
2fff1710:	d10a      	bne.n	2fff1728 <stm32_i2c_is_device_ready+0xd8>
2fff1712:	2120      	movs	r1, #32
2fff1714:	4620      	mov	r0, r4
2fff1716:	f003 f8a5 	bl	2fff4864 <i2c_wait_flag>
2fff171a:	2800      	cmp	r0, #0
2fff171c:	d1e8      	bne.n	2fff16f0 <stm32_i2c_is_device_ready+0xa0>
2fff171e:	f8c9 101c 	str.w	r1, [r9, #28]
2fff1722:	2501      	movs	r5, #1
2fff1724:	6121      	str	r1, [r4, #16]
2fff1726:	e7e4      	b.n	2fff16f2 <stm32_i2c_is_device_ready+0xa2>
2fff1728:	2200      	movs	r2, #0
2fff172a:	2120      	movs	r1, #32
2fff172c:	4620      	mov	r0, r4
2fff172e:	f003 f899 	bl	2fff4864 <i2c_wait_flag>
2fff1732:	4602      	mov	r2, r0
2fff1734:	2800      	cmp	r0, #0
2fff1736:	d1db      	bne.n	2fff16f0 <stm32_i2c_is_device_ready+0xa0>
2fff1738:	455d      	cmp	r5, fp
2fff173a:	f04f 0310 	mov.w	r3, #16
2fff173e:	f8c9 301c 	str.w	r3, [r9, #28]
2fff1742:	6823      	ldr	r3, [r4, #0]
2fff1744:	61d9      	str	r1, [r3, #28]
2fff1746:	d10d      	bne.n	2fff1764 <stm32_i2c_is_device_ready+0x114>
2fff1748:	6820      	ldr	r0, [r4, #0]
2fff174a:	6843      	ldr	r3, [r0, #4]
2fff174c:	f443 4380 	orr.w	r3, r3, #16384	@ 0x4000
2fff1750:	6043      	str	r3, [r0, #4]
2fff1752:	4620      	mov	r0, r4
2fff1754:	e9cd 6800 	strd	r6, r8, [sp]
2fff1758:	f003 f884 	bl	2fff4864 <i2c_wait_flag>
2fff175c:	2800      	cmp	r0, #0
2fff175e:	d1c7      	bne.n	2fff16f0 <stm32_i2c_is_device_ready+0xa0>
2fff1760:	6823      	ldr	r3, [r4, #0]
2fff1762:	61d9      	str	r1, [r3, #28]
2fff1764:	3501      	adds	r5, #1
2fff1766:	45ab      	cmp	fp, r5
2fff1768:	d893      	bhi.n	2fff1692 <stm32_i2c_is_device_ready+0x42>
2fff176a:	69a3      	ldr	r3, [r4, #24]
2fff176c:	f043 0320 	orr.w	r3, r3, #32
2fff1770:	61a3      	str	r3, [r4, #24]
2fff1772:	2300      	movs	r3, #0
2fff1774:	6163      	str	r3, [r4, #20]
2fff1776:	e7b9      	b.n	2fff16ec <stm32_i2c_is_device_ready+0x9c>
2fff1778:	2500      	movs	r5, #0
2fff177a:	e7bf      	b.n	2fff16fc <stm32_i2c_is_device_ready+0xac>
2fff177c:	000f4240 	.word	0x000f4240

2fff1780 <stm32_iwdg_refresh>:
2fff1780:	b510      	push	{r4, lr}
2fff1782:	4c0e      	ldr	r4, [pc, #56]	@ (2fff17bc <stm32_iwdg_refresh+0x3c>)
2fff1784:	6823      	ldr	r3, [r4, #0]
2fff1786:	b14b      	cbz	r3, 2fff179c <stm32_iwdg_refresh+0x1c>
2fff1788:	6860      	ldr	r0, [r4, #4]
2fff178a:	f7fd f879 	bl	2ffee880 <clk_enable>
2fff178e:	6823      	ldr	r3, [r4, #0]
2fff1790:	f64a 22aa 	movw	r2, #43690	@ 0xaaaa
2fff1794:	601a      	str	r2, [r3, #0]
2fff1796:	6860      	ldr	r0, [r4, #4]
2fff1798:	f7fd f884 	bl	2ffee8a4 <clk_disable>
2fff179c:	68e3      	ldr	r3, [r4, #12]
2fff179e:	b15b      	cbz	r3, 2fff17b8 <stm32_iwdg_refresh+0x38>
2fff17a0:	6920      	ldr	r0, [r4, #16]
2fff17a2:	f7fd f86d 	bl	2ffee880 <clk_enable>
2fff17a6:	68e3      	ldr	r3, [r4, #12]
2fff17a8:	f64a 22aa 	movw	r2, #43690	@ 0xaaaa
2fff17ac:	601a      	str	r2, [r3, #0]
2fff17ae:	6920      	ldr	r0, [r4, #16]
2fff17b0:	e8bd 4010 	ldmia.w	sp!, {r4, lr}
2fff17b4:	f7fd b876 	b.w	2ffee8a4 <clk_disable>
2fff17b8:	bd10      	pop	{r4, pc}
2fff17ba:	bf00      	nop
2fff17bc:	2fffbd88 	.word	0x2fffbd88

2fff17c0 <stm32_iwdg_init>:
2fff17c0:	e92d 47f0 	stmdb	sp!, {r4, r5, r6, r7, r8, r9, sl, lr}
2fff17c4:	b086      	sub	sp, #24
2fff17c6:	a801      	add	r0, sp, #4
2fff17c8:	f7fe f98e 	bl	2ffefae8 <fdt_get_address>
2fff17cc:	b918      	cbnz	r0, 2fff17d6 <stm32_iwdg_init+0x16>
2fff17ce:	f7fc f8bf 	bl	2ffed950 <console_flush>
2fff17d2:	f7f7 ee04 	blx	2ffe93dc <do_panic>
2fff17d6:	4a23      	ldr	r2, [pc, #140]	@ (2fff1864 <stm32_iwdg_init+0xa4>)
2fff17d8:	f04f 31ff 	mov.w	r1, #4294967295	@ 0xffffffff
2fff17dc:	4d22      	ldr	r5, [pc, #136]	@ (2fff1868 <stm32_iwdg_init+0xa8>)
2fff17de:	a802      	add	r0, sp, #8
2fff17e0:	f8df 9080 	ldr.w	r9, [pc, #128]	@ 2fff1864 <stm32_iwdg_init+0xa4>
2fff17e4:	f7fe fa28 	bl	2ffefc38 <dt_get_node>
2fff17e8:	ea40 74e0 	orr.w	r4, r0, r0, asr #31
2fff17ec:	f04f 080c 	mov.w	r8, #12
2fff17f0:	1c63      	adds	r3, r4, #1
2fff17f2:	d103      	bne.n	2fff17fc <stm32_iwdg_init+0x3c>
2fff17f4:	2000      	movs	r0, #0
2fff17f6:	b006      	add	sp, #24
2fff17f8:	e8bd 87f0 	ldmia.w	sp!, {r4, r5, r6, r7, r8, r9, sl, pc}
2fff17fc:	9802      	ldr	r0, [sp, #8]
2fff17fe:	f7fe fd5d 	bl	2fff02bc <stm32_iwdg_get_instance>
2fff1802:	fb08 f700 	mul.w	r7, r8, r0
2fff1806:	9b02      	ldr	r3, [sp, #8]
2fff1808:	4682      	mov	sl, r0
2fff180a:	19ee      	adds	r6, r5, r7
2fff180c:	51eb      	str	r3, [r5, r7]
2fff180e:	9b03      	ldr	r3, [sp, #12]
2fff1810:	6073      	str	r3, [r6, #4]
2fff1812:	f7fe fd67 	bl	2fff02e4 <stm32_iwdg_get_otp_config>
2fff1816:	9b05      	ldr	r3, [sp, #20]
2fff1818:	f010 0f01 	tst.w	r0, #1
2fff181c:	d006      	beq.n	2fff182c <stm32_iwdg_init+0x6c>
2fff181e:	b953      	cbnz	r3, 2fff1836 <stm32_iwdg_init+0x76>
2fff1820:	4812      	ldr	r0, [pc, #72]	@ (2fff186c <stm32_iwdg_init+0xac>)
2fff1822:	f10a 0101 	add.w	r1, sl, #1
2fff1826:	f7fb fff7 	bl	2ffed818 <tf_log>
2fff182a:	e7d0      	b.n	2fff17ce <stm32_iwdg_init+0xe>
2fff182c:	b95b      	cbnz	r3, 2fff1846 <stm32_iwdg_init+0x86>
2fff182e:	210c      	movs	r1, #12
2fff1830:	4630      	mov	r0, r6
2fff1832:	f7f7 eed4 	blx	2ffe95dc <zero_normalmem>
2fff1836:	4621      	mov	r1, r4
2fff1838:	464a      	mov	r2, r9
2fff183a:	a802      	add	r0, sp, #8
2fff183c:	f7fe f9fc 	bl	2ffefc38 <dt_get_node>
2fff1840:	ea40 74e0 	orr.w	r4, r0, r0, asr #31
2fff1844:	e7d4      	b.n	2fff17f0 <stm32_iwdg_init+0x30>
2fff1846:	59eb      	ldr	r3, [r5, r7]
2fff1848:	2b00      	cmp	r3, #0
2fff184a:	d0c0      	beq.n	2fff17ce <stm32_iwdg_init+0xe>
2fff184c:	6870      	ldr	r0, [r6, #4]
2fff184e:	f7fd f817 	bl	2ffee880 <clk_enable>
2fff1852:	59eb      	ldr	r3, [r5, r7]
2fff1854:	f64c 42cc 	movw	r2, #52428	@ 0xcccc
2fff1858:	601a      	str	r2, [r3, #0]
2fff185a:	6870      	ldr	r0, [r6, #4]
2fff185c:	f7fd f822 	bl	2ffee8a4 <clk_disable>
2fff1860:	e7e9      	b.n	2fff1836 <stm32_iwdg_init+0x76>
2fff1862:	bf00      	nop
2fff1864:	2fff91bd 	.word	0x2fff91bd
2fff1868:	2fffbd88 	.word	0x2fffbd88
2fff186c:	2fff91ce 	.word	0x2fff91ce

2fff1870 <dt_get_pmic_node>:
2fff1870:	b510      	push	{r4, lr}
2fff1872:	4c06      	ldr	r4, [pc, #24]	@ (2fff188c <dt_get_pmic_node+0x1c>)
2fff1874:	6823      	ldr	r3, [r4, #0]
2fff1876:	3304      	adds	r3, #4
2fff1878:	d105      	bne.n	2fff1886 <dt_get_pmic_node+0x16>
2fff187a:	4a05      	ldr	r2, [pc, #20]	@ (2fff1890 <dt_get_pmic_node+0x20>)
2fff187c:	f04f 31ff 	mov.w	r1, #4294967295	@ 0xffffffff
2fff1880:	f003 fd9a 	bl	2fff53b8 <fdt_node_offset_by_compatible>
2fff1884:	6020      	str	r0, [r4, #0]
2fff1886:	6820      	ldr	r0, [r4, #0]
2fff1888:	bd10      	pop	{r4, pc}
2fff188a:	bf00      	nop
2fff188c:	2fffa554 	.word	0x2fffa554
2fff1890:	2fff91f3 	.word	0x2fff91f3

2fff1894 <dt_pmic_status>:
2fff1894:	b513      	push	{r0, r1, r4, lr}
2fff1896:	4c0b      	ldr	r4, [pc, #44]	@ (2fff18c4 <dt_pmic_status+0x30>)
2fff1898:	6820      	ldr	r0, [r4, #0]
2fff189a:	f110 0f0f 	cmn.w	r0, #15
2fff189e:	d10c      	bne.n	2fff18ba <dt_pmic_status+0x26>
2fff18a0:	a801      	add	r0, sp, #4
2fff18a2:	f7fe f921 	bl	2ffefae8 <fdt_get_address>
2fff18a6:	b150      	cbz	r0, 2fff18be <dt_pmic_status+0x2a>
2fff18a8:	9801      	ldr	r0, [sp, #4]
2fff18aa:	f7ff ffe1 	bl	2fff1870 <dt_get_pmic_node>
2fff18ae:	2800      	cmp	r0, #0
2fff18b0:	bfd4      	ite	le
2fff18b2:	f04f 30ff 	movle.w	r0, #4294967295	@ 0xffffffff
2fff18b6:	2002      	movgt	r0, #2
2fff18b8:	6020      	str	r0, [r4, #0]
2fff18ba:	b002      	add	sp, #8
2fff18bc:	bd10      	pop	{r4, pc}
2fff18be:	f06f 0001 	mvn.w	r0, #1
2fff18c2:	e7fa      	b.n	2fff18ba <dt_pmic_status+0x26>
2fff18c4:	2fffa558 	.word	0x2fffa558

2fff18c8 <initialize_pmic_i2c>:
2fff18c8:	b570      	push	{r4, r5, r6, lr}
2fff18ca:	b092      	sub	sp, #72	@ 0x48
2fff18cc:	a801      	add	r0, sp, #4
2fff18ce:	f7fe f90b 	bl	2ffefae8 <fdt_get_address>
2fff18d2:	b940      	cbnz	r0, 2fff18e6 <initialize_pmic_i2c+0x1e>
2fff18d4:	f04f 31ff 	mov.w	r1, #4294967295	@ 0xffffffff
2fff18d8:	4837      	ldr	r0, [pc, #220]	@ (2fff19b8 <initialize_pmic_i2c+0xf0>)
2fff18da:	f7fb ff9d 	bl	2ffed818 <tf_log>
2fff18de:	f7fc f837 	bl	2ffed950 <console_flush>
2fff18e2:	f7f7 ed7c 	blx	2ffe93dc <do_panic>
2fff18e6:	4d35      	ldr	r5, [pc, #212]	@ (2fff19bc <initialize_pmic_i2c+0xf4>)
2fff18e8:	682b      	ldr	r3, [r5, #0]
2fff18ea:	3301      	adds	r3, #1
2fff18ec:	d11e      	bne.n	2fff192c <initialize_pmic_i2c+0x64>
2fff18ee:	9801      	ldr	r0, [sp, #4]
2fff18f0:	f7ff ffbe 	bl	2fff1870 <dt_get_pmic_node>
2fff18f4:	1e04      	subs	r4, r0, #0
2fff18f6:	db2a      	blt.n	2fff194e <initialize_pmic_i2c+0x86>
2fff18f8:	4a31      	ldr	r2, [pc, #196]	@ (2fff19c0 <initialize_pmic_i2c+0xf8>)
2fff18fa:	2300      	movs	r3, #0
2fff18fc:	9801      	ldr	r0, [sp, #4]
2fff18fe:	4621      	mov	r1, r4
2fff1900:	f003 fc26 	bl	2fff5150 <fdt_getprop>
2fff1904:	2800      	cmp	r0, #0
2fff1906:	d0e5      	beq.n	2fff18d4 <initialize_pmic_i2c+0xc>
2fff1908:	6803      	ldr	r3, [r0, #0]
2fff190a:	4a2e      	ldr	r2, [pc, #184]	@ (2fff19c4 <initialize_pmic_i2c+0xfc>)
2fff190c:	ba1b      	rev	r3, r3
2fff190e:	005b      	lsls	r3, r3, #1
2fff1910:	6013      	str	r3, [r2, #0]
2fff1912:	f5b3 3f80 	cmp.w	r3, #65536	@ 0x10000
2fff1916:	d302      	bcc.n	2fff191e <initialize_pmic_i2c+0x56>
2fff1918:	f06f 010e 	mvn.w	r1, #14
2fff191c:	e7dc      	b.n	2fff18d8 <initialize_pmic_i2c+0x10>
2fff191e:	9801      	ldr	r0, [sp, #4]
2fff1920:	4621      	mov	r1, r4
2fff1922:	f003 fcc2 	bl	2fff52aa <fdt_parent_offset>
2fff1926:	6028      	str	r0, [r5, #0]
2fff1928:	2800      	cmp	r0, #0
2fff192a:	dbd3      	blt.n	2fff18d4 <initialize_pmic_i2c+0xc>
2fff192c:	6829      	ldr	r1, [r5, #0]
2fff192e:	a802      	add	r0, sp, #8
2fff1930:	f7fe f93e 	bl	2ffefbb0 <dt_fill_device_info>
2fff1934:	9b02      	ldr	r3, [sp, #8]
2fff1936:	2b00      	cmp	r3, #0
2fff1938:	d0cc      	beq.n	2fff18d4 <initialize_pmic_i2c+0xc>
2fff193a:	6829      	ldr	r1, [r5, #0]
2fff193c:	2302      	movs	r3, #2
2fff193e:	9801      	ldr	r0, [sp, #4]
2fff1940:	aa06      	add	r2, sp, #24
2fff1942:	9305      	str	r3, [sp, #20]
2fff1944:	f7ff fc38 	bl	2fff11b8 <stm32_i2c_get_setup_from_fdt>
2fff1948:	1e01      	subs	r1, r0, #0
2fff194a:	dbc5      	blt.n	2fff18d8 <initialize_pmic_i2c+0x10>
2fff194c:	d003      	beq.n	2fff1956 <initialize_pmic_i2c+0x8e>
2fff194e:	2500      	movs	r5, #0
2fff1950:	4628      	mov	r0, r5
2fff1952:	b012      	add	sp, #72	@ 0x48
2fff1954:	bd70      	pop	{r4, r5, r6, pc}
2fff1956:	4c1c      	ldr	r4, [pc, #112]	@ (2fff19c8 <initialize_pmic_i2c+0x100>)
2fff1958:	2501      	movs	r5, #1
2fff195a:	9b02      	ldr	r3, [sp, #8]
2fff195c:	4e19      	ldr	r6, [pc, #100]	@ (2fff19c4 <initialize_pmic_i2c+0xfc>)
2fff195e:	4620      	mov	r0, r4
2fff1960:	6023      	str	r3, [r4, #0]
2fff1962:	9b05      	ldr	r3, [sp, #20]
2fff1964:	6121      	str	r1, [r4, #16]
2fff1966:	6063      	str	r3, [r4, #4]
2fff1968:	9b03      	ldr	r3, [sp, #12]
2fff196a:	e9cd 1108 	strd	r1, r1, [sp, #32]
2fff196e:	60a3      	str	r3, [r4, #8]
2fff1970:	6833      	ldr	r3, [r6, #0]
2fff1972:	e9cd 110a 	strd	r1, r1, [sp, #40]	@ 0x28
2fff1976:	910c      	str	r1, [sp, #48]	@ 0x30
2fff1978:	f88d 1044 	strb.w	r1, [sp, #68]	@ 0x44
2fff197c:	a906      	add	r1, sp, #24
2fff197e:	9306      	str	r3, [sp, #24]
2fff1980:	9507      	str	r5, [sp, #28]
2fff1982:	9510      	str	r5, [sp, #64]	@ 0x40
2fff1984:	f7ff fc4a 	bl	2fff121c <stm32_i2c_init>
2fff1988:	4602      	mov	r2, r0
2fff198a:	b120      	cbz	r0, 2fff1996 <initialize_pmic_i2c+0xce>
2fff198c:	6821      	ldr	r1, [r4, #0]
2fff198e:	480f      	ldr	r0, [pc, #60]	@ (2fff19cc <initialize_pmic_i2c+0x104>)
2fff1990:	f7fb ff42 	bl	2ffed818 <tf_log>
2fff1994:	e7a3      	b.n	2fff18de <initialize_pmic_i2c+0x16>
2fff1996:	8831      	ldrh	r1, [r6, #0]
2fff1998:	462a      	mov	r2, r5
2fff199a:	2319      	movs	r3, #25
2fff199c:	4620      	mov	r0, r4
2fff199e:	f7ff fe57 	bl	2fff1650 <stm32_i2c_is_device_ready>
2fff19a2:	4605      	mov	r5, r0
2fff19a4:	b918      	cbnz	r0, 2fff19ae <initialize_pmic_i2c+0xe6>
2fff19a6:	480a      	ldr	r0, [pc, #40]	@ (2fff19d0 <initialize_pmic_i2c+0x108>)
2fff19a8:	f7fb ff36 	bl	2ffed818 <tf_log>
2fff19ac:	e797      	b.n	2fff18de <initialize_pmic_i2c+0x16>
2fff19ae:	8831      	ldrh	r1, [r6, #0]
2fff19b0:	4620      	mov	r0, r4
2fff19b2:	f000 fa07 	bl	2fff1dc4 <stpmic1_bind_i2c>
2fff19b6:	e7cb      	b.n	2fff1950 <initialize_pmic_i2c+0x88>
2fff19b8:	2fff91fe 	.word	0x2fff91fe
2fff19bc:	2fffa550 	.word	0x2fffa550
2fff19c0:	2fff72ef 	.word	0x2fff72ef
2fff19c4:	2fffbda0 	.word	0x2fffbda0
2fff19c8:	2fffbda4 	.word	0x2fffbda4
2fff19cc:	2fff921c 	.word	0x2fff921c
2fff19d0:	2fff923c 	.word	0x2fff923c

2fff19d4 <initialize_pmic>:
2fff19d4:	e92d 47f3 	stmdb	sp!, {r0, r1, r4, r5, r6, r7, r8, r9, sl, lr}
2fff19d8:	f7ff ff76 	bl	2fff18c8 <initialize_pmic_i2c>
2fff19dc:	b1f0      	cbz	r0, 2fff1a1c <initialize_pmic+0x48>
2fff19de:	f7ff ff59 	bl	2fff1894 <dt_pmic_status>
2fff19e2:	a801      	add	r0, sp, #4
2fff19e4:	f7fe f880 	bl	2ffefae8 <fdt_get_address>
2fff19e8:	2800      	cmp	r0, #0
2fff19ea:	d043      	beq.n	2fff1a74 <initialize_pmic+0xa0>
2fff19ec:	9801      	ldr	r0, [sp, #4]
2fff19ee:	f7ff ff3f 	bl	2fff1870 <dt_get_pmic_node>
2fff19f2:	1e01      	subs	r1, r0, #0
2fff19f4:	db3e      	blt.n	2fff1a74 <initialize_pmic+0xa0>
2fff19f6:	4a2c      	ldr	r2, [pc, #176]	@ (2fff1aa8 <initialize_pmic+0xd4>)
2fff19f8:	9801      	ldr	r0, [sp, #4]
2fff19fa:	f003 fb24 	bl	2fff5046 <fdt_subnode_offset>
2fff19fe:	1e01      	subs	r1, r0, #0
2fff1a00:	db38      	blt.n	2fff1a74 <initialize_pmic+0xa0>
2fff1a02:	9801      	ldr	r0, [sp, #4]
2fff1a04:	f04f 0814 	mov.w	r8, #20
2fff1a08:	4f28      	ldr	r7, [pc, #160]	@ (2fff1aac <initialize_pmic+0xd8>)
2fff1a0a:	f003 fa30 	bl	2fff4e6e <fdt_first_subnode>
2fff1a0e:	4604      	mov	r4, r0
2fff1a10:	2c00      	cmp	r4, #0
2fff1a12:	da06      	bge.n	2fff1a22 <initialize_pmic+0x4e>
2fff1a14:	f003 f858 	bl	2fff4ac8 <stpmic1_powerctrl_on>
2fff1a18:	2800      	cmp	r0, #0
2fff1a1a:	db2b      	blt.n	2fff1a74 <initialize_pmic+0xa0>
2fff1a1c:	b002      	add	sp, #8
2fff1a1e:	e8bd 87f0 	ldmia.w	sp!, {r4, r5, r6, r7, r8, r9, sl, pc}
2fff1a22:	9801      	ldr	r0, [sp, #4]
2fff1a24:	2200      	movs	r2, #0
2fff1a26:	4621      	mov	r1, r4
2fff1a28:	2500      	movs	r5, #0
2fff1a2a:	f003 fa9e 	bl	2fff4f6a <fdt_get_name>
2fff1a2e:	4606      	mov	r6, r0
2fff1a30:	fb08 f305 	mul.w	r3, r8, r5
2fff1a34:	4631      	mov	r1, r6
2fff1a36:	f857 9003 	ldr.w	r9, [r7, r3]
2fff1a3a:	eb03 0a07 	add.w	sl, r3, r7
2fff1a3e:	4648      	mov	r0, r9
2fff1a40:	f003 fdfe 	bl	2fff5640 <strcmp>
2fff1a44:	b138      	cbz	r0, 2fff1a56 <initialize_pmic+0x82>
2fff1a46:	3501      	adds	r5, #1
2fff1a48:	2d0e      	cmp	r5, #14
2fff1a4a:	d1f1      	bne.n	2fff1a30 <initialize_pmic+0x5c>
2fff1a4c:	4818      	ldr	r0, [pc, #96]	@ (2fff1ab0 <initialize_pmic+0xdc>)
2fff1a4e:	f44f 71d1 	mov.w	r1, #418	@ 0x1a2
2fff1a52:	f001 fe6b 	bl	2fff372c <__assert>
2fff1a56:	4621      	mov	r1, r4
2fff1a58:	4650      	mov	r0, sl
2fff1a5a:	f7fd ff05 	bl	2ffef868 <regulator_register>
2fff1a5e:	4605      	mov	r5, r0
2fff1a60:	b160      	cbz	r0, 2fff1a7c <initialize_pmic+0xa8>
2fff1a62:	4914      	ldr	r1, [pc, #80]	@ (2fff1ab4 <initialize_pmic+0xe0>)
2fff1a64:	4633      	mov	r3, r6
2fff1a66:	4814      	ldr	r0, [pc, #80]	@ (2fff1ab8 <initialize_pmic+0xe4>)
2fff1a68:	f240 12a7 	movw	r2, #423	@ 0x1a7
2fff1a6c:	f7fb fed4 	bl	2ffed818 <tf_log>
2fff1a70:	2d00      	cmp	r5, #0
2fff1a72:	dacf      	bge.n	2fff1a14 <initialize_pmic+0x40>
2fff1a74:	f7fb ff6c 	bl	2ffed950 <console_flush>
2fff1a78:	f7f7 ecb0 	blx	2ffe93dc <do_panic>
2fff1a7c:	4a0f      	ldr	r2, [pc, #60]	@ (2fff1abc <initialize_pmic+0xe8>)
2fff1a7e:	4603      	mov	r3, r0
2fff1a80:	9801      	ldr	r0, [sp, #4]
2fff1a82:	4621      	mov	r1, r4
2fff1a84:	f003 fb64 	bl	2fff5150 <fdt_getprop>
2fff1a88:	b140      	cbz	r0, 2fff1a9c <initialize_pmic+0xc8>
2fff1a8a:	4648      	mov	r0, r9
2fff1a8c:	f003 f84c 	bl	2fff4b28 <stpmic1_regulator_mask_reset_set>
2fff1a90:	4605      	mov	r5, r0
2fff1a92:	b118      	cbz	r0, 2fff1a9c <initialize_pmic+0xc8>
2fff1a94:	480a      	ldr	r0, [pc, #40]	@ (2fff1ac0 <initialize_pmic+0xec>)
2fff1a96:	f7fb febf 	bl	2ffed818 <tf_log>
2fff1a9a:	e7e9      	b.n	2fff1a70 <initialize_pmic+0x9c>
2fff1a9c:	9801      	ldr	r0, [sp, #4]
2fff1a9e:	4621      	mov	r1, r4
2fff1aa0:	f003 f9f8 	bl	2fff4e94 <fdt_next_subnode>
2fff1aa4:	4604      	mov	r4, r0
2fff1aa6:	e7b3      	b.n	2fff1a10 <initialize_pmic+0x3c>
2fff1aa8:	2fff9253 	.word	0x2fff9253
2fff1aac:	2fff5d24 	.word	0x2fff5d24
2fff1ab0:	2fff925e 	.word	0x2fff925e
2fff1ab4:	2fff92d4 	.word	0x2fff92d4
2fff1ab8:	2fff8b4e 	.word	0x2fff8b4e
2fff1abc:	2fff927d 	.word	0x2fff927d
2fff1ac0:	2fff928b 	.word	0x2fff928b

2fff1ac4 <print_pmic_info_and_debug>:
2fff1ac4:	b507      	push	{r0, r1, r2, lr}
2fff1ac6:	a801      	add	r0, sp, #4
2fff1ac8:	f003 f852 	bl	2fff4b70 <stpmic1_get_version>
2fff1acc:	b130      	cbz	r0, 2fff1adc <print_pmic_info_and_debug+0x18>
2fff1ace:	4807      	ldr	r0, [pc, #28]	@ (2fff1aec <print_pmic_info_and_debug+0x28>)
2fff1ad0:	f7fb fea2 	bl	2ffed818 <tf_log>
2fff1ad4:	f7fb ff3c 	bl	2ffed950 <console_flush>
2fff1ad8:	f7f7 ec80 	blx	2ffe93dc <do_panic>
2fff1adc:	9901      	ldr	r1, [sp, #4]
2fff1ade:	4804      	ldr	r0, [pc, #16]	@ (2fff1af0 <print_pmic_info_and_debug+0x2c>)
2fff1ae0:	f7fb fe9a 	bl	2ffed818 <tf_log>
2fff1ae4:	b003      	add	sp, #12
2fff1ae6:	f85d fb04 	ldr.w	pc, [sp], #4
2fff1aea:	bf00      	nop
2fff1aec:	2fff92a3 	.word	0x2fff92a3
2fff1af0:	2fff92bb 	.word	0x2fff92bb

2fff1af4 <get_regulator_data>:
2fff1af4:	e92d 43f8 	stmdb	sp!, {r3, r4, r5, r6, r7, r8, r9, lr}
2fff1af8:	4605      	mov	r5, r0
2fff1afa:	4e0e      	ldr	r6, [pc, #56]	@ (2fff1b34 <get_regulator_data+0x40>)
2fff1afc:	2400      	movs	r4, #0
2fff1afe:	f04f 0914 	mov.w	r9, #20
2fff1b02:	fb09 f304 	mul.w	r3, r9, r4
2fff1b06:	58f7      	ldr	r7, [r6, r3]
2fff1b08:	eb03 0806 	add.w	r8, r3, r6
2fff1b0c:	4638      	mov	r0, r7
2fff1b0e:	f003 fdb7 	bl	2fff5680 <strlen>
2fff1b12:	4602      	mov	r2, r0
2fff1b14:	4639      	mov	r1, r7
2fff1b16:	4628      	mov	r0, r5
2fff1b18:	f003 fdba 	bl	2fff5690 <strncmp>
2fff1b1c:	b130      	cbz	r0, 2fff1b2c <get_regulator_data+0x38>
2fff1b1e:	3401      	adds	r4, #1
2fff1b20:	2c0e      	cmp	r4, #14
2fff1b22:	d1ee      	bne.n	2fff1b02 <get_regulator_data+0xe>
2fff1b24:	f7fb ff14 	bl	2ffed950 <console_flush>
2fff1b28:	f7f7 ec58 	blx	2ffe93dc <do_panic>
2fff1b2c:	4640      	mov	r0, r8
2fff1b2e:	e8bd 83f8 	ldmia.w	sp!, {r3, r4, r5, r6, r7, r8, r9, pc}
2fff1b32:	bf00      	nop
2fff1b34:	2fff5e5c 	.word	0x2fff5e5c

2fff1b38 <stpmic1_regulator_levels_mv>:
2fff1b38:	b5f8      	push	{r3, r4, r5, r6, r7, lr}
2fff1b3a:	4607      	mov	r7, r0
2fff1b3c:	460e      	mov	r6, r1
2fff1b3e:	4615      	mov	r5, r2
2fff1b40:	f7ff ffd8 	bl	2fff1af4 <get_regulator_data>
2fff1b44:	4909      	ldr	r1, [pc, #36]	@ (2fff1b6c <stpmic1_regulator_levels_mv+0x34>)
2fff1b46:	4604      	mov	r4, r0
2fff1b48:	2205      	movs	r2, #5
2fff1b4a:	4638      	mov	r0, r7
2fff1b4c:	f003 fda0 	bl	2fff5690 <strncmp>
2fff1b50:	b940      	cbnz	r0, 2fff1b64 <stpmic1_regulator_levels_mv+0x2c>
2fff1b52:	4b07      	ldr	r3, [pc, #28]	@ (2fff1b70 <stpmic1_regulator_levels_mv+0x38>)
2fff1b54:	781b      	ldrb	r3, [r3, #0]
2fff1b56:	b12b      	cbz	r3, 2fff1b64 <stpmic1_regulator_levels_mv+0x2c>
2fff1b58:	2301      	movs	r3, #1
2fff1b5a:	602b      	str	r3, [r5, #0]
2fff1b5c:	4b05      	ldr	r3, [pc, #20]	@ (2fff1b74 <stpmic1_regulator_levels_mv+0x3c>)
2fff1b5e:	6033      	str	r3, [r6, #0]
2fff1b60:	2000      	movs	r0, #0
2fff1b62:	bdf8      	pop	{r3, r4, r5, r6, r7, pc}
2fff1b64:	7a23      	ldrb	r3, [r4, #8]
2fff1b66:	602b      	str	r3, [r5, #0]
2fff1b68:	6863      	ldr	r3, [r4, #4]
2fff1b6a:	e7f8      	b.n	2fff1b5e <stpmic1_regulator_levels_mv+0x26>
2fff1b6c:	2fff81b7 	.word	0x2fff81b7
2fff1b70:	2fffc3f6 	.word	0x2fffc3f6
2fff1b74:	2fff6336 	.word	0x2fff6336

2fff1b78 <stpmic1_register_read>:
2fff1b78:	b51f      	push	{r0, r1, r2, r3, r4, lr}
2fff1b7a:	2319      	movs	r3, #25
2fff1b7c:	9302      	str	r3, [sp, #8]
2fff1b7e:	2301      	movs	r3, #1
2fff1b80:	e9cd 1300 	strd	r1, r3, [sp]
2fff1b84:	4904      	ldr	r1, [pc, #16]	@ (2fff1b98 <stpmic1_register_read+0x20>)
2fff1b86:	4602      	mov	r2, r0
2fff1b88:	4804      	ldr	r0, [pc, #16]	@ (2fff1b9c <stpmic1_register_read+0x24>)
2fff1b8a:	8809      	ldrh	r1, [r1, #0]
2fff1b8c:	6800      	ldr	r0, [r0, #0]
2fff1b8e:	f002 ff21 	bl	2fff49d4 <stm32_i2c_mem_read>
2fff1b92:	b005      	add	sp, #20
2fff1b94:	f85d fb04 	ldr.w	pc, [sp], #4
2fff1b98:	2fffc102 	.word	0x2fffc102
2fff1b9c:	2fffbdc8 	.word	0x2fffbdc8

2fff1ba0 <stpmic1_regulator_voltage_get>:
2fff1ba0:	b537      	push	{r0, r1, r2, r4, r5, lr}
2fff1ba2:	4604      	mov	r4, r0
2fff1ba4:	f7ff ffa6 	bl	2fff1af4 <get_regulator_data>
2fff1ba8:	491c      	ldr	r1, [pc, #112]	@ (2fff1c1c <stpmic1_regulator_voltage_get+0x7c>)
2fff1baa:	4605      	mov	r5, r0
2fff1bac:	2205      	movs	r2, #5
2fff1bae:	4620      	mov	r0, r4
2fff1bb0:	f003 fd6e 	bl	2fff5690 <strncmp>
2fff1bb4:	b928      	cbnz	r0, 2fff1bc2 <stpmic1_regulator_voltage_get+0x22>
2fff1bb6:	4b1a      	ldr	r3, [pc, #104]	@ (2fff1c20 <stpmic1_regulator_voltage_get+0x80>)
2fff1bb8:	781b      	ldrb	r3, [r3, #0]
2fff1bba:	b113      	cbz	r3, 2fff1bc2 <stpmic1_regulator_voltage_get+0x22>
2fff1bbc:	2000      	movs	r0, #0
2fff1bbe:	b003      	add	sp, #12
2fff1bc0:	bd30      	pop	{r4, r5, pc}
2fff1bc2:	4918      	ldr	r1, [pc, #96]	@ (2fff1c24 <stpmic1_regulator_voltage_get+0x84>)
2fff1bc4:	2204      	movs	r2, #4
2fff1bc6:	4620      	mov	r0, r4
2fff1bc8:	f003 fd62 	bl	2fff5690 <strncmp>
2fff1bcc:	b318      	cbz	r0, 2fff1c16 <stpmic1_regulator_voltage_get+0x76>
2fff1bce:	4916      	ldr	r1, [pc, #88]	@ (2fff1c28 <stpmic1_regulator_voltage_get+0x88>)
2fff1bd0:	2203      	movs	r2, #3
2fff1bd2:	4620      	mov	r0, r4
2fff1bd4:	f003 fd5c 	bl	2fff5690 <strncmp>
2fff1bd8:	2800      	cmp	r0, #0
2fff1bda:	d1ef      	bne.n	2fff1bbc <stpmic1_regulator_voltage_get+0x1c>
2fff1bdc:	4913      	ldr	r1, [pc, #76]	@ (2fff1c2c <stpmic1_regulator_voltage_get+0x8c>)
2fff1bde:	2205      	movs	r2, #5
2fff1be0:	4620      	mov	r0, r4
2fff1be2:	f003 fd55 	bl	2fff5690 <strncmp>
2fff1be6:	2800      	cmp	r0, #0
2fff1be8:	d0e8      	beq.n	2fff1bbc <stpmic1_regulator_voltage_get+0x1c>
2fff1bea:	247c      	movs	r4, #124	@ 0x7c
2fff1bec:	7a68      	ldrb	r0, [r5, #9]
2fff1bee:	f10d 0107 	add.w	r1, sp, #7
2fff1bf2:	f7ff ffc1 	bl	2fff1b78 <stpmic1_register_read>
2fff1bf6:	2800      	cmp	r0, #0
2fff1bf8:	dbe1      	blt.n	2fff1bbe <stpmic1_regulator_voltage_get+0x1e>
2fff1bfa:	f89d 3007 	ldrb.w	r3, [sp, #7]
2fff1bfe:	401c      	ands	r4, r3
2fff1c00:	7a2b      	ldrb	r3, [r5, #8]
2fff1c02:	08a2      	lsrs	r2, r4, #2
2fff1c04:	ebb3 0f94 	cmp.w	r3, r4, lsr #2
2fff1c08:	bf32      	itee	cc
2fff1c0a:	f06f 0021 	mvncc.w	r0, #33	@ 0x21
2fff1c0e:	686b      	ldrcs	r3, [r5, #4]
2fff1c10:	f833 0012 	ldrhcs.w	r0, [r3, r2, lsl #1]
2fff1c14:	e7d3      	b.n	2fff1bbe <stpmic1_regulator_voltage_get+0x1e>
2fff1c16:	24fc      	movs	r4, #252	@ 0xfc
2fff1c18:	e7e8      	b.n	2fff1bec <stpmic1_regulator_voltage_get+0x4c>
2fff1c1a:	bf00      	nop
2fff1c1c:	2fff81b7 	.word	0x2fff81b7
2fff1c20:	2fffc3f6 	.word	0x2fffc3f6
2fff1c24:	2fff931d 	.word	0x2fff931d
2fff1c28:	2fff9322 	.word	0x2fff9322
2fff1c2c:	2fff92f8 	.word	0x2fff92f8

2fff1c30 <stpmic1_register_write>:
2fff1c30:	b530      	push	{r4, r5, lr}
2fff1c32:	b089      	sub	sp, #36	@ 0x24
2fff1c34:	f10d 0217 	add.w	r2, sp, #23
2fff1c38:	2319      	movs	r3, #25
2fff1c3a:	9200      	str	r2, [sp, #0]
2fff1c3c:	4604      	mov	r4, r0
2fff1c3e:	f88d 1017 	strb.w	r1, [sp, #23]
2fff1c42:	4602      	mov	r2, r0
2fff1c44:	4910      	ldr	r1, [pc, #64]	@ (2fff1c88 <stpmic1_register_write+0x58>)
2fff1c46:	4811      	ldr	r0, [pc, #68]	@ (2fff1c8c <stpmic1_register_write+0x5c>)
2fff1c48:	9302      	str	r3, [sp, #8]
2fff1c4a:	2301      	movs	r3, #1
2fff1c4c:	9301      	str	r3, [sp, #4]
2fff1c4e:	8809      	ldrh	r1, [r1, #0]
2fff1c50:	6800      	ldr	r0, [r0, #0]
2fff1c52:	f002 feb1 	bl	2fff49b8 <stm32_i2c_mem_write>
2fff1c56:	4605      	mov	r5, r0
2fff1c58:	b990      	cbnz	r0, 2fff1c80 <stpmic1_register_write+0x50>
2fff1c5a:	2c1b      	cmp	r4, #27
2fff1c5c:	d010      	beq.n	2fff1c80 <stpmic1_register_write+0x50>
2fff1c5e:	2c40      	cmp	r4, #64	@ 0x40
2fff1c60:	d80e      	bhi.n	2fff1c80 <stpmic1_register_write+0x50>
2fff1c62:	f10d 011f 	add.w	r1, sp, #31
2fff1c66:	4620      	mov	r0, r4
2fff1c68:	f7ff ff86 	bl	2fff1b78 <stpmic1_register_read>
2fff1c6c:	b938      	cbnz	r0, 2fff1c7e <stpmic1_register_write+0x4e>
2fff1c6e:	f89d 201f 	ldrb.w	r2, [sp, #31]
2fff1c72:	f89d 3017 	ldrb.w	r3, [sp, #23]
2fff1c76:	429a      	cmp	r2, r3
2fff1c78:	d002      	beq.n	2fff1c80 <stpmic1_register_write+0x50>
2fff1c7a:	f06f 0004 	mvn.w	r0, #4
2fff1c7e:	4605      	mov	r5, r0
2fff1c80:	4628      	mov	r0, r5
2fff1c82:	b009      	add	sp, #36	@ 0x24
2fff1c84:	bd30      	pop	{r4, r5, pc}
2fff1c86:	bf00      	nop
2fff1c88:	2fffc102 	.word	0x2fffc102
2fff1c8c:	2fffbdc8 	.word	0x2fffbdc8

2fff1c90 <stpmic1_regulator_voltage_set>:
2fff1c90:	b570      	push	{r4, r5, r6, lr}
2fff1c92:	4604      	mov	r4, r0
2fff1c94:	460e      	mov	r6, r1
2fff1c96:	f7ff ff2d 	bl	2fff1af4 <get_regulator_data>
2fff1c9a:	7a02      	ldrb	r2, [r0, #8]
2fff1c9c:	2300      	movs	r3, #0
2fff1c9e:	b2dd      	uxtb	r5, r3
2fff1ca0:	4295      	cmp	r5, r2
2fff1ca2:	d303      	bcc.n	2fff1cac <stpmic1_regulator_voltage_set+0x1c>
2fff1ca4:	f7fb fe54 	bl	2ffed950 <console_flush>
2fff1ca8:	f7f7 eb98 	blx	2ffe93dc <do_panic>
2fff1cac:	6841      	ldr	r1, [r0, #4]
2fff1cae:	f831 1013 	ldrh.w	r1, [r1, r3, lsl #1]
2fff1cb2:	3301      	adds	r3, #1
2fff1cb4:	428e      	cmp	r6, r1
2fff1cb6:	d1f2      	bne.n	2fff1c9e <stpmic1_regulator_voltage_set+0xe>
2fff1cb8:	4620      	mov	r0, r4
2fff1cba:	f7ff ff1b 	bl	2fff1af4 <get_regulator_data>
2fff1cbe:	4915      	ldr	r1, [pc, #84]	@ (2fff1d14 <stpmic1_regulator_voltage_set+0x84>)
2fff1cc0:	4606      	mov	r6, r0
2fff1cc2:	2205      	movs	r2, #5
2fff1cc4:	4620      	mov	r0, r4
2fff1cc6:	f003 fce3 	bl	2fff5690 <strncmp>
2fff1cca:	b1d0      	cbz	r0, 2fff1d02 <stpmic1_regulator_voltage_set+0x72>
2fff1ccc:	4912      	ldr	r1, [pc, #72]	@ (2fff1d18 <stpmic1_regulator_voltage_set+0x88>)
2fff1cce:	2204      	movs	r2, #4
2fff1cd0:	4620      	mov	r0, r4
2fff1cd2:	f003 fcdd 	bl	2fff5690 <strncmp>
2fff1cd6:	b1d0      	cbz	r0, 2fff1d0e <stpmic1_regulator_voltage_set+0x7e>
2fff1cd8:	4910      	ldr	r1, [pc, #64]	@ (2fff1d1c <stpmic1_regulator_voltage_set+0x8c>)
2fff1cda:	2203      	movs	r2, #3
2fff1cdc:	4620      	mov	r0, r4
2fff1cde:	f003 fcd7 	bl	2fff5690 <strncmp>
2fff1ce2:	b990      	cbnz	r0, 2fff1d0a <stpmic1_regulator_voltage_set+0x7a>
2fff1ce4:	490e      	ldr	r1, [pc, #56]	@ (2fff1d20 <stpmic1_regulator_voltage_set+0x90>)
2fff1ce6:	2205      	movs	r2, #5
2fff1ce8:	4620      	mov	r0, r4
2fff1cea:	f003 fcd1 	bl	2fff5690 <strncmp>
2fff1cee:	b160      	cbz	r0, 2fff1d0a <stpmic1_regulator_voltage_set+0x7a>
2fff1cf0:	227c      	movs	r2, #124	@ 0x7c
2fff1cf2:	00a9      	lsls	r1, r5, #2
2fff1cf4:	7a70      	ldrb	r0, [r6, #9]
2fff1cf6:	f001 01fc 	and.w	r1, r1, #252	@ 0xfc
2fff1cfa:	e8bd 4070 	ldmia.w	sp!, {r4, r5, r6, lr}
2fff1cfe:	f002 becc 	b.w	2fff4a9a <stpmic1_register_update>
2fff1d02:	4b08      	ldr	r3, [pc, #32]	@ (2fff1d24 <stpmic1_regulator_voltage_set+0x94>)
2fff1d04:	781b      	ldrb	r3, [r3, #0]
2fff1d06:	2b00      	cmp	r3, #0
2fff1d08:	d0e0      	beq.n	2fff1ccc <stpmic1_regulator_voltage_set+0x3c>
2fff1d0a:	2000      	movs	r0, #0
2fff1d0c:	bd70      	pop	{r4, r5, r6, pc}
2fff1d0e:	22fc      	movs	r2, #252	@ 0xfc
2fff1d10:	e7ef      	b.n	2fff1cf2 <stpmic1_regulator_voltage_set+0x62>
2fff1d12:	bf00      	nop
2fff1d14:	2fff81b7 	.word	0x2fff81b7
2fff1d18:	2fff931d 	.word	0x2fff931d
2fff1d1c:	2fff9322 	.word	0x2fff9322
2fff1d20:	2fff92f8 	.word	0x2fff92f8
2fff1d24:	2fffc3f6 	.word	0x2fffc3f6

2fff1d28 <stpmic1_regulator_sink_mode_set>:
2fff1d28:	b508      	push	{r3, lr}
2fff1d2a:	2205      	movs	r2, #5
2fff1d2c:	4908      	ldr	r1, [pc, #32]	@ (2fff1d50 <stpmic1_regulator_sink_mode_set+0x28>)
2fff1d2e:	f003 fcaf 	bl	2fff5690 <strncmp>
2fff1d32:	b948      	cbnz	r0, 2fff1d48 <stpmic1_regulator_sink_mode_set+0x20>
2fff1d34:	4b07      	ldr	r3, [pc, #28]	@ (2fff1d54 <stpmic1_regulator_sink_mode_set+0x2c>)
2fff1d36:	2201      	movs	r2, #1
2fff1d38:	217c      	movs	r1, #124	@ 0x7c
2fff1d3a:	2027      	movs	r0, #39	@ 0x27
2fff1d3c:	701a      	strb	r2, [r3, #0]
2fff1d3e:	22fc      	movs	r2, #252	@ 0xfc
2fff1d40:	e8bd 4008 	ldmia.w	sp!, {r3, lr}
2fff1d44:	f002 bea9 	b.w	2fff4a9a <stpmic1_register_update>
2fff1d48:	f04f 30ff 	mov.w	r0, #4294967295	@ 0xffffffff
2fff1d4c:	bd08      	pop	{r3, pc}
2fff1d4e:	bf00      	nop
2fff1d50:	2fff81b7 	.word	0x2fff81b7
2fff1d54:	2fffc3f6 	.word	0x2fffc3f6

2fff1d58 <stpmic1_regulator_bypass_mode_set>:
2fff1d58:	b508      	push	{r3, lr}
2fff1d5a:	2205      	movs	r2, #5
2fff1d5c:	4908      	ldr	r1, [pc, #32]	@ (2fff1d80 <stpmic1_regulator_bypass_mode_set+0x28>)
2fff1d5e:	f003 fc97 	bl	2fff5690 <strncmp>
2fff1d62:	b948      	cbnz	r0, 2fff1d78 <stpmic1_regulator_bypass_mode_set+0x20>
2fff1d64:	4b07      	ldr	r3, [pc, #28]	@ (2fff1d84 <stpmic1_regulator_bypass_mode_set+0x2c>)
2fff1d66:	2201      	movs	r2, #1
2fff1d68:	2180      	movs	r1, #128	@ 0x80
2fff1d6a:	2027      	movs	r0, #39	@ 0x27
2fff1d6c:	701a      	strb	r2, [r3, #0]
2fff1d6e:	22fc      	movs	r2, #252	@ 0xfc
2fff1d70:	e8bd 4008 	ldmia.w	sp!, {r3, lr}
2fff1d74:	f002 be91 	b.w	2fff4a9a <stpmic1_register_update>
2fff1d78:	f04f 30ff 	mov.w	r0, #4294967295	@ 0xffffffff
2fff1d7c:	bd08      	pop	{r3, pc}
2fff1d7e:	bf00      	nop
2fff1d80:	2fff81b7 	.word	0x2fff81b7
2fff1d84:	2fffc3f6 	.word	0x2fffc3f6

2fff1d88 <stpmic1_active_discharge_mode_set>:
2fff1d88:	b510      	push	{r4, lr}
2fff1d8a:	2208      	movs	r2, #8
2fff1d8c:	490b      	ldr	r1, [pc, #44]	@ (2fff1dbc <stpmic1_active_discharge_mode_set+0x34>)
2fff1d8e:	4604      	mov	r4, r0
2fff1d90:	f003 fc7e 	bl	2fff5690 <strncmp>
2fff1d94:	b930      	cbnz	r0, 2fff1da4 <stpmic1_active_discharge_mode_set+0x1c>
2fff1d96:	2210      	movs	r2, #16
2fff1d98:	e8bd 4010 	ldmia.w	sp!, {r4, lr}
2fff1d9c:	4611      	mov	r1, r2
2fff1d9e:	2040      	movs	r0, #64	@ 0x40
2fff1da0:	f002 be7b 	b.w	2fff4a9a <stpmic1_register_update>
2fff1da4:	4906      	ldr	r1, [pc, #24]	@ (2fff1dc0 <stpmic1_active_discharge_mode_set+0x38>)
2fff1da6:	2208      	movs	r2, #8
2fff1da8:	4620      	mov	r0, r4
2fff1daa:	f003 fc71 	bl	2fff5690 <strncmp>
2fff1dae:	b908      	cbnz	r0, 2fff1db4 <stpmic1_active_discharge_mode_set+0x2c>
2fff1db0:	2220      	movs	r2, #32
2fff1db2:	e7f1      	b.n	2fff1d98 <stpmic1_active_discharge_mode_set+0x10>
2fff1db4:	f04f 30ff 	mov.w	r0, #4294967295	@ 0xffffffff
2fff1db8:	bd10      	pop	{r4, pc}
2fff1dba:	bf00      	nop
2fff1dbc:	2fff930d 	.word	0x2fff930d
2fff1dc0:	2fff9315 	.word	0x2fff9315

2fff1dc4 <stpmic1_bind_i2c>:
2fff1dc4:	4b02      	ldr	r3, [pc, #8]	@ (2fff1dd0 <stpmic1_bind_i2c+0xc>)
2fff1dc6:	6018      	str	r0, [r3, #0]
2fff1dc8:	4b02      	ldr	r3, [pc, #8]	@ (2fff1dd4 <stpmic1_bind_i2c+0x10>)
2fff1dca:	8019      	strh	r1, [r3, #0]
2fff1dcc:	4770      	bx	lr
2fff1dce:	bf00      	nop
2fff1dd0:	2fffbdc8 	.word	0x2fffbdc8
2fff1dd4:	2fffc102 	.word	0x2fffc102

2fff1dd8 <stm32mp_reset_assert>:
2fff1dd8:	e92d 43f8 	stmdb	sp!, {r3, r4, r5, r6, r7, r8, r9, lr}
2fff1ddc:	4605      	mov	r5, r0
2fff1dde:	f000 031f 	and.w	r3, r0, #31
2fff1de2:	2601      	movs	r6, #1
2fff1de4:	096d      	lsrs	r5, r5, #5
2fff1de6:	460c      	mov	r4, r1
2fff1de8:	409e      	lsls	r6, r3
2fff1dea:	f002 f9aa 	bl	2fff4142 <stm32mp_rcc_base>
2fff1dee:	eb00 0785 	add.w	r7, r0, r5, lsl #2
2fff1df2:	f840 6025 	str.w	r6, [r0, r5, lsl #2]
2fff1df6:	b184      	cbz	r4, 2fff1e1a <stm32mp_reset_assert+0x42>
2fff1df8:	ee1e 0f10 	mrc	15, 0, r0, cr14, cr0, {0}
2fff1dfc:	ec59 8f0e 	mrrc	15, 0, r8, r9, cr14
2fff1e00:	4a0c      	ldr	r2, [pc, #48]	@ (2fff1e34 <stm32mp_reset_assert+0x5c>)
2fff1e02:	2300      	movs	r3, #0
2fff1e04:	fba4 0100 	umull	r0, r1, r4, r0
2fff1e08:	4645      	mov	r5, r8
2fff1e0a:	f001 eb2c 	blx	2fff3464 <__aeabi_uldivmod>
2fff1e0e:	1940      	adds	r0, r0, r5
2fff1e10:	eb41 0109 	adc.w	r1, r1, r9
2fff1e14:	683b      	ldr	r3, [r7, #0]
2fff1e16:	421e      	tst	r6, r3
2fff1e18:	d002      	beq.n	2fff1e20 <stm32mp_reset_assert+0x48>
2fff1e1a:	2000      	movs	r0, #0
2fff1e1c:	e8bd 83f8 	ldmia.w	sp!, {r3, r4, r5, r6, r7, r8, r9, pc}
2fff1e20:	ec53 2f0e 	mrrc	15, 0, r2, r3, cr14
2fff1e24:	4290      	cmp	r0, r2
2fff1e26:	eb71 0303 	sbcs.w	r3, r1, r3
2fff1e2a:	d2f3      	bcs.n	2fff1e14 <stm32mp_reset_assert+0x3c>
2fff1e2c:	f06f 003b 	mvn.w	r0, #59	@ 0x3b
2fff1e30:	e7f4      	b.n	2fff1e1c <stm32mp_reset_assert+0x44>
2fff1e32:	bf00      	nop
2fff1e34:	000f4240 	.word	0x000f4240

2fff1e38 <stm32mp_reset_deassert>:
2fff1e38:	e92d 43f8 	stmdb	sp!, {r3, r4, r5, r6, r7, r8, r9, lr}
2fff1e3c:	4605      	mov	r5, r0
2fff1e3e:	f000 031f 	and.w	r3, r0, #31
2fff1e42:	2601      	movs	r6, #1
2fff1e44:	096d      	lsrs	r5, r5, #5
2fff1e46:	460c      	mov	r4, r1
2fff1e48:	409e      	lsls	r6, r3
2fff1e4a:	3501      	adds	r5, #1
2fff1e4c:	f002 f979 	bl	2fff4142 <stm32mp_rcc_base>
2fff1e50:	eb00 0785 	add.w	r7, r0, r5, lsl #2
2fff1e54:	f840 6025 	str.w	r6, [r0, r5, lsl #2]
2fff1e58:	b184      	cbz	r4, 2fff1e7c <stm32mp_reset_deassert+0x44>
2fff1e5a:	ee1e 0f10 	mrc	15, 0, r0, cr14, cr0, {0}
2fff1e5e:	ec59 8f0e 	mrrc	15, 0, r8, r9, cr14
2fff1e62:	4a0c      	ldr	r2, [pc, #48]	@ (2fff1e94 <stm32mp_reset_deassert+0x5c>)
2fff1e64:	2300      	movs	r3, #0
2fff1e66:	fba4 0100 	umull	r0, r1, r4, r0
2fff1e6a:	4645      	mov	r5, r8
2fff1e6c:	f001 eafa 	blx	2fff3464 <__aeabi_uldivmod>
2fff1e70:	1940      	adds	r0, r0, r5
2fff1e72:	eb41 0109 	adc.w	r1, r1, r9
2fff1e76:	683c      	ldr	r4, [r7, #0]
2fff1e78:	4034      	ands	r4, r6
2fff1e7a:	d102      	bne.n	2fff1e82 <stm32mp_reset_deassert+0x4a>
2fff1e7c:	4620      	mov	r0, r4
2fff1e7e:	e8bd 83f8 	ldmia.w	sp!, {r3, r4, r5, r6, r7, r8, r9, pc}
2fff1e82:	ec53 2f0e 	mrrc	15, 0, r2, r3, cr14
2fff1e86:	4290      	cmp	r0, r2
2fff1e88:	eb71 0303 	sbcs.w	r3, r1, r3
2fff1e8c:	d2f3      	bcs.n	2fff1e76 <stm32mp_reset_deassert+0x3e>
2fff1e8e:	f06f 003b 	mvn.w	r0, #59	@ 0x3b
2fff1e92:	e7f4      	b.n	2fff1e7e <stm32mp_reset_deassert+0x46>
2fff1e94:	000f4240 	.word	0x000f4240

2fff1e98 <stm32_pm_get_optee_ep>:
2fff1e98:	2063      	movs	r0, #99	@ 0x63
2fff1e9a:	b510      	push	{r4, lr}
2fff1e9c:	f7fc fcf0 	bl	2ffee880 <clk_enable>
2fff1ea0:	f04f 43a8 	mov.w	r3, #1409286144	@ 0x54000000
2fff1ea4:	681b      	ldr	r3, [r3, #0]
2fff1ea6:	0c1a      	lsrs	r2, r3, #16
2fff1ea8:	0412      	lsls	r2, r2, #16
2fff1eaa:	f5b2 3f00 	cmp.w	r2, #131072	@ 0x20000
2fff1eae:	d004      	beq.n	2fff1eba <stm32_pm_get_optee_ep+0x22>
2fff1eb0:	4a0b      	ldr	r2, [pc, #44]	@ (2fff1ee0 <stm32_pm_get_optee_ep+0x48>)
2fff1eb2:	401a      	ands	r2, r3
2fff1eb4:	f5b2 3f80 	cmp.w	r2, #65536	@ 0x10000
2fff1eb8:	d106      	bne.n	2fff1ec8 <stm32_pm_get_optee_ep+0x30>
2fff1eba:	b29b      	uxth	r3, r3
2fff1ebc:	2b40      	cmp	r3, #64	@ 0x40
2fff1ebe:	d007      	beq.n	2fff1ed0 <stm32_pm_get_optee_ep+0x38>
2fff1ec0:	f7fb fd46 	bl	2ffed950 <console_flush>
2fff1ec4:	f7f7 ea8a 	blx	2ffe93dc <do_panic>
2fff1ec8:	4806      	ldr	r0, [pc, #24]	@ (2fff1ee4 <stm32_pm_get_optee_ep+0x4c>)
2fff1eca:	f7fb fca5 	bl	2ffed818 <tf_log>
2fff1ece:	e7f7      	b.n	2fff1ec0 <stm32_pm_get_optee_ep+0x28>
2fff1ed0:	f04f 43a8 	mov.w	r3, #1409286144	@ 0x54000000
2fff1ed4:	2063      	movs	r0, #99	@ 0x63
2fff1ed6:	685c      	ldr	r4, [r3, #4]
2fff1ed8:	f7fc fce4 	bl	2ffee8a4 <clk_disable>
2fff1edc:	4620      	mov	r0, r4
2fff1ede:	bd10      	pop	{r4, pc}
2fff1ee0:	fffd0000 	.word	0xfffd0000
2fff1ee4:	2fff9326 	.word	0x2fff9326

2fff1ee8 <stm32_context_save_bl2_param>:
2fff1ee8:	b510      	push	{r4, lr}
2fff1eea:	f7fe fa29 	bl	2fff0340 <stm32mp_bkpram_get_access>
2fff1eee:	b1d8      	cbz	r0, 2fff1f28 <stm32_context_save_bl2_param+0x40>
2fff1ef0:	2063      	movs	r0, #99	@ 0x63
2fff1ef2:	f04f 44a8 	mov.w	r4, #1409286144	@ 0x54000000
2fff1ef6:	f7fc fcc3 	bl	2ffee880 <clk_enable>
2fff1efa:	4b0c      	ldr	r3, [pc, #48]	@ (2fff1f2c <stm32_context_save_bl2_param+0x44>)
2fff1efc:	f8c4 3098 	str.w	r3, [r4, #152]	@ 0x98
2fff1f00:	4b0b      	ldr	r3, [pc, #44]	@ (2fff1f30 <stm32_context_save_bl2_param+0x48>)
2fff1f02:	f8c4 309c 	str.w	r3, [r4, #156]	@ 0x9c
2fff1f06:	4b0b      	ldr	r3, [pc, #44]	@ (2fff1f34 <stm32_context_save_bl2_param+0x4c>)
2fff1f08:	f8c4 30a0 	str.w	r3, [r4, #160]	@ 0xa0
2fff1f0c:	4b0a      	ldr	r3, [pc, #40]	@ (2fff1f38 <stm32_context_save_bl2_param+0x50>)
2fff1f0e:	f8c4 30a4 	str.w	r3, [r4, #164]	@ 0xa4
2fff1f12:	f44f 3340 	mov.w	r3, #196608	@ 0x30000
2fff1f16:	6023      	str	r3, [r4, #0]
2fff1f18:	f002 fbdd 	bl	2fff46d6 <ddr_get_io_calibration_val>
2fff1f1c:	60a0      	str	r0, [r4, #8]
2fff1f1e:	2063      	movs	r0, #99	@ 0x63
2fff1f20:	e8bd 4010 	ldmia.w	sp!, {r4, lr}
2fff1f24:	f7fc bcbe 	b.w	2ffee8a4 <clk_disable>
2fff1f28:	bd10      	pop	{r4, pc}
2fff1f2a:	bf00      	nop
2fff1f2c:	2ffe9288 	.word	0x2ffe9288
2fff1f30:	2ffe9000 	.word	0x2ffe9000
2fff1f34:	2fffa000 	.word	0x2fffa000
2fff1f38:	2ffff000 	.word	0x2ffff000

2fff1f3c <stm32_pm_context_is_valid>:
2fff1f3c:	2063      	movs	r0, #99	@ 0x63
2fff1f3e:	b510      	push	{r4, lr}
2fff1f40:	f7fc fc9e 	bl	2ffee880 <clk_enable>
2fff1f44:	f04f 43a8 	mov.w	r3, #1409286144	@ 0x54000000
2fff1f48:	681a      	ldr	r2, [r3, #0]
2fff1f4a:	0c13      	lsrs	r3, r2, #16
2fff1f4c:	041b      	lsls	r3, r3, #16
2fff1f4e:	f5b3 3f00 	cmp.w	r3, #131072	@ 0x20000
2fff1f52:	d00a      	beq.n	2fff1f6a <stm32_pm_context_is_valid+0x2e>
2fff1f54:	4c06      	ldr	r4, [pc, #24]	@ (2fff1f70 <stm32_pm_context_is_valid+0x34>)
2fff1f56:	4014      	ands	r4, r2
2fff1f58:	f5a4 3380 	sub.w	r3, r4, #65536	@ 0x10000
2fff1f5c:	425c      	negs	r4, r3
2fff1f5e:	415c      	adcs	r4, r3
2fff1f60:	2063      	movs	r0, #99	@ 0x63
2fff1f62:	f7fc fc9f 	bl	2ffee8a4 <clk_disable>
2fff1f66:	4620      	mov	r0, r4
2fff1f68:	bd10      	pop	{r4, pc}
2fff1f6a:	2401      	movs	r4, #1
2fff1f6c:	e7f8      	b.n	2fff1f60 <stm32_pm_context_is_valid+0x24>
2fff1f6e:	bf00      	nop
2fff1f70:	fffd0000 	.word	0xfffd0000

2fff1f74 <stm32_restore_ddr_training_area>:
2fff1f74:	b508      	push	{r3, lr}
2fff1f76:	2063      	movs	r0, #99	@ 0x63
2fff1f78:	f7fc fc82 	bl	2ffee880 <clk_enable>
2fff1f7c:	4906      	ldr	r1, [pc, #24]	@ (2fff1f98 <stm32_restore_ddr_training_area+0x24>)
2fff1f7e:	2240      	movs	r2, #64	@ 0x40
2fff1f80:	f04f 4040 	mov.w	r0, #3221225472	@ 0xc0000000
2fff1f84:	f003 fa4f 	bl	2fff5426 <memcpy>
2fff1f88:	f3bf 8f4f 	dsb	sy
2fff1f8c:	2063      	movs	r0, #99	@ 0x63
2fff1f8e:	e8bd 4008 	ldmia.w	sp!, {r3, lr}
2fff1f92:	f7fc bc87 	b.w	2ffee8a4 <clk_disable>
2fff1f96:	bf00      	nop
2fff1f98:	5400000c 	.word	0x5400000c

2fff1f9c <stm32mp1_dbgmcu_init>:
2fff1f9c:	b508      	push	{r3, lr}
2fff1f9e:	f7fe fbb1 	bl	2fff0704 <bsec_read_debug_conf>
2fff1fa2:	0543      	lsls	r3, r0, #21
2fff1fa4:	d405      	bmi.n	2fff1fb2 <stm32mp1_dbgmcu_init+0x16>
2fff1fa6:	4808      	ldr	r0, [pc, #32]	@ (2fff1fc8 <stm32mp1_dbgmcu_init+0x2c>)
2fff1fa8:	f7fb fc36 	bl	2ffed818 <tf_log>
2fff1fac:	f04f 30ff 	mov.w	r0, #4294967295	@ 0xffffffff
2fff1fb0:	bd08      	pop	{r3, pc}
2fff1fb2:	f04f 42a0 	mov.w	r2, #1342177280	@ 0x50000000
2fff1fb6:	2000      	movs	r0, #0
2fff1fb8:	f8d2 380c 	ldr.w	r3, [r2, #2060]	@ 0x80c
2fff1fbc:	f443 7380 	orr.w	r3, r3, #256	@ 0x100
2fff1fc0:	f8c2 380c 	str.w	r3, [r2, #2060]	@ 0x80c
2fff1fc4:	e7f4      	b.n	2fff1fb0 <stm32mp1_dbgmcu_init+0x14>
2fff1fc6:	bf00      	nop
2fff1fc8:	2fff933e 	.word	0x2fff933e

2fff1fcc <stm32mp1_dbgmcu_get_chip_version>:
2fff1fcc:	b510      	push	{r4, lr}
2fff1fce:	4604      	mov	r4, r0
2fff1fd0:	b918      	cbnz	r0, 2fff1fda <stm32mp1_dbgmcu_get_chip_version+0xe>
2fff1fd2:	4807      	ldr	r0, [pc, #28]	@ (2fff1ff0 <stm32mp1_dbgmcu_get_chip_version+0x24>)
2fff1fd4:	212d      	movs	r1, #45	@ 0x2d
2fff1fd6:	f001 fba9 	bl	2fff372c <__assert>
2fff1fda:	f7ff ffdf 	bl	2fff1f9c <stm32mp1_dbgmcu_init>
2fff1fde:	b920      	cbnz	r0, 2fff1fea <stm32mp1_dbgmcu_get_chip_version+0x1e>
2fff1fe0:	4b04      	ldr	r3, [pc, #16]	@ (2fff1ff4 <stm32mp1_dbgmcu_get_chip_version+0x28>)
2fff1fe2:	681b      	ldr	r3, [r3, #0]
2fff1fe4:	0c1b      	lsrs	r3, r3, #16
2fff1fe6:	6023      	str	r3, [r4, #0]
2fff1fe8:	bd10      	pop	{r4, pc}
2fff1fea:	f04f 30ff 	mov.w	r0, #4294967295	@ 0xffffffff
2fff1fee:	e7fb      	b.n	2fff1fe8 <stm32mp1_dbgmcu_get_chip_version+0x1c>
2fff1ff0:	2fff9374 	.word	0x2fff9374
2fff1ff4:	50081000 	.word	0x50081000

2fff1ff8 <stm32mp1_dbgmcu_get_chip_dev_id>:
2fff1ff8:	b510      	push	{r4, lr}
2fff1ffa:	4604      	mov	r4, r0
2fff1ffc:	b918      	cbnz	r0, 2fff2006 <stm32mp1_dbgmcu_get_chip_dev_id+0xe>
2fff1ffe:	4808      	ldr	r0, [pc, #32]	@ (2fff2020 <stm32mp1_dbgmcu_get_chip_dev_id+0x28>)
2fff2000:	2140      	movs	r1, #64	@ 0x40
2fff2002:	f001 fb93 	bl	2fff372c <__assert>
2fff2006:	f7ff ffc9 	bl	2fff1f9c <stm32mp1_dbgmcu_init>
2fff200a:	b928      	cbnz	r0, 2fff2018 <stm32mp1_dbgmcu_get_chip_dev_id+0x20>
2fff200c:	4b05      	ldr	r3, [pc, #20]	@ (2fff2024 <stm32mp1_dbgmcu_get_chip_dev_id+0x2c>)
2fff200e:	681b      	ldr	r3, [r3, #0]
2fff2010:	f3c3 030b 	ubfx	r3, r3, #0, #12
2fff2014:	6023      	str	r3, [r4, #0]
2fff2016:	bd10      	pop	{r4, pc}
2fff2018:	f04f 30ff 	mov.w	r0, #4294967295	@ 0xffffffff
2fff201c:	e7fb      	b.n	2fff2016 <stm32mp1_dbgmcu_get_chip_dev_id+0x1e>
2fff201e:	bf00      	nop
2fff2020:	2fff9374 	.word	0x2fff9374
2fff2024:	50081000 	.word	0x50081000

2fff2028 <stm32mp_syscfg_enable_io_compensation_start>:
2fff2028:	b508      	push	{r3, lr}
2fff202a:	2033      	movs	r0, #51	@ 0x33
2fff202c:	f7fc fc28 	bl	2ffee880 <clk_enable>
2fff2030:	4a02      	ldr	r2, [pc, #8]	@ (2fff203c <stm32mp_syscfg_enable_io_compensation_start+0x14>)
2fff2032:	6a53      	ldr	r3, [r2, #36]	@ 0x24
2fff2034:	f043 0301 	orr.w	r3, r3, #1
2fff2038:	6253      	str	r3, [r2, #36]	@ 0x24
2fff203a:	bd08      	pop	{r3, pc}
2fff203c:	50020000 	.word	0x50020000

2fff2040 <stm32mp_syscfg_init>:
2fff2040:	b537      	push	{r0, r1, r2, r4, r5, lr}
2fff2042:	f44f 7300 	mov.w	r3, #512	@ 0x200
2fff2046:	4c1b      	ldr	r4, [pc, #108]	@ (2fff20b4 <stm32mp_syscfg_init+0x74>)
2fff2048:	a901      	add	r1, sp, #4
2fff204a:	481b      	ldr	r0, [pc, #108]	@ (2fff20b8 <stm32mp_syscfg_init+0x78>)
2fff204c:	61e3      	str	r3, [r4, #28]
2fff204e:	6823      	ldr	r3, [r4, #0]
2fff2050:	6822      	ldr	r2, [r4, #0]
2fff2052:	011b      	lsls	r3, r3, #4
2fff2054:	f022 0270 	bic.w	r2, r2, #112	@ 0x70
2fff2058:	f003 0370 	and.w	r3, r3, #112	@ 0x70
2fff205c:	4313      	orrs	r3, r2
2fff205e:	6023      	str	r3, [r4, #0]
2fff2060:	f7fb fd98 	bl	2ffedb94 <stm32_get_otp_value>
2fff2064:	b118      	cbz	r0, 2fff206e <stm32mp_syscfg_init+0x2e>
2fff2066:	f7fb fc73 	bl	2ffed950 <console_flush>
2fff206a:	f7f7 e9b8 	blx	2ffe93dc <do_panic>
2fff206e:	9d01      	ldr	r5, [sp, #4]
2fff2070:	f002 face 	bl	2fff4610 <dt_get_pwr_vdd_voltage>
2fff2074:	b938      	cbnz	r0, 2fff2086 <stm32mp_syscfg_init+0x46>
2fff2076:	4811      	ldr	r0, [pc, #68]	@ (2fff20bc <stm32mp_syscfg_init+0x7c>)
2fff2078:	f7fb fbce 	bl	2ffed818 <tf_log>
2fff207c:	b003      	add	sp, #12
2fff207e:	e8bd 4030 	ldmia.w	sp!, {r4, r5, lr}
2fff2082:	f7ff bfd1 	b.w	2fff2028 <stm32mp_syscfg_enable_io_compensation_start>
2fff2086:	4a0e      	ldr	r2, [pc, #56]	@ (2fff20c0 <stm32mp_syscfg_init+0x80>)
2fff2088:	f405 5500 	and.w	r5, r5, #8192	@ 0x2000
2fff208c:	4290      	cmp	r0, r2
2fff208e:	d205      	bcs.n	2fff209c <stm32mp_syscfg_init+0x5c>
2fff2090:	221f      	movs	r2, #31
2fff2092:	61a2      	str	r2, [r4, #24]
2fff2094:	2d00      	cmp	r5, #0
2fff2096:	d1f1      	bne.n	2fff207c <stm32mp_syscfg_init+0x3c>
2fff2098:	480a      	ldr	r0, [pc, #40]	@ (2fff20c4 <stm32mp_syscfg_init+0x84>)
2fff209a:	e7ed      	b.n	2fff2078 <stm32mp_syscfg_init+0x38>
2fff209c:	2d00      	cmp	r5, #0
2fff209e:	d0ed      	beq.n	2fff207c <stm32mp_syscfg_init+0x3c>
2fff20a0:	4809      	ldr	r0, [pc, #36]	@ (2fff20c8 <stm32mp_syscfg_init+0x88>)
2fff20a2:	f7fb fbb9 	bl	2ffed818 <tf_log>
2fff20a6:	4809      	ldr	r0, [pc, #36]	@ (2fff20cc <stm32mp_syscfg_init+0x8c>)
2fff20a8:	f7fb fbb6 	bl	2ffed818 <tf_log>
2fff20ac:	4808      	ldr	r0, [pc, #32]	@ (2fff20d0 <stm32mp_syscfg_init+0x90>)
2fff20ae:	f7fb fbb3 	bl	2ffed818 <tf_log>
2fff20b2:	e7d8      	b.n	2fff2066 <stm32mp_syscfg_init+0x26>
2fff20b4:	50020000 	.word	0x50020000
2fff20b8:	2fff8e19 	.word	0x2fff8e19
2fff20bc:	2fff9397 	.word	0x2fff9397
2fff20c0:	002932e0 	.word	0x002932e0
2fff20c4:	2fff93a5 	.word	0x2fff93a5
2fff20c8:	2fff93d3 	.word	0x2fff93d3
2fff20cc:	2fff93ea 	.word	0x2fff93ea
2fff20d0:	2fff940b 	.word	0x2fff940b

2fff20d4 <stm32mp_syscfg_enable_io_compensation_finish>:
2fff20d4:	b570      	push	{r4, r5, r6, lr}
2fff20d6:	ee1e 1f10 	mrc	15, 0, r1, cr14, cr0, {0}
2fff20da:	ec56 5f0e 	mrrc	15, 0, r5, r6, cr14
2fff20de:	4a0e      	ldr	r2, [pc, #56]	@ (2fff2118 <stm32mp_syscfg_enable_io_compensation_finish+0x44>)
2fff20e0:	f242 7010 	movw	r0, #10000	@ 0x2710
2fff20e4:	4c0d      	ldr	r4, [pc, #52]	@ (2fff211c <stm32mp_syscfg_enable_io_compensation_finish+0x48>)
2fff20e6:	2300      	movs	r3, #0
2fff20e8:	fba1 0100 	umull	r0, r1, r1, r0
2fff20ec:	f001 e9ba 	blx	2fff3464 <__aeabi_uldivmod>
2fff20f0:	1940      	adds	r0, r0, r5
2fff20f2:	eb41 0106 	adc.w	r1, r1, r6
2fff20f6:	6a23      	ldr	r3, [r4, #32]
2fff20f8:	05db      	lsls	r3, r3, #23
2fff20fa:	d408      	bmi.n	2fff210e <stm32mp_syscfg_enable_io_compensation_finish+0x3a>
2fff20fc:	ec53 2f0e 	mrrc	15, 0, r2, r3, cr14
2fff2100:	4290      	cmp	r0, r2
2fff2102:	eb71 0303 	sbcs.w	r3, r1, r3
2fff2106:	d2f6      	bcs.n	2fff20f6 <stm32mp_syscfg_enable_io_compensation_finish+0x22>
2fff2108:	4805      	ldr	r0, [pc, #20]	@ (2fff2120 <stm32mp_syscfg_enable_io_compensation_finish+0x4c>)
2fff210a:	f7fb fb85 	bl	2ffed818 <tf_log>
2fff210e:	6a23      	ldr	r3, [r4, #32]
2fff2110:	f023 0302 	bic.w	r3, r3, #2
2fff2114:	6223      	str	r3, [r4, #32]
2fff2116:	bd70      	pop	{r4, r5, r6, pc}
2fff2118:	000f4240 	.word	0x000f4240
2fff211c:	50020000 	.word	0x50020000
2fff2120:	2fff9426 	.word	0x2fff9426

2fff2124 <stm32_tamp_nvram_get_cdata>:
2fff2124:	4800      	ldr	r0, [pc, #0]	@ (2fff2128 <stm32_tamp_nvram_get_cdata+0x4>)
2fff2126:	4770      	bx	lr
2fff2128:	2fff5f74 	.word	0x2fff5f74

2fff212c <stm32_tamp_nvram_get_access_rights>:
2fff212c:	4800      	ldr	r0, [pc, #0]	@ (2fff2130 <stm32_tamp_nvram_get_access_rights+0x4>)
2fff212e:	4770      	bx	lr
2fff2130:	2fffa55c 	.word	0x2fffa55c

2fff2134 <stm32mp1_check_pll_conf>:
2fff2134:	e92d 43f8 	stmdb	sp!, {r3, r4, r5, r6, r7, r8, r9, lr}
2fff2138:	4604      	mov	r4, r0
2fff213a:	4f38      	ldr	r7, [pc, #224]	@ (2fff221c <stm32mp1_check_pll_conf+0xe8>)
2fff213c:	4688      	mov	r8, r1
2fff213e:	4615      	mov	r5, r2
2fff2140:	461e      	mov	r6, r3
2fff2142:	f001 fffe 	bl	2fff4142 <stm32mp_rcc_base>
2fff2146:	0163      	lsls	r3, r4, #5
2fff2148:	4602      	mov	r2, r0
2fff214a:	eb07 1044 	add.w	r0, r7, r4, lsl #5
2fff214e:	8981      	ldrh	r1, [r0, #12]
2fff2150:	5889      	ldr	r1, [r1, r2]
2fff2152:	2901      	cmp	r1, #1
2fff2154:	d160      	bne.n	2fff2218 <stm32mp1_check_pll_conf+0xe4>
2fff2156:	ea4f 1118 	mov.w	r1, r8, lsr #4
2fff215a:	5889      	ldr	r1, [r1, r2]
2fff215c:	ea88 0101 	eor.w	r1, r8, r1
2fff2160:	f011 0107 	ands.w	r1, r1, #7
2fff2164:	d158      	bne.n	2fff2218 <stm32mp1_check_pll_conf+0xe4>
2fff2166:	8880      	ldrh	r0, [r0, #4]
2fff2168:	f857 e003 	ldr.w	lr, [r7, r3]
2fff216c:	5880      	ldr	r0, [r0, r2]
2fff216e:	f8df 90b0 	ldr.w	r9, [pc, #176]	@ 2fff2220 <stm32mp1_check_pll_conf+0xec>
2fff2172:	f000 0003 	and.w	r0, r0, #3
2fff2176:	eb00 00c4 	add.w	r0, r0, r4, lsl #3
2fff217a:	3004      	adds	r0, #4
2fff217c:	f857 0020 	ldr.w	r0, [r7, r0, lsl #2]
2fff2180:	2805      	cmp	r0, #5
2fff2182:	bf8e      	itee	hi
2fff2184:	4608      	movhi	r0, r1
2fff2186:	4c27      	ldrls	r4, [pc, #156]	@ (2fff2224 <stm32mp1_check_pll_conf+0xf0>)
2fff2188:	f854 0020 	ldrls.w	r0, [r4, r0, lsl #2]
2fff218c:	682c      	ldr	r4, [r5, #0]
2fff218e:	f104 0c01 	add.w	ip, r4, #1
2fff2192:	fbb0 f0fc 	udiv	r0, r0, ip
2fff2196:	f8df c090 	ldr.w	ip, [pc, #144]	@ 2fff2228 <stm32mp1_check_pll_conf+0xf4>
2fff219a:	f81c 801e 	ldrb.w	r8, [ip, lr, lsl #1]
2fff219e:	fb09 f808 	mul.w	r8, r9, r8
2fff21a2:	4580      	cmp	r8, r0
2fff21a4:	d838      	bhi.n	2fff2218 <stm32mp1_check_pll_conf+0xe4>
2fff21a6:	eb0c 0c4e 	add.w	ip, ip, lr, lsl #1
2fff21aa:	f89c c001 	ldrb.w	ip, [ip, #1]
2fff21ae:	fb09 fc0c 	mul.w	ip, r9, ip
2fff21b2:	4584      	cmp	ip, r0
2fff21b4:	d330      	bcc.n	2fff2218 <stm32mp1_check_pll_conf+0xe4>
2fff21b6:	f1be 0f00 	cmp.w	lr, #0
2fff21ba:	d104      	bne.n	2fff21c6 <stm32mp1_check_pll_conf+0x92>
2fff21bc:	491b      	ldr	r1, [pc, #108]	@ (2fff222c <stm32mp1_check_pll_conf+0xf8>)
2fff21be:	4288      	cmp	r0, r1
2fff21c0:	bf34      	ite	cc
2fff21c2:	2100      	movcc	r1, #0
2fff21c4:	2101      	movcs	r1, #1
2fff21c6:	6868      	ldr	r0, [r5, #4]
2fff21c8:	0424      	lsls	r4, r4, #16
2fff21ca:	443b      	add	r3, r7
2fff21cc:	f404 147c 	and.w	r4, r4, #4128768	@ 0x3f0000
2fff21d0:	f3c0 0008 	ubfx	r0, r0, #0, #9
2fff21d4:	4304      	orrs	r4, r0
2fff21d6:	88d8      	ldrh	r0, [r3, #6]
2fff21d8:	ea44 6401 	orr.w	r4, r4, r1, lsl #24
2fff21dc:	5880      	ldr	r0, [r0, r2]
2fff21de:	4284      	cmp	r4, r0
2fff21e0:	d11a      	bne.n	2fff2218 <stm32mp1_check_pll_conf+0xe4>
2fff21e2:	8959      	ldrh	r1, [r3, #10]
2fff21e4:	00f6      	lsls	r6, r6, #3
2fff21e6:	5889      	ldr	r1, [r1, r2]
2fff21e8:	f446 3680 	orr.w	r6, r6, #65536	@ 0x10000
2fff21ec:	428e      	cmp	r6, r1
2fff21ee:	d113      	bne.n	2fff2218 <stm32mp1_check_pll_conf+0xe4>
2fff21f0:	891b      	ldrh	r3, [r3, #8]
2fff21f2:	68a9      	ldr	r1, [r5, #8]
2fff21f4:	589a      	ldr	r2, [r3, r2]
2fff21f6:	68eb      	ldr	r3, [r5, #12]
2fff21f8:	f001 017f 	and.w	r1, r1, #127	@ 0x7f
2fff21fc:	0218      	lsls	r0, r3, #8
2fff21fe:	692b      	ldr	r3, [r5, #16]
2fff2200:	f400 40fe 	and.w	r0, r0, #32512	@ 0x7f00
2fff2204:	041b      	lsls	r3, r3, #16
2fff2206:	f403 03fe 	and.w	r3, r3, #8323072	@ 0x7f0000
2fff220a:	4318      	orrs	r0, r3
2fff220c:	4308      	orrs	r0, r1
2fff220e:	1a83      	subs	r3, r0, r2
2fff2210:	4258      	negs	r0, r3
2fff2212:	4158      	adcs	r0, r3
2fff2214:	e8bd 83f8 	ldmia.w	sp!, {r3, r4, r5, r6, r7, r8, r9, pc}
2fff2218:	2000      	movs	r0, #0
2fff221a:	e7fb      	b.n	2fff2214 <stm32mp1_check_pll_conf+0xe0>
2fff221c:	2fff5fa8 	.word	0x2fff5fa8
2fff2220:	000f4240 	.word	0x000f4240
2fff2224:	2fffc0a4 	.word	0x2fffc0a4
2fff2228:	2fff95ef 	.word	0x2fff95ef
2fff222c:	007a1200 	.word	0x007a1200

2fff2230 <stm32mp1_pll_config_output>:
2fff2230:	b538      	push	{r3, r4, r5, lr}
2fff2232:	460c      	mov	r4, r1
2fff2234:	4605      	mov	r5, r0
2fff2236:	f001 ff84 	bl	2fff4142 <stm32mp_rcc_base>
2fff223a:	68a3      	ldr	r3, [r4, #8]
2fff223c:	6922      	ldr	r2, [r4, #16]
2fff223e:	f003 017f 	and.w	r1, r3, #127	@ 0x7f
2fff2242:	68e3      	ldr	r3, [r4, #12]
2fff2244:	0412      	lsls	r2, r2, #16
2fff2246:	021b      	lsls	r3, r3, #8
2fff2248:	f402 02fe 	and.w	r2, r2, #8323072	@ 0x7f0000
2fff224c:	f403 43fe 	and.w	r3, r3, #32512	@ 0x7f00
2fff2250:	4313      	orrs	r3, r2
2fff2252:	4a03      	ldr	r2, [pc, #12]	@ (2fff2260 <stm32mp1_pll_config_output+0x30>)
2fff2254:	430b      	orrs	r3, r1
2fff2256:	eb02 1245 	add.w	r2, r2, r5, lsl #5
2fff225a:	8912      	ldrh	r2, [r2, #8]
2fff225c:	5013      	str	r3, [r2, r0]
2fff225e:	bd38      	pop	{r3, r4, r5, pc}
2fff2260:	2fff5fa8 	.word	0x2fff5fa8

2fff2264 <stm32mp1_clk_get_gated_id>:
2fff2264:	b508      	push	{r3, lr}
2fff2266:	4602      	mov	r2, r0
2fff2268:	4908      	ldr	r1, [pc, #32]	@ (2fff228c <stm32mp1_clk_get_gated_id+0x28>)
2fff226a:	2300      	movs	r3, #0
2fff226c:	f811 0033 	ldrb.w	r0, [r1, r3, lsl #3]
2fff2270:	4290      	cmp	r0, r2
2fff2272:	d101      	bne.n	2fff2278 <stm32mp1_clk_get_gated_id+0x14>
2fff2274:	4618      	mov	r0, r3
2fff2276:	bd08      	pop	{r3, pc}
2fff2278:	3301      	adds	r3, #1
2fff227a:	2b3b      	cmp	r3, #59	@ 0x3b
2fff227c:	d1f6      	bne.n	2fff226c <stm32mp1_clk_get_gated_id+0x8>
2fff227e:	4804      	ldr	r0, [pc, #16]	@ (2fff2290 <stm32mp1_clk_get_gated_id+0x2c>)
2fff2280:	4904      	ldr	r1, [pc, #16]	@ (2fff2294 <stm32mp1_clk_get_gated_id+0x30>)
2fff2282:	f7fb fac9 	bl	2ffed818 <tf_log>
2fff2286:	f06f 0015 	mvn.w	r0, #21
2fff228a:	e7f4      	b.n	2fff2276 <stm32mp1_clk_get_gated_id+0x12>
2fff228c:	2fff6591 	.word	0x2fff6591
2fff2290:	2fff9447 	.word	0x2fff9447
2fff2294:	2fff95b2 	.word	0x2fff95b2

2fff2298 <stm32mp1_clk_get_parent>:
2fff2298:	b538      	push	{r3, r4, r5, lr}
2fff229a:	4604      	mov	r4, r0
2fff229c:	f001 ff51 	bl	2fff4142 <stm32mp_rcc_base>
2fff22a0:	4b18      	ldr	r3, [pc, #96]	@ (2fff2304 <stm32mp1_clk_get_parent+0x6c>)
2fff22a2:	4605      	mov	r5, r0
2fff22a4:	2000      	movs	r0, #0
2fff22a6:	f813 2b01 	ldrb.w	r2, [r3], #1
2fff22aa:	4294      	cmp	r4, r2
2fff22ac:	d026      	beq.n	2fff22fc <stm32mp1_clk_get_parent+0x64>
2fff22ae:	3001      	adds	r0, #1
2fff22b0:	2823      	cmp	r0, #35	@ 0x23
2fff22b2:	d1f8      	bne.n	2fff22a6 <stm32mp1_clk_get_parent+0xe>
2fff22b4:	4620      	mov	r0, r4
2fff22b6:	f7ff ffd5 	bl	2fff2264 <stm32mp1_clk_get_gated_id>
2fff22ba:	1e03      	subs	r3, r0, #0
2fff22bc:	da03      	bge.n	2fff22c6 <stm32mp1_clk_get_parent+0x2e>
2fff22be:	f7fb fb47 	bl	2ffed950 <console_flush>
2fff22c2:	f7f7 e88c 	blx	2ffe93dc <do_panic>
2fff22c6:	4a10      	ldr	r2, [pc, #64]	@ (2fff2308 <stm32mp1_clk_get_parent+0x70>)
2fff22c8:	eb02 03c3 	add.w	r3, r2, r3, lsl #3
2fff22cc:	79d8      	ldrb	r0, [r3, #7]
2fff22ce:	2822      	cmp	r0, #34	@ 0x22
2fff22d0:	d914      	bls.n	2fff22fc <stm32mp1_clk_get_parent+0x64>
2fff22d2:	799b      	ldrb	r3, [r3, #6]
2fff22d4:	2bff      	cmp	r3, #255	@ 0xff
2fff22d6:	d012      	beq.n	2fff22fe <stm32mp1_clk_get_parent+0x66>
2fff22d8:	2b15      	cmp	r3, #21
2fff22da:	d8f0      	bhi.n	2fff22be <stm32mp1_clk_get_parent+0x26>
2fff22dc:	490b      	ldr	r1, [pc, #44]	@ (2fff230c <stm32mp1_clk_get_parent+0x74>)
2fff22de:	220c      	movs	r2, #12
2fff22e0:	4353      	muls	r3, r2
2fff22e2:	18ca      	adds	r2, r1, r3
2fff22e4:	5acb      	ldrh	r3, [r1, r3]
2fff22e6:	7891      	ldrb	r1, [r2, #2]
2fff22e8:	5958      	ldr	r0, [r3, r5]
2fff22ea:	78d3      	ldrb	r3, [r2, #3]
2fff22ec:	408b      	lsls	r3, r1
2fff22ee:	4003      	ands	r3, r0
2fff22f0:	40cb      	lsrs	r3, r1
2fff22f2:	7911      	ldrb	r1, [r2, #4]
2fff22f4:	4299      	cmp	r1, r3
2fff22f6:	d902      	bls.n	2fff22fe <stm32mp1_clk_get_parent+0x66>
2fff22f8:	6892      	ldr	r2, [r2, #8]
2fff22fa:	5cd0      	ldrb	r0, [r2, r3]
2fff22fc:	bd38      	pop	{r3, r4, r5, pc}
2fff22fe:	f06f 0015 	mvn.w	r0, #21
2fff2302:	e7fb      	b.n	2fff22fc <stm32mp1_clk_get_parent+0x64>
2fff2304:	2fff9642 	.word	0x2fff9642
2fff2308:	2fff658e 	.word	0x2fff658e
2fff230c:	2fff6028 	.word	0x2fff6028

2fff2310 <stm32mp_clk_is_enabled>:
2fff2310:	b510      	push	{r4, lr}
2fff2312:	4602      	mov	r2, r0
2fff2314:	f002 fc65 	bl	2fff4be2 <clock_is_always_on>
2fff2318:	b9b8      	cbnz	r0, 2fff234a <stm32mp_clk_is_enabled+0x3a>
2fff231a:	4610      	mov	r0, r2
2fff231c:	f7ff ffa2 	bl	2fff2264 <stm32mp1_clk_get_gated_id>
2fff2320:	1e04      	subs	r4, r0, #0
2fff2322:	da03      	bge.n	2fff232c <stm32mp_clk_is_enabled+0x1c>
2fff2324:	f7fb fb14 	bl	2ffed950 <console_flush>
2fff2328:	f7f7 e858 	blx	2ffe93dc <do_panic>
2fff232c:	f001 ff09 	bl	2fff4142 <stm32mp_rcc_base>
2fff2330:	4b06      	ldr	r3, [pc, #24]	@ (2fff234c <stm32mp_clk_is_enabled+0x3c>)
2fff2332:	f833 2034 	ldrh.w	r2, [r3, r4, lsl #3]
2fff2336:	eb03 03c4 	add.w	r3, r3, r4, lsl #3
2fff233a:	5812      	ldr	r2, [r2, r0]
2fff233c:	7899      	ldrb	r1, [r3, #2]
2fff233e:	2301      	movs	r3, #1
2fff2340:	408b      	lsls	r3, r1
2fff2342:	4213      	tst	r3, r2
2fff2344:	bf14      	ite	ne
2fff2346:	2001      	movne	r0, #1
2fff2348:	2000      	moveq	r0, #0
2fff234a:	bd10      	pop	{r4, pc}
2fff234c:	2fff658e 	.word	0x2fff658e

2fff2350 <stm32mp_clk_disable>:
2fff2350:	b538      	push	{r3, r4, r5, lr}
2fff2352:	4605      	mov	r5, r0
2fff2354:	f002 fc45 	bl	2fff4be2 <clock_is_always_on>
2fff2358:	2800      	cmp	r0, #0
2fff235a:	d136      	bne.n	2fff23ca <stm32mp_clk_disable+0x7a>
2fff235c:	4628      	mov	r0, r5
2fff235e:	f7ff ff81 	bl	2fff2264 <stm32mp1_clk_get_gated_id>
2fff2362:	1e04      	subs	r4, r0, #0
2fff2364:	da07      	bge.n	2fff2376 <stm32mp_clk_disable+0x26>
2fff2366:	4819      	ldr	r0, [pc, #100]	@ (2fff23cc <stm32mp_clk_disable+0x7c>)
2fff2368:	4629      	mov	r1, r5
2fff236a:	f7fb fa55 	bl	2ffed818 <tf_log>
2fff236e:	f7fb faef 	bl	2ffed950 <console_flush>
2fff2372:	f7f7 e834 	blx	2ffe93dc <do_panic>
2fff2376:	4816      	ldr	r0, [pc, #88]	@ (2fff23d0 <stm32mp_clk_disable+0x80>)
2fff2378:	f002 fc43 	bl	2fff4c02 <stm32mp1_clk_lock>
2fff237c:	4a15      	ldr	r2, [pc, #84]	@ (2fff23d4 <stm32mp_clk_disable+0x84>)
2fff237e:	f852 3024 	ldr.w	r3, [r2, r4, lsl #2]
2fff2382:	b913      	cbnz	r3, 2fff238a <stm32mp_clk_disable+0x3a>
2fff2384:	4814      	ldr	r0, [pc, #80]	@ (2fff23d8 <stm32mp_clk_disable+0x88>)
2fff2386:	4629      	mov	r1, r5
2fff2388:	e7ef      	b.n	2fff236a <stm32mp_clk_disable+0x1a>
2fff238a:	3b01      	subs	r3, #1
2fff238c:	f842 3024 	str.w	r3, [r2, r4, lsl #2]
2fff2390:	b98b      	cbnz	r3, 2fff23b6 <stm32mp_clk_disable+0x66>
2fff2392:	f001 fed6 	bl	2fff4142 <stm32mp_rcc_base>
2fff2396:	f3bf 8f4f 	dsb	sy
2fff239a:	4a10      	ldr	r2, [pc, #64]	@ (2fff23dc <stm32mp_clk_disable+0x8c>)
2fff239c:	eb02 03c4 	add.w	r3, r2, r4, lsl #3
2fff23a0:	f832 2034 	ldrh.w	r2, [r2, r4, lsl #3]
2fff23a4:	7919      	ldrb	r1, [r3, #4]
2fff23a6:	789d      	ldrb	r5, [r3, #2]
2fff23a8:	2301      	movs	r3, #1
2fff23aa:	b149      	cbz	r1, 2fff23c0 <stm32mp_clk_disable+0x70>
2fff23ac:	40ab      	lsls	r3, r5
2fff23ae:	3204      	adds	r2, #4
2fff23b0:	5013      	str	r3, [r2, r0]
2fff23b2:	f3bf 8f4f 	dsb	sy
2fff23b6:	e8bd 4038 	ldmia.w	sp!, {r3, r4, r5, lr}
2fff23ba:	4805      	ldr	r0, [pc, #20]	@ (2fff23d0 <stm32mp_clk_disable+0x80>)
2fff23bc:	f002 bc2c 	b.w	2fff4c18 <stm32mp1_clk_unlock>
2fff23c0:	5811      	ldr	r1, [r2, r0]
2fff23c2:	40ab      	lsls	r3, r5
2fff23c4:	ea21 0303 	bic.w	r3, r1, r3
2fff23c8:	e7f2      	b.n	2fff23b0 <stm32mp_clk_disable+0x60>
2fff23ca:	bd38      	pop	{r3, r4, r5, pc}
2fff23cc:	2fff9462 	.word	0x2fff9462
2fff23d0:	2fffbfb0 	.word	0x2fffbfb0
2fff23d4:	2fffbfb4 	.word	0x2fffbfb4
2fff23d8:	2fff9480 	.word	0x2fff9480
2fff23dc:	2fff658e 	.word	0x2fff658e

2fff23e0 <stm32mp_clk_enable>:
2fff23e0:	b5f8      	push	{r3, r4, r5, r6, r7, lr}
2fff23e2:	4605      	mov	r5, r0
2fff23e4:	f002 fbfd 	bl	2fff4be2 <clock_is_always_on>
2fff23e8:	bb98      	cbnz	r0, 2fff2452 <stm32mp_clk_enable+0x72>
2fff23ea:	4628      	mov	r0, r5
2fff23ec:	f7ff ff3a 	bl	2fff2264 <stm32mp1_clk_get_gated_id>
2fff23f0:	1e04      	subs	r4, r0, #0
2fff23f2:	da07      	bge.n	2fff2404 <stm32mp_clk_enable+0x24>
2fff23f4:	4818      	ldr	r0, [pc, #96]	@ (2fff2458 <stm32mp_clk_enable+0x78>)
2fff23f6:	4629      	mov	r1, r5
2fff23f8:	f7fb fa0e 	bl	2ffed818 <tf_log>
2fff23fc:	f7fb faa8 	bl	2ffed950 <console_flush>
2fff2400:	f7f6 efec 	blx	2ffe93dc <do_panic>
2fff2404:	4e15      	ldr	r6, [pc, #84]	@ (2fff245c <stm32mp_clk_enable+0x7c>)
2fff2406:	4816      	ldr	r0, [pc, #88]	@ (2fff2460 <stm32mp_clk_enable+0x80>)
2fff2408:	f002 fbfb 	bl	2fff4c02 <stm32mp1_clk_lock>
2fff240c:	f856 3024 	ldr.w	r3, [r6, r4, lsl #2]
2fff2410:	b973      	cbnz	r3, 2fff2430 <stm32mp_clk_enable+0x50>
2fff2412:	f001 fe96 	bl	2fff4142 <stm32mp_rcc_base>
2fff2416:	4a13      	ldr	r2, [pc, #76]	@ (2fff2464 <stm32mp_clk_enable+0x84>)
2fff2418:	eb02 03c4 	add.w	r3, r2, r4, lsl #3
2fff241c:	f832 2034 	ldrh.w	r2, [r2, r4, lsl #3]
2fff2420:	791f      	ldrb	r7, [r3, #4]
2fff2422:	7899      	ldrb	r1, [r3, #2]
2fff2424:	2301      	movs	r3, #1
2fff2426:	b16f      	cbz	r7, 2fff2444 <stm32mp_clk_enable+0x64>
2fff2428:	408b      	lsls	r3, r1
2fff242a:	5013      	str	r3, [r2, r0]
2fff242c:	f3bf 8f4f 	dsb	sy
2fff2430:	f856 3024 	ldr.w	r3, [r6, r4, lsl #2]
2fff2434:	3301      	adds	r3, #1
2fff2436:	f846 3024 	str.w	r3, [r6, r4, lsl #2]
2fff243a:	3301      	adds	r3, #1
2fff243c:	d106      	bne.n	2fff244c <stm32mp_clk_enable+0x6c>
2fff243e:	480a      	ldr	r0, [pc, #40]	@ (2fff2468 <stm32mp_clk_enable+0x88>)
2fff2440:	4629      	mov	r1, r5
2fff2442:	e7d9      	b.n	2fff23f8 <stm32mp_clk_enable+0x18>
2fff2444:	5817      	ldr	r7, [r2, r0]
2fff2446:	408b      	lsls	r3, r1
2fff2448:	433b      	orrs	r3, r7
2fff244a:	e7ee      	b.n	2fff242a <stm32mp_clk_enable+0x4a>
2fff244c:	4804      	ldr	r0, [pc, #16]	@ (2fff2460 <stm32mp_clk_enable+0x80>)
2fff244e:	f002 fbe3 	bl	2fff4c18 <stm32mp1_clk_unlock>
2fff2452:	2000      	movs	r0, #0
2fff2454:	bdf8      	pop	{r3, r4, r5, r6, r7, pc}
2fff2456:	bf00      	nop
2fff2458:	2fff949f 	.word	0x2fff949f
2fff245c:	2fffbfb4 	.word	0x2fffbfb4
2fff2460:	2fffbfb0 	.word	0x2fffbfb0
2fff2464:	2fff658e 	.word	0x2fff658e
2fff2468:	2fff94bc 	.word	0x2fff94bc

2fff246c <stm32_clk_configure_mux>:
2fff246c:	f3c1 1307 	ubfx	r3, r1, #4, #8
2fff2470:	2206      	movs	r2, #6
2fff2472:	e92d 41f0 	stmdb	sp!, {r4, r5, r6, r7, r8, lr}
2fff2476:	f001 010f 	and.w	r1, r1, #15
2fff247a:	6844      	ldr	r4, [r0, #4]
2fff247c:	f04f 3cff 	mov.w	ip, #4294967295	@ 0xffffffff
2fff2480:	4353      	muls	r3, r2
2fff2482:	6800      	ldr	r0, [r0, #0]
2fff2484:	18e2      	adds	r2, r4, r3
2fff2486:	5ae5      	ldrh	r5, [r4, r3]
2fff2488:	7897      	ldrb	r7, [r2, #2]
2fff248a:	78d3      	ldrb	r3, [r2, #3]
2fff248c:	582e      	ldr	r6, [r5, r0]
2fff248e:	443b      	add	r3, r7
2fff2490:	182c      	adds	r4, r5, r0
2fff2492:	f1c3 0320 	rsb	r3, r3, #32
2fff2496:	40b9      	lsls	r1, r7
2fff2498:	fa2c f303 	lsr.w	r3, ip, r3
2fff249c:	4071      	eors	r1, r6
2fff249e:	fa0c fc07 	lsl.w	ip, ip, r7
2fff24a2:	400b      	ands	r3, r1
2fff24a4:	ea03 030c 	and.w	r3, r3, ip
2fff24a8:	4073      	eors	r3, r6
2fff24aa:	502b      	str	r3, [r5, r0]
2fff24ac:	7915      	ldrb	r5, [r2, #4]
2fff24ae:	2dff      	cmp	r5, #255	@ 0xff
2fff24b0:	d013      	beq.n	2fff24da <stm32_clk_configure_mux+0x6e>
2fff24b2:	ee1e 1f10 	mrc	15, 0, r1, cr14, cr0, {0}
2fff24b6:	ec58 7f0e 	mrrc	15, 0, r7, r8, cr14
2fff24ba:	480e      	ldr	r0, [pc, #56]	@ (2fff24f4 <stm32_clk_configure_mux+0x88>)
2fff24bc:	2300      	movs	r3, #0
2fff24be:	4a0e      	ldr	r2, [pc, #56]	@ (2fff24f8 <stm32_clk_configure_mux+0x8c>)
2fff24c0:	fba1 0100 	umull	r0, r1, r1, r0
2fff24c4:	f000 efce 	blx	2fff3464 <__aeabi_uldivmod>
2fff24c8:	19c0      	adds	r0, r0, r7
2fff24ca:	f04f 0301 	mov.w	r3, #1
2fff24ce:	eb41 0108 	adc.w	r1, r1, r8
2fff24d2:	40ab      	lsls	r3, r5
2fff24d4:	6822      	ldr	r2, [r4, #0]
2fff24d6:	4213      	tst	r3, r2
2fff24d8:	d002      	beq.n	2fff24e0 <stm32_clk_configure_mux+0x74>
2fff24da:	2000      	movs	r0, #0
2fff24dc:	e8bd 81f0 	ldmia.w	sp!, {r4, r5, r6, r7, r8, pc}
2fff24e0:	ec57 6f0e 	mrrc	15, 0, r6, r7, cr14
2fff24e4:	42b0      	cmp	r0, r6
2fff24e6:	eb71 0207 	sbcs.w	r2, r1, r7
2fff24ea:	d2f3      	bcs.n	2fff24d4 <stm32_clk_configure_mux+0x68>
2fff24ec:	f06f 003b 	mvn.w	r0, #59	@ 0x3b
2fff24f0:	e7f4      	b.n	2fff24dc <stm32_clk_configure_mux+0x70>
2fff24f2:	bf00      	nop
2fff24f4:	00030d40 	.word	0x00030d40
2fff24f8:	000f4240 	.word	0x000f4240

2fff24fc <stm32mp1_read_pll_freq>:
2fff24fc:	e92d 43f8 	stmdb	sp!, {r3, r4, r5, r6, r7, r8, r9, lr}
2fff2500:	4607      	mov	r7, r0
2fff2502:	f8df 9098 	ldr.w	r9, [pc, #152]	@ 2fff259c <stm32mp1_read_pll_freq+0xa0>
2fff2506:	460d      	mov	r5, r1
2fff2508:	f001 fe1b 	bl	2fff4142 <stm32mp_rcc_base>
2fff250c:	eb09 1847 	add.w	r8, r9, r7, lsl #5
2fff2510:	f8b8 3008 	ldrh.w	r3, [r8, #8]
2fff2514:	581c      	ldr	r4, [r3, r0]
2fff2516:	4b22      	ldr	r3, [pc, #136]	@ (2fff25a0 <stm32mp1_read_pll_freq+0xa4>)
2fff2518:	5d5b      	ldrb	r3, [r3, r5]
2fff251a:	40dc      	lsrs	r4, r3
2fff251c:	f001 fe11 	bl	2fff4142 <stm32mp_rcc_base>
2fff2520:	f8b8 3006 	ldrh.w	r3, [r8, #6]
2fff2524:	f004 047f 	and.w	r4, r4, #127	@ 0x7f
2fff2528:	581e      	ldr	r6, [r3, r0]
2fff252a:	f8b8 300a 	ldrh.w	r3, [r8, #10]
2fff252e:	581d      	ldr	r5, [r3, r0]
2fff2530:	f001 fe07 	bl	2fff4142 <stm32mp_rcc_base>
2fff2534:	f8b8 3004 	ldrh.w	r3, [r8, #4]
2fff2538:	5818      	ldr	r0, [r3, r0]
2fff253a:	f000 0003 	and.w	r0, r0, #3
2fff253e:	eb00 00c7 	add.w	r0, r0, r7, lsl #3
2fff2542:	3004      	adds	r0, #4
2fff2544:	f859 3020 	ldr.w	r3, [r9, r0, lsl #2]
2fff2548:	2b05      	cmp	r3, #5
2fff254a:	bf8e      	itee	hi
2fff254c:	2700      	movhi	r7, #0
2fff254e:	4a15      	ldrls	r2, [pc, #84]	@ (2fff25a4 <stm32mp1_read_pll_freq+0xa8>)
2fff2550:	f852 7023 	ldrls.w	r7, [r2, r3, lsl #2]
2fff2554:	03e9      	lsls	r1, r5, #15
2fff2556:	f3c6 0208 	ubfx	r2, r6, #0, #9
2fff255a:	f3c6 4305 	ubfx	r3, r6, #16, #6
2fff255e:	f102 0201 	add.w	r2, r2, #1
2fff2562:	f103 0301 	add.w	r3, r3, #1
2fff2566:	d513      	bpl.n	2fff2590 <stm32mp1_read_pll_freq+0x94>
2fff2568:	f3c5 00cc 	ubfx	r0, r5, #3, #13
2fff256c:	0cd1      	lsrs	r1, r2, #19
2fff256e:	0352      	lsls	r2, r2, #13
2fff2570:	1880      	adds	r0, r0, r2
2fff2572:	fba7 0500 	umull	r0, r5, r7, r0
2fff2576:	f141 0100 	adc.w	r1, r1, #0
2fff257a:	035a      	lsls	r2, r3, #13
2fff257c:	fb07 5101 	mla	r1, r7, r1, r5
2fff2580:	0cdb      	lsrs	r3, r3, #19
2fff2582:	f000 ef70 	blx	2fff3464 <__aeabi_uldivmod>
2fff2586:	3401      	adds	r4, #1
2fff2588:	fbb0 f0f4 	udiv	r0, r0, r4
2fff258c:	e8bd 83f8 	ldmia.w	sp!, {r3, r4, r5, r6, r7, r8, r9, pc}
2fff2590:	fb07 f002 	mul.w	r0, r7, r2
2fff2594:	fbb0 f0f3 	udiv	r0, r0, r3
2fff2598:	e7f5      	b.n	2fff2586 <stm32mp1_read_pll_freq+0x8a>
2fff259a:	bf00      	nop
2fff259c:	2fff5fa8 	.word	0x2fff5fa8
2fff25a0:	2fff95ec 	.word	0x2fff95ec
2fff25a4:	2fffc0a4 	.word	0x2fffc0a4

2fff25a8 <stm32mp_clk_get_rate>:
2fff25a8:	b5f8      	push	{r3, r4, r5, r6, r7, lr}
2fff25aa:	4606      	mov	r6, r0
2fff25ac:	f001 fdc9 	bl	2fff4142 <stm32mp_rcc_base>
2fff25b0:	4604      	mov	r4, r0
2fff25b2:	4630      	mov	r0, r6
2fff25b4:	f7ff fe70 	bl	2fff2298 <stm32mp1_clk_get_parent>
2fff25b8:	1e07      	subs	r7, r0, #0
2fff25ba:	f2c0 80fc 	blt.w	2fff27b6 <stm32mp_clk_get_rate+0x20e>
2fff25be:	f001 fdc0 	bl	2fff4142 <stm32mp_rcc_base>
2fff25c2:	4605      	mov	r5, r0
2fff25c4:	2f22      	cmp	r7, #34	@ 0x22
2fff25c6:	f200 80b4 	bhi.w	2fff2732 <stm32mp_clk_get_rate+0x18a>
2fff25ca:	e8df f017 	tbh	[pc, r7, lsl #1]
2fff25ce:	002d      	.short	0x002d
2fff25d0:	00b40044 	.word	0x00b40044
2fff25d4:	00c700c4 	.word	0x00c700c4
2fff25d8:	002d00b2 	.word	0x002d00b2
2fff25dc:	00b70044 	.word	0x00b70044
2fff25e0:	00b400bb 	.word	0x00b400bb
2fff25e4:	00ca0047 	.word	0x00ca0047
2fff25e8:	00d100cf 	.word	0x00d100cf
2fff25ec:	00d600d4 	.word	0x00d600d4
2fff25f0:	00db00d8 	.word	0x00db00d8
2fff25f4:	00df00dd 	.word	0x00df00dd
2fff25f8:	00e400e2 	.word	0x00e400e2
2fff25fc:	00780055 	.word	0x00780055
2fff2600:	00780078 	.word	0x00780078
2fff2604:	00550055 	.word	0x00550055
2fff2608:	00550055 	.word	0x00550055
2fff260c:	002300a7 	.word	0x002300a7
2fff2610:	00e60078 	.word	0x00e60078
2fff2614:	6a03      	ldr	r3, [r0, #32]
2fff2616:	f003 0307 	and.w	r3, r3, #7
2fff261a:	2b03      	cmp	r3, #3
2fff261c:	f200 8089 	bhi.w	2fff2732 <stm32mp_clk_get_rate+0x18a>
2fff2620:	e8df f003 	tbb	[pc, r3]
2fff2624:	1f1c1902 	.word	0x1f1c1902
2fff2628:	4b64      	ldr	r3, [pc, #400]	@ (2fff27bc <stm32mp_clk_get_rate+0x214>)
2fff262a:	6818      	ldr	r0, [r3, #0]
2fff262c:	2ecd      	cmp	r6, #205	@ 0xcd
2fff262e:	f200 80b6 	bhi.w	2fff279e <stm32mp_clk_get_rate+0x1f6>
2fff2632:	2ec4      	cmp	r6, #196	@ 0xc4
2fff2634:	f240 80b7 	bls.w	2fff27a6 <stm32mp_clk_get_rate+0x1fe>
2fff2638:	f8d4 2834 	ldr.w	r2, [r4, #2100]	@ 0x834
2fff263c:	f8d4 3828 	ldr.w	r3, [r4, #2088]	@ 0x828
2fff2640:	f002 0207 	and.w	r2, r2, #7
2fff2644:	f003 0301 	and.w	r3, r3, #1
2fff2648:	2a00      	cmp	r2, #0
2fff264a:	f000 80ac 	beq.w	2fff27a6 <stm32mp_clk_get_rate+0x1fe>
2fff264e:	fb03 0300 	mla	r3, r3, r0, r0
2fff2652:	0058      	lsls	r0, r3, #1
2fff2654:	e0a7      	b.n	2fff27a6 <stm32mp_clk_get_rate+0x1fe>
2fff2656:	4b59      	ldr	r3, [pc, #356]	@ (2fff27bc <stm32mp_clk_get_rate+0x214>)
2fff2658:	6858      	ldr	r0, [r3, #4]
2fff265a:	e7e7      	b.n	2fff262c <stm32mp_clk_get_rate+0x84>
2fff265c:	2100      	movs	r1, #0
2fff265e:	4608      	mov	r0, r1
2fff2660:	e081      	b.n	2fff2766 <stm32mp_clk_get_rate+0x1be>
2fff2662:	2100      	movs	r1, #0
2fff2664:	4608      	mov	r0, r1
2fff2666:	f7ff ff49 	bl	2fff24fc <stm32mp1_read_pll_freq>
2fff266a:	6aeb      	ldr	r3, [r5, #44]	@ 0x2c
2fff266c:	4a54      	ldr	r2, [pc, #336]	@ (2fff27c0 <stm32mp_clk_get_rate+0x218>)
2fff266e:	f003 0307 	and.w	r3, r3, #7
2fff2672:	5cd3      	ldrb	r3, [r2, r3]
2fff2674:	40d8      	lsrs	r0, r3
2fff2676:	e7d9      	b.n	2fff262c <stm32mp_clk_get_rate+0x84>
2fff2678:	6a43      	ldr	r3, [r0, #36]	@ 0x24
2fff267a:	f003 0307 	and.w	r3, r3, #7
2fff267e:	2b01      	cmp	r3, #1
2fff2680:	d011      	beq.n	2fff26a6 <stm32mp_clk_get_rate+0xfe>
2fff2682:	2b02      	cmp	r3, #2
2fff2684:	d012      	beq.n	2fff26ac <stm32mp_clk_get_rate+0x104>
2fff2686:	b9b3      	cbnz	r3, 2fff26b6 <stm32mp_clk_get_rate+0x10e>
2fff2688:	4b4c      	ldr	r3, [pc, #304]	@ (2fff27bc <stm32mp_clk_get_rate+0x214>)
2fff268a:	6818      	ldr	r0, [r3, #0]
2fff268c:	6b2b      	ldr	r3, [r5, #48]	@ 0x30
2fff268e:	2f1b      	cmp	r7, #27
2fff2690:	4a4c      	ldr	r2, [pc, #304]	@ (2fff27c4 <stm32mp_clk_get_rate+0x21c>)
2fff2692:	f003 0307 	and.w	r3, r3, #7
2fff2696:	5cd3      	ldrb	r3, [r2, r3]
2fff2698:	fbb0 f0f3 	udiv	r0, r0, r3
2fff269c:	d00d      	beq.n	2fff26ba <stm32mp_clk_get_rate+0x112>
2fff269e:	2f1c      	cmp	r7, #28
2fff26a0:	d1c4      	bne.n	2fff262c <stm32mp_clk_get_rate+0x84>
2fff26a2:	6c2b      	ldr	r3, [r5, #64]	@ 0x40
2fff26a4:	e7e2      	b.n	2fff266c <stm32mp_clk_get_rate+0xc4>
2fff26a6:	4b45      	ldr	r3, [pc, #276]	@ (2fff27bc <stm32mp_clk_get_rate+0x214>)
2fff26a8:	6858      	ldr	r0, [r3, #4]
2fff26aa:	e7ef      	b.n	2fff268c <stm32mp_clk_get_rate+0xe4>
2fff26ac:	2100      	movs	r1, #0
2fff26ae:	2001      	movs	r0, #1
2fff26b0:	f7ff ff24 	bl	2fff24fc <stm32mp1_read_pll_freq>
2fff26b4:	e7ea      	b.n	2fff268c <stm32mp_clk_get_rate+0xe4>
2fff26b6:	2000      	movs	r0, #0
2fff26b8:	e7e8      	b.n	2fff268c <stm32mp_clk_get_rate+0xe4>
2fff26ba:	6beb      	ldr	r3, [r5, #60]	@ 0x3c
2fff26bc:	e7d6      	b.n	2fff266c <stm32mp_clk_get_rate+0xc4>
2fff26be:	6c83      	ldr	r3, [r0, #72]	@ 0x48
2fff26c0:	f003 0307 	and.w	r3, r3, #7
2fff26c4:	2b03      	cmp	r3, #3
2fff26c6:	d821      	bhi.n	2fff270c <stm32mp_clk_get_rate+0x164>
2fff26c8:	e8df f003 	tbb	[pc, r3]
2fff26cc:	1b181502 	.word	0x1b181502
2fff26d0:	4b3a      	ldr	r3, [pc, #232]	@ (2fff27bc <stm32mp_clk_get_rate+0x214>)
2fff26d2:	6818      	ldr	r0, [r3, #0]
2fff26d4:	f8d5 2830 	ldr.w	r2, [r5, #2096]	@ 0x830
2fff26d8:	2f19      	cmp	r7, #25
2fff26da:	493b      	ldr	r1, [pc, #236]	@ (2fff27c8 <stm32mp_clk_get_rate+0x220>)
2fff26dc:	f002 020f 	and.w	r2, r2, #15
2fff26e0:	5c8a      	ldrb	r2, [r1, r2]
2fff26e2:	fa20 f002 	lsr.w	r0, r0, r2
2fff26e6:	d013      	beq.n	2fff2710 <stm32mp_clk_get_rate+0x168>
2fff26e8:	2f1a      	cmp	r7, #26
2fff26ea:	d014      	beq.n	2fff2716 <stm32mp_clk_get_rate+0x16e>
2fff26ec:	2f18      	cmp	r7, #24
2fff26ee:	d19d      	bne.n	2fff262c <stm32mp_clk_get_rate+0x84>
2fff26f0:	f8d5 3834 	ldr.w	r3, [r5, #2100]	@ 0x834
2fff26f4:	e7ba      	b.n	2fff266c <stm32mp_clk_get_rate+0xc4>
2fff26f6:	4b31      	ldr	r3, [pc, #196]	@ (2fff27bc <stm32mp_clk_get_rate+0x214>)
2fff26f8:	6858      	ldr	r0, [r3, #4]
2fff26fa:	e7eb      	b.n	2fff26d4 <stm32mp_clk_get_rate+0x12c>
2fff26fc:	4b2f      	ldr	r3, [pc, #188]	@ (2fff27bc <stm32mp_clk_get_rate+0x214>)
2fff26fe:	6898      	ldr	r0, [r3, #8]
2fff2700:	e7e8      	b.n	2fff26d4 <stm32mp_clk_get_rate+0x12c>
2fff2702:	2100      	movs	r1, #0
2fff2704:	2002      	movs	r0, #2
2fff2706:	f7ff fef9 	bl	2fff24fc <stm32mp1_read_pll_freq>
2fff270a:	e7e3      	b.n	2fff26d4 <stm32mp_clk_get_rate+0x12c>
2fff270c:	2000      	movs	r0, #0
2fff270e:	e7e1      	b.n	2fff26d4 <stm32mp_clk_get_rate+0x12c>
2fff2710:	f8d5 3838 	ldr.w	r3, [r5, #2104]	@ 0x838
2fff2714:	e7aa      	b.n	2fff266c <stm32mp_clk_get_rate+0xc4>
2fff2716:	f8d5 383c 	ldr.w	r3, [r5, #2108]	@ 0x83c
2fff271a:	e7a7      	b.n	2fff266c <stm32mp_clk_get_rate+0xc4>
2fff271c:	f8d0 30d0 	ldr.w	r3, [r0, #208]	@ 0xd0
2fff2720:	f003 0307 	and.w	r3, r3, #7
2fff2724:	2b01      	cmp	r3, #1
2fff2726:	d006      	beq.n	2fff2736 <stm32mp_clk_get_rate+0x18e>
2fff2728:	2b02      	cmp	r3, #2
2fff272a:	d094      	beq.n	2fff2656 <stm32mp_clk_get_rate+0xae>
2fff272c:	2b00      	cmp	r3, #0
2fff272e:	f43f af7b 	beq.w	2fff2628 <stm32mp_clk_get_rate+0x80>
2fff2732:	2000      	movs	r0, #0
2fff2734:	e77a      	b.n	2fff262c <stm32mp_clk_get_rate+0x84>
2fff2736:	4b21      	ldr	r3, [pc, #132]	@ (2fff27bc <stm32mp_clk_get_rate+0x214>)
2fff2738:	6898      	ldr	r0, [r3, #8]
2fff273a:	e777      	b.n	2fff262c <stm32mp_clk_get_rate+0x84>
2fff273c:	4b1f      	ldr	r3, [pc, #124]	@ (2fff27bc <stm32mp_clk_get_rate+0x214>)
2fff273e:	6858      	ldr	r0, [r3, #4]
2fff2740:	0840      	lsrs	r0, r0, #1
2fff2742:	e773      	b.n	2fff262c <stm32mp_clk_get_rate+0x84>
2fff2744:	6c43      	ldr	r3, [r0, #68]	@ 0x44
2fff2746:	4a1d      	ldr	r2, [pc, #116]	@ (2fff27bc <stm32mp_clk_get_rate+0x214>)
2fff2748:	f003 033f 	and.w	r3, r3, #63	@ 0x3f
2fff274c:	6850      	ldr	r0, [r2, #4]
2fff274e:	3301      	adds	r3, #1
2fff2750:	fbb0 f0f3 	udiv	r0, r0, r3
2fff2754:	e76a      	b.n	2fff262c <stm32mp_clk_get_rate+0x84>
2fff2756:	4b19      	ldr	r3, [pc, #100]	@ (2fff27bc <stm32mp_clk_get_rate+0x214>)
2fff2758:	68d8      	ldr	r0, [r3, #12]
2fff275a:	e767      	b.n	2fff262c <stm32mp_clk_get_rate+0x84>
2fff275c:	4b17      	ldr	r3, [pc, #92]	@ (2fff27bc <stm32mp_clk_get_rate+0x214>)
2fff275e:	6918      	ldr	r0, [r3, #16]
2fff2760:	e764      	b.n	2fff262c <stm32mp_clk_get_rate+0x84>
2fff2762:	2101      	movs	r1, #1
2fff2764:	2000      	movs	r0, #0
2fff2766:	f7ff fec9 	bl	2fff24fc <stm32mp1_read_pll_freq>
2fff276a:	e75f      	b.n	2fff262c <stm32mp_clk_get_rate+0x84>
2fff276c:	2102      	movs	r1, #2
2fff276e:	e7f9      	b.n	2fff2764 <stm32mp_clk_get_rate+0x1bc>
2fff2770:	2100      	movs	r1, #0
2fff2772:	2001      	movs	r0, #1
2fff2774:	e7f7      	b.n	2fff2766 <stm32mp_clk_get_rate+0x1be>
2fff2776:	2101      	movs	r1, #1
2fff2778:	e771      	b.n	2fff265e <stm32mp_clk_get_rate+0xb6>
2fff277a:	2102      	movs	r1, #2
2fff277c:	e7f9      	b.n	2fff2772 <stm32mp_clk_get_rate+0x1ca>
2fff277e:	2100      	movs	r1, #0
2fff2780:	2002      	movs	r0, #2
2fff2782:	e7f0      	b.n	2fff2766 <stm32mp_clk_get_rate+0x1be>
2fff2784:	2101      	movs	r1, #1
2fff2786:	e7fb      	b.n	2fff2780 <stm32mp_clk_get_rate+0x1d8>
2fff2788:	2102      	movs	r1, #2
2fff278a:	e7f9      	b.n	2fff2780 <stm32mp_clk_get_rate+0x1d8>
2fff278c:	2100      	movs	r1, #0
2fff278e:	2003      	movs	r0, #3
2fff2790:	e7e9      	b.n	2fff2766 <stm32mp_clk_get_rate+0x1be>
2fff2792:	2101      	movs	r1, #1
2fff2794:	e7fb      	b.n	2fff278e <stm32mp_clk_get_rate+0x1e6>
2fff2796:	2102      	movs	r1, #2
2fff2798:	e7f9      	b.n	2fff278e <stm32mp_clk_get_rate+0x1e6>
2fff279a:	480c      	ldr	r0, [pc, #48]	@ (2fff27cc <stm32mp_clk_get_rate+0x224>)
2fff279c:	e746      	b.n	2fff262c <stm32mp_clk_get_rate+0x84>
2fff279e:	f1a6 03ce 	sub.w	r3, r6, #206	@ 0xce
2fff27a2:	2b04      	cmp	r3, #4
2fff27a4:	d900      	bls.n	2fff27a8 <stm32mp_clk_get_rate+0x200>
2fff27a6:	bdf8      	pop	{r3, r4, r5, r6, r7, pc}
2fff27a8:	f8d4 2838 	ldr.w	r2, [r4, #2104]	@ 0x838
2fff27ac:	f8d4 382c 	ldr.w	r3, [r4, #2092]	@ 0x82c
2fff27b0:	f002 0207 	and.w	r2, r2, #7
2fff27b4:	e746      	b.n	2fff2644 <stm32mp_clk_get_rate+0x9c>
2fff27b6:	2000      	movs	r0, #0
2fff27b8:	e7f5      	b.n	2fff27a6 <stm32mp_clk_get_rate+0x1fe>
2fff27ba:	bf00      	nop
2fff27bc:	2fffc0a4 	.word	0x2fffc0a4
2fff27c0:	2fff95d4 	.word	0x2fff95d4
2fff27c4:	2fff95cc 	.word	0x2fff95cc
2fff27c8:	2fff95dc 	.word	0x2fff95dc
2fff27cc:	02dc6c00 	.word	0x02dc6c00

2fff27d0 <stm32mp1_osc_wait.isra.0>:
2fff27d0:	e92d 43f7 	stmdb	sp!, {r0, r1, r2, r4, r5, r6, r7, r8, r9, lr}
2fff27d4:	4606      	mov	r6, r0
2fff27d6:	460f      	mov	r7, r1
2fff27d8:	4614      	mov	r4, r2
2fff27da:	f001 fcb2 	bl	2fff4142 <stm32mp_rcc_base>
2fff27de:	19c2      	adds	r2, r0, r7
2fff27e0:	2e00      	cmp	r6, #0
2fff27e2:	bf14      	ite	ne
2fff27e4:	4621      	movne	r1, r4
2fff27e6:	2100      	moveq	r1, #0
2fff27e8:	ee1e 5f10 	mrc	15, 0, r5, cr14, cr0, {0}
2fff27ec:	ec59 8f0e 	mrrc	15, 0, r8, r9, cr14
2fff27f0:	eb15 0508 	adds.w	r5, r5, r8
2fff27f4:	f149 0c00 	adc.w	ip, r9, #0
2fff27f8:	6813      	ldr	r3, [r2, #0]
2fff27fa:	4023      	ands	r3, r4
2fff27fc:	428b      	cmp	r3, r1
2fff27fe:	d00c      	beq.n	2fff281a <stm32mp1_osc_wait.isra.0+0x4a>
2fff2800:	ec59 8f0e 	mrrc	15, 0, r8, r9, cr14
2fff2804:	4545      	cmp	r5, r8
2fff2806:	eb7c 0309 	sbcs.w	r3, ip, r9
2fff280a:	d2f5      	bcs.n	2fff27f8 <stm32mp1_osc_wait.isra.0+0x28>
2fff280c:	59c3      	ldr	r3, [r0, r7]
2fff280e:	4621      	mov	r1, r4
2fff2810:	4803      	ldr	r0, [pc, #12]	@ (2fff2820 <stm32mp1_osc_wait.isra.0+0x50>)
2fff2812:	9300      	str	r3, [sp, #0]
2fff2814:	4633      	mov	r3, r6
2fff2816:	f7fa ffff 	bl	2ffed818 <tf_log>
2fff281a:	b003      	add	sp, #12
2fff281c:	e8bd 83f0 	ldmia.w	sp!, {r4, r5, r6, r7, r8, r9, pc}
2fff2820:	2fff94e3 	.word	0x2fff94e3

2fff2824 <clk_stm32_set_div>:
2fff2824:	6903      	ldr	r3, [r0, #16]
2fff2826:	e92d 41f0 	stmdb	sp!, {r4, r5, r6, r7, r8, lr}
2fff282a:	428b      	cmp	r3, r1
2fff282c:	d803      	bhi.n	2fff2836 <clk_stm32_set_div+0x12>
2fff282e:	f7fb f88f 	bl	2ffed950 <console_flush>
2fff2832:	f7f6 edd4 	blx	2ffe93dc <do_panic>
2fff2836:	2306      	movs	r3, #6
2fff2838:	f04f 3cff 	mov.w	ip, #4294967295	@ 0xffffffff
2fff283c:	4359      	muls	r1, r3
2fff283e:	68c3      	ldr	r3, [r0, #12]
2fff2840:	185d      	adds	r5, r3, r1
2fff2842:	5a5e      	ldrh	r6, [r3, r1]
2fff2844:	78af      	ldrb	r7, [r5, #2]
2fff2846:	78eb      	ldrb	r3, [r5, #3]
2fff2848:	6801      	ldr	r1, [r0, #0]
2fff284a:	443b      	add	r3, r7
2fff284c:	5870      	ldr	r0, [r6, r1]
2fff284e:	f1c3 0320 	rsb	r3, r3, #32
2fff2852:	40ba      	lsls	r2, r7
2fff2854:	fa2c f303 	lsr.w	r3, ip, r3
2fff2858:	4042      	eors	r2, r0
2fff285a:	1874      	adds	r4, r6, r1
2fff285c:	4013      	ands	r3, r2
2fff285e:	fa0c fc07 	lsl.w	ip, ip, r7
2fff2862:	ea03 030c 	and.w	r3, r3, ip
2fff2866:	4043      	eors	r3, r0
2fff2868:	5073      	str	r3, [r6, r1]
2fff286a:	792d      	ldrb	r5, [r5, #4]
2fff286c:	2dff      	cmp	r5, #255	@ 0xff
2fff286e:	d013      	beq.n	2fff2898 <clk_stm32_set_div+0x74>
2fff2870:	ee1e 1f10 	mrc	15, 0, r1, cr14, cr0, {0}
2fff2874:	ec58 7f0e 	mrrc	15, 0, r7, r8, cr14
2fff2878:	480d      	ldr	r0, [pc, #52]	@ (2fff28b0 <clk_stm32_set_div+0x8c>)
2fff287a:	2300      	movs	r3, #0
2fff287c:	4a0d      	ldr	r2, [pc, #52]	@ (2fff28b4 <clk_stm32_set_div+0x90>)
2fff287e:	fba1 0100 	umull	r0, r1, r1, r0
2fff2882:	f000 edf0 	blx	2fff3464 <__aeabi_uldivmod>
2fff2886:	19c0      	adds	r0, r0, r7
2fff2888:	f04f 0301 	mov.w	r3, #1
2fff288c:	eb41 0108 	adc.w	r1, r1, r8
2fff2890:	40ab      	lsls	r3, r5
2fff2892:	6822      	ldr	r2, [r4, #0]
2fff2894:	4213      	tst	r3, r2
2fff2896:	d002      	beq.n	2fff289e <clk_stm32_set_div+0x7a>
2fff2898:	2000      	movs	r0, #0
2fff289a:	e8bd 81f0 	ldmia.w	sp!, {r4, r5, r6, r7, r8, pc}
2fff289e:	ec57 6f0e 	mrrc	15, 0, r6, r7, cr14
2fff28a2:	42b0      	cmp	r0, r6
2fff28a4:	eb71 0207 	sbcs.w	r2, r1, r7
2fff28a8:	d2f3      	bcs.n	2fff2892 <clk_stm32_set_div+0x6e>
2fff28aa:	f06f 003b 	mvn.w	r0, #59	@ 0x3b
2fff28ae:	e7f4      	b.n	2fff289a <clk_stm32_set_div+0x76>
2fff28b0:	00030d40 	.word	0x00030d40
2fff28b4:	000f4240 	.word	0x000f4240

2fff28b8 <stm32mp1_clk_rcc_regs_lock>:
2fff28b8:	4801      	ldr	r0, [pc, #4]	@ (2fff28c0 <stm32mp1_clk_rcc_regs_lock+0x8>)
2fff28ba:	f002 b9a2 	b.w	2fff4c02 <stm32mp1_clk_lock>
2fff28be:	bf00      	nop
2fff28c0:	2fffc0a0 	.word	0x2fffc0a0

2fff28c4 <stm32mp1_clk_rcc_regs_unlock>:
2fff28c4:	4801      	ldr	r0, [pc, #4]	@ (2fff28cc <stm32mp1_clk_rcc_regs_unlock+0x8>)
2fff28c6:	f002 b9a7 	b.w	2fff4c18 <stm32mp1_clk_unlock>
2fff28ca:	bf00      	nop
2fff28cc:	2fffc0a0 	.word	0x2fffc0a0

2fff28d0 <stm32mp1_clk_init>:
2fff28d0:	4bb7      	ldr	r3, [pc, #732]	@ (2fff2bb0 <stm32mp1_clk_init+0x2e0>)
2fff28d2:	e92d 4ff0 	stmdb	sp!, {r4, r5, r6, r7, r8, r9, sl, fp, lr}
2fff28d6:	b099      	sub	sp, #100	@ 0x64
2fff28d8:	f8d3 a000 	ldr.w	sl, [r3]
2fff28dc:	4605      	mov	r5, r0
2fff28de:	2080      	movs	r0, #128	@ 0x80
2fff28e0:	f8da 3014 	ldr.w	r3, [sl, #20]
2fff28e4:	685c      	ldr	r4, [r3, #4]
2fff28e6:	930f      	str	r3, [sp, #60]	@ 0x3c
2fff28e8:	f7ff fcd6 	bl	2fff2298 <stm32mp1_clk_get_parent>
2fff28ec:	9010      	str	r0, [sp, #64]	@ 0x40
2fff28ee:	207f      	movs	r0, #127	@ 0x7f
2fff28f0:	f7ff fcd2 	bl	2fff2298 <stm32mp1_clk_get_parent>
2fff28f4:	9011      	str	r0, [sp, #68]	@ 0x44
2fff28f6:	7820      	ldrb	r0, [r4, #0]
2fff28f8:	2800      	cmp	r0, #0
2fff28fa:	f040 80c3 	bne.w	2fff2a84 <stm32mp1_clk_init+0x1b4>
2fff28fe:	2d00      	cmp	r5, #0
2fff2900:	f000 80c0 	beq.w	2fff2a84 <stm32mp1_clk_init+0x1b4>
2fff2904:	6ba3      	ldr	r3, [r4, #56]	@ 0x38
2fff2906:	4aab      	ldr	r2, [pc, #684]	@ (2fff2bb4 <stm32mp1_clk_init+0x2e4>)
2fff2908:	4293      	cmp	r3, r2
2fff290a:	d006      	beq.n	2fff291a <stm32mp1_clk_init+0x4a>
2fff290c:	3201      	adds	r2, #1
2fff290e:	4293      	cmp	r3, r2
2fff2910:	d004      	beq.n	2fff291c <stm32mp1_clk_init+0x4c>
2fff2912:	f7fb f81d 	bl	2ffed950 <console_flush>
2fff2916:	f7f6 ed62 	blx	2ffe93dc <do_panic>
2fff291a:	2004      	movs	r0, #4
2fff291c:	f7ff fe44 	bl	2fff25a8 <stm32mp_clk_get_rate>
2fff2920:	9001      	str	r0, [sp, #4]
2fff2922:	9b01      	ldr	r3, [sp, #4]
2fff2924:	2b00      	cmp	r3, #0
2fff2926:	d0f4      	beq.n	2fff2912 <stm32mp1_clk_init+0x42>
2fff2928:	2300      	movs	r3, #0
2fff292a:	f04f 3bff 	mov.w	fp, #4294967295	@ 0xffffffff
2fff292e:	6163      	str	r3, [r4, #20]
2fff2930:	61a3      	str	r3, [r4, #24]
2fff2932:	2301      	movs	r3, #1
2fff2934:	61e3      	str	r3, [r4, #28]
2fff2936:	f44f 737a 	mov.w	r3, #1000	@ 0x3e8
2fff293a:	fba5 3203 	umull	r3, r2, r5, r3
2fff293e:	f8cd b030 	str.w	fp, [sp, #48]	@ 0x30
2fff2942:	9307      	str	r3, [sp, #28]
2fff2944:	f44f 437a 	mov.w	r3, #64000	@ 0xfa00
2fff2948:	9208      	str	r2, [sp, #32]
2fff294a:	fba5 3203 	umull	r3, r2, r5, r3
2fff294e:	9309      	str	r3, [sp, #36]	@ 0x24
2fff2950:	2340      	movs	r3, #64	@ 0x40
2fff2952:	920a      	str	r2, [sp, #40]	@ 0x28
2fff2954:	9304      	str	r3, [sp, #16]
2fff2956:	9b01      	ldr	r3, [sp, #4]
2fff2958:	9a04      	ldr	r2, [sp, #16]
2fff295a:	fbb3 f7f2 	udiv	r7, r3, r2
2fff295e:	4a96      	ldr	r2, [pc, #600]	@ (2fff2bb8 <stm32mp1_clk_init+0x2e8>)
2fff2960:	f5a7 03f4 	sub.w	r3, r7, #7995392	@ 0x7a0000
2fff2964:	f5a3 5390 	sub.w	r3, r3, #4608	@ 0x1200
2fff2968:	4293      	cmp	r3, r2
2fff296a:	f200 8104 	bhi.w	2fff2b76 <stm32mp1_clk_init+0x2a6>
2fff296e:	9b09      	ldr	r3, [sp, #36]	@ 0x24
2fff2970:	9306      	str	r3, [sp, #24]
2fff2972:	9b0a      	ldr	r3, [sp, #40]	@ 0x28
2fff2974:	930d      	str	r3, [sp, #52]	@ 0x34
2fff2976:	2301      	movs	r3, #1
2fff2978:	9302      	str	r3, [sp, #8]
2fff297a:	2300      	movs	r3, #0
2fff297c:	930b      	str	r3, [sp, #44]	@ 0x2c
2fff297e:	9b04      	ldr	r3, [sp, #16]
2fff2980:	3b01      	subs	r3, #1
2fff2982:	9317      	str	r3, [sp, #92]	@ 0x5c
2fff2984:	9a01      	ldr	r2, [sp, #4]
2fff2986:	2300      	movs	r3, #0
2fff2988:	9806      	ldr	r0, [sp, #24]
2fff298a:	990d      	ldr	r1, [sp, #52]	@ 0x34
2fff298c:	f000 ed6a 	blx	2fff3464 <__aeabi_uldivmod>
2fff2990:	f1b0 0219 	subs.w	r2, r0, #25
2fff2994:	4680      	mov	r8, r0
2fff2996:	f161 0300 	sbc.w	r3, r1, #0
2fff299a:	2a4c      	cmp	r2, #76	@ 0x4c
2fff299c:	f173 0300 	sbcs.w	r3, r3, #0
2fff29a0:	460e      	mov	r6, r1
2fff29a2:	4605      	mov	r5, r0
2fff29a4:	f080 80d1 	bcs.w	2fff2b4a <stm32mp1_clk_init+0x27a>
2fff29a8:	9b0d      	ldr	r3, [sp, #52]	@ 0x34
2fff29aa:	f8dd c018 	ldr.w	ip, [sp, #24]
2fff29ae:	9806      	ldr	r0, [sp, #24]
2fff29b0:	0359      	lsls	r1, r3, #13
2fff29b2:	2300      	movs	r3, #0
2fff29b4:	9a01      	ldr	r2, [sp, #4]
2fff29b6:	0340      	lsls	r0, r0, #13
2fff29b8:	ea41 41dc 	orr.w	r1, r1, ip, lsr #19
2fff29bc:	f000 ed52 	blx	2fff3464 <__aeabi_uldivmod>
2fff29c0:	0373      	lsls	r3, r6, #13
2fff29c2:	ea43 43d8 	orr.w	r3, r3, r8, lsr #19
2fff29c6:	ea4f 3848 	mov.w	r8, r8, lsl #13
2fff29ca:	ebb0 0008 	subs.w	r0, r0, r8
2fff29ce:	eb61 0103 	sbc.w	r1, r1, r3
2fff29d2:	f242 0301 	movw	r3, #8193	@ 0x2001
2fff29d6:	4298      	cmp	r0, r3
2fff29d8:	f171 0300 	sbcs.w	r3, r1, #0
2fff29dc:	f080 80b5 	bcs.w	2fff2b4a <stm32mp1_clk_init+0x27a>
2fff29e0:	9b02      	ldr	r3, [sp, #8]
2fff29e2:	fba0 8907 	umull	r8, r9, r0, r7
2fff29e6:	3b01      	subs	r3, #1
2fff29e8:	9312      	str	r3, [sp, #72]	@ 0x48
2fff29ea:	1e6b      	subs	r3, r5, #1
2fff29ec:	9315      	str	r3, [sp, #84]	@ 0x54
2fff29ee:	fba5 3207 	umull	r3, r2, r5, r7
2fff29f2:	fb07 9901 	mla	r9, r7, r1, r9
2fff29f6:	9316      	str	r3, [sp, #88]	@ 0x58
2fff29f8:	fb07 2306 	mla	r3, r7, r6, r2
2fff29fc:	1c46      	adds	r6, r0, #1
2fff29fe:	f141 0500 	adc.w	r5, r1, #0
2fff2a02:	930e      	str	r3, [sp, #56]	@ 0x38
2fff2a04:	1c83      	adds	r3, r0, #2
2fff2a06:	9313      	str	r3, [sp, #76]	@ 0x4c
2fff2a08:	f141 0300 	adc.w	r3, r1, #0
2fff2a0c:	9314      	str	r3, [sp, #80]	@ 0x50
2fff2a0e:	9b16      	ldr	r3, [sp, #88]	@ 0x58
2fff2a10:	ea4f 3058 	mov.w	r0, r8, lsr #13
2fff2a14:	ea40 40c9 	orr.w	r0, r0, r9, lsl #19
2fff2a18:	18c0      	adds	r0, r0, r3
2fff2a1a:	9b0e      	ldr	r3, [sp, #56]	@ 0x38
2fff2a1c:	f8df c19c 	ldr.w	ip, [pc, #412]	@ 2fff2bbc <stm32mp1_clk_init+0x2ec>
2fff2a20:	eb43 3159 	adc.w	r1, r3, r9, lsr #13
2fff2a24:	4b66      	ldr	r3, [pc, #408]	@ (2fff2bc0 <stm32mp1_clk_init+0x2f0>)
2fff2a26:	18c2      	adds	r2, r0, r3
2fff2a28:	f161 0300 	sbc.w	r3, r1, #0
2fff2a2c:	4594      	cmp	ip, r2
2fff2a2e:	f04f 0200 	mov.w	r2, #0
2fff2a32:	eb72 0303 	sbcs.w	r3, r2, r3
2fff2a36:	f0c0 8082 	bcc.w	2fff2b3e <stm32mp1_clk_init+0x26e>
2fff2a3a:	9a02      	ldr	r2, [sp, #8]
2fff2a3c:	9b0b      	ldr	r3, [sp, #44]	@ 0x2c
2fff2a3e:	f000 ed12 	blx	2fff3464 <__aeabi_uldivmod>
2fff2a42:	f8dd c01c 	ldr.w	ip, [sp, #28]
2fff2a46:	4603      	mov	r3, r0
2fff2a48:	460a      	mov	r2, r1
2fff2a4a:	4584      	cmp	ip, r0
2fff2a4c:	9808      	ldr	r0, [sp, #32]
2fff2a4e:	4188      	sbcs	r0, r1
2fff2a50:	d26d      	bcs.n	2fff2b2e <stm32mp1_clk_init+0x25e>
2fff2a52:	ebb3 030c 	subs.w	r3, r3, ip
2fff2a56:	9a08      	ldr	r2, [sp, #32]
2fff2a58:	eb61 0102 	sbc.w	r1, r1, r2
2fff2a5c:	9a0c      	ldr	r2, [sp, #48]	@ 0x30
2fff2a5e:	455b      	cmp	r3, fp
2fff2a60:	eb71 0202 	sbcs.w	r2, r1, r2
2fff2a64:	d267      	bcs.n	2fff2b36 <stm32mp1_clk_init+0x266>
2fff2a66:	9a17      	ldr	r2, [sp, #92]	@ 0x5c
2fff2a68:	60a2      	str	r2, [r4, #8]
2fff2a6a:	9a15      	ldr	r2, [sp, #84]	@ 0x54
2fff2a6c:	60e2      	str	r2, [r4, #12]
2fff2a6e:	9a12      	ldr	r2, [sp, #72]	@ 0x48
2fff2a70:	6122      	str	r2, [r4, #16]
2fff2a72:	1e72      	subs	r2, r6, #1
2fff2a74:	6222      	str	r2, [r4, #32]
2fff2a76:	ea53 0201 	orrs.w	r2, r3, r1
2fff2a7a:	d15e      	bne.n	2fff2b3a <stm32mp1_clk_init+0x26a>
2fff2a7c:	2301      	movs	r3, #1
2fff2a7e:	7023      	strb	r3, [r4, #0]
2fff2a80:	6ba3      	ldr	r3, [r4, #56]	@ 0x38
2fff2a82:	6063      	str	r3, [r4, #4]
2fff2a84:	4d4f      	ldr	r5, [pc, #316]	@ (2fff2bc4 <stm32mp1_clk_init+0x2f4>)
2fff2a86:	68eb      	ldr	r3, [r5, #12]
2fff2a88:	b16b      	cbz	r3, 2fff2aa6 <stm32mp1_clk_init+0x1d6>
2fff2a8a:	f001 fb5a 	bl	2fff4142 <stm32mp_rcc_base>
2fff2a8e:	f8d0 3144 	ldr.w	r3, [r0, #324]	@ 0x144
2fff2a92:	2202      	movs	r2, #2
2fff2a94:	f44f 71a2 	mov.w	r1, #324	@ 0x144
2fff2a98:	f043 0301 	orr.w	r3, r3, #1
2fff2a9c:	f8c0 3144 	str.w	r3, [r0, #324]	@ 0x144
2fff2aa0:	2001      	movs	r0, #1
2fff2aa2:	f7ff fe95 	bl	2fff27d0 <stm32mp1_osc_wait.isra.0>
2fff2aa6:	692b      	ldr	r3, [r5, #16]
2fff2aa8:	2b00      	cmp	r3, #0
2fff2aaa:	f000 80a7 	beq.w	2fff2bfc <stm32mp1_clk_init+0x32c>
2fff2aae:	4b46      	ldr	r3, [pc, #280]	@ (2fff2bc8 <stm32mp1_clk_init+0x2f8>)
2fff2ab0:	4946      	ldr	r1, [pc, #280]	@ (2fff2bcc <stm32mp1_clk_init+0x2fc>)
2fff2ab2:	691e      	ldr	r6, [r3, #16]
2fff2ab4:	4630      	mov	r0, r6
2fff2ab6:	f7fc f80b 	bl	2ffeead0 <fdt_clk_read_bool>
2fff2aba:	4945      	ldr	r1, [pc, #276]	@ (2fff2bd0 <stm32mp1_clk_init+0x300>)
2fff2abc:	4607      	mov	r7, r0
2fff2abe:	4630      	mov	r0, r6
2fff2ac0:	f7fc f806 	bl	2ffeead0 <fdt_clk_read_bool>
2fff2ac4:	4943      	ldr	r1, [pc, #268]	@ (2fff2bd4 <stm32mp1_clk_init+0x304>)
2fff2ac6:	4680      	mov	r8, r0
2fff2ac8:	4630      	mov	r0, r6
2fff2aca:	f7fc f801 	bl	2ffeead0 <fdt_clk_read_bool>
2fff2ace:	9b0f      	ldr	r3, [sp, #60]	@ 0x3c
2fff2ad0:	2202      	movs	r2, #2
2fff2ad2:	4941      	ldr	r1, [pc, #260]	@ (2fff2bd8 <stm32mp1_clk_init+0x308>)
2fff2ad4:	7618      	strb	r0, [r3, #24]
2fff2ad6:	4630      	mov	r0, r6
2fff2ad8:	f7fc f82e 	bl	2ffeeb38 <fdt_clk_read_uint32_default>
2fff2adc:	4606      	mov	r6, r0
2fff2ade:	f001 fb30 	bl	2fff4142 <stm32mp_rcc_base>
2fff2ae2:	f8d0 3140 	ldr.w	r3, [r0, #320]	@ 0x140
2fff2ae6:	f500 71a0 	add.w	r1, r0, #320	@ 0x140
2fff2aea:	07db      	lsls	r3, r3, #31
2fff2aec:	f100 8086 	bmi.w	2fff2bfc <stm32mp1_clk_init+0x32c>
2fff2af0:	f1b8 0f00 	cmp.w	r8, #0
2fff2af4:	d072      	beq.n	2fff2bdc <stm32mp1_clk_init+0x30c>
2fff2af6:	f8d0 3140 	ldr.w	r3, [r0, #320]	@ 0x140
2fff2afa:	f043 0308 	orr.w	r3, r3, #8
2fff2afe:	f8c0 3140 	str.w	r3, [r0, #320]	@ 0x140
2fff2b02:	f8d0 3140 	ldr.w	r3, [r0, #320]	@ 0x140
2fff2b06:	f043 0302 	orr.w	r3, r3, #2
2fff2b0a:	f8c0 3140 	str.w	r3, [r0, #320]	@ 0x140
2fff2b0e:	e067      	b.n	2fff2be0 <stm32mp1_clk_init+0x310>
2fff2b10:	eb18 0807 	adds.w	r8, r8, r7
2fff2b14:	f149 0900 	adc.w	r9, r9, #0
2fff2b18:	1c72      	adds	r2, r6, #1
2fff2b1a:	f145 0300 	adc.w	r3, r5, #0
2fff2b1e:	f5a6 5600 	sub.w	r6, r6, #8192	@ 0x2000
2fff2b22:	3e01      	subs	r6, #1
2fff2b24:	432e      	orrs	r6, r5
2fff2b26:	d010      	beq.n	2fff2b4a <stm32mp1_clk_init+0x27a>
2fff2b28:	4616      	mov	r6, r2
2fff2b2a:	461d      	mov	r5, r3
2fff2b2c:	e76f      	b.n	2fff2a0e <stm32mp1_clk_init+0x13e>
2fff2b2e:	9907      	ldr	r1, [sp, #28]
2fff2b30:	1acb      	subs	r3, r1, r3
2fff2b32:	9908      	ldr	r1, [sp, #32]
2fff2b34:	e790      	b.n	2fff2a58 <stm32mp1_clk_init+0x188>
2fff2b36:	990c      	ldr	r1, [sp, #48]	@ 0x30
2fff2b38:	465b      	mov	r3, fp
2fff2b3a:	910c      	str	r1, [sp, #48]	@ 0x30
2fff2b3c:	469b      	mov	fp, r3
2fff2b3e:	9b13      	ldr	r3, [sp, #76]	@ 0x4c
2fff2b40:	9a14      	ldr	r2, [sp, #80]	@ 0x50
2fff2b42:	42aa      	cmp	r2, r5
2fff2b44:	bf08      	it	eq
2fff2b46:	42b3      	cmpeq	r3, r6
2fff2b48:	d1e2      	bne.n	2fff2b10 <stm32mp1_clk_init+0x240>
2fff2b4a:	9a06      	ldr	r2, [sp, #24]
2fff2b4c:	9b09      	ldr	r3, [sp, #36]	@ 0x24
2fff2b4e:	189b      	adds	r3, r3, r2
2fff2b50:	9306      	str	r3, [sp, #24]
2fff2b52:	9a0d      	ldr	r2, [sp, #52]	@ 0x34
2fff2b54:	9b0a      	ldr	r3, [sp, #40]	@ 0x28
2fff2b56:	eb43 0302 	adc.w	r3, r3, r2
2fff2b5a:	930d      	str	r3, [sp, #52]	@ 0x34
2fff2b5c:	9b02      	ldr	r3, [sp, #8]
2fff2b5e:	3301      	adds	r3, #1
2fff2b60:	9302      	str	r3, [sp, #8]
2fff2b62:	9b0b      	ldr	r3, [sp, #44]	@ 0x2c
2fff2b64:	f143 0300 	adc.w	r3, r3, #0
2fff2b68:	930b      	str	r3, [sp, #44]	@ 0x2c
2fff2b6a:	9b02      	ldr	r3, [sp, #8]
2fff2b6c:	9a0b      	ldr	r2, [sp, #44]	@ 0x2c
2fff2b6e:	3b81      	subs	r3, #129	@ 0x81
2fff2b70:	4313      	orrs	r3, r2
2fff2b72:	f47f af07 	bne.w	2fff2984 <stm32mp1_clk_init+0xb4>
2fff2b76:	9b09      	ldr	r3, [sp, #36]	@ 0x24
2fff2b78:	9a07      	ldr	r2, [sp, #28]
2fff2b7a:	1a9b      	subs	r3, r3, r2
2fff2b7c:	9309      	str	r3, [sp, #36]	@ 0x24
2fff2b7e:	9a08      	ldr	r2, [sp, #32]
2fff2b80:	9b0a      	ldr	r3, [sp, #40]	@ 0x28
2fff2b82:	eb63 0302 	sbc.w	r3, r3, r2
2fff2b86:	930a      	str	r3, [sp, #40]	@ 0x28
2fff2b88:	9b04      	ldr	r3, [sp, #16]
2fff2b8a:	3b01      	subs	r3, #1
2fff2b8c:	9304      	str	r3, [sp, #16]
2fff2b8e:	f47f aee2 	bne.w	2fff2956 <stm32mp1_clk_init+0x86>
2fff2b92:	9b0c      	ldr	r3, [sp, #48]	@ 0x30
2fff2b94:	f1b3 3fff 	cmp.w	r3, #4294967295	@ 0xffffffff
2fff2b98:	bf08      	it	eq
2fff2b9a:	f1bb 3fff 	cmpeq.w	fp, #4294967295	@ 0xffffffff
2fff2b9e:	f47f af6d 	bne.w	2fff2a7c <stm32mp1_clk_init+0x1ac>
2fff2ba2:	f06f 0515 	mvn.w	r5, #21
2fff2ba6:	4628      	mov	r0, r5
2fff2ba8:	b019      	add	sp, #100	@ 0x64
2fff2baa:	e8bd 8ff0 	ldmia.w	sp!, {r4, r5, r6, r7, r8, r9, sl, fp, pc}
2fff2bae:	bf00      	nop
2fff2bb0:	2fffc0bc 	.word	0x2fffc0bc
2fff2bb4:	04000030 	.word	0x04000030
2fff2bb8:	007a1200 	.word	0x007a1200
2fff2bbc:	17d78400 	.word	0x17d78400
2fff2bc0:	e8287c00 	.word	0xe8287c00
2fff2bc4:	2fffc0a4 	.word	0x2fffc0a4
2fff2bc8:	2fffa59c 	.word	0x2fffa59c
2fff2bcc:	2fff950f 	.word	0x2fff950f
2fff2bd0:	2fff9519 	.word	0x2fff9519
2fff2bd4:	2fff9526 	.word	0x2fff9526
2fff2bd8:	2fff952d 	.word	0x2fff952d
2fff2bdc:	2f00      	cmp	r7, #0
2fff2bde:	d190      	bne.n	2fff2b02 <stm32mp1_clk_init+0x232>
2fff2be0:	f8d0 3140 	ldr.w	r3, [r0, #320]	@ 0x140
2fff2be4:	f3c3 1301 	ubfx	r3, r3, #4, #2
2fff2be8:	429e      	cmp	r6, r3
2fff2bea:	d127      	bne.n	2fff2c3c <stm32mp1_clk_init+0x36c>
2fff2bec:	f001 faa9 	bl	2fff4142 <stm32mp_rcc_base>
2fff2bf0:	f8d0 3140 	ldr.w	r3, [r0, #320]	@ 0x140
2fff2bf4:	f043 0301 	orr.w	r3, r3, #1
2fff2bf8:	f8c0 3140 	str.w	r3, [r0, #320]	@ 0x140
2fff2bfc:	686b      	ldr	r3, [r5, #4]
2fff2bfe:	2b00      	cmp	r3, #0
2fff2c00:	d037      	beq.n	2fff2c72 <stm32mp1_clk_init+0x3a2>
2fff2c02:	4baa      	ldr	r3, [pc, #680]	@ (2fff2eac <stm32mp1_clk_init+0x5dc>)
2fff2c04:	49aa      	ldr	r1, [pc, #680]	@ (2fff2eb0 <stm32mp1_clk_init+0x5e0>)
2fff2c06:	685d      	ldr	r5, [r3, #4]
2fff2c08:	4628      	mov	r0, r5
2fff2c0a:	f7fb ff61 	bl	2ffeead0 <fdt_clk_read_bool>
2fff2c0e:	49a9      	ldr	r1, [pc, #676]	@ (2fff2eb4 <stm32mp1_clk_init+0x5e4>)
2fff2c10:	4607      	mov	r7, r0
2fff2c12:	4628      	mov	r0, r5
2fff2c14:	f7fb ff5c 	bl	2ffeead0 <fdt_clk_read_bool>
2fff2c18:	49a7      	ldr	r1, [pc, #668]	@ (2fff2eb8 <stm32mp1_clk_init+0x5e8>)
2fff2c1a:	4680      	mov	r8, r0
2fff2c1c:	4628      	mov	r0, r5
2fff2c1e:	f7fb ff57 	bl	2ffeead0 <fdt_clk_read_bool>
2fff2c22:	4606      	mov	r6, r0
2fff2c24:	f001 fa8d 	bl	2fff4142 <stm32mp_rcc_base>
2fff2c28:	4605      	mov	r5, r0
2fff2c2a:	f1b8 0f00 	cmp.w	r8, #0
2fff2c2e:	d010      	beq.n	2fff2c52 <stm32mp1_clk_init+0x382>
2fff2c30:	2380      	movs	r3, #128	@ 0x80
2fff2c32:	60c3      	str	r3, [r0, #12]
2fff2c34:	f44f 6380 	mov.w	r3, #1024	@ 0x400
2fff2c38:	60eb      	str	r3, [r5, #12]
2fff2c3a:	e00c      	b.n	2fff2c56 <stm32mp1_clk_init+0x386>
2fff2c3c:	680a      	ldr	r2, [r1, #0]
2fff2c3e:	bf34      	ite	cc
2fff2c40:	f103 33ff 	addcc.w	r3, r3, #4294967295	@ 0xffffffff
2fff2c44:	3301      	addcs	r3, #1
2fff2c46:	f022 0230 	bic.w	r2, r2, #48	@ 0x30
2fff2c4a:	ea42 1203 	orr.w	r2, r2, r3, lsl #4
2fff2c4e:	600a      	str	r2, [r1, #0]
2fff2c50:	e7ca      	b.n	2fff2be8 <stm32mp1_clk_init+0x318>
2fff2c52:	2f00      	cmp	r7, #0
2fff2c54:	d1ee      	bne.n	2fff2c34 <stm32mp1_clk_init+0x364>
2fff2c56:	f001 fa74 	bl	2fff4142 <stm32mp_rcc_base>
2fff2c5a:	f44f 7280 	mov.w	r2, #256	@ 0x100
2fff2c5e:	f640 0108 	movw	r1, #2056	@ 0x808
2fff2c62:	60c2      	str	r2, [r0, #12]
2fff2c64:	2001      	movs	r0, #1
2fff2c66:	f7ff fdb3 	bl	2fff27d0 <stm32mp1_osc_wait.isra.0>
2fff2c6a:	b116      	cbz	r6, 2fff2c72 <stm32mp1_clk_init+0x3a2>
2fff2c6c:	f44f 6300 	mov.w	r3, #2048	@ 0x800
2fff2c70:	60eb      	str	r3, [r5, #12]
2fff2c72:	f001 fa66 	bl	2fff4142 <stm32mp_rcc_base>
2fff2c76:	2210      	movs	r2, #16
2fff2c78:	f640 0108 	movw	r1, #2056	@ 0x808
2fff2c7c:	60c2      	str	r2, [r0, #12]
2fff2c7e:	2001      	movs	r0, #1
2fff2c80:	f7ff fda6 	bl	2fff27d0 <stm32mp1_osc_wait.isra.0>
2fff2c84:	f04f 6180 	mov.w	r1, #67108864	@ 0x4000000
2fff2c88:	4650      	mov	r0, sl
2fff2c8a:	f7ff fbef 	bl	2fff246c <stm32_clk_configure_mux>
2fff2c8e:	4605      	mov	r5, r0
2fff2c90:	2800      	cmp	r0, #0
2fff2c92:	d188      	bne.n	2fff2ba6 <stm32mp1_clk_init+0x2d6>
2fff2c94:	4989      	ldr	r1, [pc, #548]	@ (2fff2ebc <stm32mp1_clk_init+0x5ec>)
2fff2c96:	4650      	mov	r0, sl
2fff2c98:	f7ff fbe8 	bl	2fff246c <stm32_clk_configure_mux>
2fff2c9c:	4605      	mov	r5, r0
2fff2c9e:	2800      	cmp	r0, #0
2fff2ca0:	d181      	bne.n	2fff2ba6 <stm32mp1_clk_init+0x2d6>
2fff2ca2:	4987      	ldr	r1, [pc, #540]	@ (2fff2ec0 <stm32mp1_clk_init+0x5f0>)
2fff2ca4:	4650      	mov	r0, sl
2fff2ca6:	f7ff fbe1 	bl	2fff246c <stm32_clk_configure_mux>
2fff2caa:	4605      	mov	r5, r0
2fff2cac:	2800      	cmp	r0, #0
2fff2cae:	f47f af7a 	bne.w	2fff2ba6 <stm32mp1_clk_init+0x2d6>
2fff2cb2:	f8da 3000 	ldr.w	r3, [sl]
2fff2cb6:	f8d3 6408 	ldr.w	r6, [r3, #1032]	@ 0x408
2fff2cba:	f416 5600 	ands.w	r6, r6, #8192	@ 0x2000
2fff2cbe:	d02a      	beq.n	2fff2d16 <stm32mp1_clk_init+0x446>
2fff2cc0:	f8d4 3088 	ldr.w	r3, [r4, #136]	@ 0x88
2fff2cc4:	f104 0270 	add.w	r2, r4, #112	@ 0x70
2fff2cc8:	6ee1      	ldr	r1, [r4, #108]	@ 0x6c
2fff2cca:	2002      	movs	r0, #2
2fff2ccc:	f7ff fa32 	bl	2fff2134 <stm32mp1_check_pll_conf>
2fff2cd0:	9002      	str	r0, [sp, #8]
2fff2cd2:	f104 02a4 	add.w	r2, r4, #164	@ 0xa4
2fff2cd6:	f8d4 30bc 	ldr.w	r3, [r4, #188]	@ 0xbc
2fff2cda:	2003      	movs	r0, #3
2fff2cdc:	f8d4 10a0 	ldr.w	r1, [r4, #160]	@ 0xa0
2fff2ce0:	f7ff fa28 	bl	2fff2134 <stm32mp1_check_pll_conf>
2fff2ce4:	4606      	mov	r6, r0
2fff2ce6:	f7fa fefd 	bl	2ffedae4 <stm32mp_get_boot_itf_selected>
2fff2cea:	2806      	cmp	r0, #6
2fff2cec:	d115      	bne.n	2fff2d1a <stm32mp1_clk_init+0x44a>
2fff2cee:	9b10      	ldr	r3, [sp, #64]	@ 0x40
2fff2cf0:	2b16      	cmp	r3, #22
2fff2cf2:	d002      	beq.n	2fff2cfa <stm32mp1_clk_init+0x42a>
2fff2cf4:	9b11      	ldr	r3, [sp, #68]	@ 0x44
2fff2cf6:	2b16      	cmp	r3, #22
2fff2cf8:	d10f      	bne.n	2fff2d1a <stm32mp1_clk_init+0x44a>
2fff2cfa:	2601      	movs	r6, #1
2fff2cfc:	9601      	str	r6, [sp, #4]
2fff2cfe:	4b71      	ldr	r3, [pc, #452]	@ (2fff2ec4 <stm32mp1_clk_init+0x5f4>)
2fff2d00:	2500      	movs	r5, #0
2fff2d02:	9306      	str	r3, [sp, #24]
2fff2d04:	461f      	mov	r7, r3
2fff2d06:	2d02      	cmp	r5, #2
2fff2d08:	d10a      	bne.n	2fff2d20 <stm32mp1_clk_init+0x450>
2fff2d0a:	9b02      	ldr	r3, [sp, #8]
2fff2d0c:	b153      	cbz	r3, 2fff2d24 <stm32mp1_clk_init+0x454>
2fff2d0e:	3720      	adds	r7, #32
2fff2d10:	2503      	movs	r5, #3
2fff2d12:	b13e      	cbz	r6, 2fff2d24 <stm32mp1_clk_init+0x454>
2fff2d14:	e02f      	b.n	2fff2d76 <stm32mp1_clk_init+0x4a6>
2fff2d16:	9602      	str	r6, [sp, #8]
2fff2d18:	e7e5      	b.n	2fff2ce6 <stm32mp1_clk_init+0x416>
2fff2d1a:	2300      	movs	r3, #0
2fff2d1c:	9301      	str	r3, [sp, #4]
2fff2d1e:	e7ee      	b.n	2fff2cfe <stm32mp1_clk_init+0x42e>
2fff2d20:	2d03      	cmp	r5, #3
2fff2d22:	d0f6      	beq.n	2fff2d12 <stm32mp1_clk_init+0x442>
2fff2d24:	f001 fa0d 	bl	2fff4142 <stm32mp_rcc_base>
2fff2d28:	89bb      	ldrh	r3, [r7, #12]
2fff2d2a:	581a      	ldr	r2, [r3, r0]
2fff2d2c:	eb03 0b00 	add.w	fp, r3, r0
2fff2d30:	f022 0270 	bic.w	r2, r2, #112	@ 0x70
2fff2d34:	501a      	str	r2, [r3, r0]
2fff2d36:	581a      	ldr	r2, [r3, r0]
2fff2d38:	f022 0201 	bic.w	r2, r2, #1
2fff2d3c:	501a      	str	r2, [r3, r0]
2fff2d3e:	ee1e 0f10 	mrc	15, 0, r0, cr14, cr0, {0}
2fff2d42:	ec53 2f0e 	mrrc	15, 0, r2, r3, cr14
2fff2d46:	4960      	ldr	r1, [pc, #384]	@ (2fff2ec8 <stm32mp1_clk_init+0x5f8>)
2fff2d48:	e9cd 2304 	strd	r2, r3, [sp, #16]
2fff2d4c:	f8dd 8010 	ldr.w	r8, [sp, #16]
2fff2d50:	2300      	movs	r3, #0
2fff2d52:	4a5e      	ldr	r2, [pc, #376]	@ (2fff2ecc <stm32mp1_clk_init+0x5fc>)
2fff2d54:	fba0 0101 	umull	r0, r1, r0, r1
2fff2d58:	f000 eb84 	blx	2fff3464 <__aeabi_uldivmod>
2fff2d5c:	9b05      	ldr	r3, [sp, #20]
2fff2d5e:	eb10 0008 	adds.w	r0, r0, r8
2fff2d62:	eb41 0103 	adc.w	r1, r1, r3
2fff2d66:	f8db 3000 	ldr.w	r3, [fp]
2fff2d6a:	079a      	lsls	r2, r3, #30
2fff2d6c:	d430      	bmi.n	2fff2dd0 <stm32mp1_clk_init+0x500>
2fff2d6e:	3501      	adds	r5, #1
2fff2d70:	3720      	adds	r7, #32
2fff2d72:	2d04      	cmp	r5, #4
2fff2d74:	d1c7      	bne.n	2fff2d06 <stm32mp1_clk_init+0x436>
2fff2d76:	4b56      	ldr	r3, [pc, #344]	@ (2fff2ed0 <stm32mp1_clk_init+0x600>)
2fff2d78:	681b      	ldr	r3, [r3, #0]
2fff2d7a:	bb93      	cbnz	r3, 2fff2de2 <stm32mp1_clk_init+0x512>
2fff2d7c:	f8da 8014 	ldr.w	r8, [sl, #20]
2fff2d80:	2700      	movs	r7, #0
2fff2d82:	f8d8 3010 	ldr.w	r3, [r8, #16]
2fff2d86:	429f      	cmp	r7, r3
2fff2d88:	d377      	bcc.n	2fff2e7a <stm32mp1_clk_init+0x5aa>
2fff2d8a:	2100      	movs	r1, #0
2fff2d8c:	4650      	mov	r0, sl
2fff2d8e:	f001 ff69 	bl	2fff4c64 <stm32mp1_pll_configure_src>
2fff2d92:	4605      	mov	r5, r0
2fff2d94:	2800      	cmp	r0, #0
2fff2d96:	f47f af06 	bne.w	2fff2ba6 <stm32mp1_clk_init+0x2d6>
2fff2d9a:	9b02      	ldr	r3, [sp, #8]
2fff2d9c:	2b00      	cmp	r3, #0
2fff2d9e:	d07c      	beq.n	2fff2e9a <stm32mp1_clk_init+0x5ca>
2fff2da0:	b92e      	cbnz	r6, 2fff2dae <stm32mp1_clk_init+0x4de>
2fff2da2:	2103      	movs	r1, #3
2fff2da4:	4650      	mov	r0, sl
2fff2da6:	f001 ff5d 	bl	2fff4c64 <stm32mp1_pll_configure_src>
2fff2daa:	2800      	cmp	r0, #0
2fff2dac:	d17c      	bne.n	2fff2ea8 <stm32mp1_clk_init+0x5d8>
2fff2dae:	f8df 8114 	ldr.w	r8, [pc, #276]	@ 2fff2ec4 <stm32mp1_clk_init+0x5f4>
2fff2db2:	f04f 0900 	mov.w	r9, #0
2fff2db6:	f8df b11c 	ldr.w	fp, [pc, #284]	@ 2fff2ed4 <stm32mp1_clk_init+0x604>
2fff2dba:	f1b9 0f02 	cmp.w	r9, #2
2fff2dbe:	f040 8095 	bne.w	2fff2eec <stm32mp1_clk_init+0x61c>
2fff2dc2:	9b02      	ldr	r3, [sp, #8]
2fff2dc4:	2b00      	cmp	r3, #0
2fff2dc6:	f000 8147 	beq.w	2fff3058 <stm32mp1_clk_init+0x788>
2fff2dca:	f108 0820 	add.w	r8, r8, #32
2fff2dce:	e091      	b.n	2fff2ef4 <stm32mp1_clk_init+0x624>
2fff2dd0:	ec53 2f0e 	mrrc	15, 0, r2, r3, cr14
2fff2dd4:	4290      	cmp	r0, r2
2fff2dd6:	eb71 0303 	sbcs.w	r3, r1, r3
2fff2dda:	d2c4      	bcs.n	2fff2d66 <stm32mp1_clk_init+0x496>
2fff2ddc:	f06f 053b 	mvn.w	r5, #59	@ 0x3b
2fff2de0:	e6e1      	b.n	2fff2ba6 <stm32mp1_clk_init+0x2d6>
2fff2de2:	4a3d      	ldr	r2, [pc, #244]	@ (2fff2ed8 <stm32mp1_clk_init+0x608>)
2fff2de4:	4293      	cmp	r3, r2
2fff2de6:	d02f      	beq.n	2fff2e48 <stm32mp1_clk_init+0x578>
2fff2de8:	4a3c      	ldr	r2, [pc, #240]	@ (2fff2edc <stm32mp1_clk_init+0x60c>)
2fff2dea:	4293      	cmp	r3, r2
2fff2dec:	d008      	beq.n	2fff2e00 <stm32mp1_clk_init+0x530>
2fff2dee:	4a3c      	ldr	r2, [pc, #240]	@ (2fff2ee0 <stm32mp1_clk_init+0x610>)
2fff2df0:	4293      	cmp	r3, r2
2fff2df2:	d02f      	beq.n	2fff2e54 <stm32mp1_clk_init+0x584>
2fff2df4:	4a3b      	ldr	r2, [pc, #236]	@ (2fff2ee4 <stm32mp1_clk_init+0x614>)
2fff2df6:	4293      	cmp	r3, r2
2fff2df8:	d02f      	beq.n	2fff2e5a <stm32mp1_clk_init+0x58a>
2fff2dfa:	f04f 35ff 	mov.w	r5, #4294967295	@ 0xffffffff
2fff2dfe:	e6d2      	b.n	2fff2ba6 <stm32mp1_clk_init+0x2d6>
2fff2e00:	f04f 0801 	mov.w	r8, #1
2fff2e04:	f001 f99d 	bl	2fff4142 <stm32mp_rcc_base>
2fff2e08:	6983      	ldr	r3, [r0, #24]
2fff2e0a:	4605      	mov	r5, r0
2fff2e0c:	f600 0708 	addw	r7, r0, #2056	@ 0x808
2fff2e10:	f023 0303 	bic.w	r3, r3, #3
2fff2e14:	ea43 0308 	orr.w	r3, r3, r8
2fff2e18:	6183      	str	r3, [r0, #24]
2fff2e1a:	ee1e 1f10 	mrc	15, 0, r1, cr14, cr0, {0}
2fff2e1e:	ec53 2f0e 	mrrc	15, 0, r2, r3, cr14
2fff2e22:	4829      	ldr	r0, [pc, #164]	@ (2fff2ec8 <stm32mp1_clk_init+0x5f8>)
2fff2e24:	e9cd 2304 	strd	r2, r3, [sp, #16]
2fff2e28:	f8dd 8010 	ldr.w	r8, [sp, #16]
2fff2e2c:	2300      	movs	r3, #0
2fff2e2e:	4a27      	ldr	r2, [pc, #156]	@ (2fff2ecc <stm32mp1_clk_init+0x5fc>)
2fff2e30:	fba1 0100 	umull	r0, r1, r1, r0
2fff2e34:	f000 eb16 	blx	2fff3464 <__aeabi_uldivmod>
2fff2e38:	9b05      	ldr	r3, [sp, #20]
2fff2e3a:	eb10 0008 	adds.w	r0, r0, r8
2fff2e3e:	eb41 0103 	adc.w	r1, r1, r3
2fff2e42:	683b      	ldr	r3, [r7, #0]
2fff2e44:	075b      	lsls	r3, r3, #29
2fff2e46:	d50b      	bpl.n	2fff2e60 <stm32mp1_clk_init+0x590>
2fff2e48:	2080      	movs	r0, #128	@ 0x80
2fff2e4a:	f7ff fbad 	bl	2fff25a8 <stm32mp_clk_get_rate>
2fff2e4e:	f7fb febf 	bl	2ffeebd0 <stm32mp_stgen_config>
2fff2e52:	e793      	b.n	2fff2d7c <stm32mp1_clk_init+0x4ac>
2fff2e54:	f04f 0802 	mov.w	r8, #2
2fff2e58:	e7d4      	b.n	2fff2e04 <stm32mp1_clk_init+0x534>
2fff2e5a:	f04f 0803 	mov.w	r8, #3
2fff2e5e:	e7d1      	b.n	2fff2e04 <stm32mp1_clk_init+0x534>
2fff2e60:	ec53 2f0e 	mrrc	15, 0, r2, r3, cr14
2fff2e64:	4290      	cmp	r0, r2
2fff2e66:	eb71 0303 	sbcs.w	r3, r1, r3
2fff2e6a:	d2ea      	bcs.n	2fff2e42 <stm32mp1_clk_init+0x572>
2fff2e6c:	f8d5 2808 	ldr.w	r2, [r5, #2056]	@ 0x808
2fff2e70:	4639      	mov	r1, r7
2fff2e72:	481d      	ldr	r0, [pc, #116]	@ (2fff2ee8 <stm32mp1_clk_init+0x618>)
2fff2e74:	f7fa fcd0 	bl	2ffed818 <tf_log>
2fff2e78:	e7b0      	b.n	2fff2ddc <stm32mp1_clk_init+0x50c>
2fff2e7a:	f8d8 3014 	ldr.w	r3, [r8, #20]
2fff2e7e:	4650      	mov	r0, sl
2fff2e80:	f853 1027 	ldr.w	r1, [r3, r7, lsl #2]
2fff2e84:	b2ca      	uxtb	r2, r1
2fff2e86:	f3c1 2107 	ubfx	r1, r1, #8, #8
2fff2e8a:	f7ff fccb 	bl	2fff2824 <clk_stm32_set_div>
2fff2e8e:	4605      	mov	r5, r0
2fff2e90:	2800      	cmp	r0, #0
2fff2e92:	f47f ae88 	bne.w	2fff2ba6 <stm32mp1_clk_init+0x2d6>
2fff2e96:	3701      	adds	r7, #1
2fff2e98:	e773      	b.n	2fff2d82 <stm32mp1_clk_init+0x4b2>
2fff2e9a:	2102      	movs	r1, #2
2fff2e9c:	4650      	mov	r0, sl
2fff2e9e:	f001 fee1 	bl	2fff4c64 <stm32mp1_pll_configure_src>
2fff2ea2:	2800      	cmp	r0, #0
2fff2ea4:	f43f af7c 	beq.w	2fff2da0 <stm32mp1_clk_init+0x4d0>
2fff2ea8:	4605      	mov	r5, r0
2fff2eaa:	e67c      	b.n	2fff2ba6 <stm32mp1_clk_init+0x2d6>
2fff2eac:	2fffa59c 	.word	0x2fffa59c
2fff2eb0:	2fff950f 	.word	0x2fff950f
2fff2eb4:	2fff9519 	.word	0x2fff9519
2fff2eb8:	2fff9526 	.word	0x2fff9526
2fff2ebc:	04000010 	.word	0x04000010
2fff2ec0:	04000020 	.word	0x04000020
2fff2ec4:	2fff5fa8 	.word	0x2fff5fa8
2fff2ec8:	00030d40 	.word	0x00030d40
2fff2ecc:	000f4240 	.word	0x000f4240
2fff2ed0:	2fffc0a4 	.word	0x2fffc0a4
2fff2ed4:	2fff95ef 	.word	0x2fff95ef
2fff2ed8:	03d09000 	.word	0x03d09000
2fff2edc:	01e84800 	.word	0x01e84800
2fff2ee0:	00f42400 	.word	0x00f42400
2fff2ee4:	007a1200 	.word	0x007a1200
2fff2ee8:	2fff9536 	.word	0x2fff9536
2fff2eec:	f1b9 0f03 	cmp.w	r9, #3
2fff2ef0:	f040 80a6 	bne.w	2fff3040 <stm32mp1_clk_init+0x770>
2fff2ef4:	2e00      	cmp	r6, #0
2fff2ef6:	f000 808a 	beq.w	2fff300e <stm32mp1_clk_init+0x73e>
2fff2efa:	9b01      	ldr	r3, [sp, #4]
2fff2efc:	2b00      	cmp	r3, #0
2fff2efe:	f040 8092 	bne.w	2fff3026 <stm32mp1_clk_init+0x756>
2fff2f02:	2600      	movs	r6, #0
2fff2f04:	f104 031c 	add.w	r3, r4, #28
2fff2f08:	9307      	str	r3, [sp, #28]
2fff2f0a:	f814 3026 	ldrb.w	r3, [r4, r6, lsl #2]
2fff2f0e:	b35b      	cbz	r3, 2fff2f68 <stm32mp1_clk_init+0x698>
2fff2f10:	9b07      	ldr	r3, [sp, #28]
2fff2f12:	f853 3026 	ldr.w	r3, [r3, r6, lsl #2]
2fff2f16:	4699      	mov	r9, r3
2fff2f18:	f001 f913 	bl	2fff4142 <stm32mp_rcc_base>
2fff2f1c:	9b06      	ldr	r3, [sp, #24]
2fff2f1e:	4607      	mov	r7, r0
2fff2f20:	f8b3 b00c 	ldrh.w	fp, [r3, #12]
2fff2f24:	eb0b 0300 	add.w	r3, fp, r0
2fff2f28:	9304      	str	r3, [sp, #16]
2fff2f2a:	ee1e 0f10 	mrc	15, 0, r0, cr14, cr0, {0}
2fff2f2e:	ec53 2f0e 	mrrc	15, 0, r2, r3, cr14
2fff2f32:	49c0      	ldr	r1, [pc, #768]	@ (2fff3234 <stm32mp1_clk_init+0x964>)
2fff2f34:	e9cd 2302 	strd	r2, r3, [sp, #8]
2fff2f38:	f8dd 8008 	ldr.w	r8, [sp, #8]
2fff2f3c:	2300      	movs	r3, #0
2fff2f3e:	4abe      	ldr	r2, [pc, #760]	@ (2fff3238 <stm32mp1_clk_init+0x968>)
2fff2f40:	fba0 0101 	umull	r0, r1, r0, r1
2fff2f44:	f000 ea8e 	blx	2fff3464 <__aeabi_uldivmod>
2fff2f48:	9b03      	ldr	r3, [sp, #12]
2fff2f4a:	eb10 0008 	adds.w	r0, r0, r8
2fff2f4e:	eb41 0103 	adc.w	r1, r1, r3
2fff2f52:	9b04      	ldr	r3, [sp, #16]
2fff2f54:	681b      	ldr	r3, [r3, #0]
2fff2f56:	079a      	lsls	r2, r3, #30
2fff2f58:	f140 810b 	bpl.w	2fff3172 <stm32mp1_clk_init+0x8a2>
2fff2f5c:	f85b 3007 	ldr.w	r3, [fp, r7]
2fff2f60:	ea43 1309 	orr.w	r3, r3, r9, lsl #4
2fff2f64:	f84b 3007 	str.w	r3, [fp, r7]
2fff2f68:	9b06      	ldr	r3, [sp, #24]
2fff2f6a:	360d      	adds	r6, #13
2fff2f6c:	2e34      	cmp	r6, #52	@ 0x34
2fff2f6e:	f103 0320 	add.w	r3, r3, #32
2fff2f72:	9306      	str	r3, [sp, #24]
2fff2f74:	d1c9      	bne.n	2fff2f0a <stm32mp1_clk_init+0x63a>
2fff2f76:	f8df 82c4 	ldr.w	r8, [pc, #708]	@ 2fff323c <stm32mp1_clk_init+0x96c>
2fff2f7a:	f8d8 3010 	ldr.w	r3, [r8, #16]
2fff2f7e:	b12b      	cbz	r3, 2fff2f8c <stm32mp1_clk_init+0x6bc>
2fff2f80:	2204      	movs	r2, #4
2fff2f82:	f44f 71a0 	mov.w	r1, #320	@ 0x140
2fff2f86:	2001      	movs	r0, #1
2fff2f88:	f7ff fc22 	bl	2fff27d0 <stm32mp1_osc_wait.isra.0>
2fff2f8c:	9b01      	ldr	r3, [sp, #4]
2fff2f8e:	2b00      	cmp	r3, #0
2fff2f90:	f000 80f7 	beq.w	2fff3182 <stm32mp1_clk_init+0x8b2>
2fff2f94:	f8da 3000 	ldr.w	r3, [sl]
2fff2f98:	f8d3 791c 	ldr.w	r7, [r3, #2332]	@ 0x91c
2fff2f9c:	f8da 9014 	ldr.w	r9, [sl, #20]
2fff2fa0:	f04f 0b00 	mov.w	fp, #0
2fff2fa4:	f8cd b008 	str.w	fp, [sp, #8]
2fff2fa8:	f8d9 2008 	ldr.w	r2, [r9, #8]
2fff2fac:	4593      	cmp	fp, r2
2fff2fae:	f0c0 80ea 	bcc.w	2fff3186 <stm32mp1_clk_init+0x8b6>
2fff2fb2:	9b02      	ldr	r3, [sp, #8]
2fff2fb4:	b133      	cbz	r3, 2fff2fc4 <stm32mp1_clk_init+0x6f4>
2fff2fb6:	49a2      	ldr	r1, [pc, #648]	@ (2fff3240 <stm32mp1_clk_init+0x970>)
2fff2fb8:	4650      	mov	r0, sl
2fff2fba:	f7ff fa57 	bl	2fff246c <stm32_clk_configure_mux>
2fff2fbe:	2800      	cmp	r0, #0
2fff2fc0:	f47f aca7 	bne.w	2fff2912 <stm32mp1_clk_init+0x42>
2fff2fc4:	9b01      	ldr	r3, [sp, #4]
2fff2fc6:	b143      	cbz	r3, 2fff2fda <stm32mp1_clk_init+0x70a>
2fff2fc8:	f8da 3000 	ldr.w	r3, [sl]
2fff2fcc:	f8d3 391c 	ldr.w	r3, [r3, #2332]	@ 0x91c
2fff2fd0:	405f      	eors	r7, r3
2fff2fd2:	f017 0f13 	tst.w	r7, #19
2fff2fd6:	f040 812a 	bne.w	2fff322e <stm32mp1_clk_init+0x95e>
2fff2fda:	f8d8 4000 	ldr.w	r4, [r8]
2fff2fde:	b944      	cbnz	r4, 2fff2ff2 <stm32mp1_clk_init+0x722>
2fff2fe0:	f001 f8af 	bl	2fff4142 <stm32mp_rcc_base>
2fff2fe4:	2201      	movs	r2, #1
2fff2fe6:	f640 0108 	movw	r1, #2056	@ 0x808
2fff2fea:	6102      	str	r2, [r0, #16]
2fff2fec:	4620      	mov	r0, r4
2fff2fee:	f7ff fbef 	bl	2fff27d0 <stm32mp1_osc_wait.isra.0>
2fff2ff2:	2080      	movs	r0, #128	@ 0x80
2fff2ff4:	f7ff fad8 	bl	2fff25a8 <stm32mp_clk_get_rate>
2fff2ff8:	f7fb fdea 	bl	2ffeebd0 <stm32mp_stgen_config>
2fff2ffc:	f8da 2000 	ldr.w	r2, [sl]
2fff3000:	f8d2 30d8 	ldr.w	r3, [r2, #216]	@ 0xd8
2fff3004:	f423 03e0 	bic.w	r3, r3, #7340032	@ 0x700000
2fff3008:	f8c2 30d8 	str.w	r3, [r2, #216]	@ 0xd8
2fff300c:	e5cb      	b.n	2fff2ba6 <stm32mp1_clk_init+0x2d6>
2fff300e:	f894 309c 	ldrb.w	r3, [r4, #156]	@ 0x9c
2fff3012:	f104 079c 	add.w	r7, r4, #156	@ 0x9c
2fff3016:	2b00      	cmp	r3, #0
2fff3018:	f43f af73 	beq.w	2fff2f02 <stm32mp1_clk_init+0x632>
2fff301c:	9b01      	ldr	r3, [sp, #4]
2fff301e:	b94b      	cbnz	r3, 2fff3034 <stm32mp1_clk_init+0x764>
2fff3020:	f04f 0903 	mov.w	r9, #3
2fff3024:	e01f      	b.n	2fff3066 <stm32mp1_clk_init+0x796>
2fff3026:	f894 309c 	ldrb.w	r3, [r4, #156]	@ 0x9c
2fff302a:	2b00      	cmp	r3, #0
2fff302c:	f43f af69 	beq.w	2fff2f02 <stm32mp1_clk_init+0x632>
2fff3030:	f104 079c 	add.w	r7, r4, #156	@ 0x9c
2fff3034:	f107 0108 	add.w	r1, r7, #8
2fff3038:	2003      	movs	r0, #3
2fff303a:	f7ff f8f9 	bl	2fff2230 <stm32mp1_pll_config_output>
2fff303e:	e760      	b.n	2fff2f02 <stm32mp1_clk_init+0x632>
2fff3040:	2734      	movs	r7, #52	@ 0x34
2fff3042:	fb07 f709 	mul.w	r7, r7, r9
2fff3046:	5de3      	ldrb	r3, [r4, r7]
2fff3048:	2b00      	cmp	r3, #0
2fff304a:	f040 808e 	bne.w	2fff316a <stm32mp1_clk_init+0x89a>
2fff304e:	f109 0901 	add.w	r9, r9, #1
2fff3052:	f108 0820 	add.w	r8, r8, #32
2fff3056:	e6b0      	b.n	2fff2dba <stm32mp1_clk_init+0x4ea>
2fff3058:	f894 3068 	ldrb.w	r3, [r4, #104]	@ 0x68
2fff305c:	2b00      	cmp	r3, #0
2fff305e:	f43f aeb4 	beq.w	2fff2dca <stm32mp1_clk_init+0x4fa>
2fff3062:	f104 0768 	add.w	r7, r4, #104	@ 0x68
2fff3066:	f107 0308 	add.w	r3, r7, #8
2fff306a:	9304      	str	r3, [sp, #16]
2fff306c:	6a3b      	ldr	r3, [r7, #32]
2fff306e:	9307      	str	r3, [sp, #28]
2fff3070:	f001 f867 	bl	2fff4142 <stm32mp_rcc_base>
2fff3074:	f8b8 3004 	ldrh.w	r3, [r8, #4]
2fff3078:	4a72      	ldr	r2, [pc, #456]	@ (2fff3244 <stm32mp1_clk_init+0x974>)
2fff307a:	581b      	ldr	r3, [r3, r0]
2fff307c:	f8d8 1000 	ldr.w	r1, [r8]
2fff3080:	f8df e1b4 	ldr.w	lr, [pc, #436]	@ 2fff3238 <stm32mp1_clk_init+0x968>
2fff3084:	f003 0303 	and.w	r3, r3, #3
2fff3088:	eb03 03c9 	add.w	r3, r3, r9, lsl #3
2fff308c:	3304      	adds	r3, #4
2fff308e:	f852 3023 	ldr.w	r3, [r2, r3, lsl #2]
2fff3092:	2b05      	cmp	r3, #5
2fff3094:	bf8e      	itee	hi
2fff3096:	2200      	movhi	r2, #0
2fff3098:	4a68      	ldrls	r2, [pc, #416]	@ (2fff323c <stm32mp1_clk_init+0x96c>)
2fff309a:	f852 2023 	ldrls.w	r2, [r2, r3, lsl #2]
2fff309e:	68bb      	ldr	r3, [r7, #8]
2fff30a0:	f103 0c01 	add.w	ip, r3, #1
2fff30a4:	fbb2 f2fc 	udiv	r2, r2, ip
2fff30a8:	f81b c011 	ldrb.w	ip, [fp, r1, lsl #1]
2fff30ac:	fb0e fc0c 	mul.w	ip, lr, ip
2fff30b0:	4562      	cmp	r2, ip
2fff30b2:	f4ff ad76 	bcc.w	2fff2ba2 <stm32mp1_clk_init+0x2d2>
2fff30b6:	eb0b 0c41 	add.w	ip, fp, r1, lsl #1
2fff30ba:	f89c c001 	ldrb.w	ip, [ip, #1]
2fff30be:	fb0e fc0c 	mul.w	ip, lr, ip
2fff30c2:	4562      	cmp	r2, ip
2fff30c4:	f63f ad6d 	bhi.w	2fff2ba2 <stm32mp1_clk_init+0x2d2>
2fff30c8:	2900      	cmp	r1, #0
2fff30ca:	d150      	bne.n	2fff316e <stm32mp1_clk_init+0x89e>
2fff30cc:	495e      	ldr	r1, [pc, #376]	@ (2fff3248 <stm32mp1_clk_init+0x978>)
2fff30ce:	428a      	cmp	r2, r1
2fff30d0:	bf34      	ite	cc
2fff30d2:	2100      	movcc	r1, #0
2fff30d4:	2101      	movcs	r1, #1
2fff30d6:	68fa      	ldr	r2, [r7, #12]
2fff30d8:	041b      	lsls	r3, r3, #16
2fff30da:	f3c2 0208 	ubfx	r2, r2, #0, #9
2fff30de:	f403 137c 	and.w	r3, r3, #4128768	@ 0x3f0000
2fff30e2:	4313      	orrs	r3, r2
2fff30e4:	f8b8 2006 	ldrh.w	r2, [r8, #6]
2fff30e8:	ea43 6301 	orr.w	r3, r3, r1, lsl #24
2fff30ec:	5013      	str	r3, [r2, r0]
2fff30ee:	2300      	movs	r3, #0
2fff30f0:	f8b8 200a 	ldrh.w	r2, [r8, #10]
2fff30f4:	9904      	ldr	r1, [sp, #16]
2fff30f6:	5013      	str	r3, [r2, r0]
2fff30f8:	9b07      	ldr	r3, [sp, #28]
2fff30fa:	00db      	lsls	r3, r3, #3
2fff30fc:	5013      	str	r3, [r2, r0]
2fff30fe:	f443 3380 	orr.w	r3, r3, #65536	@ 0x10000
2fff3102:	5013      	str	r3, [r2, r0]
2fff3104:	4648      	mov	r0, r9
2fff3106:	f7ff f893 	bl	2fff2230 <stm32mp1_pll_config_output>
2fff310a:	f897 3024 	ldrb.w	r3, [r7, #36]	@ 0x24
2fff310e:	b1cb      	cbz	r3, 2fff3144 <stm32mp1_clk_init+0x874>
2fff3110:	6afa      	ldr	r2, [r7, #44]	@ 0x2c
2fff3112:	4b4e      	ldr	r3, [pc, #312]	@ (2fff324c <stm32mp1_clk_init+0x97c>)
2fff3114:	ea03 4302 	and.w	r3, r3, r2, lsl #16
2fff3118:	6b3a      	ldr	r2, [r7, #48]	@ 0x30
2fff311a:	03d2      	lsls	r2, r2, #15
2fff311c:	b292      	uxth	r2, r2
2fff311e:	4313      	orrs	r3, r2
2fff3120:	6aba      	ldr	r2, [r7, #40]	@ 0x28
2fff3122:	f3c2 020c 	ubfx	r2, r2, #0, #13
2fff3126:	ea43 0702 	orr.w	r7, r3, r2
2fff312a:	f001 f80a 	bl	2fff4142 <stm32mp_rcc_base>
2fff312e:	f8b8 300e 	ldrh.w	r3, [r8, #14]
2fff3132:	501f      	str	r7, [r3, r0]
2fff3134:	f001 f805 	bl	2fff4142 <stm32mp_rcc_base>
2fff3138:	f8b8 200c 	ldrh.w	r2, [r8, #12]
2fff313c:	5813      	ldr	r3, [r2, r0]
2fff313e:	f043 0304 	orr.w	r3, r3, #4
2fff3142:	5013      	str	r3, [r2, r0]
2fff3144:	f109 0901 	add.w	r9, r9, #1
2fff3148:	f000 fffb 	bl	2fff4142 <stm32mp_rcc_base>
2fff314c:	f8b8 200c 	ldrh.w	r2, [r8, #12]
2fff3150:	f1b9 0f04 	cmp.w	r9, #4
2fff3154:	f108 0820 	add.w	r8, r8, #32
2fff3158:	5813      	ldr	r3, [r2, r0]
2fff315a:	f023 0370 	bic.w	r3, r3, #112	@ 0x70
2fff315e:	f043 0301 	orr.w	r3, r3, #1
2fff3162:	5013      	str	r3, [r2, r0]
2fff3164:	f47f ae29 	bne.w	2fff2dba <stm32mp1_clk_init+0x4ea>
2fff3168:	e6cb      	b.n	2fff2f02 <stm32mp1_clk_init+0x632>
2fff316a:	4427      	add	r7, r4
2fff316c:	e77b      	b.n	2fff3066 <stm32mp1_clk_init+0x796>
2fff316e:	2100      	movs	r1, #0
2fff3170:	e7b1      	b.n	2fff30d6 <stm32mp1_clk_init+0x806>
2fff3172:	ec53 2f0e 	mrrc	15, 0, r2, r3, cr14
2fff3176:	4290      	cmp	r0, r2
2fff3178:	eb71 0303 	sbcs.w	r3, r1, r3
2fff317c:	f4bf aee9 	bcs.w	2fff2f52 <stm32mp1_clk_init+0x682>
2fff3180:	e62c      	b.n	2fff2ddc <stm32mp1_clk_init+0x50c>
2fff3182:	9f01      	ldr	r7, [sp, #4]
2fff3184:	e70a      	b.n	2fff2f9c <stm32mp1_clk_init+0x6cc>
2fff3186:	f8d9 200c 	ldr.w	r2, [r9, #12]
2fff318a:	f852 402b 	ldr.w	r4, [r2, fp, lsl #2]
2fff318e:	2c00      	cmp	r4, #0
2fff3190:	da0a      	bge.n	2fff31a8 <stm32mp1_clk_init+0x8d8>
2fff3192:	f3c4 410e 	ubfx	r1, r4, #16, #15
2fff3196:	b2a4      	uxth	r4, r4
2fff3198:	f8da 2000 	ldr.w	r2, [sl]
2fff319c:	5888      	ldr	r0, [r1, r2]
2fff319e:	4304      	orrs	r4, r0
2fff31a0:	508c      	str	r4, [r1, r2]
2fff31a2:	f10b 0b01 	add.w	fp, fp, #1
2fff31a6:	e6ff      	b.n	2fff2fa8 <stm32mp1_clk_init+0x6d8>
2fff31a8:	4b25      	ldr	r3, [pc, #148]	@ (2fff3240 <stm32mp1_clk_init+0x970>)
2fff31aa:	429c      	cmp	r4, r3
2fff31ac:	d03c      	beq.n	2fff3228 <stm32mp1_clk_init+0x958>
2fff31ae:	0ea2      	lsrs	r2, r4, #26
2fff31b0:	f024 467c 	bic.w	r6, r4, #4227858432	@ 0xfc000000
2fff31b4:	2a01      	cmp	r2, #1
2fff31b6:	d02f      	beq.n	2fff3218 <stm32mp1_clk_init+0x948>
2fff31b8:	2a02      	cmp	r2, #2
2fff31ba:	f47f abaa 	bne.w	2fff2912 <stm32mp1_clk_init+0x42>
2fff31be:	f3c6 22c8 	ubfx	r2, r6, #11, #9
2fff31c2:	2ac0      	cmp	r2, #192	@ 0xc0
2fff31c4:	d1ed      	bne.n	2fff31a2 <stm32mp1_clk_init+0x8d2>
2fff31c6:	f8da 2014 	ldr.w	r2, [sl, #20]
2fff31ca:	9206      	str	r2, [sp, #24]
2fff31cc:	f000 ffb9 	bl	2fff4142 <stm32mp_rcc_base>
2fff31d0:	f8d0 1140 	ldr.w	r1, [r0, #320]	@ 0x140
2fff31d4:	9a06      	ldr	r2, [sp, #24]
2fff31d6:	f411 1f80 	tst.w	r1, #1048576	@ 0x100000
2fff31da:	d001      	beq.n	2fff31e0 <stm32mp1_clk_init+0x910>
2fff31dc:	0563      	lsls	r3, r4, #21
2fff31de:	d5e0      	bpl.n	2fff31a2 <stm32mp1_clk_init+0x8d2>
2fff31e0:	f8d0 4140 	ldr.w	r4, [r0, #320]	@ 0x140
2fff31e4:	0436      	lsls	r6, r6, #16
2fff31e6:	f424 3440 	bic.w	r4, r4, #196608	@ 0x30000
2fff31ea:	f406 26e0 	and.w	r6, r6, #458752	@ 0x70000
2fff31ee:	4326      	orrs	r6, r4
2fff31f0:	f8c0 6140 	str.w	r6, [r0, #320]	@ 0x140
2fff31f4:	f8d0 1140 	ldr.w	r1, [r0, #320]	@ 0x140
2fff31f8:	7e12      	ldrb	r2, [r2, #24]
2fff31fa:	f441 1180 	orr.w	r1, r1, #1048576	@ 0x100000
2fff31fe:	f8c0 1140 	str.w	r1, [r0, #320]	@ 0x140
2fff3202:	2a00      	cmp	r2, #0
2fff3204:	d0cd      	beq.n	2fff31a2 <stm32mp1_clk_init+0x8d2>
2fff3206:	f8da 1000 	ldr.w	r1, [sl]
2fff320a:	f8d1 2140 	ldr.w	r2, [r1, #320]	@ 0x140
2fff320e:	f442 7280 	orr.w	r2, r2, #256	@ 0x100
2fff3212:	f8c1 2140 	str.w	r2, [r1, #320]	@ 0x140
2fff3216:	e7c4      	b.n	2fff31a2 <stm32mp1_clk_init+0x8d2>
2fff3218:	4631      	mov	r1, r6
2fff321a:	4650      	mov	r0, sl
2fff321c:	f7ff f926 	bl	2fff246c <stm32_clk_configure_mux>
2fff3220:	2800      	cmp	r0, #0
2fff3222:	d0be      	beq.n	2fff31a2 <stm32mp1_clk_init+0x8d2>
2fff3224:	f7ff bb75 	b.w	2fff2912 <stm32mp1_clk_init+0x42>
2fff3228:	2301      	movs	r3, #1
2fff322a:	9302      	str	r3, [sp, #8]
2fff322c:	e7b9      	b.n	2fff31a2 <stm32mp1_clk_init+0x8d2>
2fff322e:	f06f 050e 	mvn.w	r5, #14
2fff3232:	e4b8      	b.n	2fff2ba6 <stm32mp1_clk_init+0x2d6>
2fff3234:	00030d40 	.word	0x00030d40
2fff3238:	000f4240 	.word	0x000f4240
2fff323c:	2fffc0a4 	.word	0x2fffc0a4
2fff3240:	04000063 	.word	0x04000063
2fff3244:	2fff5fa8 	.word	0x2fff5fa8
2fff3248:	007a1200 	.word	0x007a1200
2fff324c:	7fff0000 	.word	0x7fff0000

2fff3250 <stm32mp1_clk_probe>:
2fff3250:	e92d 4ff0 	stmdb	sp!, {r4, r5, r6, r7, r8, r9, sl, fp, lr}
2fff3254:	2400      	movs	r4, #0
2fff3256:	4d70      	ldr	r5, [pc, #448]	@ (2fff3418 <stm32mp1_clk_probe+0x1c8>)
2fff3258:	b099      	sub	sp, #100	@ 0x64
2fff325a:	4e70      	ldr	r6, [pc, #448]	@ (2fff341c <stm32mp1_clk_probe+0x1cc>)
2fff325c:	f855 0b04 	ldr.w	r0, [r5], #4
2fff3260:	a908      	add	r1, sp, #32
2fff3262:	f7fb fbef 	bl	2ffeea44 <fdt_osc_read_freq>
2fff3266:	b910      	cbnz	r0, 2fff326e <stm32mp1_clk_probe+0x1e>
2fff3268:	9b08      	ldr	r3, [sp, #32]
2fff326a:	f846 3024 	str.w	r3, [r6, r4, lsl #2]
2fff326e:	3401      	adds	r4, #1
2fff3270:	2c06      	cmp	r4, #6
2fff3272:	d1f3      	bne.n	2fff325c <stm32mp1_clk_probe+0xc>
2fff3274:	2500      	movs	r5, #0
2fff3276:	a807      	add	r0, sp, #28
2fff3278:	9507      	str	r5, [sp, #28]
2fff327a:	f7fc fc35 	bl	2ffefae8 <fdt_get_address>
2fff327e:	b928      	cbnz	r0, 2fff328c <stm32mp1_clk_probe+0x3c>
2fff3280:	f06f 0601 	mvn.w	r6, #1
2fff3284:	4630      	mov	r0, r6
2fff3286:	b019      	add	sp, #100	@ 0x64
2fff3288:	e8bd 8ff0 	ldmia.w	sp!, {r4, r5, r6, r7, r8, r9, sl, fp, pc}
2fff328c:	4a64      	ldr	r2, [pc, #400]	@ (2fff3420 <stm32mp1_clk_probe+0x1d0>)
2fff328e:	f04f 31ff 	mov.w	r1, #4294967295	@ 0xffffffff
2fff3292:	9807      	ldr	r0, [sp, #28]
2fff3294:	f002 f890 	bl	2fff53b8 <fdt_node_offset_by_compatible>
2fff3298:	f1b0 0800 	subs.w	r8, r0, #0
2fff329c:	da03      	bge.n	2fff32a6 <stm32mp1_clk_probe+0x56>
2fff329e:	f7fa fb57 	bl	2ffed950 <console_flush>
2fff32a2:	f7f6 e89c 	blx	2ffe93dc <do_panic>
2fff32a6:	9c07      	ldr	r4, [sp, #28]
2fff32a8:	f8df a178 	ldr.w	sl, [pc, #376]	@ 2fff3424 <stm32mp1_clk_probe+0x1d4>
2fff32ac:	f8da 3000 	ldr.w	r3, [sl]
2fff32b0:	429d      	cmp	r5, r3
2fff32b2:	d336      	bcc.n	2fff3322 <stm32mp1_clk_probe+0xd2>
2fff32b4:	4c5c      	ldr	r4, [pc, #368]	@ (2fff3428 <stm32mp1_clk_probe+0x1d8>)
2fff32b6:	4641      	mov	r1, r8
2fff32b8:	4a5c      	ldr	r2, [pc, #368]	@ (2fff342c <stm32mp1_clk_probe+0x1dc>)
2fff32ba:	9400      	str	r4, [sp, #0]
2fff32bc:	9807      	ldr	r0, [sp, #28]
2fff32be:	f8da 3014 	ldr.w	r3, [sl, #20]
2fff32c2:	f001 fcb4 	bl	2fff4c2e <stm32_clk_parse_fdt_by_name>
2fff32c6:	4606      	mov	r6, r0
2fff32c8:	2800      	cmp	r0, #0
2fff32ca:	d1db      	bne.n	2fff3284 <stm32mp1_clk_probe+0x34>
2fff32cc:	4a58      	ldr	r2, [pc, #352]	@ (2fff3430 <stm32mp1_clk_probe+0x1e0>)
2fff32ce:	3c08      	subs	r4, #8
2fff32d0:	9400      	str	r4, [sp, #0]
2fff32d2:	4641      	mov	r1, r8
2fff32d4:	f8da 300c 	ldr.w	r3, [sl, #12]
2fff32d8:	9807      	ldr	r0, [sp, #28]
2fff32da:	f001 fca8 	bl	2fff4c2e <stm32_clk_parse_fdt_by_name>
2fff32de:	4606      	mov	r6, r0
2fff32e0:	2800      	cmp	r0, #0
2fff32e2:	d1cf      	bne.n	2fff3284 <stm32mp1_clk_probe+0x34>
2fff32e4:	4b53      	ldr	r3, [pc, #332]	@ (2fff3434 <stm32mp1_clk_probe+0x1e4>)
2fff32e6:	ac08      	add	r4, sp, #32
2fff32e8:	4a53      	ldr	r2, [pc, #332]	@ (2fff3438 <stm32mp1_clk_probe+0x1e8>)
2fff32ea:	4d54      	ldr	r5, [pc, #336]	@ (2fff343c <stm32mp1_clk_probe+0x1ec>)
2fff32ec:	6013      	str	r3, [r2, #0]
2fff32ee:	f04f 42a0 	mov.w	r2, #1342177280	@ 0x50000000
2fff32f2:	601a      	str	r2, [r3, #0]
2fff32f4:	cd0f      	ldmia	r5!, {r0, r1, r2, r3}
2fff32f6:	c40f      	stmia	r4!, {r0, r1, r2, r3}
2fff32f8:	cd0f      	ldmia	r5!, {r0, r1, r2, r3}
2fff32fa:	c40f      	stmia	r4!, {r0, r1, r2, r3}
2fff32fc:	cd0f      	ldmia	r5!, {r0, r1, r2, r3}
2fff32fe:	c40f      	stmia	r4!, {r0, r1, r2, r3}
2fff3300:	e895 000f 	ldmia.w	r5, {r0, r1, r2, r3}
2fff3304:	4635      	mov	r5, r6
2fff3306:	e884 000f 	stmia.w	r4, {r0, r1, r2, r3}
2fff330a:	ac08      	add	r4, sp, #32
2fff330c:	f854 0b04 	ldr.w	r0, [r4], #4
2fff3310:	3501      	adds	r5, #1
2fff3312:	f7ff f865 	bl	2fff23e0 <stm32mp_clk_enable>
2fff3316:	2d10      	cmp	r5, #16
2fff3318:	d1f8      	bne.n	2fff330c <stm32mp1_clk_probe+0xbc>
2fff331a:	4849      	ldr	r0, [pc, #292]	@ (2fff3440 <stm32mp1_clk_probe+0x1f0>)
2fff331c:	f7fb faf8 	bl	2ffee910 <clk_register>
2fff3320:	e7b0      	b.n	2fff3284 <stm32mp1_clk_probe+0x34>
2fff3322:	f8da 3004 	ldr.w	r3, [sl, #4]
2fff3326:	210c      	movs	r1, #12
2fff3328:	4a46      	ldr	r2, [pc, #280]	@ (2fff3444 <stm32mp1_clk_probe+0x1f4>)
2fff332a:	a808      	add	r0, sp, #32
2fff332c:	9303      	str	r3, [sp, #12]
2fff332e:	462b      	mov	r3, r5
2fff3330:	f002 f96e 	bl	2fff5610 <snprintf>
2fff3334:	aa08      	add	r2, sp, #32
2fff3336:	4641      	mov	r1, r8
2fff3338:	4620      	mov	r0, r4
2fff333a:	f001 fe84 	bl	2fff5046 <fdt_subnode_offset>
2fff333e:	4606      	mov	r6, r0
2fff3340:	f7fc fbdc 	bl	2ffefafc <fdt_check_node>
2fff3344:	4681      	mov	r9, r0
2fff3346:	b908      	cbnz	r0, 2fff334c <stm32mp1_clk_probe+0xfc>
2fff3348:	3501      	adds	r5, #1
2fff334a:	e7af      	b.n	2fff32ac <stm32mp1_clk_probe+0x5c>
2fff334c:	4a3e      	ldr	r2, [pc, #248]	@ (2fff3448 <stm32mp1_clk_probe+0x1f8>)
2fff334e:	2300      	movs	r3, #0
2fff3350:	4631      	mov	r1, r6
2fff3352:	4620      	mov	r0, r4
2fff3354:	f001 fefc 	bl	2fff5150 <fdt_getprop>
2fff3358:	2800      	cmp	r0, #0
2fff335a:	d0f5      	beq.n	2fff3348 <stm32mp1_clk_probe+0xf8>
2fff335c:	6801      	ldr	r1, [r0, #0]
2fff335e:	4620      	mov	r0, r4
2fff3360:	ba09      	rev	r1, r1
2fff3362:	f001 ffb2 	bl	2fff52ca <fdt_node_offset_by_phandle>
2fff3366:	1e03      	subs	r3, r0, #0
2fff3368:	9304      	str	r3, [sp, #16]
2fff336a:	db98      	blt.n	2fff329e <stm32mp1_clk_probe+0x4e>
2fff336c:	4a37      	ldr	r2, [pc, #220]	@ (2fff344c <stm32mp1_clk_probe+0x1fc>)
2fff336e:	4601      	mov	r1, r0
2fff3370:	2300      	movs	r3, #0
2fff3372:	4620      	mov	r0, r4
2fff3374:	f001 feec 	bl	2fff5150 <fdt_getprop>
2fff3378:	2800      	cmp	r0, #0
2fff337a:	d090      	beq.n	2fff329e <stm32mp1_clk_probe+0x4e>
2fff337c:	6801      	ldr	r1, [r0, #0]
2fff337e:	4620      	mov	r0, r4
2fff3380:	ba09      	rev	r1, r1
2fff3382:	f001 ffa2 	bl	2fff52ca <fdt_node_offset_by_phandle>
2fff3386:	1e07      	subs	r7, r0, #0
2fff3388:	db89      	blt.n	2fff329e <stm32mp1_clk_probe+0x4e>
2fff338a:	4a31      	ldr	r2, [pc, #196]	@ (2fff3450 <stm32mp1_clk_probe+0x200>)
2fff338c:	2334      	movs	r3, #52	@ 0x34
2fff338e:	fb03 fb05 	mul.w	fp, r3, r5
2fff3392:	9b03      	ldr	r3, [sp, #12]
2fff3394:	4639      	mov	r1, r7
2fff3396:	4620      	mov	r0, r4
2fff3398:	eb03 060b 	add.w	r6, r3, fp
2fff339c:	f106 0308 	add.w	r3, r6, #8
2fff33a0:	9300      	str	r3, [sp, #0]
2fff33a2:	2302      	movs	r3, #2
2fff33a4:	f7f6 fd84 	bl	2ffe9eb0 <fdt_read_uint32_array>
2fff33a8:	9005      	str	r0, [sp, #20]
2fff33aa:	2800      	cmp	r0, #0
2fff33ac:	f47f af77 	bne.w	2fff329e <stm32mp1_clk_probe+0x4e>
2fff33b0:	4a28      	ldr	r2, [pc, #160]	@ (2fff3454 <stm32mp1_clk_probe+0x204>)
2fff33b2:	f106 0328 	add.w	r3, r6, #40	@ 0x28
2fff33b6:	9300      	str	r3, [sp, #0]
2fff33b8:	4639      	mov	r1, r7
2fff33ba:	2303      	movs	r3, #3
2fff33bc:	4620      	mov	r0, r4
2fff33be:	f7f6 fd77 	bl	2ffe9eb0 <fdt_read_uint32_array>
2fff33c2:	b120      	cbz	r0, 2fff33ce <stm32mp1_clk_probe+0x17e>
2fff33c4:	3001      	adds	r0, #1
2fff33c6:	f47f af6a 	bne.w	2fff329e <stm32mp1_clk_probe+0x4e>
2fff33ca:	f8dd 9014 	ldr.w	r9, [sp, #20]
2fff33ce:	9a03      	ldr	r2, [sp, #12]
2fff33d0:	2301      	movs	r3, #1
2fff33d2:	f886 9024 	strb.w	r9, [r6, #36]	@ 0x24
2fff33d6:	4639      	mov	r1, r7
2fff33d8:	f802 300b 	strb.w	r3, [r2, fp]
2fff33dc:	4620      	mov	r0, r4
2fff33de:	4a1e      	ldr	r2, [pc, #120]	@ (2fff3458 <stm32mp1_clk_probe+0x208>)
2fff33e0:	2300      	movs	r3, #0
2fff33e2:	f000 fbff 	bl	2fff3be4 <fdt_read_uint32_default>
2fff33e6:	6230      	str	r0, [r6, #32]
2fff33e8:	f04f 33ff 	mov.w	r3, #4294967295	@ 0xffffffff
2fff33ec:	4a1b      	ldr	r2, [pc, #108]	@ (2fff345c <stm32mp1_clk_probe+0x20c>)
2fff33ee:	4639      	mov	r1, r7
2fff33f0:	4620      	mov	r0, r4
2fff33f2:	f000 fbf7 	bl	2fff3be4 <fdt_read_uint32_default>
2fff33f6:	6070      	str	r0, [r6, #4]
2fff33f8:	f106 0310 	add.w	r3, r6, #16
2fff33fc:	9300      	str	r3, [sp, #0]
2fff33fe:	4620      	mov	r0, r4
2fff3400:	4a17      	ldr	r2, [pc, #92]	@ (2fff3460 <stm32mp1_clk_probe+0x210>)
2fff3402:	2303      	movs	r3, #3
2fff3404:	9904      	ldr	r1, [sp, #16]
2fff3406:	f7f6 fd53 	bl	2ffe9eb0 <fdt_read_uint32_array>
2fff340a:	2800      	cmp	r0, #0
2fff340c:	f47f af47 	bne.w	2fff329e <stm32mp1_clk_probe+0x4e>
2fff3410:	2307      	movs	r3, #7
2fff3412:	61f3      	str	r3, [r6, #28]
2fff3414:	e798      	b.n	2fff3348 <stm32mp1_clk_probe+0xf8>
2fff3416:	bf00      	nop
2fff3418:	2fffa59c 	.word	0x2fffa59c
2fff341c:	2fffc0a4 	.word	0x2fffc0a4
2fff3420:	2fff9554 	.word	0x2fff9554
2fff3424:	2fffa580 	.word	0x2fffa580
2fff3428:	2fffa590 	.word	0x2fffa590
2fff342c:	2fff959e 	.word	0x2fff959e
2fff3430:	2fff95a8 	.word	0x2fff95a8
2fff3434:	2fffa568 	.word	0x2fffa568
2fff3438:	2fffc0bc 	.word	0x2fffc0bc
2fff343c:	2fff6130 	.word	0x2fff6130
2fff3440:	2fff5f94 	.word	0x2fff5f94
2fff3444:	2fff9564 	.word	0x2fff9564
2fff3448:	2fff956e 	.word	0x2fff956e
2fff344c:	2fff9575 	.word	0x2fff9575
2fff3450:	2fff9580 	.word	0x2fff9580
2fff3454:	2fff9586 	.word	0x2fff9586
2fff3458:	2fff958a 	.word	0x2fff958a
2fff345c:	2fff95ae 	.word	0x2fff95ae
2fff3460:	2fff958f 	.word	0x2fff958f

2fff3464 <__aeabi_uldivmod>:
2fff3464:	e92d4040 	push	{r6, lr}
2fff3468:	e24dd010 	sub	sp, sp, #16
2fff346c:	e28d6008 	add	r6, sp, #8
2fff3470:	e58d6000 	str	r6, [sp]
2fff3474:	fb0002a9 	blx	2fff3f22 <__udivmoddi4>
2fff3478:	e59d2008 	ldr	r2, [sp, #8]
2fff347c:	e59d300c 	ldr	r3, [sp, #12]
2fff3480:	e28dd010 	add	sp, sp, #16
2fff3484:	e8bd8040 	pop	{r6, pc}

2fff3488 <fdt_ro_probe_>:
2fff3488:	b510      	push	{r4, lr}
2fff348a:	4604      	mov	r4, r0
2fff348c:	3004      	adds	r0, #4
2fff348e:	f001 fbf5 	bl	2fff4c7c <fdt32_ld>
2fff3492:	0763      	lsls	r3, r4, #29
2fff3494:	4601      	mov	r1, r0
2fff3496:	d124      	bne.n	2fff34e2 <fdt_ro_probe_+0x5a>
2fff3498:	4620      	mov	r0, r4
2fff349a:	f001 fbef 	bl	2fff4c7c <fdt32_ld>
2fff349e:	4b15      	ldr	r3, [pc, #84]	@ (2fff34f4 <fdt_ro_probe_+0x6c>)
2fff34a0:	4298      	cmp	r0, r3
2fff34a2:	d10e      	bne.n	2fff34c2 <fdt_ro_probe_+0x3a>
2fff34a4:	f104 0014 	add.w	r0, r4, #20
2fff34a8:	f001 fbe8 	bl	2fff4c7c <fdt32_ld>
2fff34ac:	2801      	cmp	r0, #1
2fff34ae:	d905      	bls.n	2fff34bc <fdt_ro_probe_+0x34>
2fff34b0:	f104 0018 	add.w	r0, r4, #24
2fff34b4:	f001 fbe2 	bl	2fff4c7c <fdt32_ld>
2fff34b8:	2811      	cmp	r0, #17
2fff34ba:	d90a      	bls.n	2fff34d2 <fdt_ro_probe_+0x4a>
2fff34bc:	f06f 0009 	mvn.w	r0, #9
2fff34c0:	e00e      	b.n	2fff34e0 <fdt_ro_probe_+0x58>
2fff34c2:	4b0d      	ldr	r3, [pc, #52]	@ (2fff34f8 <fdt_ro_probe_+0x70>)
2fff34c4:	4298      	cmp	r0, r3
2fff34c6:	d10f      	bne.n	2fff34e8 <fdt_ro_probe_+0x60>
2fff34c8:	f104 0024 	add.w	r0, r4, #36	@ 0x24
2fff34cc:	f001 fbd6 	bl	2fff4c7c <fdt32_ld>
2fff34d0:	b168      	cbz	r0, 2fff34ee <fdt_ro_probe_+0x66>
2fff34d2:	f06f 4300 	mvn.w	r3, #2147483648	@ 0x80000000
2fff34d6:	4299      	cmp	r1, r3
2fff34d8:	bf34      	ite	cc
2fff34da:	4608      	movcc	r0, r1
2fff34dc:	f06f 0007 	mvncs.w	r0, #7
2fff34e0:	bd10      	pop	{r4, pc}
2fff34e2:	f06f 0012 	mvn.w	r0, #18
2fff34e6:	e7fb      	b.n	2fff34e0 <fdt_ro_probe_+0x58>
2fff34e8:	f06f 0008 	mvn.w	r0, #8
2fff34ec:	e7f8      	b.n	2fff34e0 <fdt_ro_probe_+0x58>
2fff34ee:	f06f 0006 	mvn.w	r0, #6
2fff34f2:	e7f5      	b.n	2fff34e0 <fdt_ro_probe_+0x58>
2fff34f4:	d00dfeed 	.word	0xd00dfeed
2fff34f8:	2ff20112 	.word	0x2ff20112

2fff34fc <fdt_check_header>:
2fff34fc:	b5f8      	push	{r3, r4, r5, r6, r7, lr}
2fff34fe:	4601      	mov	r1, r0
2fff3500:	0743      	lsls	r3, r0, #29
2fff3502:	d153      	bne.n	2fff35ac <fdt_check_header+0xb0>
2fff3504:	f001 fbba 	bl	2fff4c7c <fdt32_ld>
2fff3508:	4b2e      	ldr	r3, [pc, #184]	@ (2fff35c4 <fdt_check_header+0xc8>)
2fff350a:	4298      	cmp	r0, r3
2fff350c:	d151      	bne.n	2fff35b2 <fdt_check_header+0xb6>
2fff350e:	f101 0014 	add.w	r0, r1, #20
2fff3512:	f001 fbb3 	bl	2fff4c7c <fdt32_ld>
2fff3516:	2801      	cmp	r0, #1
2fff3518:	4607      	mov	r7, r0
2fff351a:	d94d      	bls.n	2fff35b8 <fdt_check_header+0xbc>
2fff351c:	f101 0018 	add.w	r0, r1, #24
2fff3520:	f001 fbac 	bl	2fff4c7c <fdt32_ld>
2fff3524:	2811      	cmp	r0, #17
2fff3526:	d847      	bhi.n	2fff35b8 <fdt_check_header+0xbc>
2fff3528:	4287      	cmp	r7, r0
2fff352a:	d345      	bcc.n	2fff35b8 <fdt_check_header+0xbc>
2fff352c:	4608      	mov	r0, r1
2fff352e:	f001 fbbe 	bl	2fff4cae <fdt_header_size>
2fff3532:	4606      	mov	r6, r0
2fff3534:	1d08      	adds	r0, r1, #4
2fff3536:	f001 fba1 	bl	2fff4c7c <fdt32_ld>
2fff353a:	42b0      	cmp	r0, r6
2fff353c:	4604      	mov	r4, r0
2fff353e:	d33e      	bcc.n	2fff35be <fdt_check_header+0xc2>
2fff3540:	2800      	cmp	r0, #0
2fff3542:	db3c      	blt.n	2fff35be <fdt_check_header+0xc2>
2fff3544:	f101 0010 	add.w	r0, r1, #16
2fff3548:	f001 fb98 	bl	2fff4c7c <fdt32_ld>
2fff354c:	42b0      	cmp	r0, r6
2fff354e:	d336      	bcc.n	2fff35be <fdt_check_header+0xc2>
2fff3550:	4284      	cmp	r4, r0
2fff3552:	d334      	bcc.n	2fff35be <fdt_check_header+0xc2>
2fff3554:	f101 0008 	add.w	r0, r1, #8
2fff3558:	f001 fb90 	bl	2fff4c7c <fdt32_ld>
2fff355c:	2f10      	cmp	r7, #16
2fff355e:	4605      	mov	r5, r0
2fff3560:	d818      	bhi.n	2fff3594 <fdt_check_header+0x98>
2fff3562:	4286      	cmp	r6, r0
2fff3564:	d82b      	bhi.n	2fff35be <fdt_check_header+0xc2>
2fff3566:	4284      	cmp	r4, r0
2fff3568:	d329      	bcc.n	2fff35be <fdt_check_header+0xc2>
2fff356a:	f101 000c 	add.w	r0, r1, #12
2fff356e:	f001 fb85 	bl	2fff4c7c <fdt32_ld>
2fff3572:	42b0      	cmp	r0, r6
2fff3574:	4605      	mov	r5, r0
2fff3576:	d322      	bcc.n	2fff35be <fdt_check_header+0xc2>
2fff3578:	4284      	cmp	r4, r0
2fff357a:	d320      	bcc.n	2fff35be <fdt_check_header+0xc2>
2fff357c:	f101 0020 	add.w	r0, r1, #32
2fff3580:	f001 fb7c 	bl	2fff4c7c <fdt32_ld>
2fff3584:	182d      	adds	r5, r5, r0
2fff3586:	d21a      	bcs.n	2fff35be <fdt_check_header+0xc2>
2fff3588:	42ac      	cmp	r4, r5
2fff358a:	bf34      	ite	cc
2fff358c:	f06f 0007 	mvncc.w	r0, #7
2fff3590:	2000      	movcs	r0, #0
2fff3592:	bdf8      	pop	{r3, r4, r5, r6, r7, pc}
2fff3594:	4286      	cmp	r6, r0
2fff3596:	d812      	bhi.n	2fff35be <fdt_check_header+0xc2>
2fff3598:	4284      	cmp	r4, r0
2fff359a:	d310      	bcc.n	2fff35be <fdt_check_header+0xc2>
2fff359c:	f101 0024 	add.w	r0, r1, #36	@ 0x24
2fff35a0:	f001 fb6c 	bl	2fff4c7c <fdt32_ld>
2fff35a4:	1940      	adds	r0, r0, r5
2fff35a6:	d20a      	bcs.n	2fff35be <fdt_check_header+0xc2>
2fff35a8:	4284      	cmp	r4, r0
2fff35aa:	e7dd      	b.n	2fff3568 <fdt_check_header+0x6c>
2fff35ac:	f06f 0012 	mvn.w	r0, #18
2fff35b0:	e7ef      	b.n	2fff3592 <fdt_check_header+0x96>
2fff35b2:	f06f 0008 	mvn.w	r0, #8
2fff35b6:	e7ec      	b.n	2fff3592 <fdt_check_header+0x96>
2fff35b8:	f06f 0009 	mvn.w	r0, #9
2fff35bc:	e7e9      	b.n	2fff3592 <fdt_check_header+0x96>
2fff35be:	f06f 0007 	mvn.w	r0, #7
2fff35c2:	e7e6      	b.n	2fff3592 <fdt_check_header+0x96>
2fff35c4:	d00dfeed 	.word	0xd00dfeed

2fff35c8 <fdt_address_cells>:
2fff35c8:	b508      	push	{r3, lr}
2fff35ca:	4a05      	ldr	r2, [pc, #20]	@ (2fff35e0 <fdt_address_cells+0x18>)
2fff35cc:	f001 fc77 	bl	2fff4ebe <fdt_cells>
2fff35d0:	b118      	cbz	r0, 2fff35da <fdt_address_cells+0x12>
2fff35d2:	1c43      	adds	r3, r0, #1
2fff35d4:	bf08      	it	eq
2fff35d6:	2002      	moveq	r0, #2
2fff35d8:	bd08      	pop	{r3, pc}
2fff35da:	f06f 000d 	mvn.w	r0, #13
2fff35de:	e7fb      	b.n	2fff35d8 <fdt_address_cells+0x10>
2fff35e0:	2fff97e9 	.word	0x2fff97e9

2fff35e4 <fdt_get_string>:
2fff35e4:	e92d 41f0 	stmdb	sp!, {r4, r5, r6, r7, r8, lr}
2fff35e8:	4605      	mov	r5, r0
2fff35ea:	460e      	mov	r6, r1
2fff35ec:	4617      	mov	r7, r2
2fff35ee:	f7ff ff4b 	bl	2fff3488 <fdt_ro_probe_>
2fff35f2:	1e04      	subs	r4, r0, #0
2fff35f4:	db3f      	blt.n	2fff3676 <fdt_get_string+0x92>
2fff35f6:	f105 000c 	add.w	r0, r5, #12
2fff35fa:	f001 fc75 	bl	2fff4ee8 <fdt32_ld>
2fff35fe:	1981      	adds	r1, r0, r6
2fff3600:	428c      	cmp	r4, r1
2fff3602:	d93b      	bls.n	2fff367c <fdt_get_string+0x98>
2fff3604:	1a64      	subs	r4, r4, r1
2fff3606:	4628      	mov	r0, r5
2fff3608:	f001 fc6e 	bl	2fff4ee8 <fdt32_ld>
2fff360c:	4b1f      	ldr	r3, [pc, #124]	@ (2fff368c <fdt_get_string+0xa8>)
2fff360e:	4298      	cmp	r0, r3
2fff3610:	d11e      	bne.n	2fff3650 <fdt_get_string+0x6c>
2fff3612:	2e00      	cmp	r6, #0
2fff3614:	db32      	blt.n	2fff367c <fdt_get_string+0x98>
2fff3616:	f105 0014 	add.w	r0, r5, #20
2fff361a:	f001 fc65 	bl	2fff4ee8 <fdt32_ld>
2fff361e:	2810      	cmp	r0, #16
2fff3620:	d909      	bls.n	2fff3636 <fdt_get_string+0x52>
2fff3622:	f105 0020 	add.w	r0, r5, #32
2fff3626:	f001 fc5f 	bl	2fff4ee8 <fdt32_ld>
2fff362a:	4286      	cmp	r6, r0
2fff362c:	d226      	bcs.n	2fff367c <fdt_get_string+0x98>
2fff362e:	1b80      	subs	r0, r0, r6
2fff3630:	4284      	cmp	r4, r0
2fff3632:	bf28      	it	cs
2fff3634:	4604      	movcs	r4, r0
2fff3636:	440d      	add	r5, r1
2fff3638:	4622      	mov	r2, r4
2fff363a:	2100      	movs	r1, #0
2fff363c:	4628      	mov	r0, r5
2fff363e:	f001 fed6 	bl	2fff53ee <memchr>
2fff3642:	b1f0      	cbz	r0, 2fff3682 <fdt_get_string+0x9e>
2fff3644:	b10f      	cbz	r7, 2fff364a <fdt_get_string+0x66>
2fff3646:	1b40      	subs	r0, r0, r5
2fff3648:	6038      	str	r0, [r7, #0]
2fff364a:	4628      	mov	r0, r5
2fff364c:	e8bd 81f0 	ldmia.w	sp!, {r4, r5, r6, r7, r8, pc}
2fff3650:	4b0f      	ldr	r3, [pc, #60]	@ (2fff3690 <fdt_get_string+0xac>)
2fff3652:	4298      	cmp	r0, r3
2fff3654:	d10d      	bne.n	2fff3672 <fdt_get_string+0x8e>
2fff3656:	2e00      	cmp	r6, #0
2fff3658:	f1c6 0800 	rsb	r8, r6, #0
2fff365c:	da0e      	bge.n	2fff367c <fdt_get_string+0x98>
2fff365e:	f105 0020 	add.w	r0, r5, #32
2fff3662:	f001 fc41 	bl	2fff4ee8 <fdt32_ld>
2fff3666:	4540      	cmp	r0, r8
2fff3668:	d308      	bcc.n	2fff367c <fdt_get_string+0x98>
2fff366a:	4544      	cmp	r4, r8
2fff366c:	bf28      	it	cs
2fff366e:	4644      	movcs	r4, r8
2fff3670:	e7e1      	b.n	2fff3636 <fdt_get_string+0x52>
2fff3672:	f06f 040c 	mvn.w	r4, #12
2fff3676:	b93f      	cbnz	r7, 2fff3688 <fdt_get_string+0xa4>
2fff3678:	2500      	movs	r5, #0
2fff367a:	e7e6      	b.n	2fff364a <fdt_get_string+0x66>
2fff367c:	f06f 0403 	mvn.w	r4, #3
2fff3680:	e7f9      	b.n	2fff3676 <fdt_get_string+0x92>
2fff3682:	f06f 0407 	mvn.w	r4, #7
2fff3686:	e7f6      	b.n	2fff3676 <fdt_get_string+0x92>
2fff3688:	603c      	str	r4, [r7, #0]
2fff368a:	e7f5      	b.n	2fff3678 <fdt_get_string+0x94>
2fff368c:	d00dfeed 	.word	0xd00dfeed
2fff3690:	2ff20112 	.word	0x2ff20112

2fff3694 <fdt_get_phandle>:
2fff3694:	b537      	push	{r0, r1, r2, r4, r5, lr}
2fff3696:	ab01      	add	r3, sp, #4
2fff3698:	4a0d      	ldr	r2, [pc, #52]	@ (2fff36d0 <fdt_get_phandle+0x3c>)
2fff369a:	4604      	mov	r4, r0
2fff369c:	460d      	mov	r5, r1
2fff369e:	f001 fd57 	bl	2fff5150 <fdt_getprop>
2fff36a2:	b110      	cbz	r0, 2fff36aa <fdt_get_phandle+0x16>
2fff36a4:	9b01      	ldr	r3, [sp, #4]
2fff36a6:	2b04      	cmp	r3, #4
2fff36a8:	d009      	beq.n	2fff36be <fdt_get_phandle+0x2a>
2fff36aa:	4a0a      	ldr	r2, [pc, #40]	@ (2fff36d4 <fdt_get_phandle+0x40>)
2fff36ac:	ab01      	add	r3, sp, #4
2fff36ae:	4629      	mov	r1, r5
2fff36b0:	4620      	mov	r0, r4
2fff36b2:	f001 fd4d 	bl	2fff5150 <fdt_getprop>
2fff36b6:	b140      	cbz	r0, 2fff36ca <fdt_get_phandle+0x36>
2fff36b8:	9b01      	ldr	r3, [sp, #4]
2fff36ba:	2b04      	cmp	r3, #4
2fff36bc:	d105      	bne.n	2fff36ca <fdt_get_phandle+0x36>
2fff36be:	6800      	ldr	r0, [r0, #0]
2fff36c0:	b003      	add	sp, #12
2fff36c2:	e8bd 4030 	ldmia.w	sp!, {r4, r5, lr}
2fff36c6:	f001 bc34 	b.w	2fff4f32 <fdt32_ld_.isra.0>
2fff36ca:	2000      	movs	r0, #0
2fff36cc:	b003      	add	sp, #12
2fff36ce:	bd30      	pop	{r4, r5, pc}
2fff36d0:	2fff97fe 	.word	0x2fff97fe
2fff36d4:	2fff97f8 	.word	0x2fff97f8

2fff36d8 <fdt_get_alias_namelen>:
2fff36d8:	b573      	push	{r0, r1, r4, r5, r6, lr}
2fff36da:	460d      	mov	r5, r1
2fff36dc:	4908      	ldr	r1, [pc, #32]	@ (2fff3700 <fdt_get_alias_namelen+0x28>)
2fff36de:	4604      	mov	r4, r0
2fff36e0:	4616      	mov	r6, r2
2fff36e2:	f001 fd90 	bl	2fff5206 <fdt_path_offset>
2fff36e6:	1e01      	subs	r1, r0, #0
2fff36e8:	f04f 0000 	mov.w	r0, #0
2fff36ec:	db05      	blt.n	2fff36fa <fdt_get_alias_namelen+0x22>
2fff36ee:	9000      	str	r0, [sp, #0]
2fff36f0:	4633      	mov	r3, r6
2fff36f2:	462a      	mov	r2, r5
2fff36f4:	4620      	mov	r0, r4
2fff36f6:	f001 fd0b 	bl	2fff5110 <fdt_getprop_namelen>
2fff36fa:	b002      	add	sp, #8
2fff36fc:	bd70      	pop	{r4, r5, r6, pc}
2fff36fe:	bf00      	nop
2fff3700:	2fff9806 	.word	0x2fff9806

2fff3704 <fdt_node_check_compatible>:
2fff3704:	b513      	push	{r0, r1, r4, lr}
2fff3706:	4614      	mov	r4, r2
2fff3708:	4a07      	ldr	r2, [pc, #28]	@ (2fff3728 <fdt_node_check_compatible+0x24>)
2fff370a:	ab01      	add	r3, sp, #4
2fff370c:	f001 fd20 	bl	2fff5150 <fdt_getprop>
2fff3710:	b910      	cbnz	r0, 2fff3718 <fdt_node_check_compatible+0x14>
2fff3712:	9801      	ldr	r0, [sp, #4]
2fff3714:	b002      	add	sp, #8
2fff3716:	bd10      	pop	{r4, pc}
2fff3718:	9901      	ldr	r1, [sp, #4]
2fff371a:	4622      	mov	r2, r4
2fff371c:	f001 fdf6 	bl	2fff530c <fdt_stringlist_contains>
2fff3720:	fab0 f080 	clz	r0, r0
2fff3724:	0940      	lsrs	r0, r0, #5
2fff3726:	e7f5      	b.n	2fff3714 <fdt_node_check_compatible+0x10>
2fff3728:	2fff980f 	.word	0x2fff980f

2fff372c <__assert>:
2fff372c:	460a      	mov	r2, r1
2fff372e:	4601      	mov	r1, r0
2fff3730:	b508      	push	{r3, lr}
2fff3732:	4803      	ldr	r0, [pc, #12]	@ (2fff3740 <__assert+0x14>)
2fff3734:	f001 fefa 	bl	2fff552c <printf>
2fff3738:	f7fa f90a 	bl	2ffed950 <console_flush>
2fff373c:	f7f6 e9d8 	blx	2ffe9af0 <plat_panic_handler>
2fff3740:	2fff981a 	.word	0x2fff981a

2fff3744 <vprintf>:
2fff3744:	e92d 4ff7 	stmdb	sp!, {r0, r1, r2, r4, r5, r6, r7, r8, r9, sl, fp, lr}
2fff3748:	2500      	movs	r5, #0
2fff374a:	4606      	mov	r6, r0
2fff374c:	460c      	mov	r4, r1
2fff374e:	46a8      	mov	r8, r5
2fff3750:	7830      	ldrb	r0, [r6, #0]
2fff3752:	b918      	cbnz	r0, 2fff375c <vprintf+0x18>
2fff3754:	4628      	mov	r0, r5
2fff3756:	b003      	add	sp, #12
2fff3758:	e8bd 8ff0 	ldmia.w	sp!, {r4, r5, r6, r7, r8, r9, sl, fp, pc}
2fff375c:	2825      	cmp	r0, #37	@ 0x25
2fff375e:	f106 0601 	add.w	r6, r6, #1
2fff3762:	f040 80bd 	bne.w	2fff38e0 <vprintf+0x19c>
2fff3766:	f04f 0a00 	mov.w	sl, #0
2fff376a:	4653      	mov	r3, sl
2fff376c:	e087      	b.n	2fff387e <vprintf+0x13a>
2fff376e:	3863      	subs	r0, #99	@ 0x63
2fff3770:	2817      	cmp	r0, #23
2fff3772:	f200 808e 	bhi.w	2fff3892 <vprintf+0x14e>
2fff3776:	e8df f000 	tbb	[pc, r0]
2fff377a:	1034      	.short	0x1034
2fff377c:	8c8c8c8c 	.word	0x8c8c8c8c
2fff3780:	7e8c8c10 	.word	0x7e8c8c10
2fff3784:	4e8c8c8c 	.word	0x4e8c8c8c
2fff3788:	8c3a8c8c 	.word	0x8c3a8c8c
2fff378c:	6a8c8c8f 	.word	0x6a8c8c8f
2fff3790:	7f8c      	.short	0x7f8c
2fff3792:	f000 fb94 	bl	2fff3ebe <putchar>
2fff3796:	3601      	adds	r6, #1
2fff3798:	e7da      	b.n	2fff3750 <vprintf+0xc>
2fff379a:	2b01      	cmp	r3, #1
2fff379c:	bfcb      	itete	gt
2fff379e:	3407      	addgt	r4, #7
2fff37a0:	f104 0904 	addle.w	r9, r4, #4
2fff37a4:	f024 0407 	bicgt.w	r4, r4, #7
2fff37a8:	6827      	ldrle	r7, [r4, #0]
2fff37aa:	bfc5      	ittet	gt
2fff37ac:	46a1      	movgt	r9, r4
2fff37ae:	6864      	ldrgt	r4, [r4, #4]
2fff37b0:	17fc      	asrle	r4, r7, #31
2fff37b2:	f859 7b08 	ldrgt.w	r7, [r9], #8
2fff37b6:	2c00      	cmp	r4, #0
2fff37b8:	da10      	bge.n	2fff37dc <vprintf+0x98>
2fff37ba:	202d      	movs	r0, #45	@ 0x2d
2fff37bc:	f10a 3aff 	add.w	sl, sl, #4294967295	@ 0xffffffff
2fff37c0:	f000 fb7d 	bl	2fff3ebe <putchar>
2fff37c4:	4278      	negs	r0, r7
2fff37c6:	eb64 0144 	sbc.w	r1, r4, r4, lsl #1
2fff37ca:	f8cd a000 	str.w	sl, [sp]
2fff37ce:	4643      	mov	r3, r8
2fff37d0:	220a      	movs	r2, #10
2fff37d2:	464c      	mov	r4, r9
2fff37d4:	f001 fe69 	bl	2fff54aa <unsigned_num_print.part.0>
2fff37d8:	4405      	add	r5, r0
2fff37da:	e7dc      	b.n	2fff3796 <vprintf+0x52>
2fff37dc:	4638      	mov	r0, r7
2fff37de:	4621      	mov	r1, r4
2fff37e0:	e7f3      	b.n	2fff37ca <vprintf+0x86>
2fff37e2:	f854 0b04 	ldr.w	r0, [r4], #4
2fff37e6:	3501      	adds	r5, #1
2fff37e8:	f000 fb69 	bl	2fff3ebe <putchar>
2fff37ec:	e7d3      	b.n	2fff3796 <vprintf+0x52>
2fff37ee:	f854 9b04 	ldr.w	r9, [r4], #4
2fff37f2:	f1b9 0f00 	cmp.w	r9, #0
2fff37f6:	d10c      	bne.n	2fff3812 <vprintf+0xce>
2fff37f8:	483b      	ldr	r0, [pc, #236]	@ (2fff38e8 <vprintf+0x1a4>)
2fff37fa:	211c      	movs	r1, #28
2fff37fc:	f7ff ff96 	bl	2fff372c <__assert>
2fff3800:	3701      	adds	r7, #1
2fff3802:	f000 fb5c 	bl	2fff3ebe <putchar>
2fff3806:	f819 0007 	ldrb.w	r0, [r9, r7]
2fff380a:	2800      	cmp	r0, #0
2fff380c:	d1f8      	bne.n	2fff3800 <vprintf+0xbc>
2fff380e:	443d      	add	r5, r7
2fff3810:	e7c1      	b.n	2fff3796 <vprintf+0x52>
2fff3812:	2700      	movs	r7, #0
2fff3814:	e7f7      	b.n	2fff3806 <vprintf+0xc2>
2fff3816:	f854 9b04 	ldr.w	r9, [r4], #4
2fff381a:	f1b9 0f00 	cmp.w	r9, #0
2fff381e:	d008      	beq.n	2fff3832 <vprintf+0xee>
2fff3820:	f8df b0c8 	ldr.w	fp, [pc, #200]	@ 2fff38ec <vprintf+0x1a8>
2fff3824:	2700      	movs	r7, #0
2fff3826:	f81b 0b01 	ldrb.w	r0, [fp], #1
2fff382a:	b960      	cbnz	r0, 2fff3846 <vprintf+0x102>
2fff382c:	443d      	add	r5, r7
2fff382e:	f1aa 0a02 	sub.w	sl, sl, #2
2fff3832:	f8cd a000 	str.w	sl, [sp]
2fff3836:	4643      	mov	r3, r8
2fff3838:	2210      	movs	r2, #16
2fff383a:	4648      	mov	r0, r9
2fff383c:	2100      	movs	r1, #0
2fff383e:	f001 fe34 	bl	2fff54aa <unsigned_num_print.part.0>
2fff3842:	4405      	add	r5, r0
2fff3844:	e7a7      	b.n	2fff3796 <vprintf+0x52>
2fff3846:	3701      	adds	r7, #1
2fff3848:	f000 fb39 	bl	2fff3ebe <putchar>
2fff384c:	e7eb      	b.n	2fff3826 <vprintf+0xe2>
2fff384e:	2b01      	cmp	r3, #1
2fff3850:	f04f 0210 	mov.w	r2, #16
2fff3854:	bfcb      	itete	gt
2fff3856:	1de3      	addgt	r3, r4, #7
2fff3858:	2100      	movle	r1, #0
2fff385a:	f023 0307 	bicgt.w	r3, r3, #7
2fff385e:	f854 0b04 	ldrle.w	r0, [r4], #4
2fff3862:	bfc4      	itt	gt
2fff3864:	461c      	movgt	r4, r3
2fff3866:	6859      	ldrgt	r1, [r3, #4]
2fff3868:	4643      	mov	r3, r8
2fff386a:	bfc8      	it	gt
2fff386c:	f854 0b08 	ldrgt.w	r0, [r4], #8
2fff3870:	f8cd a000 	str.w	sl, [sp]
2fff3874:	e7e3      	b.n	2fff383e <vprintf+0xfa>
2fff3876:	3301      	adds	r3, #1
2fff3878:	3601      	adds	r6, #1
2fff387a:	4640      	mov	r0, r8
2fff387c:	4680      	mov	r8, r0
2fff387e:	7830      	ldrb	r0, [r6, #0]
2fff3880:	287a      	cmp	r0, #122	@ 0x7a
2fff3882:	d806      	bhi.n	2fff3892 <vprintf+0x14e>
2fff3884:	2862      	cmp	r0, #98	@ 0x62
2fff3886:	f63f af72 	bhi.w	2fff376e <vprintf+0x2a>
2fff388a:	2825      	cmp	r0, #37	@ 0x25
2fff388c:	d081      	beq.n	2fff3792 <vprintf+0x4e>
2fff388e:	2830      	cmp	r0, #48	@ 0x30
2fff3890:	d016      	beq.n	2fff38c0 <vprintf+0x17c>
2fff3892:	f04f 35ff 	mov.w	r5, #4294967295	@ 0xffffffff
2fff3896:	e75d      	b.n	2fff3754 <vprintf+0x10>
2fff3898:	2b01      	cmp	r3, #1
2fff389a:	f04f 020a 	mov.w	r2, #10
2fff389e:	bfcb      	itete	gt
2fff38a0:	1de3      	addgt	r3, r4, #7
2fff38a2:	2100      	movle	r1, #0
2fff38a4:	f023 0307 	bicgt.w	r3, r3, #7
2fff38a8:	f854 0b04 	ldrle.w	r0, [r4], #4
2fff38ac:	bfc4      	itt	gt
2fff38ae:	461c      	movgt	r4, r3
2fff38b0:	6859      	ldrgt	r1, [r3, #4]
2fff38b2:	4643      	mov	r3, r8
2fff38b4:	bfc8      	it	gt
2fff38b6:	f854 0b08 	ldrgt.w	r0, [r4], #8
2fff38ba:	f8cd a000 	str.w	sl, [sp]
2fff38be:	e7be      	b.n	2fff383e <vprintf+0xfa>
2fff38c0:	1c71      	adds	r1, r6, #1
2fff38c2:	f04f 0a00 	mov.w	sl, #0
2fff38c6:	270a      	movs	r7, #10
2fff38c8:	460e      	mov	r6, r1
2fff38ca:	f811 2b01 	ldrb.w	r2, [r1], #1
2fff38ce:	3a30      	subs	r2, #48	@ 0x30
2fff38d0:	fa5f fc82 	uxtb.w	ip, r2
2fff38d4:	f1bc 0f09 	cmp.w	ip, #9
2fff38d8:	d8d0      	bhi.n	2fff387c <vprintf+0x138>
2fff38da:	fb07 2a0a 	mla	sl, r7, sl, r2
2fff38de:	e7f3      	b.n	2fff38c8 <vprintf+0x184>
2fff38e0:	3501      	adds	r5, #1
2fff38e2:	f000 faec 	bl	2fff3ebe <putchar>
2fff38e6:	e733      	b.n	2fff3750 <vprintf+0xc>
2fff38e8:	2fff9829 	.word	0x2fff9829
2fff38ec:	2fff983b 	.word	0x2fff983b

2fff38f0 <vsnprintf>:
2fff38f0:	e92d 47f0 	stmdb	sp!, {r4, r5, r6, r7, r8, r9, sl, lr}
2fff38f4:	b08a      	sub	sp, #40	@ 0x28
2fff38f6:	461c      	mov	r4, r3
2fff38f8:	2300      	movs	r3, #0
2fff38fa:	9007      	str	r0, [sp, #28]
2fff38fc:	9309      	str	r3, [sp, #36]	@ 0x24
2fff38fe:	b111      	cbz	r1, 2fff3906 <vsnprintf+0x16>
2fff3900:	2901      	cmp	r1, #1
2fff3902:	d102      	bne.n	2fff390a <vsnprintf+0x1a>
2fff3904:	7003      	strb	r3, [r0, #0]
2fff3906:	2500      	movs	r5, #0
2fff3908:	e000      	b.n	2fff390c <vsnprintf+0x1c>
2fff390a:	1e4d      	subs	r5, r1, #1
2fff390c:	7813      	ldrb	r3, [r2, #0]
2fff390e:	b933      	cbnz	r3, 2fff391e <vsnprintf+0x2e>
2fff3910:	b10d      	cbz	r5, 2fff3916 <vsnprintf+0x26>
2fff3912:	9a07      	ldr	r2, [sp, #28]
2fff3914:	7013      	strb	r3, [r2, #0]
2fff3916:	9809      	ldr	r0, [sp, #36]	@ 0x24
2fff3918:	b00a      	add	sp, #40	@ 0x28
2fff391a:	e8bd 87f0 	ldmia.w	sp!, {r4, r5, r6, r7, r8, r9, sl, pc}
2fff391e:	2b25      	cmp	r3, #37	@ 0x25
2fff3920:	f102 0201 	add.w	r2, r2, #1
2fff3924:	f040 813f 	bne.w	2fff3ba6 <vsnprintf+0x2b6>
2fff3928:	2000      	movs	r0, #0
2fff392a:	4607      	mov	r7, r0
2fff392c:	4601      	mov	r1, r0
2fff392e:	4684      	mov	ip, r0
2fff3930:	e001      	b.n	2fff3936 <vsnprintf+0x46>
2fff3932:	2701      	movs	r7, #1
2fff3934:	4632      	mov	r2, r6
2fff3936:	4616      	mov	r6, r2
2fff3938:	f816 3b01 	ldrb.w	r3, [r6], #1
2fff393c:	2b7a      	cmp	r3, #122	@ 0x7a
2fff393e:	d809      	bhi.n	2fff3954 <vsnprintf+0x64>
2fff3940:	2b62      	cmp	r3, #98	@ 0x62
2fff3942:	d81d      	bhi.n	2fff3980 <vsnprintf+0x90>
2fff3944:	2b39      	cmp	r3, #57	@ 0x39
2fff3946:	d853      	bhi.n	2fff39f0 <vsnprintf+0x100>
2fff3948:	2b2f      	cmp	r3, #47	@ 0x2f
2fff394a:	d861      	bhi.n	2fff3a10 <vsnprintf+0x120>
2fff394c:	2b25      	cmp	r3, #37	@ 0x25
2fff394e:	d053      	beq.n	2fff39f8 <vsnprintf+0x108>
2fff3950:	2b2d      	cmp	r3, #45	@ 0x2d
2fff3952:	d0ee      	beq.n	2fff3932 <vsnprintf+0x42>
2fff3954:	9b09      	ldr	r3, [sp, #36]	@ 0x24
2fff3956:	42ab      	cmp	r3, r5
2fff3958:	bf3f      	itttt	cc
2fff395a:	2025      	movcc	r0, #37	@ 0x25
2fff395c:	9907      	ldrcc	r1, [sp, #28]
2fff395e:	f801 0b01 	strbcc.w	r0, [r1], #1
2fff3962:	9107      	strcc	r1, [sp, #28]
2fff3964:	1c59      	adds	r1, r3, #1
2fff3966:	42a9      	cmp	r1, r5
2fff3968:	f103 0302 	add.w	r3, r3, #2
2fff396c:	9109      	str	r1, [sp, #36]	@ 0x24
2fff396e:	bf3f      	itttt	cc
2fff3970:	7811      	ldrbcc	r1, [r2, #0]
2fff3972:	9a07      	ldrcc	r2, [sp, #28]
2fff3974:	f802 1b01 	strbcc.w	r1, [r2], #1
2fff3978:	9207      	strcc	r2, [sp, #28]
2fff397a:	e047      	b.n	2fff3a0c <vsnprintf+0x11c>
2fff397c:	2001      	movs	r0, #1
2fff397e:	e7d9      	b.n	2fff3934 <vsnprintf+0x44>
2fff3980:	3b63      	subs	r3, #99	@ 0x63
2fff3982:	2b17      	cmp	r3, #23
2fff3984:	d8e6      	bhi.n	2fff3954 <vsnprintf+0x64>
2fff3986:	f20f 0e08 	addw	lr, pc, #8
2fff398a:	f85e f023 	ldr.w	pc, [lr, r3, lsl #2]
2fff398e:	bf00      	nop
2fff3990:	2fff3a9d 	.word	0x2fff3a9d
2fff3994:	2fff3a49 	.word	0x2fff3a49
2fff3998:	2fff3955 	.word	0x2fff3955
2fff399c:	2fff3955 	.word	0x2fff3955
2fff39a0:	2fff3955 	.word	0x2fff3955
2fff39a4:	2fff3955 	.word	0x2fff3955
2fff39a8:	2fff3a49 	.word	0x2fff3a49
2fff39ac:	2fff3955 	.word	0x2fff3955
2fff39b0:	2fff3955 	.word	0x2fff3955
2fff39b4:	2fff3b19 	.word	0x2fff3b19
2fff39b8:	2fff3955 	.word	0x2fff3955
2fff39bc:	2fff3955 	.word	0x2fff3955
2fff39c0:	2fff3955 	.word	0x2fff3955
2fff39c4:	2fff3b1d 	.word	0x2fff3b1d
2fff39c8:	2fff3955 	.word	0x2fff3955
2fff39cc:	2fff3955 	.word	0x2fff3955
2fff39d0:	2fff3ab5 	.word	0x2fff3ab5
2fff39d4:	2fff3955 	.word	0x2fff3955
2fff39d8:	2fff3ae9 	.word	0x2fff3ae9
2fff39dc:	2fff3955 	.word	0x2fff3955
2fff39e0:	2fff3955 	.word	0x2fff3955
2fff39e4:	2fff3b7f 	.word	0x2fff3b7f
2fff39e8:	2fff3955 	.word	0x2fff3955
2fff39ec:	2fff397d 	.word	0x2fff397d
2fff39f0:	2b58      	cmp	r3, #88	@ 0x58
2fff39f2:	d1af      	bne.n	2fff3954 <vsnprintf+0x64>
2fff39f4:	2701      	movs	r7, #1
2fff39f6:	e0c3      	b.n	2fff3b80 <vsnprintf+0x290>
2fff39f8:	9a09      	ldr	r2, [sp, #36]	@ 0x24
2fff39fa:	42aa      	cmp	r2, r5
2fff39fc:	bf3c      	itt	cc
2fff39fe:	9907      	ldrcc	r1, [sp, #28]
2fff3a00:	f801 3b01 	strbcc.w	r3, [r1], #1
2fff3a04:	f102 0301 	add.w	r3, r2, #1
2fff3a08:	bf38      	it	cc
2fff3a0a:	9107      	strcc	r1, [sp, #28]
2fff3a0c:	9309      	str	r3, [sp, #36]	@ 0x24
2fff3a0e:	e043      	b.n	2fff3a98 <vsnprintf+0x1a8>
2fff3a10:	2b30      	cmp	r3, #48	@ 0x30
2fff3a12:	4616      	mov	r6, r2
2fff3a14:	bf14      	ite	ne
2fff3a16:	f04f 0c20 	movne.w	ip, #32
2fff3a1a:	f04f 0c30 	moveq.w	ip, #48	@ 0x30
2fff3a1e:	2100      	movs	r1, #0
2fff3a20:	f04f 080a 	mov.w	r8, #10
2fff3a24:	4632      	mov	r2, r6
2fff3a26:	f812 3b01 	ldrb.w	r3, [r2], #1
2fff3a2a:	3b30      	subs	r3, #48	@ 0x30
2fff3a2c:	fa5f fe83 	uxtb.w	lr, r3
2fff3a30:	f1be 0f09 	cmp.w	lr, #9
2fff3a34:	d904      	bls.n	2fff3a40 <vsnprintf+0x150>
2fff3a36:	2f00      	cmp	r7, #0
2fff3a38:	f43f af7c 	beq.w	2fff3934 <vsnprintf+0x44>
2fff3a3c:	4249      	negs	r1, r1
2fff3a3e:	e779      	b.n	2fff3934 <vsnprintf+0x44>
2fff3a40:	fb08 3101 	mla	r1, r8, r1, r3
2fff3a44:	4616      	mov	r6, r2
2fff3a46:	e7ed      	b.n	2fff3a24 <vsnprintf+0x134>
2fff3a48:	2801      	cmp	r0, #1
2fff3a4a:	bf8b      	itete	hi
2fff3a4c:	1de7      	addhi	r7, r4, #7
2fff3a4e:	1d27      	addls	r7, r4, #4
2fff3a50:	f027 0707 	bichi.w	r7, r7, #7
2fff3a54:	6823      	ldrls	r3, [r4, #0]
2fff3a56:	bf88      	it	hi
2fff3a58:	f857 3b08 	ldrhi.w	r3, [r7], #8
2fff3a5c:	2b00      	cmp	r3, #0
2fff3a5e:	da0b      	bge.n	2fff3a78 <vsnprintf+0x188>
2fff3a60:	9a09      	ldr	r2, [sp, #36]	@ 0x24
2fff3a62:	425b      	negs	r3, r3
2fff3a64:	42aa      	cmp	r2, r5
2fff3a66:	f102 0201 	add.w	r2, r2, #1
2fff3a6a:	9209      	str	r2, [sp, #36]	@ 0x24
2fff3a6c:	bf3f      	itttt	cc
2fff3a6e:	242d      	movcc	r4, #45	@ 0x2d
2fff3a70:	9807      	ldrcc	r0, [sp, #28]
2fff3a72:	f800 4b01 	strbcc.w	r4, [r0], #1
2fff3a76:	9007      	strcc	r0, [sp, #28]
2fff3a78:	17da      	asrs	r2, r3, #31
2fff3a7a:	2000      	movs	r0, #0
2fff3a7c:	9104      	str	r1, [sp, #16]
2fff3a7e:	210a      	movs	r1, #10
2fff3a80:	9005      	str	r0, [sp, #20]
2fff3a82:	463c      	mov	r4, r7
2fff3a84:	9102      	str	r1, [sp, #8]
2fff3a86:	a807      	add	r0, sp, #28
2fff3a88:	e9cd 3200 	strd	r3, r2, [sp]
2fff3a8c:	f8cd c00c 	str.w	ip, [sp, #12]
2fff3a90:	aa09      	add	r2, sp, #36	@ 0x24
2fff3a92:	4629      	mov	r1, r5
2fff3a94:	f001 fd57 	bl	2fff5546 <unsigned_num_print>
2fff3a98:	4632      	mov	r2, r6
2fff3a9a:	e737      	b.n	2fff390c <vsnprintf+0x1c>
2fff3a9c:	9b09      	ldr	r3, [sp, #36]	@ 0x24
2fff3a9e:	42ab      	cmp	r3, r5
2fff3aa0:	f103 0301 	add.w	r3, r3, #1
2fff3aa4:	bf3f      	itttt	cc
2fff3aa6:	9a07      	ldrcc	r2, [sp, #28]
2fff3aa8:	f854 1b04 	ldrcc.w	r1, [r4], #4
2fff3aac:	f802 1b01 	strbcc.w	r1, [r2], #1
2fff3ab0:	9207      	strcc	r2, [sp, #28]
2fff3ab2:	e7ab      	b.n	2fff3a0c <vsnprintf+0x11c>
2fff3ab4:	f854 2b04 	ldr.w	r2, [r4], #4
2fff3ab8:	2000      	movs	r0, #0
2fff3aba:	9b09      	ldr	r3, [sp, #36]	@ 0x24
2fff3abc:	4607      	mov	r7, r0
2fff3abe:	9907      	ldr	r1, [sp, #28]
2fff3ac0:	3a01      	subs	r2, #1
2fff3ac2:	f812 cf01 	ldrb.w	ip, [r2, #1]!
2fff3ac6:	f1bc 0f00 	cmp.w	ip, #0
2fff3aca:	d104      	bne.n	2fff3ad6 <vsnprintf+0x1e6>
2fff3acc:	b100      	cbz	r0, 2fff3ad0 <vsnprintf+0x1e0>
2fff3ace:	9107      	str	r1, [sp, #28]
2fff3ad0:	2f00      	cmp	r7, #0
2fff3ad2:	d19b      	bne.n	2fff3a0c <vsnprintf+0x11c>
2fff3ad4:	e7e0      	b.n	2fff3a98 <vsnprintf+0x1a8>
2fff3ad6:	429d      	cmp	r5, r3
2fff3ad8:	f04f 0701 	mov.w	r7, #1
2fff3adc:	bf84      	itt	hi
2fff3ade:	f801 cb01 	strbhi.w	ip, [r1], #1
2fff3ae2:	2001      	movhi	r0, #1
2fff3ae4:	3301      	adds	r3, #1
2fff3ae6:	e7ec      	b.n	2fff3ac2 <vsnprintf+0x1d2>
2fff3ae8:	2801      	cmp	r0, #1
2fff3aea:	f04f 0000 	mov.w	r0, #0
2fff3aee:	bf8b      	itete	hi
2fff3af0:	1de3      	addhi	r3, r4, #7
2fff3af2:	2300      	movls	r3, #0
2fff3af4:	f023 0307 	bichi.w	r3, r3, #7
2fff3af8:	f854 2b04 	ldrls.w	r2, [r4], #4
2fff3afc:	bf82      	ittt	hi
2fff3afe:	461c      	movhi	r4, r3
2fff3b00:	685b      	ldrhi	r3, [r3, #4]
2fff3b02:	f854 2b08 	ldrhi.w	r2, [r4], #8
2fff3b06:	9104      	str	r1, [sp, #16]
2fff3b08:	210a      	movs	r1, #10
2fff3b0a:	9005      	str	r0, [sp, #20]
2fff3b0c:	f8cd c00c 	str.w	ip, [sp, #12]
2fff3b10:	9102      	str	r1, [sp, #8]
2fff3b12:	e9cd 2300 	strd	r2, r3, [sp]
2fff3b16:	e022      	b.n	2fff3b5e <vsnprintf+0x26e>
2fff3b18:	3001      	adds	r0, #1
2fff3b1a:	e70b      	b.n	2fff3934 <vsnprintf+0x44>
2fff3b1c:	f854 7b04 	ldr.w	r7, [r4], #4
2fff3b20:	2200      	movs	r2, #0
2fff3b22:	b19f      	cbz	r7, 2fff3b4c <vsnprintf+0x25c>
2fff3b24:	9b09      	ldr	r3, [sp, #36]	@ 0x24
2fff3b26:	4690      	mov	r8, r2
2fff3b28:	9807      	ldr	r0, [sp, #28]
2fff3b2a:	4696      	mov	lr, r2
2fff3b2c:	f8df a08c 	ldr.w	sl, [pc, #140]	@ 2fff3bbc <vsnprintf+0x2cc>
2fff3b30:	f81a 9b01 	ldrb.w	r9, [sl], #1
2fff3b34:	f1b9 0f00 	cmp.w	r9, #0
2fff3b38:	d117      	bne.n	2fff3b6a <vsnprintf+0x27a>
2fff3b3a:	f1b8 0f00 	cmp.w	r8, #0
2fff3b3e:	d000      	beq.n	2fff3b42 <vsnprintf+0x252>
2fff3b40:	9007      	str	r0, [sp, #28]
2fff3b42:	f1be 0f00 	cmp.w	lr, #0
2fff3b46:	d000      	beq.n	2fff3b4a <vsnprintf+0x25a>
2fff3b48:	9309      	str	r3, [sp, #36]	@ 0x24
2fff3b4a:	3902      	subs	r1, #2
2fff3b4c:	9104      	str	r1, [sp, #16]
2fff3b4e:	2300      	movs	r3, #0
2fff3b50:	9305      	str	r3, [sp, #20]
2fff3b52:	2310      	movs	r3, #16
2fff3b54:	f8cd c00c 	str.w	ip, [sp, #12]
2fff3b58:	9302      	str	r3, [sp, #8]
2fff3b5a:	e9cd 7200 	strd	r7, r2, [sp]
2fff3b5e:	aa09      	add	r2, sp, #36	@ 0x24
2fff3b60:	4629      	mov	r1, r5
2fff3b62:	a807      	add	r0, sp, #28
2fff3b64:	f001 fcef 	bl	2fff5546 <unsigned_num_print>
2fff3b68:	e796      	b.n	2fff3a98 <vsnprintf+0x1a8>
2fff3b6a:	429d      	cmp	r5, r3
2fff3b6c:	f04f 0e01 	mov.w	lr, #1
2fff3b70:	bf84      	itt	hi
2fff3b72:	f800 9b01 	strbhi.w	r9, [r0], #1
2fff3b76:	f04f 0801 	movhi.w	r8, #1
2fff3b7a:	3301      	adds	r3, #1
2fff3b7c:	e7d8      	b.n	2fff3b30 <vsnprintf+0x240>
2fff3b7e:	2700      	movs	r7, #0
2fff3b80:	2801      	cmp	r0, #1
2fff3b82:	bf8b      	itete	hi
2fff3b84:	1de3      	addhi	r3, r4, #7
2fff3b86:	2300      	movls	r3, #0
2fff3b88:	f023 0307 	bichi.w	r3, r3, #7
2fff3b8c:	f854 2b04 	ldrls.w	r2, [r4], #4
2fff3b90:	bf82      	ittt	hi
2fff3b92:	461c      	movhi	r4, r3
2fff3b94:	685b      	ldrhi	r3, [r3, #4]
2fff3b96:	f854 2b08 	ldrhi.w	r2, [r4], #8
2fff3b9a:	9104      	str	r1, [sp, #16]
2fff3b9c:	2110      	movs	r1, #16
2fff3b9e:	9705      	str	r7, [sp, #20]
2fff3ba0:	f8cd c00c 	str.w	ip, [sp, #12]
2fff3ba4:	e7b4      	b.n	2fff3b10 <vsnprintf+0x220>
2fff3ba6:	9909      	ldr	r1, [sp, #36]	@ 0x24
2fff3ba8:	42a9      	cmp	r1, r5
2fff3baa:	f101 0101 	add.w	r1, r1, #1
2fff3bae:	9109      	str	r1, [sp, #36]	@ 0x24
2fff3bb0:	bf3e      	ittt	cc
2fff3bb2:	9807      	ldrcc	r0, [sp, #28]
2fff3bb4:	f800 3b01 	strbcc.w	r3, [r0], #1
2fff3bb8:	9007      	strcc	r0, [sp, #28]
2fff3bba:	e6a7      	b.n	2fff390c <vsnprintf+0x1c>
2fff3bbc:	2fff983b 	.word	0x2fff983b

2fff3bc0 <bl2_arch_setup>:
2fff3bc0:	4770      	bx	lr

2fff3bc2 <bl2_el3_setup>:
2fff3bc2:	b508      	push	{r3, lr}
2fff3bc4:	f000 f95e 	bl	2fff3e84 <bl2_el3_early_platform_setup>
2fff3bc8:	e8bd 4008 	ldmia.w	sp!, {r3, lr}
2fff3bcc:	f7f9 b900 	b.w	2ffecdd0 <bl2_el3_plat_arch_setup>

2fff3bd0 <cpu_to_fdt32>:
2fff3bd0:	ba00      	rev	r0, r0
2fff3bd2:	4770      	bx	lr

2fff3bd4 <fdt_read_uint32>:
2fff3bd4:	b507      	push	{r0, r1, r2, lr}
2fff3bd6:	9300      	str	r3, [sp, #0]
2fff3bd8:	2301      	movs	r3, #1
2fff3bda:	f7f6 f969 	bl	2ffe9eb0 <fdt_read_uint32_array>
2fff3bde:	b003      	add	sp, #12
2fff3be0:	f85d fb04 	ldr.w	pc, [sp], #4

2fff3be4 <fdt_read_uint32_default>:
2fff3be4:	b513      	push	{r0, r1, r4, lr}
2fff3be6:	461c      	mov	r4, r3
2fff3be8:	9301      	str	r3, [sp, #4]
2fff3bea:	ab01      	add	r3, sp, #4
2fff3bec:	f7ff fff2 	bl	2fff3bd4 <fdt_read_uint32>
2fff3bf0:	2800      	cmp	r0, #0
2fff3bf2:	bfa8      	it	ge
2fff3bf4:	9c01      	ldrge	r4, [sp, #4]
2fff3bf6:	4620      	mov	r0, r4
2fff3bf8:	b002      	add	sp, #8
2fff3bfa:	bd10      	pop	{r4, pc}

2fff3bfc <fdt_read_uint64>:
2fff3bfc:	b530      	push	{r4, r5, lr}
2fff3bfe:	b085      	sub	sp, #20
2fff3c00:	461c      	mov	r4, r3
2fff3c02:	ab02      	add	r3, sp, #8
2fff3c04:	9300      	str	r3, [sp, #0]
2fff3c06:	2500      	movs	r5, #0
2fff3c08:	2302      	movs	r3, #2
2fff3c0a:	e9cd 5502 	strd	r5, r5, [sp, #8]
2fff3c0e:	f7f6 f94f 	bl	2ffe9eb0 <fdt_read_uint32_array>
2fff3c12:	2800      	cmp	r0, #0
2fff3c14:	db04      	blt.n	2fff3c20 <fdt_read_uint64+0x24>
2fff3c16:	9b03      	ldr	r3, [sp, #12]
2fff3c18:	4628      	mov	r0, r5
2fff3c1a:	6023      	str	r3, [r4, #0]
2fff3c1c:	9b02      	ldr	r3, [sp, #8]
2fff3c1e:	6063      	str	r3, [r4, #4]
2fff3c20:	b005      	add	sp, #20
2fff3c22:	bd30      	pop	{r4, r5, pc}

2fff3c24 <device_type_block>:
2fff3c24:	2005      	movs	r0, #5
2fff3c26:	4770      	bx	lr

2fff3c28 <block_close>:
2fff3c28:	4603      	mov	r3, r0
2fff3c2a:	2000      	movs	r0, #0
2fff3c2c:	6058      	str	r0, [r3, #4]
2fff3c2e:	4770      	bx	lr

2fff3c30 <device_type_fip>:
2fff3c30:	2004      	movs	r0, #4
2fff3c32:	4770      	bx	lr

2fff3c34 <is_valid_dev>:
2fff3c34:	b508      	push	{r3, lr}
2fff3c36:	b140      	cbz	r0, 2fff3c4a <is_valid_dev+0x16>
2fff3c38:	6800      	ldr	r0, [r0, #0]
2fff3c3a:	b130      	cbz	r0, 2fff3c4a <is_valid_dev+0x16>
2fff3c3c:	6800      	ldr	r0, [r0, #0]
2fff3c3e:	b120      	cbz	r0, 2fff3c4a <is_valid_dev+0x16>
2fff3c40:	4780      	blx	r0
2fff3c42:	2808      	cmp	r0, #8
2fff3c44:	bf8c      	ite	hi
2fff3c46:	2000      	movhi	r0, #0
2fff3c48:	2001      	movls	r0, #1
2fff3c4a:	bd08      	pop	{r3, pc}

2fff3c4c <is_valid_entity>:
2fff3c4c:	b508      	push	{r3, lr}
2fff3c4e:	b110      	cbz	r0, 2fff3c56 <is_valid_entity+0xa>
2fff3c50:	6800      	ldr	r0, [r0, #0]
2fff3c52:	f7ff ffef 	bl	2fff3c34 <is_valid_dev>
2fff3c56:	f000 0001 	and.w	r0, r0, #1
2fff3c5a:	bd08      	pop	{r3, pc}

2fff3c5c <mmc_reset_to_idle>:
2fff3c5c:	2300      	movs	r3, #0
2fff3c5e:	b510      	push	{r4, lr}
2fff3c60:	461a      	mov	r2, r3
2fff3c62:	4619      	mov	r1, r3
2fff3c64:	4618      	mov	r0, r3
2fff3c66:	f7f6 fff3 	bl	2ffeac50 <mmc_send_cmd>
2fff3c6a:	4604      	mov	r4, r0
2fff3c6c:	b910      	cbnz	r0, 2fff3c74 <mmc_reset_to_idle+0x18>
2fff3c6e:	2002      	movs	r0, #2
2fff3c70:	f000 fbc0 	bl	2fff43f4 <mdelay>
2fff3c74:	4620      	mov	r0, r4
2fff3c76:	bd10      	pop	{r4, pc}

2fff3c78 <partition_init>:
2fff3c78:	f7f7 bb7c 	b.w	2ffeb374 <load_partition_table>

2fff3c7c <stm32mp1_mode_register_write.isra.0>:
2fff3c7c:	6983      	ldr	r3, [r0, #24]
2fff3c7e:	07db      	lsls	r3, r3, #31
2fff3c80:	d4fc      	bmi.n	2fff3c7c <stm32mp1_mode_register_write.isra.0>
2fff3c82:	0309      	lsls	r1, r1, #12
2fff3c84:	f041 0310 	orr.w	r3, r1, #16
2fff3c88:	f041 4100 	orr.w	r1, r1, #2147483648	@ 0x80000000
2fff3c8c:	6103      	str	r3, [r0, #16]
2fff3c8e:	f041 0110 	orr.w	r1, r1, #16
2fff3c92:	6142      	str	r2, [r0, #20]
2fff3c94:	6101      	str	r1, [r0, #16]
2fff3c96:	6983      	ldr	r3, [r0, #24]
2fff3c98:	07db      	lsls	r3, r3, #31
2fff3c9a:	d4fc      	bmi.n	2fff3c96 <stm32mp1_mode_register_write.isra.0+0x1a>
2fff3c9c:	4770      	bx	lr

2fff3c9e <stm32mp1_ddrphy_idone_wait>:
2fff3c9e:	b5f8      	push	{r3, r4, r5, r6, r7, lr}
2fff3ca0:	ee1e 3f10 	mrc	15, 0, r3, cr14, cr0, {0}
2fff3ca4:	ec55 4f0e 	mrrc	15, 0, r4, r5, cr14
2fff3ca8:	191a      	adds	r2, r3, r4
2fff3caa:	f240 3681 	movw	r6, #897	@ 0x381
2fff3cae:	f145 0700 	adc.w	r7, r5, #0
2fff3cb2:	68c3      	ldr	r3, [r0, #12]
2fff3cb4:	ec55 4f0e 	mrrc	15, 0, r4, r5, cr14
2fff3cb8:	42a2      	cmp	r2, r4
2fff3cba:	eb77 0105 	sbcs.w	r1, r7, r5
2fff3cbe:	d203      	bcs.n	2fff3cc8 <stm32mp1_ddrphy_idone_wait+0x2a>
2fff3cc0:	f7f9 fe46 	bl	2ffed950 <console_flush>
2fff3cc4:	f7f5 eb8a 	blx	2ffe93dc <do_panic>
2fff3cc8:	0659      	lsls	r1, r3, #25
2fff3cca:	d404      	bmi.n	2fff3cd6 <stm32mp1_ddrphy_idone_wait+0x38>
2fff3ccc:	f3c3 1140 	ubfx	r1, r3, #5, #1
2fff3cd0:	4033      	ands	r3, r6
2fff3cd2:	4319      	orrs	r1, r3
2fff3cd4:	d0ed      	beq.n	2fff3cb2 <stm32mp1_ddrphy_idone_wait+0x14>
2fff3cd6:	bdf8      	pop	{r3, r4, r5, r6, r7, pc}

2fff3cd8 <stm32mp1_wait_operating_mode>:
2fff3cd8:	b5f8      	push	{r3, r4, r5, r6, r7, lr}
2fff3cda:	460d      	mov	r5, r1
2fff3cdc:	ee1e 2f10 	mrc	15, 0, r2, cr14, cr0, {0}
2fff3ce0:	ec57 6f0e 	mrrc	15, 0, r6, r7, cr14
2fff3ce4:	1992      	adds	r2, r2, r6
2fff3ce6:	f147 0400 	adc.w	r4, r7, #0
2fff3cea:	6900      	ldr	r0, [r0, #16]
2fff3cec:	6843      	ldr	r3, [r0, #4]
2fff3cee:	f003 0107 	and.w	r1, r3, #7
2fff3cf2:	f003 0330 	and.w	r3, r3, #48	@ 0x30
2fff3cf6:	ec57 6f0e 	mrrc	15, 0, r6, r7, cr14
2fff3cfa:	42b2      	cmp	r2, r6
2fff3cfc:	eb74 0607 	sbcs.w	r6, r4, r7
2fff3d00:	d311      	bcc.n	2fff3d26 <stm32mp1_wait_operating_mode+0x4e>
2fff3d02:	2d03      	cmp	r5, #3
2fff3d04:	d11e      	bne.n	2fff3d44 <stm32mp1_wait_operating_mode+0x6c>
2fff3d06:	2903      	cmp	r1, #3
2fff3d08:	d1f0      	bne.n	2fff3cec <stm32mp1_wait_operating_mode+0x14>
2fff3d0a:	2b20      	cmp	r3, #32
2fff3d0c:	d100      	bne.n	2fff3d10 <stm32mp1_wait_operating_mode+0x38>
2fff3d0e:	bdf8      	pop	{r3, r4, r5, r6, r7, pc}
2fff3d10:	6843      	ldr	r3, [r0, #4]
2fff3d12:	f003 0107 	and.w	r1, r3, #7
2fff3d16:	f003 0330 	and.w	r3, r3, #48	@ 0x30
2fff3d1a:	ec57 6f0e 	mrrc	15, 0, r6, r7, cr14
2fff3d1e:	42b2      	cmp	r2, r6
2fff3d20:	eb74 0607 	sbcs.w	r6, r4, r7
2fff3d24:	d2ef      	bcs.n	2fff3d06 <stm32mp1_wait_operating_mode+0x2e>
2fff3d26:	f7f9 fe13 	bl	2ffed950 <console_flush>
2fff3d2a:	f7f5 eb58 	blx	2ffe93dc <do_panic>
2fff3d2e:	6843      	ldr	r3, [r0, #4]
2fff3d30:	f003 0107 	and.w	r1, r3, #7
2fff3d34:	f003 0330 	and.w	r3, r3, #48	@ 0x30
2fff3d38:	ec57 6f0e 	mrrc	15, 0, r6, r7, cr14
2fff3d3c:	42b2      	cmp	r2, r6
2fff3d3e:	eb74 0607 	sbcs.w	r6, r4, r7
2fff3d42:	d3f0      	bcc.n	2fff3d26 <stm32mp1_wait_operating_mode+0x4e>
2fff3d44:	428d      	cmp	r5, r1
2fff3d46:	d0e2      	beq.n	2fff3d0e <stm32mp1_wait_operating_mode+0x36>
2fff3d48:	2d01      	cmp	r5, #1
2fff3d4a:	d1f0      	bne.n	2fff3d2e <stm32mp1_wait_operating_mode+0x56>
2fff3d4c:	2903      	cmp	r1, #3
2fff3d4e:	d1ee      	bne.n	2fff3d2e <stm32mp1_wait_operating_mode+0x56>
2fff3d50:	2b30      	cmp	r3, #48	@ 0x30
2fff3d52:	d1ec      	bne.n	2fff3d2e <stm32mp1_wait_operating_mode+0x56>
2fff3d54:	e7db      	b.n	2fff3d0e <stm32mp1_wait_operating_mode+0x36>

2fff3d56 <stm32mp_ddr_test_rw_access>:
2fff3d56:	f04f 4040 	mov.w	r0, #3221225472	@ 0xc0000000
2fff3d5a:	f04f 32aa 	mov.w	r2, #2863311530	@ 0xaaaaaaaa
2fff3d5e:	6803      	ldr	r3, [r0, #0]
2fff3d60:	6002      	str	r2, [r0, #0]
2fff3d62:	6802      	ldr	r2, [r0, #0]
2fff3d64:	f1b2 3faa 	cmp.w	r2, #2863311530	@ 0xaaaaaaaa
2fff3d68:	bf04      	itt	eq
2fff3d6a:	6003      	streq	r3, [r0, #0]
2fff3d6c:	2000      	moveq	r0, #0
2fff3d6e:	4770      	bx	lr

2fff3d70 <stm32mp_ddr_test_data_bus>:
2fff3d70:	2020      	movs	r0, #32
2fff3d72:	2301      	movs	r3, #1
2fff3d74:	f04f 4240 	mov.w	r2, #3221225472	@ 0xc0000000
2fff3d78:	6013      	str	r3, [r2, #0]
2fff3d7a:	6811      	ldr	r1, [r2, #0]
2fff3d7c:	4299      	cmp	r1, r3
2fff3d7e:	d103      	bne.n	2fff3d88 <stm32mp_ddr_test_data_bus+0x18>
2fff3d80:	005b      	lsls	r3, r3, #1
2fff3d82:	3801      	subs	r0, #1
2fff3d84:	d1f8      	bne.n	2fff3d78 <stm32mp_ddr_test_data_bus+0x8>
2fff3d86:	4770      	bx	lr
2fff3d88:	f04f 4040 	mov.w	r0, #3221225472	@ 0xc0000000
2fff3d8c:	4770      	bx	lr

2fff3d8e <stm32mp_ddr_test_addr_bus>:
2fff3d8e:	1e43      	subs	r3, r0, #1
2fff3d90:	2204      	movs	r2, #4
2fff3d92:	f04f 31aa 	mov.w	r1, #2863311530	@ 0xaaaaaaaa
2fff3d96:	b5f0      	push	{r4, r5, r6, r7, lr}
2fff3d98:	421a      	tst	r2, r3
2fff3d9a:	d113      	bne.n	2fff3dc4 <stm32mp_ddr_test_addr_bus+0x36>
2fff3d9c:	f04f 4240 	mov.w	r2, #3221225472	@ 0xc0000000
2fff3da0:	f04f 3155 	mov.w	r1, #1431655765	@ 0x55555555
2fff3da4:	6011      	str	r1, [r2, #0]
2fff3da6:	2204      	movs	r2, #4
2fff3da8:	421a      	tst	r2, r3
2fff3daa:	d110      	bne.n	2fff3dce <stm32mp_ddr_test_addr_bus+0x40>
2fff3dac:	f04f 4440 	mov.w	r4, #3221225472	@ 0xc0000000
2fff3db0:	2204      	movs	r2, #4
2fff3db2:	f04f 3755 	mov.w	r7, #1431655765	@ 0x55555555
2fff3db6:	f04f 35aa 	mov.w	r5, #2863311530	@ 0xaaaaaaaa
2fff3dba:	6025      	str	r5, [r4, #0]
2fff3dbc:	ea12 0003 	ands.w	r0, r2, r3
2fff3dc0:	d10d      	bne.n	2fff3dde <stm32mp_ddr_test_addr_bus+0x50>
2fff3dc2:	bdf0      	pop	{r4, r5, r6, r7, pc}
2fff3dc4:	f102 4040 	add.w	r0, r2, #3221225472	@ 0xc0000000
2fff3dc8:	0052      	lsls	r2, r2, #1
2fff3dca:	6001      	str	r1, [r0, #0]
2fff3dcc:	e7e4      	b.n	2fff3d98 <stm32mp_ddr_test_addr_bus+0xa>
2fff3dce:	f102 4040 	add.w	r0, r2, #3221225472	@ 0xc0000000
2fff3dd2:	6801      	ldr	r1, [r0, #0]
2fff3dd4:	f1b1 3faa 	cmp.w	r1, #2863311530	@ 0xaaaaaaaa
2fff3dd8:	d1f3      	bne.n	2fff3dc2 <stm32mp_ddr_test_addr_bus+0x34>
2fff3dda:	0052      	lsls	r2, r2, #1
2fff3ddc:	e7e4      	b.n	2fff3da8 <stm32mp_ddr_test_addr_bus+0x1a>
2fff3dde:	f102 4640 	add.w	r6, r2, #3221225472	@ 0xc0000000
2fff3de2:	6037      	str	r7, [r6, #0]
2fff3de4:	6821      	ldr	r1, [r4, #0]
2fff3de6:	f1b1 3faa 	cmp.w	r1, #2863311530	@ 0xaaaaaaaa
2fff3dea:	d110      	bne.n	2fff3e0e <stm32mp_ddr_test_addr_bus+0x80>
2fff3dec:	2104      	movs	r1, #4
2fff3dee:	4219      	tst	r1, r3
2fff3df0:	d102      	bne.n	2fff3df8 <stm32mp_ddr_test_addr_bus+0x6a>
2fff3df2:	0052      	lsls	r2, r2, #1
2fff3df4:	6035      	str	r5, [r6, #0]
2fff3df6:	e7e1      	b.n	2fff3dbc <stm32mp_ddr_test_addr_bus+0x2e>
2fff3df8:	f101 4040 	add.w	r0, r1, #3221225472	@ 0xc0000000
2fff3dfc:	f8d0 c000 	ldr.w	ip, [r0]
2fff3e00:	f1bc 3faa 	cmp.w	ip, #2863311530	@ 0xaaaaaaaa
2fff3e04:	d001      	beq.n	2fff3e0a <stm32mp_ddr_test_addr_bus+0x7c>
2fff3e06:	4291      	cmp	r1, r2
2fff3e08:	d1db      	bne.n	2fff3dc2 <stm32mp_ddr_test_addr_bus+0x34>
2fff3e0a:	0049      	lsls	r1, r1, #1
2fff3e0c:	e7ef      	b.n	2fff3dee <stm32mp_ddr_test_addr_bus+0x60>
2fff3e0e:	f04f 4040 	mov.w	r0, #3221225472	@ 0xc0000000
2fff3e12:	e7d6      	b.n	2fff3dc2 <stm32mp_ddr_test_addr_bus+0x34>

2fff3e14 <stm32mp_ddr_check_size>:
2fff3e14:	f04f 4240 	mov.w	r2, #3221225472	@ 0xc0000000
2fff3e18:	f04f 33aa 	mov.w	r3, #2863311530	@ 0xaaaaaaaa
2fff3e1c:	b510      	push	{r4, lr}
2fff3e1e:	2004      	movs	r0, #4
2fff3e20:	6013      	str	r3, [r2, #0]
2fff3e22:	f04f 3155 	mov.w	r1, #1431655765	@ 0x55555555
2fff3e26:	231c      	movs	r3, #28
2fff3e28:	f100 4440 	add.w	r4, r0, #3221225472	@ 0xc0000000
2fff3e2c:	6021      	str	r1, [r4, #0]
2fff3e2e:	f3bf 8f4f 	dsb	sy
2fff3e32:	6814      	ldr	r4, [r2, #0]
2fff3e34:	f1b4 3faa 	cmp.w	r4, #2863311530	@ 0xaaaaaaaa
2fff3e38:	d102      	bne.n	2fff3e40 <stm32mp_ddr_check_size+0x2c>
2fff3e3a:	0040      	lsls	r0, r0, #1
2fff3e3c:	3b01      	subs	r3, #1
2fff3e3e:	d1f3      	bne.n	2fff3e28 <stm32mp_ddr_check_size+0x14>
2fff3e40:	bd10      	pop	{r4, pc}

2fff3e42 <stm32_sdmmc2_write>:
2fff3e42:	2000      	movs	r0, #0
2fff3e44:	4770      	bx	lr

2fff3e46 <stm32_sdmmc2_stop_transfer>:
2fff3e46:	b500      	push	{lr}
2fff3e48:	b089      	sub	sp, #36	@ 0x24
2fff3e4a:	211c      	movs	r1, #28
2fff3e4c:	a801      	add	r0, sp, #4
2fff3e4e:	f7f5 ebc6 	blx	2ffe95dc <zero_normalmem>
2fff3e52:	230c      	movs	r3, #12
2fff3e54:	a801      	add	r0, sp, #4
2fff3e56:	9301      	str	r3, [sp, #4]
2fff3e58:	231d      	movs	r3, #29
2fff3e5a:	9303      	str	r3, [sp, #12]
2fff3e5c:	f7f7 ffe6 	bl	2ffebe2c <stm32_sdmmc2_send_cmd>
2fff3e60:	b009      	add	sp, #36	@ 0x24
2fff3e62:	f85d fb04 	ldr.w	pc, [sp], #4

2fff3e66 <plat_sdmmc2_use_dma>:
2fff3e66:	2000      	movs	r0, #0
2fff3e68:	4770      	bx	lr

2fff3e6a <crc32>:
2fff3e6a:	f7f8 bccb 	b.w	2ffec804 <crc32_z>

2fff3e6e <tf_crc32>:
2fff3e6e:	f7ff bffc 	b.w	2fff3e6a <crc32>

2fff3e72 <plat_try_backup_partitions>:
2fff3e72:	2000      	movs	r0, #0
2fff3e74:	4770      	bx	lr

2fff3e76 <plat_fwu_is_enabled>:
2fff3e76:	b508      	push	{r3, lr}
2fff3e78:	f7fc fa4c 	bl	2fff0314 <stm32mp_skip_boot_device_after_standby>
2fff3e7c:	f080 0001 	eor.w	r0, r0, #1
2fff3e80:	b2c0      	uxtb	r0, r0
2fff3e82:	bd08      	pop	{r3, pc}

2fff3e84 <bl2_el3_early_platform_setup>:
2fff3e84:	f7f9 be08 	b.w	2ffeda98 <stm32mp_save_boot_ctx_address>

2fff3e88 <plat_flush_next_bl_params>:
2fff3e88:	f7f5 bf0c 	b.w	2ffe9ca4 <flush_bl_params_desc>

2fff3e8c <plat_get_bl_image_load_info>:
2fff3e8c:	f7f5 bf52 	b.w	2ffe9d34 <get_bl_load_info_from_mem_params_desc>

2fff3e90 <plat_get_next_bl_params>:
2fff3e90:	b510      	push	{r4, lr}
2fff3e92:	f7f5 ff79 	bl	2ffe9d88 <get_next_bl_params_from_mem_params_desc>
2fff3e96:	4604      	mov	r4, r0
2fff3e98:	f7f5 ffd6 	bl	2ffe9e48 <populate_next_bl_params_config>
2fff3e9c:	4620      	mov	r0, r4
2fff3e9e:	bd10      	pop	{r4, pc}

2fff3ea0 <stm32_pwr_cstop_critic_exit>:
2fff3ea0:	b508      	push	{r3, lr}
2fff3ea2:	f7fa febb 	bl	2ffeec1c <stm32mp_stgen_restore_rate>
2fff3ea6:	f7fa fda3 	bl	2ffee9f0 <generic_delay_timer_init>
2fff3eaa:	f7fc fd79 	bl	2fff09a0 <ddr_sw_self_refresh_exit>
2fff3eae:	b118      	cbz	r0, 2fff3eb8 <stm32_pwr_cstop_critic_exit+0x18>
2fff3eb0:	f7f9 fd4e 	bl	2ffed950 <console_flush>
2fff3eb4:	f7f5 ea92 	blx	2ffe93dc <do_panic>
2fff3eb8:	bd08      	pop	{r3, pc}

2fff3eba <fdt32_to_cpu>:
2fff3eba:	ba00      	rev	r0, r0
2fff3ebc:	4770      	bx	lr

2fff3ebe <putchar>:
2fff3ebe:	b510      	push	{r4, lr}
2fff3ec0:	4604      	mov	r4, r0
2fff3ec2:	f7f9 fd19 	bl	2ffed8f8 <console_putc>
2fff3ec6:	2800      	cmp	r0, #0
2fff3ec8:	bf0c      	ite	eq
2fff3eca:	4620      	moveq	r0, r4
2fff3ecc:	f04f 30ff 	movne.w	r0, #4294967295	@ 0xffffffff
2fff3ed0:	bd10      	pop	{r4, pc}

2fff3ed2 <plat_error_handler>:
2fff3ed2:	bf30      	wfi
2fff3ed4:	e7fd      	b.n	2fff3ed2 <plat_error_handler>

2fff3ed6 <bl2_plat_preload_setup>:
2fff3ed6:	4770      	bx	lr

2fff3ed8 <__popcountsi2>:
2fff3ed8:	0843      	lsrs	r3, r0, #1
2fff3eda:	f003 3355 	and.w	r3, r3, #1431655765	@ 0x55555555
2fff3ede:	1ac3      	subs	r3, r0, r3
2fff3ee0:	0898      	lsrs	r0, r3, #2
2fff3ee2:	f003 3333 	and.w	r3, r3, #858993459	@ 0x33333333
2fff3ee6:	f000 3033 	and.w	r0, r0, #858993459	@ 0x33333333
2fff3eea:	4418      	add	r0, r3
2fff3eec:	eb00 1010 	add.w	r0, r0, r0, lsr #4
2fff3ef0:	f000 300f 	and.w	r0, r0, #252645135	@ 0xf0f0f0f
2fff3ef4:	eb00 4010 	add.w	r0, r0, r0, lsr #16
2fff3ef8:	eb00 2010 	add.w	r0, r0, r0, lsr #8
2fff3efc:	f000 003f 	and.w	r0, r0, #63	@ 0x3f
2fff3f00:	4770      	bx	lr

2fff3f02 <__ctzdi2>:
2fff3f02:	fab0 f380 	clz	r3, r0
2fff3f06:	095b      	lsrs	r3, r3, #5
2fff3f08:	425a      	negs	r2, r3
2fff3f0a:	3b01      	subs	r3, #1
2fff3f0c:	4003      	ands	r3, r0
2fff3f0e:	4011      	ands	r1, r2
2fff3f10:	430b      	orrs	r3, r1
2fff3f12:	f002 0020 	and.w	r0, r2, #32
2fff3f16:	fa93 f3a3 	rbit	r3, r3
2fff3f1a:	fab3 f383 	clz	r3, r3
2fff3f1e:	4418      	add	r0, r3
2fff3f20:	4770      	bx	lr

2fff3f22 <__udivmoddi4>:
2fff3f22:	e92d 41f0 	stmdb	sp!, {r4, r5, r6, r7, r8, lr}
2fff3f26:	469e      	mov	lr, r3
2fff3f28:	9e06      	ldr	r6, [sp, #24]
2fff3f2a:	b959      	cbnz	r1, 2fff3f44 <__udivmoddi4+0x22>
2fff3f2c:	bb63      	cbnz	r3, 2fff3f88 <__udivmoddi4+0x66>
2fff3f2e:	fbb0 f1f2 	udiv	r1, r0, r2
2fff3f32:	b11e      	cbz	r6, 2fff3f3c <__udivmoddi4+0x1a>
2fff3f34:	fb02 0011 	mls	r0, r2, r1, r0
2fff3f38:	e9c6 0300 	strd	r0, r3, [r6]
2fff3f3c:	4608      	mov	r0, r1
2fff3f3e:	2100      	movs	r1, #0
2fff3f40:	e8bd 81f0 	ldmia.w	sp!, {r4, r5, r6, r7, r8, pc}
2fff3f44:	bb82      	cbnz	r2, 2fff3fa8 <__udivmoddi4+0x86>
2fff3f46:	b903      	cbnz	r3, 2fff3f4a <__udivmoddi4+0x28>
2fff3f48:	deff      	udf	#255	@ 0xff
2fff3f4a:	b940      	cbnz	r0, 2fff3f5e <__udivmoddi4+0x3c>
2fff3f4c:	fbb1 f2f3 	udiv	r2, r1, r3
2fff3f50:	b11e      	cbz	r6, 2fff3f5a <__udivmoddi4+0x38>
2fff3f52:	fb03 1112 	mls	r1, r3, r2, r1
2fff3f56:	e9c6 0100 	strd	r0, r1, [r6]
2fff3f5a:	4610      	mov	r0, r2
2fff3f5c:	e7ef      	b.n	2fff3f3e <__udivmoddi4+0x1c>
2fff3f5e:	1e5c      	subs	r4, r3, #1
2fff3f60:	421c      	tst	r4, r3
2fff3f62:	d10a      	bne.n	2fff3f7a <__udivmoddi4+0x58>
2fff3f64:	b116      	cbz	r6, 2fff3f6c <__udivmoddi4+0x4a>
2fff3f66:	400c      	ands	r4, r1
2fff3f68:	e9c6 0400 	strd	r0, r4, [r6]
2fff3f6c:	fa93 f3a3 	rbit	r3, r3
2fff3f70:	fab3 f383 	clz	r3, r3
2fff3f74:	fa21 f003 	lsr.w	r0, r1, r3
2fff3f78:	e7e1      	b.n	2fff3f3e <__udivmoddi4+0x1c>
2fff3f7a:	fab3 f483 	clz	r4, r3
2fff3f7e:	fab1 f581 	clz	r5, r1
2fff3f82:	1b64      	subs	r4, r4, r5
2fff3f84:	2c1e      	cmp	r4, #30
2fff3f86:	d904      	bls.n	2fff3f92 <__udivmoddi4+0x70>
2fff3f88:	b10e      	cbz	r6, 2fff3f8e <__udivmoddi4+0x6c>
2fff3f8a:	e9c6 0100 	strd	r0, r1, [r6]
2fff3f8e:	2000      	movs	r0, #0
2fff3f90:	e7d5      	b.n	2fff3f3e <__udivmoddi4+0x1c>
2fff3f92:	f104 0c01 	add.w	ip, r4, #1
2fff3f96:	4617      	mov	r7, r2
2fff3f98:	f1c4 041f 	rsb	r4, r4, #31
2fff3f9c:	fa21 fe0c 	lsr.w	lr, r1, ip
2fff3fa0:	fa00 f804 	lsl.w	r8, r0, r4
2fff3fa4:	40a1      	lsls	r1, r4
2fff3fa6:	e031      	b.n	2fff400c <__udivmoddi4+0xea>
2fff3fa8:	2b00      	cmp	r3, #0
2fff3faa:	d167      	bne.n	2fff407c <__udivmoddi4+0x15a>
2fff3fac:	1e54      	subs	r4, r2, #1
2fff3fae:	ea14 0502 	ands.w	r5, r4, r2
2fff3fb2:	d111      	bne.n	2fff3fd8 <__udivmoddi4+0xb6>
2fff3fb4:	b116      	cbz	r6, 2fff3fbc <__udivmoddi4+0x9a>
2fff3fb6:	4004      	ands	r4, r0
2fff3fb8:	e9c6 4500 	strd	r4, r5, [r6]
2fff3fbc:	2a01      	cmp	r2, #1
2fff3fbe:	d0bf      	beq.n	2fff3f40 <__udivmoddi4+0x1e>
2fff3fc0:	fa92 f2a2 	rbit	r2, r2
2fff3fc4:	fab2 f282 	clz	r2, r2
2fff3fc8:	f1c2 0320 	rsb	r3, r2, #32
2fff3fcc:	40d0      	lsrs	r0, r2
2fff3fce:	fa01 f303 	lsl.w	r3, r1, r3
2fff3fd2:	4318      	orrs	r0, r3
2fff3fd4:	40d1      	lsrs	r1, r2
2fff3fd6:	e7b3      	b.n	2fff3f40 <__udivmoddi4+0x1e>
2fff3fd8:	fab1 f581 	clz	r5, r1
2fff3fdc:	fab2 f482 	clz	r4, r2
2fff3fe0:	1b64      	subs	r4, r4, r5
2fff3fe2:	1c65      	adds	r5, r4, #1
2fff3fe4:	f104 0c21 	add.w	ip, r4, #33	@ 0x21
2fff3fe8:	d105      	bne.n	2fff3ff6 <__udivmoddi4+0xd4>
2fff3fea:	461f      	mov	r7, r3
2fff3fec:	4680      	mov	r8, r0
2fff3fee:	2500      	movs	r5, #0
2fff3ff0:	f04f 0c20 	mov.w	ip, #32
2fff3ff4:	e00e      	b.n	2fff4014 <__udivmoddi4+0xf2>
2fff3ff6:	f1bc 0f1f 	cmp.w	ip, #31
2fff3ffa:	d833      	bhi.n	2fff4064 <__udivmoddi4+0x142>
2fff3ffc:	f1cc 0520 	rsb	r5, ip, #32
2fff4000:	461f      	mov	r7, r3
2fff4002:	fa21 fe0c 	lsr.w	lr, r1, ip
2fff4006:	fa00 f805 	lsl.w	r8, r0, r5
2fff400a:	40a9      	lsls	r1, r5
2fff400c:	fa20 f00c 	lsr.w	r0, r0, ip
2fff4010:	4301      	orrs	r1, r0
2fff4012:	4675      	mov	r5, lr
2fff4014:	2000      	movs	r0, #0
2fff4016:	0fcc      	lsrs	r4, r1, #31
2fff4018:	ea44 0545 	orr.w	r5, r4, r5, lsl #1
2fff401c:	ea4f 74d8 	mov.w	r4, r8, lsr #31
2fff4020:	ea44 0141 	orr.w	r1, r4, r1, lsl #1
2fff4024:	0ffc      	lsrs	r4, r7, #31
2fff4026:	ea40 0747 	orr.w	r7, r0, r7, lsl #1
2fff402a:	1a50      	subs	r0, r2, r1
2fff402c:	ea44 0848 	orr.w	r8, r4, r8, lsl #1
2fff4030:	eb63 0405 	sbc.w	r4, r3, r5
2fff4034:	3801      	subs	r0, #1
2fff4036:	f144 34ff 	adc.w	r4, r4, #4294967295	@ 0xffffffff
2fff403a:	ea02 7ee4 	and.w	lr, r2, r4, asr #31
2fff403e:	ebb1 010e 	subs.w	r1, r1, lr
2fff4042:	ea4f 70d4 	mov.w	r0, r4, lsr #31
2fff4046:	ea03 74e4 	and.w	r4, r3, r4, asr #31
2fff404a:	eb65 0e04 	sbc.w	lr, r5, r4
2fff404e:	f1bc 0c01 	subs.w	ip, ip, #1
2fff4052:	4675      	mov	r5, lr
2fff4054:	d1df      	bne.n	2fff4016 <__udivmoddi4+0xf4>
2fff4056:	bb0e      	cbnz	r6, 2fff409c <__udivmoddi4+0x17a>
2fff4058:	19ff      	adds	r7, r7, r7
2fff405a:	eb48 0808 	adc.w	r8, r8, r8
2fff405e:	4338      	orrs	r0, r7
2fff4060:	4641      	mov	r1, r8
2fff4062:	e76d      	b.n	2fff3f40 <__udivmoddi4+0x1e>
2fff4064:	f1cc 0840 	rsb	r8, ip, #64	@ 0x40
2fff4068:	3401      	adds	r4, #1
2fff406a:	fa00 f708 	lsl.w	r7, r0, r8
2fff406e:	fa01 f808 	lsl.w	r8, r1, r8
2fff4072:	40e0      	lsrs	r0, r4
2fff4074:	ea48 0800 	orr.w	r8, r8, r0
2fff4078:	40e1      	lsrs	r1, r4
2fff407a:	e7ca      	b.n	2fff4012 <__udivmoddi4+0xf0>
2fff407c:	fab3 f483 	clz	r4, r3
2fff4080:	fab1 f581 	clz	r5, r1
2fff4084:	1b64      	subs	r4, r4, r5
2fff4086:	2c1f      	cmp	r4, #31
2fff4088:	f63f af7e 	bhi.w	2fff3f88 <__udivmoddi4+0x66>
2fff408c:	f104 0c01 	add.w	ip, r4, #1
2fff4090:	f04f 0700 	mov.w	r7, #0
2fff4094:	d0aa      	beq.n	2fff3fec <__udivmoddi4+0xca>
2fff4096:	f1cc 0420 	rsb	r4, ip, #32
2fff409a:	e77f      	b.n	2fff3f9c <__udivmoddi4+0x7a>
2fff409c:	e9c6 1e00 	strd	r1, lr, [r6]
2fff40a0:	e7da      	b.n	2fff4058 <__udivmoddi4+0x136>

2fff40a2 <hex_val>:
2fff40a2:	f1a0 0330 	sub.w	r3, r0, #48	@ 0x30
2fff40a6:	b2db      	uxtb	r3, r3
2fff40a8:	2b09      	cmp	r3, #9
2fff40aa:	d801      	bhi.n	2fff40b0 <hex_val+0xe>
2fff40ac:	b258      	sxtb	r0, r3
2fff40ae:	4770      	bx	lr
2fff40b0:	f1a0 0361 	sub.w	r3, r0, #97	@ 0x61
2fff40b4:	2b05      	cmp	r3, #5
2fff40b6:	d802      	bhi.n	2fff40be <hex_val+0x1c>
2fff40b8:	3857      	subs	r0, #87	@ 0x57
2fff40ba:	b240      	sxtb	r0, r0
2fff40bc:	4770      	bx	lr
2fff40be:	f1a0 0341 	sub.w	r3, r0, #65	@ 0x41
2fff40c2:	2b05      	cmp	r3, #5
2fff40c4:	d801      	bhi.n	2fff40ca <hex_val+0x28>
2fff40c6:	3837      	subs	r0, #55	@ 0x37
2fff40c8:	e7f7      	b.n	2fff40ba <hex_val+0x18>
2fff40ca:	f04f 30ff 	mov.w	r0, #4294967295	@ 0xffffffff
2fff40ce:	4770      	bx	lr

2fff40d0 <read_hex.part.0>:
2fff40d0:	f022 0201 	bic.w	r2, r2, #1
2fff40d4:	b538      	push	{r3, r4, r5, lr}
2fff40d6:	4605      	mov	r5, r0
2fff40d8:	440a      	add	r2, r1
2fff40da:	7808      	ldrb	r0, [r1, #0]
2fff40dc:	f7ff ffe1 	bl	2fff40a2 <hex_val>
2fff40e0:	1e04      	subs	r4, r0, #0
2fff40e2:	db0f      	blt.n	2fff4104 <read_hex.part.0+0x34>
2fff40e4:	7848      	ldrb	r0, [r1, #1]
2fff40e6:	0124      	lsls	r4, r4, #4
2fff40e8:	f7ff ffdb 	bl	2fff40a2 <hex_val>
2fff40ec:	2800      	cmp	r0, #0
2fff40ee:	f004 04f0 	and.w	r4, r4, #240	@ 0xf0
2fff40f2:	db07      	blt.n	2fff4104 <read_hex.part.0+0x34>
2fff40f4:	4304      	orrs	r4, r0
2fff40f6:	3102      	adds	r1, #2
2fff40f8:	4291      	cmp	r1, r2
2fff40fa:	f805 4b01 	strb.w	r4, [r5], #1
2fff40fe:	d1ec      	bne.n	2fff40da <read_hex.part.0+0xa>
2fff4100:	2000      	movs	r0, #0
2fff4102:	bd38      	pop	{r3, r4, r5, pc}
2fff4104:	f04f 30ff 	mov.w	r0, #4294967295	@ 0xffffffff
2fff4108:	e7fb      	b.n	2fff4102 <read_hex.part.0+0x32>

2fff410a <stm32_nvmem_cell_clrset.isra.0>:
2fff410a:	b573      	push	{r0, r1, r4, r5, r6, lr}
2fff410c:	4615      	mov	r5, r2
2fff410e:	2204      	movs	r2, #4
2fff4110:	460e      	mov	r6, r1
2fff4112:	eb0d 0102 	add.w	r1, sp, r2
2fff4116:	2300      	movs	r3, #0
2fff4118:	9301      	str	r3, [sp, #4]
2fff411a:	4604      	mov	r4, r0
2fff411c:	f000 fa20 	bl	2fff4560 <nvmem_cell_read>
2fff4120:	b950      	cbnz	r0, 2fff4138 <stm32_nvmem_cell_clrset.isra.0+0x2e>
2fff4122:	9b01      	ldr	r3, [sp, #4]
2fff4124:	2204      	movs	r2, #4
2fff4126:	eb0d 0102 	add.w	r1, sp, r2
2fff412a:	4620      	mov	r0, r4
2fff412c:	ea23 0306 	bic.w	r3, r3, r6
2fff4130:	432b      	orrs	r3, r5
2fff4132:	9301      	str	r3, [sp, #4]
2fff4134:	f000 fa20 	bl	2fff4578 <nvmem_cell_write>
2fff4138:	b002      	add	sp, #8
2fff413a:	bd70      	pop	{r4, r5, r6, pc}

2fff413c <plat_get_syscnt_freq2>:
2fff413c:	ee1e 0f10 	mrc	15, 0, r0, cr14, cr0, {0}
2fff4140:	4770      	bx	lr

2fff4142 <stm32mp_rcc_base>:
2fff4142:	f04f 40a0 	mov.w	r0, #1342177280	@ 0x50000000
2fff4146:	4770      	bx	lr

2fff4148 <stm32mp_lock_available>:
2fff4148:	ee11 0f10 	mrc	15, 0, r0, cr1, cr0, {0}
2fff414c:	f000 0005 	and.w	r0, r0, #5
2fff4150:	1f43      	subs	r3, r0, #5
2fff4152:	4258      	negs	r0, r3
2fff4154:	4158      	adcs	r0, r3
2fff4156:	4770      	bx	lr

2fff4158 <stm32mp_map_ddr_non_cacheable>:
2fff4158:	2309      	movs	r3, #9
2fff415a:	b507      	push	{r0, r1, r2, lr}
2fff415c:	f04f 4240 	mov.w	r2, #3221225472	@ 0xc0000000
2fff4160:	9300      	str	r3, [sp, #0]
2fff4162:	2100      	movs	r1, #0
2fff4164:	f04f 4380 	mov.w	r3, #1073741824	@ 0x40000000
2fff4168:	f04f 4040 	mov.w	r0, #3221225472	@ 0xc0000000
2fff416c:	f7f9 fef2 	bl	2ffedf54 <mmap_add_dynamic_region>
2fff4170:	b003      	add	sp, #12
2fff4172:	f85d fb04 	ldr.w	pc, [sp], #4

2fff4176 <stm32mp_unmap_ddr>:
2fff4176:	f04f 4180 	mov.w	r1, #1073741824	@ 0x40000000
2fff417a:	f04f 4040 	mov.w	r0, #3221225472	@ 0xc0000000
2fff417e:	f7f9 befd 	b.w	2ffedf7c <mmap_remove_dynamic_region>

2fff4182 <stm32_save_boot_info>:
2fff4182:	b5f0      	push	{r4, r5, r6, r7, lr}
2fff4184:	b085      	sub	sp, #20
2fff4186:	7806      	ldrb	r6, [r0, #0]
2fff4188:	2700      	movs	r7, #0
2fff418a:	9701      	str	r7, [sp, #4]
2fff418c:	9702      	str	r7, [sp, #8]
2fff418e:	9703      	str	r7, [sp, #12]
2fff4190:	9700      	str	r7, [sp, #0]
2fff4192:	f890 4090 	ldrb.w	r4, [r0, #144]	@ 0x90
2fff4196:	f890 3058 	ldrb.w	r3, [r0, #88]	@ 0x58
2fff419a:	0424      	lsls	r4, r4, #16
2fff419c:	051b      	lsls	r3, r3, #20
2fff419e:	f404 2470 	and.w	r4, r4, #983040	@ 0xf0000
2fff41a2:	7885      	ldrb	r5, [r0, #2]
2fff41a4:	f403 0370 	and.w	r3, r3, #15728640	@ 0xf00000
2fff41a8:	431c      	orrs	r4, r3
2fff41aa:	a801      	add	r0, sp, #4
2fff41ac:	0336      	lsls	r6, r6, #12
2fff41ae:	f7f9 fdb7 	bl	2ffedd20 <stm32_get_boot_mode_cell>
2fff41b2:	2204      	movs	r2, #4
2fff41b4:	463b      	mov	r3, r7
2fff41b6:	eb0d 0002 	add.w	r0, sp, r2
2fff41ba:	4669      	mov	r1, sp
2fff41bc:	f406 4670 	and.w	r6, r6, #61440	@ 0xf000
2fff41c0:	f000 f9ce 	bl	2fff4560 <nvmem_cell_read>
2fff41c4:	9b00      	ldr	r3, [sp, #0]
2fff41c6:	2204      	movs	r2, #4
2fff41c8:	022d      	lsls	r5, r5, #8
2fff41ca:	4669      	mov	r1, sp
2fff41cc:	f423 037f 	bic.w	r3, r3, #16711680	@ 0xff0000
2fff41d0:	f405 6570 	and.w	r5, r5, #3840	@ 0xf00
2fff41d4:	f423 437f 	bic.w	r3, r3, #65280	@ 0xff00
2fff41d8:	4323      	orrs	r3, r4
2fff41da:	4333      	orrs	r3, r6
2fff41dc:	432b      	orrs	r3, r5
2fff41de:	eb0d 0002 	add.w	r0, sp, r2
2fff41e2:	9300      	str	r3, [sp, #0]
2fff41e4:	f000 f9c8 	bl	2fff4578 <nvmem_cell_write>
2fff41e8:	b005      	add	sp, #20
2fff41ea:	bdf0      	pop	{r4, r5, r6, r7, pc}

2fff41ec <stm32_fwu_set_boot_idx>:
2fff41ec:	b51f      	push	{r0, r1, r2, r3, r4, lr}
2fff41ee:	2300      	movs	r3, #0
2fff41f0:	9301      	str	r3, [sp, #4]
2fff41f2:	9302      	str	r3, [sp, #8]
2fff41f4:	9303      	str	r3, [sp, #12]
2fff41f6:	f7f8 fc8d 	bl	2ffecb14 <plat_fwu_get_boot_idx>
2fff41fa:	4604      	mov	r4, r0
2fff41fc:	a801      	add	r0, sp, #4
2fff41fe:	f7f9 fd77 	bl	2ffedcf0 <stm32_get_fwu_info_cell>
2fff4202:	f004 020f 	and.w	r2, r4, #15
2fff4206:	210f      	movs	r1, #15
2fff4208:	a801      	add	r0, sp, #4
2fff420a:	f7ff ff7e 	bl	2fff410a <stm32_nvmem_cell_clrset.isra.0>
2fff420e:	b004      	add	sp, #16
2fff4210:	bd10      	pop	{r4, pc}

2fff4212 <stm32_set_max_fwu_trial_boot_cnt>:
2fff4212:	b51f      	push	{r0, r1, r2, r3, r4, lr}
2fff4214:	2300      	movs	r3, #0
2fff4216:	9301      	str	r3, [sp, #4]
2fff4218:	a801      	add	r0, sp, #4
2fff421a:	9302      	str	r3, [sp, #8]
2fff421c:	9303      	str	r3, [sp, #12]
2fff421e:	f7f9 fd67 	bl	2ffedcf0 <stm32_get_fwu_info_cell>
2fff4222:	2230      	movs	r2, #48	@ 0x30
2fff4224:	21f0      	movs	r1, #240	@ 0xf0
2fff4226:	a801      	add	r0, sp, #4
2fff4228:	f7ff ff6f 	bl	2fff410a <stm32_nvmem_cell_clrset.isra.0>
2fff422c:	b005      	add	sp, #20
2fff422e:	f85d fb04 	ldr.w	pc, [sp], #4

2fff4232 <stm32_clear_fwu_trial_boot_cnt>:
2fff4232:	b51f      	push	{r0, r1, r2, r3, r4, lr}
2fff4234:	2400      	movs	r4, #0
2fff4236:	9401      	str	r4, [sp, #4]
2fff4238:	a801      	add	r0, sp, #4
2fff423a:	9402      	str	r4, [sp, #8]
2fff423c:	9403      	str	r4, [sp, #12]
2fff423e:	f7f9 fd57 	bl	2ffedcf0 <stm32_get_fwu_info_cell>
2fff4242:	4622      	mov	r2, r4
2fff4244:	21f0      	movs	r1, #240	@ 0xf0
2fff4246:	a801      	add	r0, sp, #4
2fff4248:	f7ff ff5f 	bl	2fff410a <stm32_nvmem_cell_clrset.isra.0>
2fff424c:	b004      	add	sp, #16
2fff424e:	bd10      	pop	{r4, pc}

2fff4250 <xlat_arch_get_pas>:
2fff4250:	f000 0030 	and.w	r0, r0, #48	@ 0x30
2fff4254:	f1a0 0310 	sub.w	r3, r0, #16
2fff4258:	4258      	negs	r0, r3
2fff425a:	4158      	adcs	r0, r3
2fff425c:	0140      	lsls	r0, r0, #5
2fff425e:	4770      	bx	lr

2fff4260 <xlat_arch_get_max_supported_pa>:
2fff4260:	f04f 30ff 	mov.w	r0, #4294967295	@ 0xffffffff
2fff4264:	21ff      	movs	r1, #255	@ 0xff
2fff4266:	4770      	bx	lr

2fff4268 <xlat_get_min_virt_addr_space_size>:
2fff4268:	f04f 7000 	mov.w	r0, #33554432	@ 0x2000000
2fff426c:	4770      	bx	lr

2fff426e <is_dcache_enabled>:
2fff426e:	f3ef 8300 	mrs	r3, CPSR
2fff4272:	f003 031f 	and.w	r3, r3, #31
2fff4276:	2b1a      	cmp	r3, #26
2fff4278:	d104      	bne.n	2fff4284 <is_dcache_enabled+0x16>
2fff427a:	ee91 0f10 	mrc	15, 4, r0, cr1, cr0, {0}
2fff427e:	f3c0 0080 	ubfx	r0, r0, #2, #1
2fff4282:	4770      	bx	lr
2fff4284:	ee11 0f10 	mrc	15, 0, r0, cr1, cr0, {0}
2fff4288:	e7f9      	b.n	2fff427e <is_dcache_enabled+0x10>

2fff428a <xlat_arch_tlbi_va_sync>:
2fff428a:	2300      	movs	r3, #0
2fff428c:	ee07 3fd1 	mcr	15, 0, r3, cr7, cr1, {6}
2fff4290:	f3bf 8f4b 	dsb	ish
2fff4294:	f3bf 8f6f 	isb	sy
2fff4298:	4770      	bx	lr

2fff429a <mmap_add_region_check>:
2fff429a:	e92d 4ff7 	stmdb	sp!, {r0, r1, r2, r4, r5, r6, r7, r8, r9, sl, fp, lr}
2fff429e:	e9d1 3402 	ldrd	r3, r4, [r1, #8]
2fff42a2:	e9d1 2e00 	ldrd	r2, lr, [r1]
2fff42a6:	9401      	str	r4, [sp, #4]
2fff42a8:	9d01      	ldr	r5, [sp, #4]
2fff42aa:	1e54      	subs	r4, r2, #1
2fff42ac:	f3c2 070b 	ubfx	r7, r2, #0, #12
2fff42b0:	f14e 3cff 	adc.w	ip, lr, #4294967295	@ 0xffffffff
2fff42b4:	eb14 0b05 	adds.w	fp, r4, r5
2fff42b8:	eb03 0405 	add.w	r4, r3, r5
2fff42bc:	694e      	ldr	r6, [r1, #20]
2fff42be:	f104 34ff 	add.w	r4, r4, #4294967295	@ 0xffffffff
2fff42c2:	f14c 0c00 	adc.w	ip, ip, #0
2fff42c6:	2f00      	cmp	r7, #0
2fff42c8:	d170      	bne.n	2fff43ac <mmap_add_region_check+0x112>
2fff42ca:	ea43 0705 	orr.w	r7, r3, r5
2fff42ce:	f3c7 070b 	ubfx	r7, r7, #0, #12
2fff42d2:	2f00      	cmp	r7, #0
2fff42d4:	d16a      	bne.n	2fff43ac <mmap_add_region_check+0x112>
2fff42d6:	f1b6 4f80 	cmp.w	r6, #1073741824	@ 0x40000000
2fff42da:	d005      	beq.n	2fff42e8 <mmap_add_region_check+0x4e>
2fff42dc:	f5b6 1f00 	cmp.w	r6, #2097152	@ 0x200000
2fff42e0:	d002      	beq.n	2fff42e8 <mmap_add_region_check+0x4e>
2fff42e2:	f5b6 5f80 	cmp.w	r6, #4096	@ 0x1000
2fff42e6:	d161      	bne.n	2fff43ac <mmap_add_region_check+0x112>
2fff42e8:	4593      	cmp	fp, r2
2fff42ea:	eb7c 060e 	sbcs.w	r6, ip, lr
2fff42ee:	d360      	bcc.n	2fff43b2 <mmap_add_region_check+0x118>
2fff42f0:	42a3      	cmp	r3, r4
2fff42f2:	d85e      	bhi.n	2fff43b2 <mmap_add_region_check+0x118>
2fff42f4:	6886      	ldr	r6, [r0, #8]
2fff42f6:	42a6      	cmp	r6, r4
2fff42f8:	d35b      	bcc.n	2fff43b2 <mmap_add_region_check+0x118>
2fff42fa:	e9d0 7600 	ldrd	r7, r6, [r0]
2fff42fe:	455f      	cmp	r7, fp
2fff4300:	eb76 060c 	sbcs.w	r6, r6, ip
2fff4304:	d355      	bcc.n	2fff43b2 <mmap_add_region_check+0x118>
2fff4306:	68c6      	ldr	r6, [r0, #12]
2fff4308:	2718      	movs	r7, #24
2fff430a:	6900      	ldr	r0, [r0, #16]
2fff430c:	fb07 6000 	mla	r0, r7, r0, r6
2fff4310:	f850 0c0c 	ldr.w	r0, [r0, #-12]
2fff4314:	2800      	cmp	r0, #0
2fff4316:	d14f      	bne.n	2fff43b8 <mmap_add_region_check+0x11e>
2fff4318:	eb06 0807 	add.w	r8, r6, r7
2fff431c:	f858 0c0c 	ldr.w	r0, [r8, #-12]
2fff4320:	b910      	cbnz	r0, 2fff4328 <mmap_add_region_check+0x8e>
2fff4322:	b003      	add	sp, #12
2fff4324:	e8bd 8ff0 	ldmia.w	sp!, {r4, r5, r6, r7, r8, r9, sl, fp, pc}
2fff4328:	f858 9c10 	ldr.w	r9, [r8, #-16]
2fff432c:	4599      	cmp	r9, r3
2fff432e:	eb09 0a00 	add.w	sl, r9, r0
2fff4332:	f10a 3aff 	add.w	sl, sl, #4294967295	@ 0xffffffff
2fff4336:	d820      	bhi.n	2fff437a <mmap_add_region_check+0xe0>
2fff4338:	4554      	cmp	r4, sl
2fff433a:	d901      	bls.n	2fff4340 <mmap_add_region_check+0xa6>
2fff433c:	4599      	cmp	r9, r3
2fff433e:	d11e      	bne.n	2fff437e <mmap_add_region_check+0xe4>
2fff4340:	690e      	ldr	r6, [r1, #16]
2fff4342:	2e00      	cmp	r6, #0
2fff4344:	db16      	blt.n	2fff4374 <mmap_add_region_check+0xda>
2fff4346:	f858 6c08 	ldr.w	r6, [r8, #-8]
2fff434a:	2e00      	cmp	r6, #0
2fff434c:	db12      	blt.n	2fff4374 <mmap_add_region_check+0xda>
2fff434e:	e958 7606 	ldrd	r7, r6, [r8, #-24]
2fff4352:	ebb9 0707 	subs.w	r7, r9, r7
2fff4356:	eb66 0646 	sbc.w	r6, r6, r6, lsl #1
2fff435a:	ebb3 0a02 	subs.w	sl, r3, r2
2fff435e:	eb6e 054e 	sbc.w	r5, lr, lr, lsl #1
2fff4362:	42ae      	cmp	r6, r5
2fff4364:	bf08      	it	eq
2fff4366:	4557      	cmpeq	r7, sl
2fff4368:	d104      	bne.n	2fff4374 <mmap_add_region_check+0xda>
2fff436a:	4599      	cmp	r9, r3
2fff436c:	d11b      	bne.n	2fff43a6 <mmap_add_region_check+0x10c>
2fff436e:	9d01      	ldr	r5, [sp, #4]
2fff4370:	42a8      	cmp	r0, r5
2fff4372:	d118      	bne.n	2fff43a6 <mmap_add_region_check+0x10c>
2fff4374:	f04f 30ff 	mov.w	r0, #4294967295	@ 0xffffffff
2fff4378:	e7d3      	b.n	2fff4322 <mmap_add_region_check+0x88>
2fff437a:	4554      	cmp	r4, sl
2fff437c:	d2e0      	bcs.n	2fff4340 <mmap_add_region_check+0xa6>
2fff437e:	e958 6706 	ldrd	r6, r7, [r8, #-24]
2fff4382:	45b3      	cmp	fp, r6
2fff4384:	eb7c 0507 	sbcs.w	r5, ip, r7
2fff4388:	d309      	bcc.n	2fff439e <mmap_add_region_check+0x104>
2fff438a:	3e01      	subs	r6, #1
2fff438c:	f147 37ff 	adc.w	r7, r7, #4294967295	@ 0xffffffff
2fff4390:	1836      	adds	r6, r6, r0
2fff4392:	f147 0700 	adc.w	r7, r7, #0
2fff4396:	4296      	cmp	r6, r2
2fff4398:	eb77 070e 	sbcs.w	r7, r7, lr
2fff439c:	d2ea      	bcs.n	2fff4374 <mmap_add_region_check+0xda>
2fff439e:	45a1      	cmp	r9, r4
2fff43a0:	d801      	bhi.n	2fff43a6 <mmap_add_region_check+0x10c>
2fff43a2:	4553      	cmp	r3, sl
2fff43a4:	d9e6      	bls.n	2fff4374 <mmap_add_region_check+0xda>
2fff43a6:	f108 0818 	add.w	r8, r8, #24
2fff43aa:	e7b7      	b.n	2fff431c <mmap_add_region_check+0x82>
2fff43ac:	f06f 0015 	mvn.w	r0, #21
2fff43b0:	e7b7      	b.n	2fff4322 <mmap_add_region_check+0x88>
2fff43b2:	f06f 0021 	mvn.w	r0, #33	@ 0x21
2fff43b6:	e7b4      	b.n	2fff4322 <mmap_add_region_check+0x88>
2fff43b8:	f06f 000b 	mvn.w	r0, #11
2fff43bc:	e7b1      	b.n	2fff4322 <mmap_add_region_check+0x88>

2fff43be <xlat_clean_dcache_range>:
2fff43be:	b538      	push	{r3, r4, r5, lr}
2fff43c0:	4604      	mov	r4, r0
2fff43c2:	460d      	mov	r5, r1
2fff43c4:	f7ff ff53 	bl	2fff426e <is_dcache_enabled>
2fff43c8:	b128      	cbz	r0, 2fff43d6 <xlat_clean_dcache_range+0x18>
2fff43ca:	4629      	mov	r1, r5
2fff43cc:	4620      	mov	r0, r4
2fff43ce:	e8bd 4038 	ldmia.w	sp!, {r3, r4, r5, lr}
2fff43d2:	f005 ba75 	b.w	2fff98c0 <__clean_dcache_range_from_thumb>
2fff43d6:	bd38      	pop	{r3, r4, r5, pc}

2fff43d8 <mmap_add_ctx>:
2fff43d8:	b538      	push	{r3, r4, r5, lr}
2fff43da:	4605      	mov	r5, r0
2fff43dc:	460c      	mov	r4, r1
2fff43de:	6963      	ldr	r3, [r4, #20]
2fff43e0:	b903      	cbnz	r3, 2fff43e4 <mmap_add_ctx+0xc>
2fff43e2:	bd38      	pop	{r3, r4, r5, pc}
2fff43e4:	4621      	mov	r1, r4
2fff43e6:	4628      	mov	r0, r5
2fff43e8:	3418      	adds	r4, #24
2fff43ea:	f7fa f807 	bl	2ffee3fc <mmap_add_region_ctx>
2fff43ee:	e7f6      	b.n	2fff43de <mmap_add_ctx+0x6>

2fff43f0 <xlat_mmap_print>:
2fff43f0:	4770      	bx	lr

2fff43f2 <xlat_tables_print>:
2fff43f2:	4770      	bx	lr

2fff43f4 <mdelay>:
2fff43f4:	f44f 737a 	mov.w	r3, #1000	@ 0x3e8
2fff43f8:	4358      	muls	r0, r3
2fff43fa:	f7fa baa1 	b.w	2ffee940 <udelay>

2fff43fe <get_timer_value>:
2fff43fe:	ec51 0f0e 	mrrc	15, 0, r0, r1, cr14
2fff4402:	43c0      	mvns	r0, r0
2fff4404:	4770      	bx	lr

2fff4406 <stm32mp_ddr_start_sw_done>:
2fff4406:	f8d0 3320 	ldr.w	r3, [r0, #800]	@ 0x320
2fff440a:	f023 0301 	bic.w	r3, r3, #1
2fff440e:	f8c0 3320 	str.w	r3, [r0, #800]	@ 0x320
2fff4412:	4770      	bx	lr

2fff4414 <stm32mp_ddr_wait_sw_done_ack>:
2fff4414:	b538      	push	{r3, r4, r5, lr}
2fff4416:	f8d0 3320 	ldr.w	r3, [r0, #800]	@ 0x320
2fff441a:	f043 0301 	orr.w	r3, r3, #1
2fff441e:	f8c0 3320 	str.w	r3, [r0, #800]	@ 0x320
2fff4422:	ee1e 3f10 	mrc	15, 0, r3, cr14, cr0, {0}
2fff4426:	ec55 4f0e 	mrrc	15, 0, r4, r5, cr14
2fff442a:	191b      	adds	r3, r3, r4
2fff442c:	f145 0100 	adc.w	r1, r5, #0
2fff4430:	f8d0 2324 	ldr.w	r2, [r0, #804]	@ 0x324
2fff4434:	ec55 4f0e 	mrrc	15, 0, r4, r5, cr14
2fff4438:	42a3      	cmp	r3, r4
2fff443a:	eb71 0405 	sbcs.w	r4, r1, r5
2fff443e:	d203      	bcs.n	2fff4448 <stm32mp_ddr_wait_sw_done_ack+0x34>
2fff4440:	f7f9 fa86 	bl	2ffed950 <console_flush>
2fff4444:	f7f4 efca 	blx	2ffe93dc <do_panic>
2fff4448:	07d2      	lsls	r2, r2, #31
2fff444a:	d5f1      	bpl.n	2fff4430 <stm32mp_ddr_wait_sw_done_ack+0x1c>
2fff444c:	bd38      	pop	{r3, r4, r5, pc}

2fff444e <stm32mp_ddr_enable_axi_port>:
2fff444e:	f8d0 3490 	ldr.w	r3, [r0, #1168]	@ 0x490
2fff4452:	f043 0301 	orr.w	r3, r3, #1
2fff4456:	f8c0 3490 	str.w	r3, [r0, #1168]	@ 0x490
2fff445a:	f8d0 3540 	ldr.w	r3, [r0, #1344]	@ 0x540
2fff445e:	f043 0301 	orr.w	r3, r3, #1
2fff4462:	f8c0 3540 	str.w	r3, [r0, #1344]	@ 0x540
2fff4466:	4770      	bx	lr

2fff4468 <stm32mp_ddr_disable_axi_port>:
2fff4468:	f8d0 3490 	ldr.w	r3, [r0, #1168]	@ 0x490
2fff446c:	b530      	push	{r4, r5, lr}
2fff446e:	f023 0301 	bic.w	r3, r3, #1
2fff4472:	f8c0 3490 	str.w	r3, [r0, #1168]	@ 0x490
2fff4476:	f8d0 3540 	ldr.w	r3, [r0, #1344]	@ 0x540
2fff447a:	f023 0301 	bic.w	r3, r3, #1
2fff447e:	f8c0 3540 	str.w	r3, [r0, #1344]	@ 0x540
2fff4482:	ee1e 3f10 	mrc	15, 0, r3, cr14, cr0, {0}
2fff4486:	ec55 4f0e 	mrrc	15, 0, r4, r5, cr14
2fff448a:	191a      	adds	r2, r3, r4
2fff448c:	f145 0100 	adc.w	r1, r5, #0
2fff4490:	f8d0 33fc 	ldr.w	r3, [r0, #1020]	@ 0x3fc
2fff4494:	ec55 4f0e 	mrrc	15, 0, r4, r5, cr14
2fff4498:	42a2      	cmp	r2, r4
2fff449a:	eb71 0405 	sbcs.w	r4, r1, r5
2fff449e:	d303      	bcc.n	2fff44a8 <stm32mp_ddr_disable_axi_port+0x40>
2fff44a0:	2b00      	cmp	r3, #0
2fff44a2:	d1f5      	bne.n	2fff4490 <stm32mp_ddr_disable_axi_port+0x28>
2fff44a4:	4618      	mov	r0, r3
2fff44a6:	bd30      	pop	{r4, r5, pc}
2fff44a8:	f04f 30ff 	mov.w	r0, #4294967295	@ 0xffffffff
2fff44ac:	e7fb      	b.n	2fff44a6 <stm32mp_ddr_disable_axi_port+0x3e>

2fff44ae <stm32mp_ddr_enable_host_interface>:
2fff44ae:	f8d0 3304 	ldr.w	r3, [r0, #772]	@ 0x304
2fff44b2:	f023 0302 	bic.w	r3, r3, #2
2fff44b6:	f8c0 3304 	str.w	r3, [r0, #772]	@ 0x304
2fff44ba:	4770      	bx	lr

2fff44bc <stm32mp_ddr_disable_host_interface>:
2fff44bc:	f8d0 3304 	ldr.w	r3, [r0, #772]	@ 0x304
2fff44c0:	b570      	push	{r4, r5, r6, lr}
2fff44c2:	f043 0302 	orr.w	r3, r3, #2
2fff44c6:	f8c0 3304 	str.w	r3, [r0, #772]	@ 0x304
2fff44ca:	ee1e 3f10 	mrc	15, 0, r3, cr14, cr0, {0}
2fff44ce:	ec55 4f0e 	mrrc	15, 0, r4, r5, cr14
2fff44d2:	191b      	adds	r3, r3, r4
2fff44d4:	f04f 0200 	mov.w	r2, #0
2fff44d8:	f145 0600 	adc.w	r6, r5, #0
2fff44dc:	f8d0 1308 	ldr.w	r1, [r0, #776]	@ 0x308
2fff44e0:	ec55 4f0e 	mrrc	15, 0, r4, r5, cr14
2fff44e4:	42a3      	cmp	r3, r4
2fff44e6:	eb76 0405 	sbcs.w	r4, r6, r5
2fff44ea:	d203      	bcs.n	2fff44f4 <stm32mp_ddr_disable_host_interface+0x38>
2fff44ec:	f7f9 fa30 	bl	2ffed950 <console_flush>
2fff44f0:	f7f4 ef74 	blx	2ffe93dc <do_panic>
2fff44f4:	f001 5158 	and.w	r1, r1, #905969664	@ 0x36000000
2fff44f8:	3201      	adds	r2, #1
2fff44fa:	f1b1 5f58 	cmp.w	r1, #905969664	@ 0x36000000
2fff44fe:	d1ed      	bne.n	2fff44dc <stm32mp_ddr_disable_host_interface+0x20>
2fff4500:	2a01      	cmp	r2, #1
2fff4502:	d0eb      	beq.n	2fff44dc <stm32mp_ddr_disable_host_interface+0x20>
2fff4504:	bd70      	pop	{r4, r5, r6, pc}

2fff4506 <stm32mp_ddr_sw_selfref_exit>:
2fff4506:	6b03      	ldr	r3, [r0, #48]	@ 0x30
2fff4508:	f023 0320 	bic.w	r3, r3, #32
2fff450c:	6303      	str	r3, [r0, #48]	@ 0x30
2fff450e:	4770      	bx	lr

2fff4510 <stm32mp_ddr_wait_refresh_update_done_ack>:
2fff4510:	6e03      	ldr	r3, [r0, #96]	@ 0x60
2fff4512:	b570      	push	{r4, r5, r6, lr}
2fff4514:	f013 0302 	ands.w	r3, r3, #2
2fff4518:	bf15      	itete	ne
2fff451a:	6e03      	ldrne	r3, [r0, #96]	@ 0x60
2fff451c:	6e02      	ldreq	r2, [r0, #96]	@ 0x60
2fff451e:	f043 0302 	orrne.w	r3, r3, #2
2fff4522:	f022 0202 	biceq.w	r2, r2, #2
2fff4526:	bf1a      	itte	ne
2fff4528:	6603      	strne	r3, [r0, #96]	@ 0x60
2fff452a:	2302      	movne	r3, #2
2fff452c:	6602      	streq	r2, [r0, #96]	@ 0x60
2fff452e:	ee1e 2f10 	mrc	15, 0, r2, cr14, cr0, {0}
2fff4532:	ec55 4f0e 	mrrc	15, 0, r4, r5, cr14
2fff4536:	1912      	adds	r2, r2, r4
2fff4538:	f145 0600 	adc.w	r6, r5, #0
2fff453c:	6e01      	ldr	r1, [r0, #96]	@ 0x60
2fff453e:	ec55 4f0e 	mrrc	15, 0, r4, r5, cr14
2fff4542:	42a2      	cmp	r2, r4
2fff4544:	eb76 0405 	sbcs.w	r4, r6, r5
2fff4548:	d203      	bcs.n	2fff4552 <stm32mp_ddr_wait_refresh_update_done_ack+0x42>
2fff454a:	f7f9 fa01 	bl	2ffed950 <console_flush>
2fff454e:	f7f4 ef46 	blx	2ffe93dc <do_panic>
2fff4552:	f001 0102 	and.w	r1, r1, #2
2fff4556:	4299      	cmp	r1, r3
2fff4558:	d1f0      	bne.n	2fff453c <stm32mp_ddr_wait_refresh_update_done_ack+0x2c>
2fff455a:	bd70      	pop	{r4, r5, r6, pc}

2fff455c <fdt32_to_cpu>:
2fff455c:	ba00      	rev	r0, r0
2fff455e:	4770      	bx	lr

2fff4560 <nvmem_cell_read>:
2fff4560:	b410      	push	{r4}
2fff4562:	6884      	ldr	r4, [r0, #8]
2fff4564:	6824      	ldr	r4, [r4, #0]
2fff4566:	6824      	ldr	r4, [r4, #0]
2fff4568:	b114      	cbz	r4, 2fff4570 <nvmem_cell_read+0x10>
2fff456a:	46a4      	mov	ip, r4
2fff456c:	bc10      	pop	{r4}
2fff456e:	4760      	bx	ip
2fff4570:	bc10      	pop	{r4}
2fff4572:	f06f 002c 	mvn.w	r0, #44	@ 0x2c
2fff4576:	4770      	bx	lr

2fff4578 <nvmem_cell_write>:
2fff4578:	6883      	ldr	r3, [r0, #8]
2fff457a:	681b      	ldr	r3, [r3, #0]
2fff457c:	685b      	ldr	r3, [r3, #4]
2fff457e:	b103      	cbz	r3, 2fff4582 <nvmem_cell_write+0xa>
2fff4580:	4718      	bx	r3
2fff4582:	f06f 002c 	mvn.w	r0, #44	@ 0x2c
2fff4586:	4770      	bx	lr

2fff4588 <fdt32_to_cpu>:
2fff4588:	ba00      	rev	r0, r0
2fff458a:	4770      	bx	lr

2fff458c <stm32_tamp_nvram_reg_get_zone>:
2fff458c:	6a43      	ldr	r3, [r0, #36]	@ 0x24
2fff458e:	69c2      	ldr	r2, [r0, #28]
2fff4590:	2000      	movs	r0, #0
2fff4592:	681b      	ldr	r3, [r3, #0]
2fff4594:	b510      	push	{r4, lr}
2fff4596:	4298      	cmp	r0, r3
2fff4598:	d102      	bne.n	2fff45a0 <stm32_tamp_nvram_reg_get_zone+0x14>
2fff459a:	f04f 30ff 	mov.w	r0, #4294967295	@ 0xffffffff
2fff459e:	e007      	b.n	2fff45b0 <stm32_tamp_nvram_reg_get_zone+0x24>
2fff45a0:	f852 4020 	ldr.w	r4, [r2, r0, lsl #2]
2fff45a4:	428c      	cmp	r4, r1
2fff45a6:	db04      	blt.n	2fff45b2 <stm32_tamp_nvram_reg_get_zone+0x26>
2fff45a8:	4298      	cmp	r0, r3
2fff45aa:	bf28      	it	cs
2fff45ac:	f04f 30ff 	movcs.w	r0, #4294967295	@ 0xffffffff
2fff45b0:	bd10      	pop	{r4, pc}
2fff45b2:	3001      	adds	r0, #1
2fff45b4:	e7ef      	b.n	2fff4596 <stm32_tamp_nvram_reg_get_zone+0xa>

2fff45b6 <stm32_tamp_nvram_reg_field_read>:
2fff45b6:	b084      	sub	sp, #16
2fff45b8:	f10d 0c10 	add.w	ip, sp, #16
2fff45bc:	e90c 000e 	stmdb	ip, {r1, r2, r3}
2fff45c0:	9b01      	ldr	r3, [sp, #4]
2fff45c2:	4611      	mov	r1, r2
2fff45c4:	f04f 32ff 	mov.w	r2, #4294967295	@ 0xffffffff
2fff45c8:	58c0      	ldr	r0, [r0, r3]
2fff45ca:	9b03      	ldr	r3, [sp, #12]
2fff45cc:	f1c3 031f 	rsb	r3, r3, #31
2fff45d0:	fa22 f303 	lsr.w	r3, r2, r3
2fff45d4:	408a      	lsls	r2, r1
2fff45d6:	4013      	ands	r3, r2
2fff45d8:	9a04      	ldr	r2, [sp, #16]
2fff45da:	4003      	ands	r3, r0
2fff45dc:	2000      	movs	r0, #0
2fff45de:	40cb      	lsrs	r3, r1
2fff45e0:	6013      	str	r3, [r2, #0]
2fff45e2:	b004      	add	sp, #16
2fff45e4:	4770      	bx	lr

2fff45e6 <fdt32_to_cpu>:
2fff45e6:	ba00      	rev	r0, r0
2fff45e8:	4770      	bx	lr

2fff45ea <unlock_driver.isra.0>:
2fff45ea:	6843      	ldr	r3, [r0, #4]
2fff45ec:	69db      	ldr	r3, [r3, #28]
2fff45ee:	b103      	cbz	r3, 2fff45f2 <unlock_driver.isra.0+0x8>
2fff45f0:	4718      	bx	r3
2fff45f2:	4770      	bx	lr

2fff45f4 <lock_driver.isra.0>:
2fff45f4:	6843      	ldr	r3, [r0, #4]
2fff45f6:	699b      	ldr	r3, [r3, #24]
2fff45f8:	b103      	cbz	r3, 2fff45fc <lock_driver.isra.0+0x8>
2fff45fa:	4718      	bx	r3
2fff45fc:	4770      	bx	lr

2fff45fe <regulator_set_min_voltage>:
2fff45fe:	8901      	ldrh	r1, [r0, #8]
2fff4600:	f7fb b844 	b.w	2ffef68c <regulator_set_voltage>

2fff4604 <fixed_set_state>:
2fff4604:	2000      	movs	r0, #0
2fff4606:	4770      	bx	lr

2fff4608 <fixed_get_state>:
2fff4608:	2001      	movs	r0, #1
2fff460a:	4770      	bx	lr

2fff460c <fdt32_to_cpu>:
2fff460c:	ba00      	rev	r0, r0
2fff460e:	4770      	bx	lr

2fff4610 <dt_get_pwr_vdd_voltage>:
2fff4610:	b507      	push	{r0, r1, r2, lr}
2fff4612:	f7fb fb9d 	bl	2ffefd50 <dt_get_vdd_regulator>
2fff4616:	b148      	cbz	r0, 2fff462c <dt_get_pwr_vdd_voltage+0x1c>
2fff4618:	2200      	movs	r2, #0
2fff461a:	f10d 0106 	add.w	r1, sp, #6
2fff461e:	f7fb f8db 	bl	2ffef7d8 <regulator_get_range>
2fff4622:	f8bd 0006 	ldrh.w	r0, [sp, #6]
2fff4626:	f44f 737a 	mov.w	r3, #1000	@ 0x3e8
2fff462a:	4358      	muls	r0, r3
2fff462c:	b003      	add	sp, #12
2fff462e:	f85d fb04 	ldr.w	pc, [sp], #4

2fff4632 <stm32mp1_addr_inside_backupsram>:
2fff4632:	f100 402c 	add.w	r0, r0, #2885681152	@ 0xac000000
2fff4636:	f5b0 5f80 	cmp.w	r0, #4096	@ 0x1000
2fff463a:	bf2c      	ite	cs
2fff463c:	2000      	movcs	r0, #0
2fff463e:	2001      	movcc	r0, #1
2fff4640:	4770      	bx	lr

2fff4642 <stm32mp_is_wakeup_from_standby>:
2fff4642:	b51f      	push	{r0, r1, r2, r3, r4, lr}
2fff4644:	f7ff fd7d 	bl	2fff4142 <stm32mp_rcc_base>
2fff4648:	f8d0 4408 	ldr.w	r4, [r0, #1032]	@ 0x408
2fff464c:	2200      	movs	r2, #0
2fff464e:	9201      	str	r2, [sp, #4]
2fff4650:	9202      	str	r2, [sp, #8]
2fff4652:	f014 0404 	ands.w	r4, r4, #4
2fff4656:	9203      	str	r2, [sp, #12]
2fff4658:	d002      	beq.n	2fff4660 <stm32mp_is_wakeup_from_standby+0x1e>
2fff465a:	2000      	movs	r0, #0
2fff465c:	b004      	add	sp, #16
2fff465e:	bd10      	pop	{r4, pc}
2fff4660:	f7f9 fa46 	bl	2ffedaf0 <stm32mp_get_boot_action>
2fff4664:	280b      	cmp	r0, #11
2fff4666:	d1f8      	bne.n	2fff465a <stm32mp_is_wakeup_from_standby+0x18>
2fff4668:	a801      	add	r0, sp, #4
2fff466a:	f7f9 fb29 	bl	2ffedcc0 <stm32_get_core1_branch_address_cell>
2fff466e:	2204      	movs	r2, #4
2fff4670:	4623      	mov	r3, r4
2fff4672:	eb0d 0002 	add.w	r0, sp, r2
2fff4676:	4669      	mov	r1, sp
2fff4678:	f7ff ff72 	bl	2fff4560 <nvmem_cell_read>
2fff467c:	9b00      	ldr	r3, [sp, #0]
2fff467e:	2b00      	cmp	r3, #0
2fff4680:	d0eb      	beq.n	2fff465a <stm32mp_is_wakeup_from_standby+0x18>
2fff4682:	f7fd fc5b 	bl	2fff1f3c <stm32_pm_context_is_valid>
2fff4686:	e7e9      	b.n	2fff465c <stm32mp_is_wakeup_from_standby+0x1a>

2fff4688 <bsec_read_otp>:
2fff4688:	b538      	push	{r3, r4, r5, lr}
2fff468a:	4605      	mov	r5, r0
2fff468c:	460c      	mov	r4, r1
2fff468e:	f7fb ff9d 	bl	2fff05cc <is_otp_invalid_mode>
2fff4692:	b948      	cbnz	r0, 2fff46a8 <bsec_read_otp+0x20>
2fff4694:	2c5f      	cmp	r4, #95	@ 0x5f
2fff4696:	d80a      	bhi.n	2fff46ae <bsec_read_otp+0x26>
2fff4698:	f104 51b8 	add.w	r1, r4, #385875968	@ 0x17000000
2fff469c:	f501 51a4 	add.w	r1, r1, #5248	@ 0x1480
2fff46a0:	0089      	lsls	r1, r1, #2
2fff46a2:	680b      	ldr	r3, [r1, #0]
2fff46a4:	602b      	str	r3, [r5, #0]
2fff46a6:	bd38      	pop	{r3, r4, r5, pc}
2fff46a8:	f04f 30ff 	mov.w	r0, #4294967295	@ 0xffffffff
2fff46ac:	e7fb      	b.n	2fff46a6 <bsec_read_otp+0x1e>
2fff46ae:	f06f 0003 	mvn.w	r0, #3
2fff46b2:	e7f8      	b.n	2fff46a6 <bsec_read_otp+0x1e>

2fff46b4 <ddr_enable_clock>:
2fff46b4:	b508      	push	{r3, lr}
2fff46b6:	f7fe f8ff 	bl	2fff28b8 <stm32mp1_clk_rcc_regs_lock>
2fff46ba:	f7ff fd42 	bl	2fff4142 <stm32mp_rcc_base>
2fff46be:	f8d0 30d8 	ldr.w	r3, [r0, #216]	@ 0xd8
2fff46c2:	f443 7315 	orr.w	r3, r3, #596	@ 0x254
2fff46c6:	f043 0301 	orr.w	r3, r3, #1
2fff46ca:	f8c0 30d8 	str.w	r3, [r0, #216]	@ 0xd8
2fff46ce:	e8bd 4008 	ldmia.w	sp!, {r3, lr}
2fff46d2:	f7fe b8f7 	b.w	2fff28c4 <stm32mp1_clk_rcc_regs_unlock>

2fff46d6 <ddr_get_io_calibration_val>:
2fff46d6:	b508      	push	{r3, lr}
2fff46d8:	f7f9 fa14 	bl	2ffedb04 <stm32mp_ddrphyc_base>
2fff46dc:	f8d0 0180 	ldr.w	r0, [r0, #384]	@ 0x180
2fff46e0:	f020 4070 	bic.w	r0, r0, #4026531840	@ 0xf0000000
2fff46e4:	bd08      	pop	{r3, pc}

2fff46e6 <ddr_standby_sr_entry>:
2fff46e6:	e92d 43f8 	stmdb	sp!, {r3, r4, r5, r6, r7, r8, r9, lr}
2fff46ea:	f7f9 fa0f 	bl	2ffedb0c <stm32mp_pwr_base>
2fff46ee:	4680      	mov	r8, r0
2fff46f0:	f7ff fd27 	bl	2fff4142 <stm32mp_rcc_base>
2fff46f4:	4605      	mov	r5, r0
2fff46f6:	f7f9 fa09 	bl	2ffedb0c <stm32mp_pwr_base>
2fff46fa:	4681      	mov	r9, r0
2fff46fc:	f7f9 f9fe 	bl	2ffedafc <stm32mp_ddrctrl_base>
2fff4700:	4606      	mov	r6, r0
2fff4702:	f7f9 f9ff 	bl	2ffedb04 <stm32mp_ddrphyc_base>
2fff4706:	4604      	mov	r4, r0
2fff4708:	f7fe f8d6 	bl	2fff28b8 <stm32mp1_clk_rcc_regs_lock>
2fff470c:	f8d5 30d8 	ldr.w	r3, [r5, #216]	@ 0xd8
2fff4710:	f423 7380 	bic.w	r3, r3, #256	@ 0x100
2fff4714:	f8c5 30d8 	str.w	r3, [r5, #216]	@ 0xd8
2fff4718:	f7fe f8d4 	bl	2fff28c4 <stm32mp1_clk_rcc_regs_unlock>
2fff471c:	4630      	mov	r0, r6
2fff471e:	f7ff fea3 	bl	2fff4468 <stm32mp_ddr_disable_axi_port>
2fff4722:	b938      	cbnz	r0, 2fff4734 <ddr_standby_sr_entry+0x4e>
2fff4724:	4630      	mov	r0, r6
2fff4726:	f7fa faa5 	bl	2ffeec74 <stm32mp_ddr_sw_selfref_entry>
2fff472a:	4607      	mov	r7, r0
2fff472c:	b140      	cbz	r0, 2fff4740 <ddr_standby_sr_entry+0x5a>
2fff472e:	4630      	mov	r0, r6
2fff4730:	f7ff fee9 	bl	2fff4506 <stm32mp_ddr_sw_selfref_exit>
2fff4734:	4630      	mov	r0, r6
2fff4736:	f04f 37ff 	mov.w	r7, #4294967295	@ 0xffffffff
2fff473a:	f7ff fe88 	bl	2fff444e <stm32mp_ddr_enable_axi_port>
2fff473e:	e08e      	b.n	2fff485e <ddr_standby_sr_entry+0x178>
2fff4740:	6a63      	ldr	r3, [r4, #36]	@ 0x24
2fff4742:	200a      	movs	r0, #10
2fff4744:	f043 0308 	orr.w	r3, r3, #8
2fff4748:	6263      	str	r3, [r4, #36]	@ 0x24
2fff474a:	6a63      	ldr	r3, [r4, #36]	@ 0x24
2fff474c:	f043 0310 	orr.w	r3, r3, #16
2fff4750:	6263      	str	r3, [r4, #36]	@ 0x24
2fff4752:	6a63      	ldr	r3, [r4, #36]	@ 0x24
2fff4754:	f423 63e0 	bic.w	r3, r3, #1792	@ 0x700
2fff4758:	f443 7380 	orr.w	r3, r3, #256	@ 0x100
2fff475c:	6263      	str	r3, [r4, #36]	@ 0x24
2fff475e:	6a63      	ldr	r3, [r4, #36]	@ 0x24
2fff4760:	f423 5360 	bic.w	r3, r3, #14336	@ 0x3800
2fff4764:	f443 6300 	orr.w	r3, r3, #2048	@ 0x800
2fff4768:	6263      	str	r3, [r4, #36]	@ 0x24
2fff476a:	6a63      	ldr	r3, [r4, #36]	@ 0x24
2fff476c:	f423 1370 	bic.w	r3, r3, #3932160	@ 0x3c0000
2fff4770:	f443 2380 	orr.w	r3, r3, #262144	@ 0x40000
2fff4774:	6263      	str	r3, [r4, #36]	@ 0x24
2fff4776:	6a63      	ldr	r3, [r4, #36]	@ 0x24
2fff4778:	f023 0302 	bic.w	r3, r3, #2
2fff477c:	6263      	str	r3, [r4, #36]	@ 0x24
2fff477e:	6aa3      	ldr	r3, [r4, #40]	@ 0x28
2fff4780:	f043 0304 	orr.w	r3, r3, #4
2fff4784:	62a3      	str	r3, [r4, #40]	@ 0x28
2fff4786:	6aa3      	ldr	r3, [r4, #40]	@ 0x28
2fff4788:	f043 0308 	orr.w	r3, r3, #8
2fff478c:	62a3      	str	r3, [r4, #40]	@ 0x28
2fff478e:	6ae3      	ldr	r3, [r4, #44]	@ 0x2c
2fff4790:	f423 0370 	bic.w	r3, r3, #15728640	@ 0xf00000
2fff4794:	f443 1380 	orr.w	r3, r3, #1048576	@ 0x100000
2fff4798:	62e3      	str	r3, [r4, #44]	@ 0x2c
2fff479a:	6ae3      	ldr	r3, [r4, #44]	@ 0x2c
2fff479c:	f043 7380 	orr.w	r3, r3, #16777216	@ 0x1000000
2fff47a0:	62e3      	str	r3, [r4, #44]	@ 0x2c
2fff47a2:	6ae3      	ldr	r3, [r4, #44]	@ 0x2c
2fff47a4:	f423 2370 	bic.w	r3, r3, #983040	@ 0xf0000
2fff47a8:	f443 3380 	orr.w	r3, r3, #65536	@ 0x10000
2fff47ac:	62e3      	str	r3, [r4, #44]	@ 0x2c
2fff47ae:	f8d4 3180 	ldr.w	r3, [r4, #384]	@ 0x180
2fff47b2:	f043 4300 	orr.w	r3, r3, #2147483648	@ 0x80000000
2fff47b6:	f8c4 3180 	str.w	r3, [r4, #384]	@ 0x180
2fff47ba:	6ae3      	ldr	r3, [r4, #44]	@ 0x2c
2fff47bc:	f023 5380 	bic.w	r3, r3, #268435456	@ 0x10000000
2fff47c0:	62e3      	str	r3, [r4, #44]	@ 0x2c
2fff47c2:	f7fa f8bd 	bl	2ffee940 <udelay>
2fff47c6:	f7f9 f9a5 	bl	2ffedb14 <stm32mp_pwr_regs_lock>
2fff47ca:	f8d9 300c 	ldr.w	r3, [r9, #12]
2fff47ce:	f443 5380 	orr.w	r3, r3, #4096	@ 0x1000
2fff47d2:	f8c9 300c 	str.w	r3, [r9, #12]
2fff47d6:	f7f9 f9a9 	bl	2ffedb2c <stm32mp_pwr_regs_unlock>
2fff47da:	f7fe f86d 	bl	2fff28b8 <stm32mp1_clk_rcc_regs_lock>
2fff47de:	f8d5 30d8 	ldr.w	r3, [r5, #216]	@ 0xd8
2fff47e2:	f043 7380 	orr.w	r3, r3, #16777216	@ 0x1000000
2fff47e6:	f8c5 30d8 	str.w	r3, [r5, #216]	@ 0xd8
2fff47ea:	f7fe f86b 	bl	2fff28c4 <stm32mp1_clk_rcc_regs_unlock>
2fff47ee:	6963      	ldr	r3, [r4, #20]
2fff47f0:	f043 4300 	orr.w	r3, r3, #2147483648	@ 0x80000000
2fff47f4:	6163      	str	r3, [r4, #20]
2fff47f6:	f8d4 31cc 	ldr.w	r3, [r4, #460]	@ 0x1cc
2fff47fa:	f043 4300 	orr.w	r3, r3, #2147483648	@ 0x80000000
2fff47fe:	f8c4 31cc 	str.w	r3, [r4, #460]	@ 0x1cc
2fff4802:	f8d4 320c 	ldr.w	r3, [r4, #524]	@ 0x20c
2fff4806:	f043 4300 	orr.w	r3, r3, #2147483648	@ 0x80000000
2fff480a:	f8c4 320c 	str.w	r3, [r4, #524]	@ 0x20c
2fff480e:	f8d4 324c 	ldr.w	r3, [r4, #588]	@ 0x24c
2fff4812:	f043 4300 	orr.w	r3, r3, #2147483648	@ 0x80000000
2fff4816:	f8c4 324c 	str.w	r3, [r4, #588]	@ 0x24c
2fff481a:	f8d4 328c 	ldr.w	r3, [r4, #652]	@ 0x28c
2fff481e:	f043 4300 	orr.w	r3, r3, #2147483648	@ 0x80000000
2fff4822:	f8c4 328c 	str.w	r3, [r4, #652]	@ 0x28c
2fff4826:	f7fe f847 	bl	2fff28b8 <stm32mp1_clk_rcc_regs_lock>
2fff482a:	f8d5 30d8 	ldr.w	r3, [r5, #216]	@ 0xd8
2fff482e:	f023 7380 	bic.w	r3, r3, #16777216	@ 0x1000000
2fff4832:	f8c5 30d8 	str.w	r3, [r5, #216]	@ 0xd8
2fff4836:	f8d5 30d8 	ldr.w	r3, [r5, #216]	@ 0xd8
2fff483a:	f423 7311 	bic.w	r3, r3, #580	@ 0x244
2fff483e:	f023 0301 	bic.w	r3, r3, #1
2fff4842:	f8c5 30d8 	str.w	r3, [r5, #216]	@ 0xd8
2fff4846:	f7fe f83d 	bl	2fff28c4 <stm32mp1_clk_rcc_regs_unlock>
2fff484a:	f7f9 f963 	bl	2ffedb14 <stm32mp_pwr_regs_lock>
2fff484e:	f8d8 300c 	ldr.w	r3, [r8, #12]
2fff4852:	f443 6380 	orr.w	r3, r3, #1024	@ 0x400
2fff4856:	f8c8 300c 	str.w	r3, [r8, #12]
2fff485a:	f7f9 f967 	bl	2ffedb2c <stm32mp_pwr_regs_unlock>
2fff485e:	4638      	mov	r0, r7
2fff4860:	e8bd 83f8 	ldmia.w	sp!, {r3, r4, r5, r6, r7, r8, r9, pc}

2fff4864 <i2c_wait_flag>:
2fff4864:	6803      	ldr	r3, [r0, #0]
2fff4866:	f002 0201 	and.w	r2, r2, #1
2fff486a:	b5f0      	push	{r4, r5, r6, r7, lr}
2fff486c:	3318      	adds	r3, #24
2fff486e:	9f05      	ldr	r7, [sp, #20]
2fff4870:	9e06      	ldr	r6, [sp, #24]
2fff4872:	681c      	ldr	r4, [r3, #0]
2fff4874:	4221      	tst	r1, r4
2fff4876:	bf14      	ite	ne
2fff4878:	2401      	movne	r4, #1
2fff487a:	2400      	moveq	r4, #0
2fff487c:	4294      	cmp	r4, r2
2fff487e:	d111      	bne.n	2fff48a4 <i2c_wait_flag+0x40>
2fff4880:	ec55 4f0e 	mrrc	15, 0, r4, r5, cr14
2fff4884:	42a7      	cmp	r7, r4
2fff4886:	eb76 0405 	sbcs.w	r4, r6, r5
2fff488a:	d2f2      	bcs.n	2fff4872 <i2c_wait_flag+0xe>
2fff488c:	6983      	ldr	r3, [r0, #24]
2fff488e:	2220      	movs	r2, #32
2fff4890:	6102      	str	r2, [r0, #16]
2fff4892:	f043 0320 	orr.w	r3, r3, #32
2fff4896:	6183      	str	r3, [r0, #24]
2fff4898:	2300      	movs	r3, #0
2fff489a:	6143      	str	r3, [r0, #20]
2fff489c:	7303      	strb	r3, [r0, #12]
2fff489e:	f06f 0004 	mvn.w	r0, #4
2fff48a2:	bdf0      	pop	{r4, r5, r6, r7, pc}
2fff48a4:	2000      	movs	r0, #0
2fff48a6:	e7fc      	b.n	2fff48a2 <i2c_wait_flag+0x3e>

2fff48a8 <i2c_ack_failed>:
2fff48a8:	b5f0      	push	{r4, r5, r6, r7, lr}
2fff48aa:	4601      	mov	r1, r0
2fff48ac:	6804      	ldr	r4, [r0, #0]
2fff48ae:	69a0      	ldr	r0, [r4, #24]
2fff48b0:	f104 0518 	add.w	r5, r4, #24
2fff48b4:	f010 0010 	ands.w	r0, r0, #16
2fff48b8:	d03b      	beq.n	2fff4932 <i2c_ack_failed+0x8a>
2fff48ba:	6828      	ldr	r0, [r5, #0]
2fff48bc:	f010 0020 	ands.w	r0, r0, #32
2fff48c0:	d026      	beq.n	2fff4910 <i2c_ack_failed+0x68>
2fff48c2:	2310      	movs	r3, #16
2fff48c4:	2220      	movs	r2, #32
2fff48c6:	61e3      	str	r3, [r4, #28]
2fff48c8:	680b      	ldr	r3, [r1, #0]
2fff48ca:	61da      	str	r2, [r3, #28]
2fff48cc:	680b      	ldr	r3, [r1, #0]
2fff48ce:	699a      	ldr	r2, [r3, #24]
2fff48d0:	0794      	lsls	r4, r2, #30
2fff48d2:	bf44      	itt	mi
2fff48d4:	2200      	movmi	r2, #0
2fff48d6:	629a      	strmi	r2, [r3, #40]	@ 0x28
2fff48d8:	680b      	ldr	r3, [r1, #0]
2fff48da:	699a      	ldr	r2, [r3, #24]
2fff48dc:	07d0      	lsls	r0, r2, #31
2fff48de:	bf5e      	ittt	pl
2fff48e0:	699a      	ldrpl	r2, [r3, #24]
2fff48e2:	f042 0201 	orrpl.w	r2, r2, #1
2fff48e6:	619a      	strpl	r2, [r3, #24]
2fff48e8:	680a      	ldr	r2, [r1, #0]
2fff48ea:	6853      	ldr	r3, [r2, #4]
2fff48ec:	f023 73ff 	bic.w	r3, r3, #33423360	@ 0x1fe0000
2fff48f0:	f423 338b 	bic.w	r3, r3, #71168	@ 0x11600
2fff48f4:	f423 73ff 	bic.w	r3, r3, #510	@ 0x1fe
2fff48f8:	f023 0301 	bic.w	r3, r3, #1
2fff48fc:	6053      	str	r3, [r2, #4]
2fff48fe:	698b      	ldr	r3, [r1, #24]
2fff4900:	f043 0304 	orr.w	r3, r3, #4
2fff4904:	618b      	str	r3, [r1, #24]
2fff4906:	2320      	movs	r3, #32
2fff4908:	610b      	str	r3, [r1, #16]
2fff490a:	2300      	movs	r3, #0
2fff490c:	614b      	str	r3, [r1, #20]
2fff490e:	e00c      	b.n	2fff492a <i2c_ack_failed+0x82>
2fff4910:	ec57 6f0e 	mrrc	15, 0, r6, r7, cr14
2fff4914:	42b2      	cmp	r2, r6
2fff4916:	eb73 0607 	sbcs.w	r6, r3, r7
2fff491a:	d2ce      	bcs.n	2fff48ba <i2c_ack_failed+0x12>
2fff491c:	698b      	ldr	r3, [r1, #24]
2fff491e:	6148      	str	r0, [r1, #20]
2fff4920:	f043 0320 	orr.w	r3, r3, #32
2fff4924:	618b      	str	r3, [r1, #24]
2fff4926:	2320      	movs	r3, #32
2fff4928:	610b      	str	r3, [r1, #16]
2fff492a:	f06f 0004 	mvn.w	r0, #4
2fff492e:	2300      	movs	r3, #0
2fff4930:	730b      	strb	r3, [r1, #12]
2fff4932:	bdf0      	pop	{r4, r5, r6, r7, pc}

2fff4934 <i2c_wait_txis>:
2fff4934:	b570      	push	{r4, r5, r6, lr}
2fff4936:	4604      	mov	r4, r0
2fff4938:	4615      	mov	r5, r2
2fff493a:	461e      	mov	r6, r3
2fff493c:	6823      	ldr	r3, [r4, #0]
2fff493e:	699b      	ldr	r3, [r3, #24]
2fff4940:	079b      	lsls	r3, r3, #30
2fff4942:	d501      	bpl.n	2fff4948 <i2c_wait_txis+0x14>
2fff4944:	2000      	movs	r0, #0
2fff4946:	e015      	b.n	2fff4974 <i2c_wait_txis+0x40>
2fff4948:	462a      	mov	r2, r5
2fff494a:	4633      	mov	r3, r6
2fff494c:	4620      	mov	r0, r4
2fff494e:	f7ff ffab 	bl	2fff48a8 <i2c_ack_failed>
2fff4952:	b968      	cbnz	r0, 2fff4970 <i2c_wait_txis+0x3c>
2fff4954:	ec53 2f0e 	mrrc	15, 0, r2, r3, cr14
2fff4958:	4295      	cmp	r5, r2
2fff495a:	eb76 0303 	sbcs.w	r3, r6, r3
2fff495e:	d2ed      	bcs.n	2fff493c <i2c_wait_txis+0x8>
2fff4960:	69a3      	ldr	r3, [r4, #24]
2fff4962:	6160      	str	r0, [r4, #20]
2fff4964:	7320      	strb	r0, [r4, #12]
2fff4966:	f043 0320 	orr.w	r3, r3, #32
2fff496a:	61a3      	str	r3, [r4, #24]
2fff496c:	2320      	movs	r3, #32
2fff496e:	6123      	str	r3, [r4, #16]
2fff4970:	f06f 0004 	mvn.w	r0, #4
2fff4974:	bd70      	pop	{r4, r5, r6, pc}

2fff4976 <i2c_wait_stop>:
2fff4976:	b570      	push	{r4, r5, r6, lr}
2fff4978:	4604      	mov	r4, r0
2fff497a:	4615      	mov	r5, r2
2fff497c:	461e      	mov	r6, r3
2fff497e:	6823      	ldr	r3, [r4, #0]
2fff4980:	699b      	ldr	r3, [r3, #24]
2fff4982:	069b      	lsls	r3, r3, #26
2fff4984:	d501      	bpl.n	2fff498a <i2c_wait_stop+0x14>
2fff4986:	2000      	movs	r0, #0
2fff4988:	e015      	b.n	2fff49b6 <i2c_wait_stop+0x40>
2fff498a:	462a      	mov	r2, r5
2fff498c:	4633      	mov	r3, r6
2fff498e:	4620      	mov	r0, r4
2fff4990:	f7ff ff8a 	bl	2fff48a8 <i2c_ack_failed>
2fff4994:	b968      	cbnz	r0, 2fff49b2 <i2c_wait_stop+0x3c>
2fff4996:	ec53 2f0e 	mrrc	15, 0, r2, r3, cr14
2fff499a:	4295      	cmp	r5, r2
2fff499c:	eb76 0303 	sbcs.w	r3, r6, r3
2fff49a0:	d2ed      	bcs.n	2fff497e <i2c_wait_stop+0x8>
2fff49a2:	69a3      	ldr	r3, [r4, #24]
2fff49a4:	6160      	str	r0, [r4, #20]
2fff49a6:	7320      	strb	r0, [r4, #12]
2fff49a8:	f043 0320 	orr.w	r3, r3, #32
2fff49ac:	61a3      	str	r3, [r4, #24]
2fff49ae:	2320      	movs	r3, #32
2fff49b0:	6123      	str	r3, [r4, #16]
2fff49b2:	f06f 0004 	mvn.w	r0, #4
2fff49b6:	bd70      	pop	{r4, r5, r6, pc}

2fff49b8 <stm32_i2c_mem_write>:
2fff49b8:	b51f      	push	{r0, r1, r2, r3, r4, lr}
2fff49ba:	2440      	movs	r4, #64	@ 0x40
2fff49bc:	9403      	str	r4, [sp, #12]
2fff49be:	9c08      	ldr	r4, [sp, #32]
2fff49c0:	9402      	str	r4, [sp, #8]
2fff49c2:	f8bd 401c 	ldrh.w	r4, [sp, #28]
2fff49c6:	9401      	str	r4, [sp, #4]
2fff49c8:	9c06      	ldr	r4, [sp, #24]
2fff49ca:	9400      	str	r4, [sp, #0]
2fff49cc:	f7fc fae8 	bl	2fff0fa0 <i2c_write>
2fff49d0:	b004      	add	sp, #16
2fff49d2:	bd10      	pop	{r4, pc}

2fff49d4 <stm32_i2c_mem_read>:
2fff49d4:	b430      	push	{r4, r5}
2fff49d6:	2540      	movs	r5, #64	@ 0x40
2fff49d8:	f8bd 400c 	ldrh.w	r4, [sp, #12]
2fff49dc:	9504      	str	r5, [sp, #16]
2fff49de:	9403      	str	r4, [sp, #12]
2fff49e0:	bc30      	pop	{r4, r5}
2fff49e2:	f7fc b9e5 	b.w	2fff0db0 <i2c_read.constprop.0>

2fff49e6 <pmic_list_voltages>:
2fff49e6:	6800      	ldr	r0, [r0, #0]
2fff49e8:	f7fd b8a6 	b.w	2fff1b38 <stpmic1_regulator_levels_mv>

2fff49ec <pmic_get_voltage>:
2fff49ec:	6800      	ldr	r0, [r0, #0]
2fff49ee:	f7fd b8d7 	b.w	2fff1ba0 <stpmic1_regulator_voltage_get>

2fff49f2 <pmic_set_voltage>:
2fff49f2:	6800      	ldr	r0, [r0, #0]
2fff49f4:	f7fd b94c 	b.w	2fff1c90 <stpmic1_regulator_voltage_set>

2fff49f8 <pmic_get_state>:
2fff49f8:	b508      	push	{r3, lr}
2fff49fa:	6800      	ldr	r0, [r0, #0]
2fff49fc:	f000 f836 	bl	2fff4a6c <stpmic1_is_regulator_enabled>
2fff4a00:	bd08      	pop	{r3, pc}

2fff4a02 <pmic_set_flag>:
2fff4a02:	2920      	cmp	r1, #32
2fff4a04:	d019      	beq.n	2fff4a3a <pmic_set_flag+0x38>
2fff4a06:	d808      	bhi.n	2fff4a1a <pmic_set_flag+0x18>
2fff4a08:	2908      	cmp	r1, #8
2fff4a0a:	d010      	beq.n	2fff4a2e <pmic_set_flag+0x2c>
2fff4a0c:	2910      	cmp	r1, #16
2fff4a0e:	d011      	beq.n	2fff4a34 <pmic_set_flag+0x32>
2fff4a10:	2904      	cmp	r1, #4
2fff4a12:	d009      	beq.n	2fff4a28 <pmic_set_flag+0x26>
2fff4a14:	f06f 0015 	mvn.w	r0, #21
2fff4a18:	4770      	bx	lr
2fff4a1a:	2940      	cmp	r1, #64	@ 0x40
2fff4a1c:	d010      	beq.n	2fff4a40 <pmic_set_flag+0x3e>
2fff4a1e:	2980      	cmp	r1, #128	@ 0x80
2fff4a20:	d1f8      	bne.n	2fff4a14 <pmic_set_flag+0x12>
2fff4a22:	6800      	ldr	r0, [r0, #0]
2fff4a24:	f7fd b998 	b.w	2fff1d58 <stpmic1_regulator_bypass_mode_set>
2fff4a28:	6800      	ldr	r0, [r0, #0]
2fff4a2a:	f000 b88f 	b.w	2fff4b4c <stpmic1_regulator_icc_set>
2fff4a2e:	6800      	ldr	r0, [r0, #0]
2fff4a30:	f7fd b9aa 	b.w	2fff1d88 <stpmic1_active_discharge_mode_set>
2fff4a34:	6800      	ldr	r0, [r0, #0]
2fff4a36:	f000 b865 	b.w	2fff4b04 <stpmic1_regulator_pull_down_set>
2fff4a3a:	6800      	ldr	r0, [r0, #0]
2fff4a3c:	f000 b874 	b.w	2fff4b28 <stpmic1_regulator_mask_reset_set>
2fff4a40:	6800      	ldr	r0, [r0, #0]
2fff4a42:	f7fd b971 	b.w	2fff1d28 <stpmic1_regulator_sink_mode_set>

2fff4a46 <pmic_set_state>:
2fff4a46:	6800      	ldr	r0, [r0, #0]
2fff4a48:	b109      	cbz	r1, 2fff4a4e <pmic_set_state+0x8>
2fff4a4a:	f000 b847 	b.w	2fff4adc <stpmic1_regulator_enable>
2fff4a4e:	f000 b84f 	b.w	2fff4af0 <stpmic1_regulator_disable>

2fff4a52 <pmic_voltages_init>:
2fff4a52:	2000      	movs	r0, #0
2fff4a54:	4770      	bx	lr

2fff4a56 <pmic_switch_off>:
2fff4a56:	b508      	push	{r3, lr}
2fff4a58:	f000 f83b 	bl	2fff4ad2 <stpmic1_switch_off>
2fff4a5c:	b910      	cbnz	r0, 2fff4a64 <pmic_switch_off+0xe>
2fff4a5e:	2064      	movs	r0, #100	@ 0x64
2fff4a60:	f7f9 ff6e 	bl	2ffee940 <udelay>
2fff4a64:	f7f8 ff74 	bl	2ffed950 <console_flush>
2fff4a68:	f7f4 ecb8 	blx	2ffe93dc <do_panic>

2fff4a6c <stpmic1_is_regulator_enabled>:
2fff4a6c:	b513      	push	{r0, r1, r4, lr}
2fff4a6e:	f7fd f841 	bl	2fff1af4 <get_regulator_data>
2fff4a72:	4604      	mov	r4, r0
2fff4a74:	f10d 0107 	add.w	r1, sp, #7
2fff4a78:	7a40      	ldrb	r0, [r0, #9]
2fff4a7a:	f7fd f87d 	bl	2fff1b78 <stpmic1_register_read>
2fff4a7e:	b118      	cbz	r0, 2fff4a88 <stpmic1_is_regulator_enabled+0x1c>
2fff4a80:	f7f8 ff66 	bl	2ffed950 <console_flush>
2fff4a84:	f7f4 ecaa 	blx	2ffe93dc <do_panic>
2fff4a88:	7aa3      	ldrb	r3, [r4, #10]
2fff4a8a:	f89d 2007 	ldrb.w	r2, [sp, #7]
2fff4a8e:	4393      	bics	r3, r2
2fff4a90:	bf0c      	ite	eq
2fff4a92:	2001      	moveq	r0, #1
2fff4a94:	2000      	movne	r0, #0
2fff4a96:	b002      	add	sp, #8
2fff4a98:	bd10      	pop	{r4, pc}

2fff4a9a <stpmic1_register_update>:
2fff4a9a:	b573      	push	{r0, r1, r4, r5, r6, lr}
2fff4a9c:	460e      	mov	r6, r1
2fff4a9e:	f10d 0107 	add.w	r1, sp, #7
2fff4aa2:	4605      	mov	r5, r0
2fff4aa4:	4614      	mov	r4, r2
2fff4aa6:	f7fd f867 	bl	2fff1b78 <stpmic1_register_read>
2fff4aaa:	b958      	cbnz	r0, 2fff4ac4 <stpmic1_register_update+0x2a>
2fff4aac:	f89d 3007 	ldrb.w	r3, [sp, #7]
2fff4ab0:	4628      	mov	r0, r5
2fff4ab2:	ea23 0304 	bic.w	r3, r3, r4
2fff4ab6:	4034      	ands	r4, r6
2fff4ab8:	ea43 0104 	orr.w	r1, r3, r4
2fff4abc:	f88d 1007 	strb.w	r1, [sp, #7]
2fff4ac0:	f7fd f8b6 	bl	2fff1c30 <stpmic1_register_write>
2fff4ac4:	b002      	add	sp, #8
2fff4ac6:	bd70      	pop	{r4, r5, r6, pc}

2fff4ac8 <stpmic1_powerctrl_on>:
2fff4ac8:	2204      	movs	r2, #4
2fff4aca:	2010      	movs	r0, #16
2fff4acc:	4611      	mov	r1, r2
2fff4ace:	f7ff bfe4 	b.w	2fff4a9a <stpmic1_register_update>

2fff4ad2 <stpmic1_switch_off>:
2fff4ad2:	2201      	movs	r2, #1
2fff4ad4:	2010      	movs	r0, #16
2fff4ad6:	4611      	mov	r1, r2
2fff4ad8:	f7ff bfdf 	b.w	2fff4a9a <stpmic1_register_update>

2fff4adc <stpmic1_regulator_enable>:
2fff4adc:	b508      	push	{r3, lr}
2fff4ade:	f7fd f809 	bl	2fff1af4 <get_regulator_data>
2fff4ae2:	7a82      	ldrb	r2, [r0, #10]
2fff4ae4:	e8bd 4008 	ldmia.w	sp!, {r3, lr}
2fff4ae8:	7a40      	ldrb	r0, [r0, #9]
2fff4aea:	4611      	mov	r1, r2
2fff4aec:	f7ff bfd5 	b.w	2fff4a9a <stpmic1_register_update>

2fff4af0 <stpmic1_regulator_disable>:
2fff4af0:	b508      	push	{r3, lr}
2fff4af2:	f7fc ffff 	bl	2fff1af4 <get_regulator_data>
2fff4af6:	7a82      	ldrb	r2, [r0, #10]
2fff4af8:	2100      	movs	r1, #0
2fff4afa:	e8bd 4008 	ldmia.w	sp!, {r3, lr}
2fff4afe:	7a40      	ldrb	r0, [r0, #9]
2fff4b00:	f7ff bfcb 	b.w	2fff4a9a <stpmic1_register_update>

2fff4b04 <stpmic1_regulator_pull_down_set>:
2fff4b04:	b508      	push	{r3, lr}
2fff4b06:	f7fc fff5 	bl	2fff1af4 <get_regulator_data>
2fff4b0a:	4603      	mov	r3, r0
2fff4b0c:	7b00      	ldrb	r0, [r0, #12]
2fff4b0e:	b150      	cbz	r0, 2fff4b26 <stpmic1_regulator_pull_down_set+0x22>
2fff4b10:	7b5b      	ldrb	r3, [r3, #13]
2fff4b12:	2203      	movs	r2, #3
2fff4b14:	2101      	movs	r1, #1
2fff4b16:	409a      	lsls	r2, r3
2fff4b18:	4099      	lsls	r1, r3
2fff4b1a:	b2d2      	uxtb	r2, r2
2fff4b1c:	e8bd 4008 	ldmia.w	sp!, {r3, lr}
2fff4b20:	b2c9      	uxtb	r1, r1
2fff4b22:	f7ff bfba 	b.w	2fff4a9a <stpmic1_register_update>
2fff4b26:	bd08      	pop	{r3, pc}

2fff4b28 <stpmic1_regulator_mask_reset_set>:
2fff4b28:	b508      	push	{r3, lr}
2fff4b2a:	f7fc ffe3 	bl	2fff1af4 <get_regulator_data>
2fff4b2e:	4603      	mov	r3, r0
2fff4b30:	7b80      	ldrb	r0, [r0, #14]
2fff4b32:	b140      	cbz	r0, 2fff4b46 <stpmic1_regulator_mask_reset_set+0x1e>
2fff4b34:	7bdb      	ldrb	r3, [r3, #15]
2fff4b36:	2201      	movs	r2, #1
2fff4b38:	409a      	lsls	r2, r3
2fff4b3a:	b2d2      	uxtb	r2, r2
2fff4b3c:	e8bd 4008 	ldmia.w	sp!, {r3, lr}
2fff4b40:	4611      	mov	r1, r2
2fff4b42:	f7ff bfaa 	b.w	2fff4a9a <stpmic1_register_update>
2fff4b46:	f04f 30ff 	mov.w	r0, #4294967295	@ 0xffffffff
2fff4b4a:	bd08      	pop	{r3, pc}

2fff4b4c <stpmic1_regulator_icc_set>:
2fff4b4c:	b508      	push	{r3, lr}
2fff4b4e:	f7fc ffd1 	bl	2fff1af4 <get_regulator_data>
2fff4b52:	7b83      	ldrb	r3, [r0, #14]
2fff4b54:	b14b      	cbz	r3, 2fff4b6a <stpmic1_regulator_icc_set+0x1e>
2fff4b56:	7c43      	ldrb	r3, [r0, #17]
2fff4b58:	2201      	movs	r2, #1
2fff4b5a:	7c00      	ldrb	r0, [r0, #16]
2fff4b5c:	409a      	lsls	r2, r3
2fff4b5e:	b2d2      	uxtb	r2, r2
2fff4b60:	e8bd 4008 	ldmia.w	sp!, {r3, lr}
2fff4b64:	4611      	mov	r1, r2
2fff4b66:	f7ff bf98 	b.w	2fff4a9a <stpmic1_register_update>
2fff4b6a:	f04f 30ff 	mov.w	r0, #4294967295	@ 0xffffffff
2fff4b6e:	bd08      	pop	{r3, pc}

2fff4b70 <stpmic1_get_version>:
2fff4b70:	b513      	push	{r0, r1, r4, lr}
2fff4b72:	4604      	mov	r4, r0
2fff4b74:	f10d 0107 	add.w	r1, sp, #7
2fff4b78:	2006      	movs	r0, #6
2fff4b7a:	f7fc fffd 	bl	2fff1b78 <stpmic1_register_read>
2fff4b7e:	2800      	cmp	r0, #0
2fff4b80:	bfa2      	ittt	ge
2fff4b82:	2000      	movge	r0, #0
2fff4b84:	f89d 3007 	ldrbge.w	r3, [sp, #7]
2fff4b88:	6023      	strge	r3, [r4, #0]
2fff4b8a:	b002      	add	sp, #8
2fff4b8c:	bd10      	pop	{r4, pc}

2fff4b8e <stm32mp_system_reset>:
2fff4b8e:	b508      	push	{r3, lr}
2fff4b90:	f7ff fad7 	bl	2fff4142 <stm32mp_rcc_base>
2fff4b94:	f8d0 3404 	ldr.w	r3, [r0, #1028]	@ 0x404
2fff4b98:	f043 0301 	orr.w	r3, r3, #1
2fff4b9c:	f8c0 3404 	str.w	r3, [r0, #1028]	@ 0x404
2fff4ba0:	e7fe      	b.n	2fff4ba0 <stm32mp_system_reset+0x12>

2fff4ba2 <stm32_clean_context>:
2fff4ba2:	b508      	push	{r3, lr}
2fff4ba4:	f7fb fbcc 	bl	2fff0340 <stm32mp_bkpram_get_access>
2fff4ba8:	b160      	cbz	r0, 2fff4bc4 <stm32_clean_context+0x22>
2fff4baa:	2063      	movs	r0, #99	@ 0x63
2fff4bac:	f7f9 fe68 	bl	2ffee880 <clk_enable>
2fff4bb0:	f04f 40a8 	mov.w	r0, #1409286144	@ 0x54000000
2fff4bb4:	21a8      	movs	r1, #168	@ 0xa8
2fff4bb6:	f7f4 ed12 	blx	2ffe95dc <zero_normalmem>
2fff4bba:	e8bd 4008 	ldmia.w	sp!, {r3, lr}
2fff4bbe:	2063      	movs	r0, #99	@ 0x63
2fff4bc0:	f7f9 be70 	b.w	2ffee8a4 <clk_disable>
2fff4bc4:	bd08      	pop	{r3, pc}

2fff4bc6 <stm32_get_zdata_from_context>:
2fff4bc6:	b510      	push	{r4, lr}
2fff4bc8:	2063      	movs	r0, #99	@ 0x63
2fff4bca:	f7f9 fe59 	bl	2ffee880 <clk_enable>
2fff4bce:	f04f 43a8 	mov.w	r3, #1409286144	@ 0x54000000
2fff4bd2:	2063      	movs	r0, #99	@ 0x63
2fff4bd4:	689c      	ldr	r4, [r3, #8]
2fff4bd6:	f7f9 fe65 	bl	2ffee8a4 <clk_disable>
2fff4bda:	f024 4470 	bic.w	r4, r4, #4026531840	@ 0xf0000000
2fff4bde:	4620      	mov	r0, r4
2fff4be0:	bd10      	pop	{r4, pc}

2fff4be2 <clock_is_always_on>:
2fff4be2:	2805      	cmp	r0, #5
2fff4be4:	d807      	bhi.n	2fff4bf6 <clock_is_always_on+0x14>
2fff4be6:	2001      	movs	r0, #1
2fff4be8:	4770      	bx	lr
2fff4bea:	f64e 00ff 	movw	r0, #59647	@ 0xe8ff
2fff4bee:	40d8      	lsrs	r0, r3
2fff4bf0:	f000 0001 	and.w	r0, r0, #1
2fff4bf4:	4770      	bx	lr
2fff4bf6:	f1a0 03b5 	sub.w	r3, r0, #181	@ 0xb5
2fff4bfa:	2b0f      	cmp	r3, #15
2fff4bfc:	d9f5      	bls.n	2fff4bea <clock_is_always_on+0x8>
2fff4bfe:	2000      	movs	r0, #0
2fff4c00:	4770      	bx	lr

2fff4c02 <stm32mp1_clk_lock>:
2fff4c02:	b510      	push	{r4, lr}
2fff4c04:	4604      	mov	r4, r0
2fff4c06:	f7ff fa9f 	bl	2fff4148 <stm32mp_lock_available>
2fff4c0a:	b120      	cbz	r0, 2fff4c16 <stm32mp1_clk_lock+0x14>
2fff4c0c:	4620      	mov	r0, r4
2fff4c0e:	e8bd 4010 	ldmia.w	sp!, {r4, lr}
2fff4c12:	f004 be45 	b.w	2fff98a0 <__spin_lock_from_thumb>
2fff4c16:	bd10      	pop	{r4, pc}

2fff4c18 <stm32mp1_clk_unlock>:
2fff4c18:	b510      	push	{r4, lr}
2fff4c1a:	4604      	mov	r4, r0
2fff4c1c:	f7ff fa94 	bl	2fff4148 <stm32mp_lock_available>
2fff4c20:	b120      	cbz	r0, 2fff4c2c <stm32mp1_clk_unlock+0x14>
2fff4c22:	4620      	mov	r0, r4
2fff4c24:	e8bd 4010 	ldmia.w	sp!, {r4, lr}
2fff4c28:	f004 be46 	b.w	2fff98b8 <__spin_unlock_from_thumb>
2fff4c2c:	bd10      	pop	{r4, pc}

2fff4c2e <stm32_clk_parse_fdt_by_name>:
2fff4c2e:	b537      	push	{r0, r1, r2, r4, r5, lr}
2fff4c30:	461d      	mov	r5, r3
2fff4c32:	2400      	movs	r4, #0
2fff4c34:	ab01      	add	r3, sp, #4
2fff4c36:	9401      	str	r4, [sp, #4]
2fff4c38:	f000 fa8a 	bl	2fff5150 <fdt_getprop>
2fff4c3c:	b180      	cbz	r0, 2fff4c60 <stm32_clk_parse_fdt_by_name+0x32>
2fff4c3e:	9901      	ldr	r1, [sp, #4]
2fff4c40:	4622      	mov	r2, r4
2fff4c42:	0889      	lsrs	r1, r1, #2
2fff4c44:	4291      	cmp	r1, r2
2fff4c46:	d104      	bne.n	2fff4c52 <stm32_clk_parse_fdt_by_name+0x24>
2fff4c48:	9b06      	ldr	r3, [sp, #24]
2fff4c4a:	2000      	movs	r0, #0
2fff4c4c:	6019      	str	r1, [r3, #0]
2fff4c4e:	b003      	add	sp, #12
2fff4c50:	bd30      	pop	{r4, r5, pc}
2fff4c52:	f850 3022 	ldr.w	r3, [r0, r2, lsl #2]
2fff4c56:	ba1b      	rev	r3, r3
2fff4c58:	f845 3022 	str.w	r3, [r5, r2, lsl #2]
2fff4c5c:	3201      	adds	r2, #1
2fff4c5e:	e7f1      	b.n	2fff4c44 <stm32_clk_parse_fdt_by_name+0x16>
2fff4c60:	4601      	mov	r1, r0
2fff4c62:	e7f1      	b.n	2fff4c48 <stm32_clk_parse_fdt_by_name+0x1a>

2fff4c64 <stm32mp1_pll_configure_src>:
2fff4c64:	6943      	ldr	r3, [r0, #20]
2fff4c66:	2234      	movs	r2, #52	@ 0x34
2fff4c68:	4351      	muls	r1, r2
2fff4c6a:	685b      	ldr	r3, [r3, #4]
2fff4c6c:	185a      	adds	r2, r3, r1
2fff4c6e:	5c5b      	ldrb	r3, [r3, r1]
2fff4c70:	b113      	cbz	r3, 2fff4c78 <stm32mp1_pll_configure_src+0x14>
2fff4c72:	6851      	ldr	r1, [r2, #4]
2fff4c74:	f7fd bbfa 	b.w	2fff246c <stm32_clk_configure_mux>
2fff4c78:	4618      	mov	r0, r3
2fff4c7a:	4770      	bx	lr

2fff4c7c <fdt32_ld>:
2fff4c7c:	7842      	ldrb	r2, [r0, #1]
2fff4c7e:	7803      	ldrb	r3, [r0, #0]
2fff4c80:	ea43 2302 	orr.w	r3, r3, r2, lsl #8
2fff4c84:	7882      	ldrb	r2, [r0, #2]
2fff4c86:	ea43 4302 	orr.w	r3, r3, r2, lsl #16
2fff4c8a:	78c2      	ldrb	r2, [r0, #3]
2fff4c8c:	ea43 6002 	orr.w	r0, r3, r2, lsl #24
2fff4c90:	ba00      	rev	r0, r0
2fff4c92:	4770      	bx	lr

2fff4c94 <fdt_header_size_>:
2fff4c94:	2801      	cmp	r0, #1
2fff4c96:	d906      	bls.n	2fff4ca6 <fdt_header_size_+0x12>
2fff4c98:	2802      	cmp	r0, #2
2fff4c9a:	d006      	beq.n	2fff4caa <fdt_header_size_+0x16>
2fff4c9c:	2810      	cmp	r0, #16
2fff4c9e:	bf8c      	ite	hi
2fff4ca0:	2028      	movhi	r0, #40	@ 0x28
2fff4ca2:	2024      	movls	r0, #36	@ 0x24
2fff4ca4:	4770      	bx	lr
2fff4ca6:	201c      	movs	r0, #28
2fff4ca8:	4770      	bx	lr
2fff4caa:	2020      	movs	r0, #32
2fff4cac:	4770      	bx	lr

2fff4cae <fdt_header_size>:
2fff4cae:	b508      	push	{r3, lr}
2fff4cb0:	3014      	adds	r0, #20
2fff4cb2:	f7ff ffe3 	bl	2fff4c7c <fdt32_ld>
2fff4cb6:	e8bd 4008 	ldmia.w	sp!, {r3, lr}
2fff4cba:	f7ff bfeb 	b.w	2fff4c94 <fdt_header_size_>

2fff4cbe <fdt_offset_ptr>:
2fff4cbe:	e92d 41f0 	stmdb	sp!, {r4, r5, r6, r7, r8, lr}
2fff4cc2:	4607      	mov	r7, r0
2fff4cc4:	3008      	adds	r0, #8
2fff4cc6:	4616      	mov	r6, r2
2fff4cc8:	f7ff ffd8 	bl	2fff4c7c <fdt32_ld>
2fff4ccc:	1845      	adds	r5, r0, r1
2fff4cce:	bf2c      	ite	cs
2fff4cd0:	2401      	movcs	r4, #1
2fff4cd2:	2400      	movcc	r4, #0
2fff4cd4:	2900      	cmp	r1, #0
2fff4cd6:	db1a      	blt.n	2fff4d0e <fdt_offset_ptr+0x50>
2fff4cd8:	b9cc      	cbnz	r4, 2fff4d0e <fdt_offset_ptr+0x50>
2fff4cda:	eb15 0806 	adds.w	r8, r5, r6
2fff4cde:	d213      	bcs.n	2fff4d08 <fdt_offset_ptr+0x4a>
2fff4ce0:	1d38      	adds	r0, r7, #4
2fff4ce2:	f7ff ffcb 	bl	2fff4c7c <fdt32_ld>
2fff4ce6:	4580      	cmp	r8, r0
2fff4ce8:	d80e      	bhi.n	2fff4d08 <fdt_offset_ptr+0x4a>
2fff4cea:	f107 0014 	add.w	r0, r7, #20
2fff4cee:	f7ff ffc5 	bl	2fff4c7c <fdt32_ld>
2fff4cf2:	2810      	cmp	r0, #16
2fff4cf4:	d907      	bls.n	2fff4d06 <fdt_offset_ptr+0x48>
2fff4cf6:	1989      	adds	r1, r1, r6
2fff4cf8:	d206      	bcs.n	2fff4d08 <fdt_offset_ptr+0x4a>
2fff4cfa:	f107 0024 	add.w	r0, r7, #36	@ 0x24
2fff4cfe:	f7ff ffbd 	bl	2fff4c7c <fdt32_ld>
2fff4d02:	4281      	cmp	r1, r0
2fff4d04:	d800      	bhi.n	2fff4d08 <fdt_offset_ptr+0x4a>
2fff4d06:	197c      	adds	r4, r7, r5
2fff4d08:	4620      	mov	r0, r4
2fff4d0a:	e8bd 81f0 	ldmia.w	sp!, {r4, r5, r6, r7, r8, pc}
2fff4d0e:	2400      	movs	r4, #0
2fff4d10:	e7fa      	b.n	2fff4d08 <fdt_offset_ptr+0x4a>

2fff4d12 <fdt_next_tag>:
2fff4d12:	e92d 43f8 	stmdb	sp!, {r3, r4, r5, r6, r7, r8, r9, lr}
2fff4d16:	f06f 0307 	mvn.w	r3, #7
2fff4d1a:	6013      	str	r3, [r2, #0]
2fff4d1c:	4690      	mov	r8, r2
2fff4d1e:	2204      	movs	r2, #4
2fff4d20:	4605      	mov	r5, r0
2fff4d22:	460e      	mov	r6, r1
2fff4d24:	f7ff ffcb 	bl	2fff4cbe <fdt_offset_ptr>
2fff4d28:	b180      	cbz	r0, 2fff4d4c <fdt_next_tag+0x3a>
2fff4d2a:	6807      	ldr	r7, [r0, #0]
2fff4d2c:	f06f 030a 	mvn.w	r3, #10
2fff4d30:	f8c8 3000 	str.w	r3, [r8]
2fff4d34:	1d34      	adds	r4, r6, #4
2fff4d36:	ba3f      	rev	r7, r7
2fff4d38:	1e7b      	subs	r3, r7, #1
2fff4d3a:	2b08      	cmp	r3, #8
2fff4d3c:	d806      	bhi.n	2fff4d4c <fdt_next_tag+0x3a>
2fff4d3e:	e8df f003 	tbb	[pc, r3]
2fff4d42:	1409      	.short	0x1409
2fff4d44:	05051421 	.word	0x05051421
2fff4d48:	0505      	.short	0x0505
2fff4d4a:	14          	.byte	0x14
2fff4d4b:	00          	.byte	0x00
2fff4d4c:	2709      	movs	r7, #9
2fff4d4e:	4638      	mov	r0, r7
2fff4d50:	e8bd 83f8 	ldmia.w	sp!, {r3, r4, r5, r6, r7, r8, r9, pc}
2fff4d54:	4621      	mov	r1, r4
2fff4d56:	2201      	movs	r2, #1
2fff4d58:	4414      	add	r4, r2
2fff4d5a:	4628      	mov	r0, r5
2fff4d5c:	f7ff ffaf 	bl	2fff4cbe <fdt_offset_ptr>
2fff4d60:	2800      	cmp	r0, #0
2fff4d62:	d0f3      	beq.n	2fff4d4c <fdt_next_tag+0x3a>
2fff4d64:	7803      	ldrb	r3, [r0, #0]
2fff4d66:	2b00      	cmp	r3, #0
2fff4d68:	d1f4      	bne.n	2fff4d54 <fdt_next_tag+0x42>
2fff4d6a:	1ba2      	subs	r2, r4, r6
2fff4d6c:	4631      	mov	r1, r6
2fff4d6e:	4628      	mov	r0, r5
2fff4d70:	f7ff ffa5 	bl	2fff4cbe <fdt_offset_ptr>
2fff4d74:	2800      	cmp	r0, #0
2fff4d76:	d0e9      	beq.n	2fff4d4c <fdt_next_tag+0x3a>
2fff4d78:	3403      	adds	r4, #3
2fff4d7a:	f024 0403 	bic.w	r4, r4, #3
2fff4d7e:	f8c8 4000 	str.w	r4, [r8]
2fff4d82:	e7e4      	b.n	2fff4d4e <fdt_next_tag+0x3c>
2fff4d84:	2204      	movs	r2, #4
2fff4d86:	4621      	mov	r1, r4
2fff4d88:	4628      	mov	r0, r5
2fff4d8a:	f7ff ff98 	bl	2fff4cbe <fdt_offset_ptr>
2fff4d8e:	2800      	cmp	r0, #0
2fff4d90:	d0dc      	beq.n	2fff4d4c <fdt_next_tag+0x3a>
2fff4d92:	6801      	ldr	r1, [r0, #0]
2fff4d94:	f105 0014 	add.w	r0, r5, #20
2fff4d98:	f106 090c 	add.w	r9, r6, #12
2fff4d9c:	f7ff ff6e 	bl	2fff4c7c <fdt32_ld>
2fff4da0:	ba09      	rev	r1, r1
2fff4da2:	280f      	cmp	r0, #15
2fff4da4:	eb09 0401 	add.w	r4, r9, r1
2fff4da8:	d8df      	bhi.n	2fff4d6a <fdt_next_tag+0x58>
2fff4daa:	2907      	cmp	r1, #7
2fff4dac:	d9dd      	bls.n	2fff4d6a <fdt_next_tag+0x58>
2fff4dae:	f019 0f07 	tst.w	r9, #7
2fff4db2:	bf18      	it	ne
2fff4db4:	3404      	addne	r4, #4
2fff4db6:	e7d8      	b.n	2fff4d6a <fdt_next_tag+0x58>

2fff4db8 <fdt_check_node_offset_>:
2fff4db8:	1e0b      	subs	r3, r1, #0
2fff4dba:	b507      	push	{r0, r1, r2, lr}
2fff4dbc:	9101      	str	r1, [sp, #4]
2fff4dbe:	da04      	bge.n	2fff4dca <fdt_check_node_offset_+0x12>
2fff4dc0:	f06f 0003 	mvn.w	r0, #3
2fff4dc4:	b003      	add	sp, #12
2fff4dc6:	f85d fb04 	ldr.w	pc, [sp], #4
2fff4dca:	079b      	lsls	r3, r3, #30
2fff4dcc:	d1f8      	bne.n	2fff4dc0 <fdt_check_node_offset_+0x8>
2fff4dce:	aa01      	add	r2, sp, #4
2fff4dd0:	f7ff ff9f 	bl	2fff4d12 <fdt_next_tag>
2fff4dd4:	2801      	cmp	r0, #1
2fff4dd6:	d1f3      	bne.n	2fff4dc0 <fdt_check_node_offset_+0x8>
2fff4dd8:	9801      	ldr	r0, [sp, #4]
2fff4dda:	e7f3      	b.n	2fff4dc4 <fdt_check_node_offset_+0xc>

2fff4ddc <fdt_check_prop_offset_>:
2fff4ddc:	1e0b      	subs	r3, r1, #0
2fff4dde:	b507      	push	{r0, r1, r2, lr}
2fff4de0:	9101      	str	r1, [sp, #4]
2fff4de2:	da04      	bge.n	2fff4dee <fdt_check_prop_offset_+0x12>
2fff4de4:	f06f 0003 	mvn.w	r0, #3
2fff4de8:	b003      	add	sp, #12
2fff4dea:	f85d fb04 	ldr.w	pc, [sp], #4
2fff4dee:	079b      	lsls	r3, r3, #30
2fff4df0:	d1f8      	bne.n	2fff4de4 <fdt_check_prop_offset_+0x8>
2fff4df2:	aa01      	add	r2, sp, #4
2fff4df4:	f7ff ff8d 	bl	2fff4d12 <fdt_next_tag>
2fff4df8:	2803      	cmp	r0, #3
2fff4dfa:	d1f3      	bne.n	2fff4de4 <fdt_check_prop_offset_+0x8>
2fff4dfc:	9801      	ldr	r0, [sp, #4]
2fff4dfe:	e7f3      	b.n	2fff4de8 <fdt_check_prop_offset_+0xc>

2fff4e00 <fdt_next_node>:
2fff4e00:	2300      	movs	r3, #0
2fff4e02:	4299      	cmp	r1, r3
2fff4e04:	b573      	push	{r0, r1, r4, r5, r6, lr}
2fff4e06:	4606      	mov	r6, r0
2fff4e08:	9301      	str	r3, [sp, #4]
2fff4e0a:	4615      	mov	r5, r2
2fff4e0c:	db05      	blt.n	2fff4e1a <fdt_next_node+0x1a>
2fff4e0e:	f7ff ffd3 	bl	2fff4db8 <fdt_check_node_offset_>
2fff4e12:	9001      	str	r0, [sp, #4]
2fff4e14:	2800      	cmp	r0, #0
2fff4e16:	4604      	mov	r4, r0
2fff4e18:	db0f      	blt.n	2fff4e3a <fdt_next_node+0x3a>
2fff4e1a:	9c01      	ldr	r4, [sp, #4]
2fff4e1c:	aa01      	add	r2, sp, #4
2fff4e1e:	4630      	mov	r0, r6
2fff4e20:	4621      	mov	r1, r4
2fff4e22:	f7ff ff76 	bl	2fff4d12 <fdt_next_tag>
2fff4e26:	2802      	cmp	r0, #2
2fff4e28:	d00a      	beq.n	2fff4e40 <fdt_next_node+0x40>
2fff4e2a:	2809      	cmp	r0, #9
2fff4e2c:	d011      	beq.n	2fff4e52 <fdt_next_node+0x52>
2fff4e2e:	2801      	cmp	r0, #1
2fff4e30:	d1f3      	bne.n	2fff4e1a <fdt_next_node+0x1a>
2fff4e32:	b115      	cbz	r5, 2fff4e3a <fdt_next_node+0x3a>
2fff4e34:	682b      	ldr	r3, [r5, #0]
2fff4e36:	3301      	adds	r3, #1
2fff4e38:	602b      	str	r3, [r5, #0]
2fff4e3a:	4620      	mov	r0, r4
2fff4e3c:	b002      	add	sp, #8
2fff4e3e:	bd70      	pop	{r4, r5, r6, pc}
2fff4e40:	2d00      	cmp	r5, #0
2fff4e42:	d0ea      	beq.n	2fff4e1a <fdt_next_node+0x1a>
2fff4e44:	682b      	ldr	r3, [r5, #0]
2fff4e46:	3b01      	subs	r3, #1
2fff4e48:	602b      	str	r3, [r5, #0]
2fff4e4a:	2b00      	cmp	r3, #0
2fff4e4c:	dae5      	bge.n	2fff4e1a <fdt_next_node+0x1a>
2fff4e4e:	9c01      	ldr	r4, [sp, #4]
2fff4e50:	e7f3      	b.n	2fff4e3a <fdt_next_node+0x3a>
2fff4e52:	9c01      	ldr	r4, [sp, #4]
2fff4e54:	2c00      	cmp	r4, #0
2fff4e56:	da07      	bge.n	2fff4e68 <fdt_next_node+0x68>
2fff4e58:	f114 0f08 	cmn.w	r4, #8
2fff4e5c:	d1ed      	bne.n	2fff4e3a <fdt_next_node+0x3a>
2fff4e5e:	2d00      	cmp	r5, #0
2fff4e60:	bf08      	it	eq
2fff4e62:	f04f 34ff 	moveq.w	r4, #4294967295	@ 0xffffffff
2fff4e66:	e7e8      	b.n	2fff4e3a <fdt_next_node+0x3a>
2fff4e68:	f04f 34ff 	mov.w	r4, #4294967295	@ 0xffffffff
2fff4e6c:	e7e5      	b.n	2fff4e3a <fdt_next_node+0x3a>

2fff4e6e <fdt_first_subnode>:
2fff4e6e:	b507      	push	{r0, r1, r2, lr}
2fff4e70:	2300      	movs	r3, #0
2fff4e72:	9301      	str	r3, [sp, #4]
2fff4e74:	aa01      	add	r2, sp, #4
2fff4e76:	f7ff ffc3 	bl	2fff4e00 <fdt_next_node>
2fff4e7a:	2800      	cmp	r0, #0
2fff4e7c:	db07      	blt.n	2fff4e8e <fdt_first_subnode+0x20>
2fff4e7e:	9b01      	ldr	r3, [sp, #4]
2fff4e80:	2b01      	cmp	r3, #1
2fff4e82:	bf18      	it	ne
2fff4e84:	f04f 30ff 	movne.w	r0, #4294967295	@ 0xffffffff
2fff4e88:	b003      	add	sp, #12
2fff4e8a:	f85d fb04 	ldr.w	pc, [sp], #4
2fff4e8e:	f04f 30ff 	mov.w	r0, #4294967295	@ 0xffffffff
2fff4e92:	e7f9      	b.n	2fff4e88 <fdt_first_subnode+0x1a>

2fff4e94 <fdt_next_subnode>:
2fff4e94:	b513      	push	{r0, r1, r4, lr}
2fff4e96:	4604      	mov	r4, r0
2fff4e98:	2301      	movs	r3, #1
2fff4e9a:	9301      	str	r3, [sp, #4]
2fff4e9c:	aa01      	add	r2, sp, #4
2fff4e9e:	4620      	mov	r0, r4
2fff4ea0:	f7ff ffae 	bl	2fff4e00 <fdt_next_node>
2fff4ea4:	1e01      	subs	r1, r0, #0
2fff4ea6:	db07      	blt.n	2fff4eb8 <fdt_next_subnode+0x24>
2fff4ea8:	9b01      	ldr	r3, [sp, #4]
2fff4eaa:	2b00      	cmp	r3, #0
2fff4eac:	dd04      	ble.n	2fff4eb8 <fdt_next_subnode+0x24>
2fff4eae:	2b01      	cmp	r3, #1
2fff4eb0:	d1f4      	bne.n	2fff4e9c <fdt_next_subnode+0x8>
2fff4eb2:	4608      	mov	r0, r1
2fff4eb4:	b002      	add	sp, #8
2fff4eb6:	bd10      	pop	{r4, pc}
2fff4eb8:	f04f 31ff 	mov.w	r1, #4294967295	@ 0xffffffff
2fff4ebc:	e7f9      	b.n	2fff4eb2 <fdt_next_subnode+0x1e>

2fff4ebe <fdt_cells>:
2fff4ebe:	b507      	push	{r0, r1, r2, lr}
2fff4ec0:	ab01      	add	r3, sp, #4
2fff4ec2:	f000 f945 	bl	2fff5150 <fdt_getprop>
2fff4ec6:	4603      	mov	r3, r0
2fff4ec8:	9801      	ldr	r0, [sp, #4]
2fff4eca:	b13b      	cbz	r3, 2fff4edc <fdt_cells+0x1e>
2fff4ecc:	2804      	cmp	r0, #4
2fff4ece:	d108      	bne.n	2fff4ee2 <fdt_cells+0x24>
2fff4ed0:	6818      	ldr	r0, [r3, #0]
2fff4ed2:	ba00      	rev	r0, r0
2fff4ed4:	2804      	cmp	r0, #4
2fff4ed6:	bf88      	it	hi
2fff4ed8:	f06f 000d 	mvnhi.w	r0, #13
2fff4edc:	b003      	add	sp, #12
2fff4ede:	f85d fb04 	ldr.w	pc, [sp], #4
2fff4ee2:	f06f 000d 	mvn.w	r0, #13
2fff4ee6:	e7f9      	b.n	2fff4edc <fdt_cells+0x1e>

2fff4ee8 <fdt32_ld>:
2fff4ee8:	7842      	ldrb	r2, [r0, #1]
2fff4eea:	7803      	ldrb	r3, [r0, #0]
2fff4eec:	ea43 2302 	orr.w	r3, r3, r2, lsl #8
2fff4ef0:	7882      	ldrb	r2, [r0, #2]
2fff4ef2:	ea43 4302 	orr.w	r3, r3, r2, lsl #16
2fff4ef6:	78c2      	ldrb	r2, [r0, #3]
2fff4ef8:	ea43 6002 	orr.w	r0, r3, r2, lsl #24
2fff4efc:	ba00      	rev	r0, r0
2fff4efe:	4770      	bx	lr

2fff4f00 <nextprop_>:
2fff4f00:	b537      	push	{r0, r1, r2, r4, r5, lr}
2fff4f02:	4605      	mov	r5, r0
2fff4f04:	460c      	mov	r4, r1
2fff4f06:	aa01      	add	r2, sp, #4
2fff4f08:	4621      	mov	r1, r4
2fff4f0a:	4628      	mov	r0, r5
2fff4f0c:	f7ff ff01 	bl	2fff4d12 <fdt_next_tag>
2fff4f10:	2803      	cmp	r0, #3
2fff4f12:	d006      	beq.n	2fff4f22 <nextprop_+0x22>
2fff4f14:	9c01      	ldr	r4, [sp, #4]
2fff4f16:	2809      	cmp	r0, #9
2fff4f18:	d106      	bne.n	2fff4f28 <nextprop_+0x28>
2fff4f1a:	2c00      	cmp	r4, #0
2fff4f1c:	bfa8      	it	ge
2fff4f1e:	f06f 040a 	mvnge.w	r4, #10
2fff4f22:	4620      	mov	r0, r4
2fff4f24:	b003      	add	sp, #12
2fff4f26:	bd30      	pop	{r4, r5, pc}
2fff4f28:	2804      	cmp	r0, #4
2fff4f2a:	d0ec      	beq.n	2fff4f06 <nextprop_+0x6>
2fff4f2c:	f04f 34ff 	mov.w	r4, #4294967295	@ 0xffffffff
2fff4f30:	e7f7      	b.n	2fff4f22 <nextprop_+0x22>

2fff4f32 <fdt32_ld_.isra.0>:
2fff4f32:	ba00      	rev	r0, r0
2fff4f34:	4770      	bx	lr

2fff4f36 <fdt_get_property_by_offset_>:
2fff4f36:	b570      	push	{r4, r5, r6, lr}
2fff4f38:	4604      	mov	r4, r0
2fff4f3a:	460e      	mov	r6, r1
2fff4f3c:	4615      	mov	r5, r2
2fff4f3e:	f7ff ff4d 	bl	2fff4ddc <fdt_check_prop_offset_>
2fff4f42:	2800      	cmp	r0, #0
2fff4f44:	da04      	bge.n	2fff4f50 <fdt_get_property_by_offset_+0x1a>
2fff4f46:	b105      	cbz	r5, 2fff4f4a <fdt_get_property_by_offset_+0x14>
2fff4f48:	6028      	str	r0, [r5, #0]
2fff4f4a:	2400      	movs	r4, #0
2fff4f4c:	4620      	mov	r0, r4
2fff4f4e:	bd70      	pop	{r4, r5, r6, pc}
2fff4f50:	f104 0008 	add.w	r0, r4, #8
2fff4f54:	f7ff ffc8 	bl	2fff4ee8 <fdt32_ld>
2fff4f58:	4406      	add	r6, r0
2fff4f5a:	4434      	add	r4, r6
2fff4f5c:	2d00      	cmp	r5, #0
2fff4f5e:	d0f5      	beq.n	2fff4f4c <fdt_get_property_by_offset_+0x16>
2fff4f60:	6860      	ldr	r0, [r4, #4]
2fff4f62:	f7ff ffe6 	bl	2fff4f32 <fdt32_ld_.isra.0>
2fff4f66:	6028      	str	r0, [r5, #0]
2fff4f68:	e7f0      	b.n	2fff4f4c <fdt_get_property_by_offset_+0x16>

2fff4f6a <fdt_get_name>:
2fff4f6a:	b5f8      	push	{r3, r4, r5, r6, r7, lr}
2fff4f6c:	4606      	mov	r6, r0
2fff4f6e:	3008      	adds	r0, #8
2fff4f70:	4615      	mov	r5, r2
2fff4f72:	460c      	mov	r4, r1
2fff4f74:	f7ff ffb8 	bl	2fff4ee8 <fdt32_ld>
2fff4f78:	4607      	mov	r7, r0
2fff4f7a:	4630      	mov	r0, r6
2fff4f7c:	f7fe fa84 	bl	2fff3488 <fdt_ro_probe_>
2fff4f80:	2800      	cmp	r0, #0
2fff4f82:	db1e      	blt.n	2fff4fc2 <fdt_get_name+0x58>
2fff4f84:	4621      	mov	r1, r4
2fff4f86:	4630      	mov	r0, r6
2fff4f88:	f7ff ff16 	bl	2fff4db8 <fdt_check_node_offset_>
2fff4f8c:	2800      	cmp	r0, #0
2fff4f8e:	db18      	blt.n	2fff4fc2 <fdt_get_name+0x58>
2fff4f90:	443c      	add	r4, r7
2fff4f92:	f106 0014 	add.w	r0, r6, #20
2fff4f96:	4434      	add	r4, r6
2fff4f98:	f7ff ffa6 	bl	2fff4ee8 <fdt32_ld>
2fff4f9c:	280f      	cmp	r0, #15
2fff4f9e:	f104 0404 	add.w	r4, r4, #4
2fff4fa2:	d805      	bhi.n	2fff4fb0 <fdt_get_name+0x46>
2fff4fa4:	212f      	movs	r1, #47	@ 0x2f
2fff4fa6:	4620      	mov	r0, r4
2fff4fa8:	f000 fb90 	bl	2fff56cc <strrchr>
2fff4fac:	b138      	cbz	r0, 2fff4fbe <fdt_get_name+0x54>
2fff4fae:	1c44      	adds	r4, r0, #1
2fff4fb0:	b11d      	cbz	r5, 2fff4fba <fdt_get_name+0x50>
2fff4fb2:	4620      	mov	r0, r4
2fff4fb4:	f000 fb64 	bl	2fff5680 <strlen>
2fff4fb8:	6028      	str	r0, [r5, #0]
2fff4fba:	4620      	mov	r0, r4
2fff4fbc:	bdf8      	pop	{r3, r4, r5, r6, r7, pc}
2fff4fbe:	f06f 000a 	mvn.w	r0, #10
2fff4fc2:	b90d      	cbnz	r5, 2fff4fc8 <fdt_get_name+0x5e>
2fff4fc4:	2400      	movs	r4, #0
2fff4fc6:	e7f8      	b.n	2fff4fba <fdt_get_name+0x50>
2fff4fc8:	6028      	str	r0, [r5, #0]
2fff4fca:	e7fb      	b.n	2fff4fc4 <fdt_get_name+0x5a>

2fff4fcc <fdt_subnode_offset_namelen>:
2fff4fcc:	e92d 41f3 	stmdb	sp!, {r0, r1, r4, r5, r6, r7, r8, lr}
2fff4fd0:	4607      	mov	r7, r0
2fff4fd2:	460e      	mov	r6, r1
2fff4fd4:	4690      	mov	r8, r2
2fff4fd6:	461d      	mov	r5, r3
2fff4fd8:	f7fe fa56 	bl	2fff3488 <fdt_ro_probe_>
2fff4fdc:	1e04      	subs	r4, r0, #0
2fff4fde:	db0a      	blt.n	2fff4ff6 <fdt_subnode_offset_namelen+0x2a>
2fff4fe0:	4634      	mov	r4, r6
2fff4fe2:	2300      	movs	r3, #0
2fff4fe4:	9300      	str	r3, [sp, #0]
2fff4fe6:	9b00      	ldr	r3, [sp, #0]
2fff4fe8:	ea54 0203 	orrs.w	r2, r4, r3
2fff4fec:	d507      	bpl.n	2fff4ffe <fdt_subnode_offset_namelen+0x32>
2fff4fee:	2b00      	cmp	r3, #0
2fff4ff0:	bfb8      	it	lt
2fff4ff2:	f04f 34ff 	movlt.w	r4, #4294967295	@ 0xffffffff
2fff4ff6:	4620      	mov	r0, r4
2fff4ff8:	b002      	add	sp, #8
2fff4ffa:	e8bd 81f0 	ldmia.w	sp!, {r4, r5, r6, r7, r8, pc}
2fff4ffe:	2b01      	cmp	r3, #1
2fff5000:	d11a      	bne.n	2fff5038 <fdt_subnode_offset_namelen+0x6c>
2fff5002:	aa01      	add	r2, sp, #4
2fff5004:	4621      	mov	r1, r4
2fff5006:	4638      	mov	r0, r7
2fff5008:	f7ff ffaf 	bl	2fff4f6a <fdt_get_name>
2fff500c:	4606      	mov	r6, r0
2fff500e:	b198      	cbz	r0, 2fff5038 <fdt_subnode_offset_namelen+0x6c>
2fff5010:	9b01      	ldr	r3, [sp, #4]
2fff5012:	429d      	cmp	r5, r3
2fff5014:	dc10      	bgt.n	2fff5038 <fdt_subnode_offset_namelen+0x6c>
2fff5016:	462a      	mov	r2, r5
2fff5018:	4641      	mov	r1, r8
2fff501a:	f000 f9f6 	bl	2fff540a <memcmp>
2fff501e:	b958      	cbnz	r0, 2fff5038 <fdt_subnode_offset_namelen+0x6c>
2fff5020:	5d73      	ldrb	r3, [r6, r5]
2fff5022:	2b00      	cmp	r3, #0
2fff5024:	d0e7      	beq.n	2fff4ff6 <fdt_subnode_offset_namelen+0x2a>
2fff5026:	462a      	mov	r2, r5
2fff5028:	2140      	movs	r1, #64	@ 0x40
2fff502a:	4640      	mov	r0, r8
2fff502c:	f000 f9df 	bl	2fff53ee <memchr>
2fff5030:	b910      	cbnz	r0, 2fff5038 <fdt_subnode_offset_namelen+0x6c>
2fff5032:	5d73      	ldrb	r3, [r6, r5]
2fff5034:	2b40      	cmp	r3, #64	@ 0x40
2fff5036:	d0de      	beq.n	2fff4ff6 <fdt_subnode_offset_namelen+0x2a>
2fff5038:	4621      	mov	r1, r4
2fff503a:	466a      	mov	r2, sp
2fff503c:	4638      	mov	r0, r7
2fff503e:	f7ff fedf 	bl	2fff4e00 <fdt_next_node>
2fff5042:	4604      	mov	r4, r0
2fff5044:	e7cf      	b.n	2fff4fe6 <fdt_subnode_offset_namelen+0x1a>

2fff5046 <fdt_subnode_offset>:
2fff5046:	b570      	push	{r4, r5, r6, lr}
2fff5048:	4605      	mov	r5, r0
2fff504a:	4610      	mov	r0, r2
2fff504c:	460e      	mov	r6, r1
2fff504e:	4614      	mov	r4, r2
2fff5050:	f000 fb16 	bl	2fff5680 <strlen>
2fff5054:	4603      	mov	r3, r0
2fff5056:	4622      	mov	r2, r4
2fff5058:	4631      	mov	r1, r6
2fff505a:	4628      	mov	r0, r5
2fff505c:	e8bd 4070 	ldmia.w	sp!, {r4, r5, r6, lr}
2fff5060:	f7ff bfb4 	b.w	2fff4fcc <fdt_subnode_offset_namelen>

2fff5064 <fdt_first_property_offset>:
2fff5064:	b510      	push	{r4, lr}
2fff5066:	4604      	mov	r4, r0
2fff5068:	f7ff fea6 	bl	2fff4db8 <fdt_check_node_offset_>
2fff506c:	1e01      	subs	r1, r0, #0
2fff506e:	db04      	blt.n	2fff507a <fdt_first_property_offset+0x16>
2fff5070:	4620      	mov	r0, r4
2fff5072:	e8bd 4010 	ldmia.w	sp!, {r4, lr}
2fff5076:	f7ff bf43 	b.w	2fff4f00 <nextprop_>
2fff507a:	bd10      	pop	{r4, pc}

2fff507c <fdt_next_property_offset>:
2fff507c:	b510      	push	{r4, lr}
2fff507e:	4604      	mov	r4, r0
2fff5080:	f7ff feac 	bl	2fff4ddc <fdt_check_prop_offset_>
2fff5084:	1e01      	subs	r1, r0, #0
2fff5086:	db04      	blt.n	2fff5092 <fdt_next_property_offset+0x16>
2fff5088:	4620      	mov	r0, r4
2fff508a:	e8bd 4010 	ldmia.w	sp!, {r4, lr}
2fff508e:	f7ff bf37 	b.w	2fff4f00 <nextprop_>
2fff5092:	bd10      	pop	{r4, pc}

2fff5094 <fdt_get_property_namelen_>:
2fff5094:	e92d 47f3 	stmdb	sp!, {r0, r1, r4, r5, r6, r7, r8, r9, sl, lr}
2fff5098:	4606      	mov	r6, r0
2fff509a:	4691      	mov	r9, r2
2fff509c:	461f      	mov	r7, r3
2fff509e:	e9dd 8a0a 	ldrd	r8, sl, [sp, #40]	@ 0x28
2fff50a2:	f7ff ffdf 	bl	2fff5064 <fdt_first_property_offset>
2fff50a6:	2800      	cmp	r0, #0
2fff50a8:	4604      	mov	r4, r0
2fff50aa:	da04      	bge.n	2fff50b6 <fdt_get_property_namelen_+0x22>
2fff50ac:	f1b8 0f00 	cmp.w	r8, #0
2fff50b0:	d12b      	bne.n	2fff510a <fdt_get_property_namelen_+0x76>
2fff50b2:	2500      	movs	r5, #0
2fff50b4:	e022      	b.n	2fff50fc <fdt_get_property_namelen_+0x68>
2fff50b6:	4642      	mov	r2, r8
2fff50b8:	4621      	mov	r1, r4
2fff50ba:	4630      	mov	r0, r6
2fff50bc:	f7ff ff3b 	bl	2fff4f36 <fdt_get_property_by_offset_>
2fff50c0:	4605      	mov	r5, r0
2fff50c2:	b1f8      	cbz	r0, 2fff5104 <fdt_get_property_namelen_+0x70>
2fff50c4:	6880      	ldr	r0, [r0, #8]
2fff50c6:	aa01      	add	r2, sp, #4
2fff50c8:	f7ff ff33 	bl	2fff4f32 <fdt32_ld_.isra.0>
2fff50cc:	4601      	mov	r1, r0
2fff50ce:	4630      	mov	r0, r6
2fff50d0:	f7fe fa88 	bl	2fff35e4 <fdt_get_string>
2fff50d4:	b110      	cbz	r0, 2fff50dc <fdt_get_property_namelen_+0x48>
2fff50d6:	9b01      	ldr	r3, [sp, #4]
2fff50d8:	429f      	cmp	r7, r3
2fff50da:	d004      	beq.n	2fff50e6 <fdt_get_property_namelen_+0x52>
2fff50dc:	4621      	mov	r1, r4
2fff50de:	4630      	mov	r0, r6
2fff50e0:	f7ff ffcc 	bl	2fff507c <fdt_next_property_offset>
2fff50e4:	e7df      	b.n	2fff50a6 <fdt_get_property_namelen_+0x12>
2fff50e6:	463a      	mov	r2, r7
2fff50e8:	4649      	mov	r1, r9
2fff50ea:	f000 f98e 	bl	2fff540a <memcmp>
2fff50ee:	2800      	cmp	r0, #0
2fff50f0:	d1f4      	bne.n	2fff50dc <fdt_get_property_namelen_+0x48>
2fff50f2:	f1ba 0f00 	cmp.w	sl, #0
2fff50f6:	d001      	beq.n	2fff50fc <fdt_get_property_namelen_+0x68>
2fff50f8:	f8ca 4000 	str.w	r4, [sl]
2fff50fc:	4628      	mov	r0, r5
2fff50fe:	b002      	add	sp, #8
2fff5100:	e8bd 87f0 	ldmia.w	sp!, {r4, r5, r6, r7, r8, r9, sl, pc}
2fff5104:	f06f 040c 	mvn.w	r4, #12
2fff5108:	e7d0      	b.n	2fff50ac <fdt_get_property_namelen_+0x18>
2fff510a:	f8c8 4000 	str.w	r4, [r8]
2fff510e:	e7d0      	b.n	2fff50b2 <fdt_get_property_namelen_+0x1e>

2fff5110 <fdt_getprop_namelen>:
2fff5110:	b530      	push	{r4, r5, lr}
2fff5112:	b085      	sub	sp, #20
2fff5114:	ad03      	add	r5, sp, #12
2fff5116:	4604      	mov	r4, r0
2fff5118:	9501      	str	r5, [sp, #4]
2fff511a:	9d08      	ldr	r5, [sp, #32]
2fff511c:	9500      	str	r5, [sp, #0]
2fff511e:	f7ff ffb9 	bl	2fff5094 <fdt_get_property_namelen_>
2fff5122:	4601      	mov	r1, r0
2fff5124:	b178      	cbz	r0, 2fff5146 <fdt_getprop_namelen+0x36>
2fff5126:	f104 0014 	add.w	r0, r4, #20
2fff512a:	f7ff fedd 	bl	2fff4ee8 <fdt32_ld>
2fff512e:	280f      	cmp	r0, #15
2fff5130:	d80c      	bhi.n	2fff514c <fdt_getprop_namelen+0x3c>
2fff5132:	9b03      	ldr	r3, [sp, #12]
2fff5134:	330c      	adds	r3, #12
2fff5136:	075b      	lsls	r3, r3, #29
2fff5138:	d008      	beq.n	2fff514c <fdt_getprop_namelen+0x3c>
2fff513a:	6848      	ldr	r0, [r1, #4]
2fff513c:	f7ff fef9 	bl	2fff4f32 <fdt32_ld_.isra.0>
2fff5140:	2807      	cmp	r0, #7
2fff5142:	d903      	bls.n	2fff514c <fdt_getprop_namelen+0x3c>
2fff5144:	3110      	adds	r1, #16
2fff5146:	4608      	mov	r0, r1
2fff5148:	b005      	add	sp, #20
2fff514a:	bd30      	pop	{r4, r5, pc}
2fff514c:	310c      	adds	r1, #12
2fff514e:	e7fa      	b.n	2fff5146 <fdt_getprop_namelen+0x36>

2fff5150 <fdt_getprop>:
2fff5150:	b5f7      	push	{r0, r1, r2, r4, r5, r6, r7, lr}
2fff5152:	4605      	mov	r5, r0
2fff5154:	4610      	mov	r0, r2
2fff5156:	461f      	mov	r7, r3
2fff5158:	460e      	mov	r6, r1
2fff515a:	4614      	mov	r4, r2
2fff515c:	f000 fa90 	bl	2fff5680 <strlen>
2fff5160:	9700      	str	r7, [sp, #0]
2fff5162:	4603      	mov	r3, r0
2fff5164:	4622      	mov	r2, r4
2fff5166:	4631      	mov	r1, r6
2fff5168:	4628      	mov	r0, r5
2fff516a:	f7ff ffd1 	bl	2fff5110 <fdt_getprop_namelen>
2fff516e:	b003      	add	sp, #12
2fff5170:	bdf0      	pop	{r4, r5, r6, r7, pc}

2fff5172 <fdt_path_offset_namelen>:
2fff5172:	e92d 41f0 	stmdb	sp!, {r4, r5, r6, r7, r8, lr}
2fff5176:	4607      	mov	r7, r0
2fff5178:	460c      	mov	r4, r1
2fff517a:	4690      	mov	r8, r2
2fff517c:	f7fe f984 	bl	2fff3488 <fdt_ro_probe_>
2fff5180:	1e05      	subs	r5, r0, #0
2fff5182:	db38      	blt.n	2fff51f6 <fdt_path_offset_namelen+0x84>
2fff5184:	7823      	ldrb	r3, [r4, #0]
2fff5186:	eb04 0608 	add.w	r6, r4, r8
2fff518a:	2b2f      	cmp	r3, #47	@ 0x2f
2fff518c:	d036      	beq.n	2fff51fc <fdt_path_offset_namelen+0x8a>
2fff518e:	4642      	mov	r2, r8
2fff5190:	212f      	movs	r1, #47	@ 0x2f
2fff5192:	4620      	mov	r0, r4
2fff5194:	f000 f92b 	bl	2fff53ee <memchr>
2fff5198:	2800      	cmp	r0, #0
2fff519a:	bf14      	ite	ne
2fff519c:	4680      	movne	r8, r0
2fff519e:	46b0      	moveq	r8, r6
2fff51a0:	4621      	mov	r1, r4
2fff51a2:	eba8 0204 	sub.w	r2, r8, r4
2fff51a6:	4638      	mov	r0, r7
2fff51a8:	f7fe fa96 	bl	2fff36d8 <fdt_get_alias_namelen>
2fff51ac:	4601      	mov	r1, r0
2fff51ae:	b338      	cbz	r0, 2fff5200 <fdt_path_offset_namelen+0x8e>
2fff51b0:	4638      	mov	r0, r7
2fff51b2:	4644      	mov	r4, r8
2fff51b4:	f000 f827 	bl	2fff5206 <fdt_path_offset>
2fff51b8:	4605      	mov	r5, r0
2fff51ba:	42b4      	cmp	r4, r6
2fff51bc:	d302      	bcc.n	2fff51c4 <fdt_path_offset_namelen+0x52>
2fff51be:	e01a      	b.n	2fff51f6 <fdt_path_offset_namelen+0x84>
2fff51c0:	42a6      	cmp	r6, r4
2fff51c2:	d018      	beq.n	2fff51f6 <fdt_path_offset_namelen+0x84>
2fff51c4:	46a0      	mov	r8, r4
2fff51c6:	3401      	adds	r4, #1
2fff51c8:	f898 3000 	ldrb.w	r3, [r8]
2fff51cc:	2b2f      	cmp	r3, #47	@ 0x2f
2fff51ce:	d0f7      	beq.n	2fff51c0 <fdt_path_offset_namelen+0x4e>
2fff51d0:	eba6 0208 	sub.w	r2, r6, r8
2fff51d4:	212f      	movs	r1, #47	@ 0x2f
2fff51d6:	4640      	mov	r0, r8
2fff51d8:	f000 f909 	bl	2fff53ee <memchr>
2fff51dc:	2800      	cmp	r0, #0
2fff51de:	bf14      	ite	ne
2fff51e0:	4604      	movne	r4, r0
2fff51e2:	4634      	moveq	r4, r6
2fff51e4:	4629      	mov	r1, r5
2fff51e6:	eba4 0308 	sub.w	r3, r4, r8
2fff51ea:	4642      	mov	r2, r8
2fff51ec:	4638      	mov	r0, r7
2fff51ee:	f7ff feed 	bl	2fff4fcc <fdt_subnode_offset_namelen>
2fff51f2:	1e05      	subs	r5, r0, #0
2fff51f4:	dae1      	bge.n	2fff51ba <fdt_path_offset_namelen+0x48>
2fff51f6:	4628      	mov	r0, r5
2fff51f8:	e8bd 81f0 	ldmia.w	sp!, {r4, r5, r6, r7, r8, pc}
2fff51fc:	2500      	movs	r5, #0
2fff51fe:	e7dc      	b.n	2fff51ba <fdt_path_offset_namelen+0x48>
2fff5200:	f06f 0504 	mvn.w	r5, #4
2fff5204:	e7f7      	b.n	2fff51f6 <fdt_path_offset_namelen+0x84>

2fff5206 <fdt_path_offset>:
2fff5206:	b538      	push	{r3, r4, r5, lr}
2fff5208:	4605      	mov	r5, r0
2fff520a:	4608      	mov	r0, r1
2fff520c:	460c      	mov	r4, r1
2fff520e:	f000 fa37 	bl	2fff5680 <strlen>
2fff5212:	4602      	mov	r2, r0
2fff5214:	4621      	mov	r1, r4
2fff5216:	4628      	mov	r0, r5
2fff5218:	e8bd 4038 	ldmia.w	sp!, {r3, r4, r5, lr}
2fff521c:	f7ff bfa9 	b.w	2fff5172 <fdt_path_offset_namelen>

2fff5220 <fdt_supernode_atdepth_offset>:
2fff5220:	e92d 41f3 	stmdb	sp!, {r0, r1, r4, r5, r6, r7, r8, lr}
2fff5224:	4607      	mov	r7, r0
2fff5226:	460c      	mov	r4, r1
2fff5228:	4615      	mov	r5, r2
2fff522a:	461e      	mov	r6, r3
2fff522c:	f7fe f92c 	bl	2fff3488 <fdt_ro_probe_>
2fff5230:	2800      	cmp	r0, #0
2fff5232:	db03      	blt.n	2fff523c <fdt_supernode_atdepth_offset+0x1c>
2fff5234:	2d00      	cmp	r5, #0
2fff5236:	da04      	bge.n	2fff5242 <fdt_supernode_atdepth_offset+0x22>
2fff5238:	f04f 30ff 	mov.w	r0, #4294967295	@ 0xffffffff
2fff523c:	b002      	add	sp, #8
2fff523e:	e8bd 81f0 	ldmia.w	sp!, {r4, r5, r6, r7, r8, pc}
2fff5242:	2000      	movs	r0, #0
2fff5244:	4284      	cmp	r4, r0
2fff5246:	9001      	str	r0, [sp, #4]
2fff5248:	db16      	blt.n	2fff5278 <fdt_supernode_atdepth_offset+0x58>
2fff524a:	f06f 080c 	mvn.w	r8, #12
2fff524e:	9b01      	ldr	r3, [sp, #4]
2fff5250:	42ab      	cmp	r3, r5
2fff5252:	bf08      	it	eq
2fff5254:	4680      	moveq	r8, r0
2fff5256:	4284      	cmp	r4, r0
2fff5258:	d105      	bne.n	2fff5266 <fdt_supernode_atdepth_offset+0x46>
2fff525a:	b106      	cbz	r6, 2fff525e <fdt_supernode_atdepth_offset+0x3e>
2fff525c:	6033      	str	r3, [r6, #0]
2fff525e:	42ab      	cmp	r3, r5
2fff5260:	dbea      	blt.n	2fff5238 <fdt_supernode_atdepth_offset+0x18>
2fff5262:	4640      	mov	r0, r8
2fff5264:	e7ea      	b.n	2fff523c <fdt_supernode_atdepth_offset+0x1c>
2fff5266:	4601      	mov	r1, r0
2fff5268:	aa01      	add	r2, sp, #4
2fff526a:	4638      	mov	r0, r7
2fff526c:	f7ff fdc8 	bl	2fff4e00 <fdt_next_node>
2fff5270:	2800      	cmp	r0, #0
2fff5272:	db04      	blt.n	2fff527e <fdt_supernode_atdepth_offset+0x5e>
2fff5274:	4284      	cmp	r4, r0
2fff5276:	daea      	bge.n	2fff524e <fdt_supernode_atdepth_offset+0x2e>
2fff5278:	f06f 0003 	mvn.w	r0, #3
2fff527c:	e7de      	b.n	2fff523c <fdt_supernode_atdepth_offset+0x1c>
2fff527e:	1c42      	adds	r2, r0, #1
2fff5280:	d0fa      	beq.n	2fff5278 <fdt_supernode_atdepth_offset+0x58>
2fff5282:	1d03      	adds	r3, r0, #4
2fff5284:	bf08      	it	eq
2fff5286:	f06f 000a 	mvneq.w	r0, #10
2fff528a:	e7d7      	b.n	2fff523c <fdt_supernode_atdepth_offset+0x1c>

2fff528c <fdt_node_depth>:
2fff528c:	b507      	push	{r0, r1, r2, lr}
2fff528e:	2200      	movs	r2, #0
2fff5290:	ab01      	add	r3, sp, #4
2fff5292:	f7ff ffc5 	bl	2fff5220 <fdt_supernode_atdepth_offset>
2fff5296:	2800      	cmp	r0, #0
2fff5298:	d005      	beq.n	2fff52a6 <fdt_node_depth+0x1a>
2fff529a:	db01      	blt.n	2fff52a0 <fdt_node_depth+0x14>
2fff529c:	f06f 000c 	mvn.w	r0, #12
2fff52a0:	b003      	add	sp, #12
2fff52a2:	f85d fb04 	ldr.w	pc, [sp], #4
2fff52a6:	9801      	ldr	r0, [sp, #4]
2fff52a8:	e7fa      	b.n	2fff52a0 <fdt_node_depth+0x14>

2fff52aa <fdt_parent_offset>:
2fff52aa:	b570      	push	{r4, r5, r6, lr}
2fff52ac:	4604      	mov	r4, r0
2fff52ae:	460d      	mov	r5, r1
2fff52b0:	f7ff ffec 	bl	2fff528c <fdt_node_depth>
2fff52b4:	1e02      	subs	r2, r0, #0
2fff52b6:	db07      	blt.n	2fff52c8 <fdt_parent_offset+0x1e>
2fff52b8:	4629      	mov	r1, r5
2fff52ba:	4620      	mov	r0, r4
2fff52bc:	2300      	movs	r3, #0
2fff52be:	3a01      	subs	r2, #1
2fff52c0:	e8bd 4070 	ldmia.w	sp!, {r4, r5, r6, lr}
2fff52c4:	f7ff bfac 	b.w	2fff5220 <fdt_supernode_atdepth_offset>
2fff52c8:	bd70      	pop	{r4, r5, r6, pc}

2fff52ca <fdt_node_offset_by_phandle>:
2fff52ca:	1e4b      	subs	r3, r1, #1
2fff52cc:	3303      	adds	r3, #3
2fff52ce:	b570      	push	{r4, r5, r6, lr}
2fff52d0:	4605      	mov	r5, r0
2fff52d2:	460e      	mov	r6, r1
2fff52d4:	d817      	bhi.n	2fff5306 <fdt_node_offset_by_phandle+0x3c>
2fff52d6:	f7fe f8d7 	bl	2fff3488 <fdt_ro_probe_>
2fff52da:	1e04      	subs	r4, r0, #0
2fff52dc:	db08      	blt.n	2fff52f0 <fdt_node_offset_by_phandle+0x26>
2fff52de:	2200      	movs	r2, #0
2fff52e0:	f04f 31ff 	mov.w	r1, #4294967295	@ 0xffffffff
2fff52e4:	4628      	mov	r0, r5
2fff52e6:	f7ff fd8b 	bl	2fff4e00 <fdt_next_node>
2fff52ea:	2800      	cmp	r0, #0
2fff52ec:	4604      	mov	r4, r0
2fff52ee:	da01      	bge.n	2fff52f4 <fdt_node_offset_by_phandle+0x2a>
2fff52f0:	4620      	mov	r0, r4
2fff52f2:	bd70      	pop	{r4, r5, r6, pc}
2fff52f4:	4621      	mov	r1, r4
2fff52f6:	4628      	mov	r0, r5
2fff52f8:	f7fe f9cc 	bl	2fff3694 <fdt_get_phandle>
2fff52fc:	42b0      	cmp	r0, r6
2fff52fe:	d0f7      	beq.n	2fff52f0 <fdt_node_offset_by_phandle+0x26>
2fff5300:	2200      	movs	r2, #0
2fff5302:	4621      	mov	r1, r4
2fff5304:	e7ee      	b.n	2fff52e4 <fdt_node_offset_by_phandle+0x1a>
2fff5306:	f06f 0405 	mvn.w	r4, #5
2fff530a:	e7f1      	b.n	2fff52f0 <fdt_node_offset_by_phandle+0x26>

2fff530c <fdt_stringlist_contains>:
2fff530c:	e92d 41f0 	stmdb	sp!, {r4, r5, r6, r7, r8, lr}
2fff5310:	4604      	mov	r4, r0
2fff5312:	4610      	mov	r0, r2
2fff5314:	460d      	mov	r5, r1
2fff5316:	4617      	mov	r7, r2
2fff5318:	f000 f9b2 	bl	2fff5680 <strlen>
2fff531c:	4606      	mov	r6, r0
2fff531e:	f100 0801 	add.w	r8, r0, #1
2fff5322:	42b5      	cmp	r5, r6
2fff5324:	db0b      	blt.n	2fff533e <fdt_stringlist_contains+0x32>
2fff5326:	4642      	mov	r2, r8
2fff5328:	4621      	mov	r1, r4
2fff532a:	4638      	mov	r0, r7
2fff532c:	f000 f86d 	bl	2fff540a <memcmp>
2fff5330:	b168      	cbz	r0, 2fff534e <fdt_stringlist_contains+0x42>
2fff5332:	462a      	mov	r2, r5
2fff5334:	2100      	movs	r1, #0
2fff5336:	4620      	mov	r0, r4
2fff5338:	f000 f859 	bl	2fff53ee <memchr>
2fff533c:	b910      	cbnz	r0, 2fff5344 <fdt_stringlist_contains+0x38>
2fff533e:	2000      	movs	r0, #0
2fff5340:	e8bd 81f0 	ldmia.w	sp!, {r4, r5, r6, r7, r8, pc}
2fff5344:	1b04      	subs	r4, r0, r4
2fff5346:	3401      	adds	r4, #1
2fff5348:	1b2d      	subs	r5, r5, r4
2fff534a:	1c44      	adds	r4, r0, #1
2fff534c:	e7e9      	b.n	2fff5322 <fdt_stringlist_contains+0x16>
2fff534e:	2001      	movs	r0, #1
2fff5350:	e7f6      	b.n	2fff5340 <fdt_stringlist_contains+0x34>

2fff5352 <fdt_stringlist_search>:
2fff5352:	e92d 43f7 	stmdb	sp!, {r0, r1, r2, r4, r5, r6, r7, r8, r9, lr}
2fff5356:	4698      	mov	r8, r3
2fff5358:	ab01      	add	r3, sp, #4
2fff535a:	f7ff fef9 	bl	2fff5150 <fdt_getprop>
2fff535e:	4604      	mov	r4, r0
2fff5360:	b920      	cbnz	r0, 2fff536c <fdt_stringlist_search+0x1a>
2fff5362:	9d01      	ldr	r5, [sp, #4]
2fff5364:	4628      	mov	r0, r5
2fff5366:	b003      	add	sp, #12
2fff5368:	e8bd 83f0 	ldmia.w	sp!, {r4, r5, r6, r7, r8, r9, pc}
2fff536c:	4640      	mov	r0, r8
2fff536e:	2500      	movs	r5, #0
2fff5370:	f000 f986 	bl	2fff5680 <strlen>
2fff5374:	9e01      	ldr	r6, [sp, #4]
2fff5376:	1c47      	adds	r7, r0, #1
2fff5378:	4426      	add	r6, r4
2fff537a:	42b4      	cmp	r4, r6
2fff537c:	d302      	bcc.n	2fff5384 <fdt_stringlist_search+0x32>
2fff537e:	f04f 35ff 	mov.w	r5, #4294967295	@ 0xffffffff
2fff5382:	e7ef      	b.n	2fff5364 <fdt_stringlist_search+0x12>
2fff5384:	1b31      	subs	r1, r6, r4
2fff5386:	4620      	mov	r0, r4
2fff5388:	f000 f996 	bl	2fff56b8 <strnlen>
2fff538c:	3001      	adds	r0, #1
2fff538e:	eb04 0900 	add.w	r9, r4, r0
2fff5392:	45b1      	cmp	r9, r6
2fff5394:	9001      	str	r0, [sp, #4]
2fff5396:	d80c      	bhi.n	2fff53b2 <fdt_stringlist_search+0x60>
2fff5398:	42b8      	cmp	r0, r7
2fff539a:	d002      	beq.n	2fff53a2 <fdt_stringlist_search+0x50>
2fff539c:	3501      	adds	r5, #1
2fff539e:	464c      	mov	r4, r9
2fff53a0:	e7eb      	b.n	2fff537a <fdt_stringlist_search+0x28>
2fff53a2:	463a      	mov	r2, r7
2fff53a4:	4641      	mov	r1, r8
2fff53a6:	4620      	mov	r0, r4
2fff53a8:	f000 f82f 	bl	2fff540a <memcmp>
2fff53ac:	2800      	cmp	r0, #0
2fff53ae:	d1f5      	bne.n	2fff539c <fdt_stringlist_search+0x4a>
2fff53b0:	e7d8      	b.n	2fff5364 <fdt_stringlist_search+0x12>
2fff53b2:	f06f 050e 	mvn.w	r5, #14
2fff53b6:	e7d5      	b.n	2fff5364 <fdt_stringlist_search+0x12>

2fff53b8 <fdt_node_offset_by_compatible>:
2fff53b8:	b570      	push	{r4, r5, r6, lr}
2fff53ba:	4605      	mov	r5, r0
2fff53bc:	460c      	mov	r4, r1
2fff53be:	4616      	mov	r6, r2
2fff53c0:	f7fe f862 	bl	2fff3488 <fdt_ro_probe_>
2fff53c4:	2800      	cmp	r0, #0
2fff53c6:	db11      	blt.n	2fff53ec <fdt_node_offset_by_compatible+0x34>
2fff53c8:	4621      	mov	r1, r4
2fff53ca:	2200      	movs	r2, #0
2fff53cc:	4628      	mov	r0, r5
2fff53ce:	f7ff fd17 	bl	2fff4e00 <fdt_next_node>
2fff53d2:	2800      	cmp	r0, #0
2fff53d4:	4604      	mov	r4, r0
2fff53d6:	db08      	blt.n	2fff53ea <fdt_node_offset_by_compatible+0x32>
2fff53d8:	4632      	mov	r2, r6
2fff53da:	4621      	mov	r1, r4
2fff53dc:	4628      	mov	r0, r5
2fff53de:	f7fe f991 	bl	2fff3704 <fdt_node_check_compatible>
2fff53e2:	1c43      	adds	r3, r0, #1
2fff53e4:	db02      	blt.n	2fff53ec <fdt_node_offset_by_compatible+0x34>
2fff53e6:	2800      	cmp	r0, #0
2fff53e8:	d1ee      	bne.n	2fff53c8 <fdt_node_offset_by_compatible+0x10>
2fff53ea:	4620      	mov	r0, r4
2fff53ec:	bd70      	pop	{r4, r5, r6, pc}

2fff53ee <memchr>:
2fff53ee:	4402      	add	r2, r0
2fff53f0:	4603      	mov	r3, r0
2fff53f2:	b2c9      	uxtb	r1, r1
2fff53f4:	b510      	push	{r4, lr}
2fff53f6:	4618      	mov	r0, r3
2fff53f8:	4293      	cmp	r3, r2
2fff53fa:	d101      	bne.n	2fff5400 <memchr+0x12>
2fff53fc:	2000      	movs	r0, #0
2fff53fe:	e003      	b.n	2fff5408 <memchr+0x1a>
2fff5400:	7804      	ldrb	r4, [r0, #0]
2fff5402:	3301      	adds	r3, #1
2fff5404:	428c      	cmp	r4, r1
2fff5406:	d1f6      	bne.n	2fff53f6 <memchr+0x8>
2fff5408:	bd10      	pop	{r4, pc}

2fff540a <memcmp>:
2fff540a:	4402      	add	r2, r0
2fff540c:	b510      	push	{r4, lr}
2fff540e:	4290      	cmp	r0, r2
2fff5410:	d101      	bne.n	2fff5416 <memcmp+0xc>
2fff5412:	2000      	movs	r0, #0
2fff5414:	e006      	b.n	2fff5424 <memcmp+0x1a>
2fff5416:	f810 3b01 	ldrb.w	r3, [r0], #1
2fff541a:	f811 4b01 	ldrb.w	r4, [r1], #1
2fff541e:	42a3      	cmp	r3, r4
2fff5420:	d0f5      	beq.n	2fff540e <memcmp+0x4>
2fff5422:	1b18      	subs	r0, r3, r4
2fff5424:	bd10      	pop	{r4, pc}

2fff5426 <memcpy>:
2fff5426:	440a      	add	r2, r1
2fff5428:	1e43      	subs	r3, r0, #1
2fff542a:	b510      	push	{r4, lr}
2fff542c:	4291      	cmp	r1, r2
2fff542e:	d100      	bne.n	2fff5432 <memcpy+0xc>
2fff5430:	bd10      	pop	{r4, pc}
2fff5432:	f811 4b01 	ldrb.w	r4, [r1], #1
2fff5436:	f803 4f01 	strb.w	r4, [r3, #1]!
2fff543a:	e7f7      	b.n	2fff542c <memcpy+0x6>

2fff543c <memmove>:
2fff543c:	b470      	push	{r4, r5, r6}
2fff543e:	4613      	mov	r3, r2
2fff5440:	1a46      	subs	r6, r0, r1
2fff5442:	4605      	mov	r5, r0
2fff5444:	4296      	cmp	r6, r2
2fff5446:	460c      	mov	r4, r1
2fff5448:	d302      	bcc.n	2fff5450 <memmove+0x14>
2fff544a:	bc70      	pop	{r4, r5, r6}
2fff544c:	f7ff bfeb 	b.w	2fff5426 <memcpy>
2fff5450:	4414      	add	r4, r2
2fff5452:	4403      	add	r3, r0
2fff5454:	429d      	cmp	r5, r3
2fff5456:	d102      	bne.n	2fff545e <memmove+0x22>
2fff5458:	4628      	mov	r0, r5
2fff545a:	bc70      	pop	{r4, r5, r6}
2fff545c:	4770      	bx	lr
2fff545e:	f814 2d01 	ldrb.w	r2, [r4, #-1]!
2fff5462:	f803 2d01 	strb.w	r2, [r3, #-1]!
2fff5466:	e7f5      	b.n	2fff5454 <memmove+0x18>

2fff5468 <memset>:
2fff5468:	b570      	push	{r4, r5, r6, lr}
2fff546a:	b1ca      	cbz	r2, 2fff54a0 <memset+0x38>
2fff546c:	b2c9      	uxtb	r1, r1
2fff546e:	4603      	mov	r3, r0
2fff5470:	075c      	lsls	r4, r3, #29
2fff5472:	d111      	bne.n	2fff5498 <memset+0x30>
2fff5474:	f022 0407 	bic.w	r4, r2, #7
2fff5478:	f04f 3501 	mov.w	r5, #16843009	@ 0x1010101
2fff547c:	fba1 5605 	umull	r5, r6, r1, r5
2fff5480:	441c      	add	r4, r3
2fff5482:	442e      	add	r6, r5
2fff5484:	42a3      	cmp	r3, r4
2fff5486:	d10c      	bne.n	2fff54a2 <memset+0x3a>
2fff5488:	f002 0207 	and.w	r2, r2, #7
2fff548c:	4422      	add	r2, r4
2fff548e:	4294      	cmp	r4, r2
2fff5490:	d006      	beq.n	2fff54a0 <memset+0x38>
2fff5492:	f804 1b01 	strb.w	r1, [r4], #1
2fff5496:	e7fa      	b.n	2fff548e <memset+0x26>
2fff5498:	f803 1b01 	strb.w	r1, [r3], #1
2fff549c:	3a01      	subs	r2, #1
2fff549e:	d1e7      	bne.n	2fff5470 <memset+0x8>
2fff54a0:	bd70      	pop	{r4, r5, r6, pc}
2fff54a2:	e9c3 5600 	strd	r5, r6, [r3]
2fff54a6:	3308      	adds	r3, #8
2fff54a8:	e7ec      	b.n	2fff5484 <memset+0x1c>

2fff54aa <unsigned_num_print.part.0>:
2fff54aa:	e92d 4ff0 	stmdb	sp!, {r4, r5, r6, r7, r8, r9, sl, fp, lr}
2fff54ae:	b089      	sub	sp, #36	@ 0x24
2fff54b0:	f10d 0a0c 	add.w	sl, sp, #12
2fff54b4:	4605      	mov	r5, r0
2fff54b6:	9f12      	ldr	r7, [sp, #72]	@ 0x48
2fff54b8:	460c      	mov	r4, r1
2fff54ba:	9301      	str	r3, [sp, #4]
2fff54bc:	4690      	mov	r8, r2
2fff54be:	2600      	movs	r6, #0
2fff54c0:	46d3      	mov	fp, sl
2fff54c2:	4621      	mov	r1, r4
2fff54c4:	4642      	mov	r2, r8
2fff54c6:	2300      	movs	r3, #0
2fff54c8:	4628      	mov	r0, r5
2fff54ca:	f106 0901 	add.w	r9, r6, #1
2fff54ce:	f7fd efca 	blx	2fff3464 <__aeabi_uldivmod>
2fff54d2:	b2d3      	uxtb	r3, r2
2fff54d4:	2a09      	cmp	r2, #9
2fff54d6:	bf94      	ite	ls
2fff54d8:	3330      	addls	r3, #48	@ 0x30
2fff54da:	3357      	addhi	r3, #87	@ 0x57
2fff54dc:	4545      	cmp	r5, r8
2fff54de:	b2db      	uxtb	r3, r3
2fff54e0:	f174 0400 	sbcs.w	r4, r4, #0
2fff54e4:	f80a 3b01 	strb.w	r3, [sl], #1
2fff54e8:	d20e      	bcs.n	2fff5508 <unsigned_num_print.part.0+0x5e>
2fff54ea:	2f00      	cmp	r7, #0
2fff54ec:	dc1c      	bgt.n	2fff5528 <unsigned_num_print.part.0+0x7e>
2fff54ee:	2400      	movs	r4, #0
2fff54f0:	4635      	mov	r5, r6
2fff54f2:	f81b 0005 	ldrb.w	r0, [fp, r5]
2fff54f6:	f7fe fce2 	bl	2fff3ebe <putchar>
2fff54fa:	3d01      	subs	r5, #1
2fff54fc:	d2f9      	bcs.n	2fff54f2 <unsigned_num_print.part.0+0x48>
2fff54fe:	1c60      	adds	r0, r4, #1
2fff5500:	4430      	add	r0, r6
2fff5502:	b009      	add	sp, #36	@ 0x24
2fff5504:	e8bd 8ff0 	ldmia.w	sp!, {r4, r5, r6, r7, r8, r9, sl, fp, pc}
2fff5508:	464e      	mov	r6, r9
2fff550a:	4605      	mov	r5, r0
2fff550c:	460c      	mov	r4, r1
2fff550e:	e7d8      	b.n	2fff54c2 <unsigned_num_print.part.0+0x18>
2fff5510:	9801      	ldr	r0, [sp, #4]
2fff5512:	3c01      	subs	r4, #1
2fff5514:	f7fe fcd3 	bl	2fff3ebe <putchar>
2fff5518:	45a1      	cmp	r9, r4
2fff551a:	dbf9      	blt.n	2fff5510 <unsigned_num_print.part.0+0x66>
2fff551c:	eba7 0409 	sub.w	r4, r7, r9
2fff5520:	45b9      	cmp	r9, r7
2fff5522:	bfc8      	it	gt
2fff5524:	2400      	movgt	r4, #0
2fff5526:	e7e3      	b.n	2fff54f0 <unsigned_num_print.part.0+0x46>
2fff5528:	463c      	mov	r4, r7
2fff552a:	e7f5      	b.n	2fff5518 <unsigned_num_print.part.0+0x6e>

2fff552c <printf>:
2fff552c:	b40f      	push	{r0, r1, r2, r3}
2fff552e:	b507      	push	{r0, r1, r2, lr}
2fff5530:	a904      	add	r1, sp, #16
2fff5532:	f851 0b04 	ldr.w	r0, [r1], #4
2fff5536:	9101      	str	r1, [sp, #4]
2fff5538:	f7fe f904 	bl	2fff3744 <vprintf>
2fff553c:	b003      	add	sp, #12
2fff553e:	f85d eb04 	ldr.w	lr, [sp], #4
2fff5542:	b004      	add	sp, #16
2fff5544:	4770      	bx	lr

2fff5546 <unsigned_num_print>:
2fff5546:	e92d 4ff0 	stmdb	sp!, {r4, r5, r6, r7, r8, r9, sl, fp, lr}
2fff554a:	b089      	sub	sp, #36	@ 0x24
2fff554c:	4604      	mov	r4, r0
2fff554e:	460f      	mov	r7, r1
2fff5550:	f89d 305c 	ldrb.w	r3, [sp, #92]	@ 0x5c
2fff5554:	4615      	mov	r5, r2
2fff5556:	e9dd 9812 	ldrd	r9, r8, [sp, #72]	@ 0x48
2fff555a:	f89d a054 	ldrb.w	sl, [sp, #84]	@ 0x54
2fff555e:	2b00      	cmp	r3, #0
2fff5560:	bf0c      	ite	eq
2fff5562:	2361      	moveq	r3, #97	@ 0x61
2fff5564:	2341      	movne	r3, #65	@ 0x41
2fff5566:	f10d 0b0c 	add.w	fp, sp, #12
2fff556a:	2600      	movs	r6, #0
2fff556c:	3b0a      	subs	r3, #10
2fff556e:	9301      	str	r3, [sp, #4]
2fff5570:	9a14      	ldr	r2, [sp, #80]	@ 0x50
2fff5572:	4641      	mov	r1, r8
2fff5574:	2300      	movs	r3, #0
2fff5576:	4648      	mov	r0, r9
2fff5578:	3601      	adds	r6, #1
2fff557a:	f7fd ef74 	blx	2fff3464 <__aeabi_uldivmod>
2fff557e:	2a09      	cmp	r2, #9
2fff5580:	b2d3      	uxtb	r3, r2
2fff5582:	bf92      	itee	ls
2fff5584:	3330      	addls	r3, #48	@ 0x30
2fff5586:	9a01      	ldrhi	r2, [sp, #4]
2fff5588:	189b      	addhi	r3, r3, r2
2fff558a:	b2db      	uxtb	r3, r3
2fff558c:	f80b 3b01 	strb.w	r3, [fp], #1
2fff5590:	9b14      	ldr	r3, [sp, #80]	@ 0x50
2fff5592:	4599      	cmp	r9, r3
2fff5594:	f178 0800 	sbcs.w	r8, r8, #0
2fff5598:	d21c      	bcs.n	2fff55d4 <unsigned_num_print+0x8e>
2fff559a:	9b16      	ldr	r3, [sp, #88]	@ 0x58
2fff559c:	1b9b      	subs	r3, r3, r6
2fff559e:	682a      	ldr	r2, [r5, #0]
2fff55a0:	2b00      	cmp	r3, #0
2fff55a2:	dc1a      	bgt.n	2fff55da <unsigned_num_print+0x94>
2fff55a4:	4633      	mov	r3, r6
2fff55a6:	a903      	add	r1, sp, #12
2fff55a8:	682a      	ldr	r2, [r5, #0]
2fff55aa:	3b01      	subs	r3, #1
2fff55ac:	42ba      	cmp	r2, r7
2fff55ae:	d205      	bcs.n	2fff55bc <unsigned_num_print+0x76>
2fff55b0:	6822      	ldr	r2, [r4, #0]
2fff55b2:	5c58      	ldrb	r0, [r3, r1]
2fff55b4:	7010      	strb	r0, [r2, #0]
2fff55b6:	6822      	ldr	r2, [r4, #0]
2fff55b8:	3201      	adds	r2, #1
2fff55ba:	6022      	str	r2, [r4, #0]
2fff55bc:	682a      	ldr	r2, [r5, #0]
2fff55be:	3201      	adds	r2, #1
2fff55c0:	602a      	str	r2, [r5, #0]
2fff55c2:	2b00      	cmp	r3, #0
2fff55c4:	d1f0      	bne.n	2fff55a8 <unsigned_num_print+0x62>
2fff55c6:	9b16      	ldr	r3, [sp, #88]	@ 0x58
2fff55c8:	441e      	add	r6, r3
2fff55ca:	2e00      	cmp	r6, #0
2fff55cc:	db12      	blt.n	2fff55f4 <unsigned_num_print+0xae>
2fff55ce:	b009      	add	sp, #36	@ 0x24
2fff55d0:	e8bd 8ff0 	ldmia.w	sp!, {r4, r5, r6, r7, r8, r9, sl, fp, pc}
2fff55d4:	4681      	mov	r9, r0
2fff55d6:	4688      	mov	r8, r1
2fff55d8:	e7ca      	b.n	2fff5570 <unsigned_num_print+0x2a>
2fff55da:	4297      	cmp	r7, r2
2fff55dc:	d905      	bls.n	2fff55ea <unsigned_num_print+0xa4>
2fff55de:	6822      	ldr	r2, [r4, #0]
2fff55e0:	f882 a000 	strb.w	sl, [r2]
2fff55e4:	6822      	ldr	r2, [r4, #0]
2fff55e6:	3201      	adds	r2, #1
2fff55e8:	6022      	str	r2, [r4, #0]
2fff55ea:	682a      	ldr	r2, [r5, #0]
2fff55ec:	3b01      	subs	r3, #1
2fff55ee:	3201      	adds	r2, #1
2fff55f0:	602a      	str	r2, [r5, #0]
2fff55f2:	e7d4      	b.n	2fff559e <unsigned_num_print+0x58>
2fff55f4:	682b      	ldr	r3, [r5, #0]
2fff55f6:	42bb      	cmp	r3, r7
2fff55f8:	d205      	bcs.n	2fff5606 <unsigned_num_print+0xc0>
2fff55fa:	6823      	ldr	r3, [r4, #0]
2fff55fc:	f883 a000 	strb.w	sl, [r3]
2fff5600:	6823      	ldr	r3, [r4, #0]
2fff5602:	3301      	adds	r3, #1
2fff5604:	6023      	str	r3, [r4, #0]
2fff5606:	682b      	ldr	r3, [r5, #0]
2fff5608:	3601      	adds	r6, #1
2fff560a:	3301      	adds	r3, #1
2fff560c:	602b      	str	r3, [r5, #0]
2fff560e:	e7dc      	b.n	2fff55ca <unsigned_num_print+0x84>

2fff5610 <snprintf>:
2fff5610:	b40c      	push	{r2, r3}
2fff5612:	b507      	push	{r0, r1, r2, lr}
2fff5614:	ab04      	add	r3, sp, #16
2fff5616:	f853 2b04 	ldr.w	r2, [r3], #4
2fff561a:	9301      	str	r3, [sp, #4]
2fff561c:	f7fe f968 	bl	2fff38f0 <vsnprintf>
2fff5620:	b003      	add	sp, #12
2fff5622:	f85d eb04 	ldr.w	lr, [sp], #4
2fff5626:	b002      	add	sp, #8
2fff5628:	4770      	bx	lr

2fff562a <strchr>:
2fff562a:	b2c9      	uxtb	r1, r1
2fff562c:	4603      	mov	r3, r0
2fff562e:	781a      	ldrb	r2, [r3, #0]
2fff5630:	4618      	mov	r0, r3
2fff5632:	3301      	adds	r3, #1
2fff5634:	428a      	cmp	r2, r1
2fff5636:	d002      	beq.n	2fff563e <strchr+0x14>
2fff5638:	2a00      	cmp	r2, #0
2fff563a:	d1f8      	bne.n	2fff562e <strchr+0x4>
2fff563c:	4610      	mov	r0, r2
2fff563e:	4770      	bx	lr

2fff5640 <strcmp>:
2fff5640:	1e43      	subs	r3, r0, #1
2fff5642:	f813 0f01 	ldrb.w	r0, [r3, #1]!
2fff5646:	f811 2b01 	ldrb.w	r2, [r1], #1
2fff564a:	4290      	cmp	r0, r2
2fff564c:	d001      	beq.n	2fff5652 <strcmp+0x12>
2fff564e:	1a80      	subs	r0, r0, r2
2fff5650:	e001      	b.n	2fff5656 <strcmp+0x16>
2fff5652:	2800      	cmp	r0, #0
2fff5654:	d1f5      	bne.n	2fff5642 <strcmp+0x2>
2fff5656:	4770      	bx	lr

2fff5658 <strlcpy>:
2fff5658:	460b      	mov	r3, r1
2fff565a:	b510      	push	{r4, lr}
2fff565c:	b962      	cbnz	r2, 2fff5678 <strlcpy+0x20>
2fff565e:	f813 2b01 	ldrb.w	r2, [r3], #1
2fff5662:	2a00      	cmp	r2, #0
2fff5664:	d1fb      	bne.n	2fff565e <strlcpy+0x6>
2fff5666:	e004      	b.n	2fff5672 <strlcpy+0x1a>
2fff5668:	f813 4b01 	ldrb.w	r4, [r3], #1
2fff566c:	f800 4b01 	strb.w	r4, [r0], #1
2fff5670:	b914      	cbnz	r4, 2fff5678 <strlcpy+0x20>
2fff5672:	1a58      	subs	r0, r3, r1
2fff5674:	3801      	subs	r0, #1
2fff5676:	bd10      	pop	{r4, pc}
2fff5678:	3a01      	subs	r2, #1
2fff567a:	d1f5      	bne.n	2fff5668 <strlcpy+0x10>
2fff567c:	7002      	strb	r2, [r0, #0]
2fff567e:	e7ee      	b.n	2fff565e <strlcpy+0x6>

2fff5680 <strlen>:
2fff5680:	4603      	mov	r3, r0
2fff5682:	461a      	mov	r2, r3
2fff5684:	3301      	adds	r3, #1
2fff5686:	7811      	ldrb	r1, [r2, #0]
2fff5688:	2900      	cmp	r1, #0
2fff568a:	d1fa      	bne.n	2fff5682 <strlen+0x2>
2fff568c:	1a10      	subs	r0, r2, r0
2fff568e:	4770      	bx	lr

2fff5690 <strncmp>:
2fff5690:	4603      	mov	r3, r0
2fff5692:	4610      	mov	r0, r2
2fff5694:	b510      	push	{r4, lr}
2fff5696:	b142      	cbz	r2, 2fff56aa <strncmp+0x1a>
2fff5698:	188c      	adds	r4, r1, r2
2fff569a:	3b01      	subs	r3, #1
2fff569c:	f813 0f01 	ldrb.w	r0, [r3, #1]!
2fff56a0:	f811 2b01 	ldrb.w	r2, [r1], #1
2fff56a4:	4290      	cmp	r0, r2
2fff56a6:	d001      	beq.n	2fff56ac <strncmp+0x1c>
2fff56a8:	1a80      	subs	r0, r0, r2
2fff56aa:	bd10      	pop	{r4, pc}
2fff56ac:	2800      	cmp	r0, #0
2fff56ae:	d0fc      	beq.n	2fff56aa <strncmp+0x1a>
2fff56b0:	42a1      	cmp	r1, r4
2fff56b2:	d1f3      	bne.n	2fff569c <strncmp+0xc>
2fff56b4:	2000      	movs	r0, #0
2fff56b6:	e7f8      	b.n	2fff56aa <strncmp+0x1a>

2fff56b8 <strnlen>:
2fff56b8:	4603      	mov	r3, r0
2fff56ba:	2000      	movs	r0, #0
2fff56bc:	4288      	cmp	r0, r1
2fff56be:	d100      	bne.n	2fff56c2 <strnlen+0xa>
2fff56c0:	4770      	bx	lr
2fff56c2:	5c1a      	ldrb	r2, [r3, r0]
2fff56c4:	2a00      	cmp	r2, #0
2fff56c6:	d0fb      	beq.n	2fff56c0 <strnlen+0x8>
2fff56c8:	3001      	adds	r0, #1
2fff56ca:	e7f7      	b.n	2fff56bc <strnlen+0x4>

2fff56cc <strrchr>:
2fff56cc:	4603      	mov	r3, r0
2fff56ce:	b2c9      	uxtb	r1, r1
2fff56d0:	2000      	movs	r0, #0
2fff56d2:	b510      	push	{r4, lr}
2fff56d4:	461c      	mov	r4, r3
2fff56d6:	f813 2b01 	ldrb.w	r2, [r3], #1
2fff56da:	428a      	cmp	r2, r1
2fff56dc:	bf08      	it	eq
2fff56de:	4620      	moveq	r0, r4
2fff56e0:	2a00      	cmp	r2, #0
2fff56e2:	d1f7      	bne.n	2fff56d4 <strrchr+0x8>
2fff56e4:	bd10      	pop	{r4, pc}
	...

2fff56e8 <stm32mp1_mmap>:
2fff56e8:	0000 2ffc 0000 0000 0000 2ffc 0000 0004     .../......./....
2fff56f8:	004a 0000 0000 4000 0000 4000 0000 0000     J......@...@....
2fff5708:	0000 4000 0000 4000 0048 0000 0000 4000     ...@...@H......@
	...

2fff5730 <block_dev_funcs>:
2fff5730:	3c25 2fff a34d 2ffe a2f9 2ffe 0000 0000     %<./M../.../....
2fff5740:	a4b1 2ffe a399 2ffe 3c29 2fff 0000 0000     .../.../)<./....
2fff5750:	a599 2ffe                                   .../

2fff5754 <block_dev_connector>:
2fff5754:	a5e1 2ffe                                   .../

2fff5758 <fip_dev_funcs>:
2fff5758:	3c31 2fff a819 2ffe 0000 0000 a7f5 2ffe     1<./.../......./
2fff5768:	a741 2ffe 0000 0000 a685 2ffe a6a5 2ffe     A../......./.../
2fff5778:	a909 2ffe                                   .../

2fff577c <fip_dev_connector>:
2fff577c:	a959 2ffe                                   Y../

2fff5780 <ddr_registers>:
2fff5780:	7190 2fff 625c 2fff 0019 0000 0000 0000     .q./\b./........
2fff5790:	72fa 2fff 622c 2fff 000c 0000 0000 0000     .r./,b./........
2fff57a0:	7313 2fff 61c4 2fff 0011 0000 0000 0000     .s./.a./........
2fff57b0:	7308 2fff 6208 2fff 0009 0000 0000 0000     .s./.b./........
2fff57c0:	7190 2fff 6198 2fff 000b 0000 0001 0000     .q./.a./........
2fff57d0:	72fa 2fff 6170 2fff 000a 0000 0001 0000     .r./pa./........
2fff57e0:	72e8 2fff 000c 0000 0019 0000 72f3 2fff     .r./.........r./
2fff57f0:	0070 0000 000c 0000 7301 2fff 00a0 0000     p........s./....
2fff5800:	0009 0000 730c 2fff 00c4 0000 0011 0000     .....s./........
2fff5810:	7318 2fff 0108 0000 000b 0000 7323 2fff     .s./........#s./
2fff5820:	0134 0000 000a 0000                         4.......

2fff5828 <stm32_sdmmc2_ops>:
2fff5828:	bda1 2ffe be2d 2ffe bd29 2ffe c219 2ffe     .../-../)../.../
2fff5838:	c121 2ffe 3e43 2fff                         !../C>./

2fff5840 <crc_table>:
2fff5840:	0000 0000 3096 7707 612c ee0e 51ba 9909     .....0.w,a...Q..
2fff5850:	c419 076d f48f 706a a535 e963 95a3 9e64     ..m...jp5.c...d.
2fff5860:	8832 0edb b8a4 79dc e91e e0d5 d988 97d2     2......y........
2fff5870:	4c2b 09b6 7cbd 7eb1 2d07 e7b8 1d91 90bf     +L...|.~.-......
2fff5880:	1064 1db7 20f2 6ab0 7148 f3b9 41de 84be     d.... .jHq...A..
2fff5890:	d47d 1ada e4eb 6ddd b551 f4d4 85c7 83d3     }......mQ.......
2fff58a0:	9856 136c a8c0 646b f97a fd62 c9ec 8a65     V.l...kdz.b...e.
2fff58b0:	5c4f 1401 6cd9 6306 3d63 fa0f 0df5 8d08     O\...l.cc=......
2fff58c0:	20c8 3b6e 105e 4c69 41e4 d560 7172 a267     . n;^.iL.A`.rqg.
2fff58d0:	e4d1 3c03 d447 4b04 85fd d20d b56b a50a     ...<G..K....k...
2fff58e0:	a8fa 35b5 986c 42b2 c9d6 dbbb f940 acbc     ...5l..B....@...
2fff58f0:	6ce3 32d8 5c75 45df 0dcf dcd6 3d59 abd1     .l.2u\.E....Y=..
2fff5900:	30ac 26d9 003a 51de 5180 c8d7 6116 bfd0     .0.&:..Q.Q...a..
2fff5910:	f4b5 21b4 c423 56b3 9599 cfba a50f b8bd     ...!#..V........
2fff5920:	b89e 2802 8808 5f05 d9b2 c60c e924 b10b     ...(..._....$...
2fff5930:	7c87 2f6f 4c11 5868 1dab c161 2d3d b666     .|o/.LhX..a.=-f.
2fff5940:	4190 76dc 7106 01db 20bc 98d2 102a efd5     .A.v.q... ..*...
2fff5950:	8589 71b1 b51f 06b6 e4a5 9fbf d433 e8b8     ...q........3...
2fff5960:	c9a2 7807 f934 0f00 a88e 9609 9818 e10e     ...x4...........
2fff5970:	0dbb 7f6a 3d2d 086d 6c97 9164 5c01 e663     ..j.-=m..ld..\c.
2fff5980:	51f4 6b6b 6162 1c6c 30d8 8565 004e f262     .Qkkbal..0e.N.b.
2fff5990:	95ed 6c06 a57b 1b01 f4c1 8208 c457 f50f     ...l{.......W...
2fff59a0:	d9c6 65b0 e950 12b7 b8ea 8bbe 887c fcb9     ...eP.......|...
2fff59b0:	1ddf 62dd 2d49 15da 7cf3 8cd3 4c65 fbd4     ...bI-...|..eL..
2fff59c0:	6158 4db2 51ce 3ab5 0074 a3bc 30e2 d4bb     Xa.M.Q.:t....0..
2fff59d0:	a541 4adf 95d7 3dd8 c46d a4d1 f4fb d3d6     A..J...=m.......
2fff59e0:	e96a 4369 d9fc 346e 8846 ad67 b8d0 da60     j.iC..n4F.g...`.
2fff59f0:	2d73 4404 1de5 3303 4c5f aa0a 7cc9 dd0d     s-.D...3_L...|..
2fff5a00:	713c 5005 41aa 2702 1010 be0b 2086 c90c     <q.P.A.'..... ..
2fff5a10:	b525 5768 85b3 206f d409 b966 e49f ce61     %.hW..o ..f...a.
2fff5a20:	f90e 5ede c998 29d9 9822 b0d0 a8b4 c7d7     ...^...)".......
2fff5a30:	3d17 59b3 0d81 2eb4 5c3b b7bd 6cad c0ba     .=.Y....;\...l..
2fff5a40:	8320 edb8 b3b6 9abf e20c 03b6 d29a 74b1      ..............t
2fff5a50:	4739 ead5 77af 9dd2 2615 04db 1683 73dc     9G...w...&.....s
2fff5a60:	0b12 e363 3b84 9464 6a3e 0d6d 5aa8 7a6a     ..c..;d.>jm..Zjz
2fff5a70:	cf0b e40e ff9d 9309 ae27 0a00 9eb1 7d07     ........'......}
2fff5a80:	9344 f00f a3d2 8708 f268 1e01 c2fe 6906     D.......h......i
2fff5a90:	575d f762 67cb 8065 3671 196c 06e7 6e6b     ]Wb..ge.q6l...kn
2fff5aa0:	1b76 fed4 2be0 89d3 7a5a 10da 4acc 67dd     v....+..Zz...J.g
2fff5ab0:	df6f f9b9 eff9 8ebe be43 17b7 8ed5 60b0     o.......C......`
2fff5ac0:	a3e8 d6d6 937e a1d1 c2c4 38d8 f252 4fdf     ....~......8R..O
2fff5ad0:	67f1 d1bb 5767 a6bc 06dd 3fb5 364b 48b2     .g..gW.....?K6.H
2fff5ae0:	2bda d80d 1b4c af0a 4af6 3603 7a60 4104     .+..L....J.6`z.A
2fff5af0:	efc3 df60 df55 a867 8eef 316e be79 4669     ..`.U.g...n1y.iF
2fff5b00:	b38c cb61 831a bc66 d2a0 256f e236 5268     ..a...f...o%6.hR
2fff5b10:	7795 cc0c 4703 bb0b 16b9 2202 262f 5505     .w...G....."/&.U
2fff5b20:	3bbe c5ba 0b28 b2bd 5a92 2bb4 6a04 5cb3     .;..(....Z.+.j.\
2fff5b30:	ffa7 c2d7 cf31 b5d0 9e8b 2cd9 ae1d 5bde     ....1......,...[
2fff5b40:	c2b0 9b64 f226 ec63 a39c 756a 930a 026d     ..d.&.c...ju..m.
2fff5b50:	06a9 9c09 363f eb0e 6785 7207 5713 0500     ....?6...g.r.W..
2fff5b60:	4a82 95bf 7a14 e2b8 2bae 7bb1 1b38 0cb6     .J...z...+.{8...
2fff5b70:	8e9b 92d2 be0d e5d5 efb7 7cdc df21 0bdb     ...........|!...
2fff5b80:	d2d4 86d3 e242 f1d4 b3f8 68dd 836e 1fda     ....B......hn...
2fff5b90:	16cd 81be 265b f6b9 77e1 6fb0 4777 18b7     ....[&...w.owG..
2fff5ba0:	5ae6 8808 6a70 ff0f 3bca 6606 0b5c 1101     .Z..pj...;.f\...
2fff5bb0:	9eff 8f65 ae69 f862 ffd3 616b cf45 166c     ..e.i.b...kaE.l.
2fff5bc0:	e278 a00a d2ee d70d 8354 4e04 b3c2 3903     x.......T..N...9
2fff5bd0:	2661 a767 16f7 d060 474d 4969 77db 3e6e     a&g...`.MGiI.wn>
2fff5be0:	6a4a aed1 5adc d9d6 0b66 40df 3bf0 37d8     Jj...Z..f..@.;.7
2fff5bf0:	ae53 a9bc 9ec5 debb cf7f 47b2 ffe9 30b5     S..........G...0
2fff5c00:	f21c bdbd c28a caba 9330 53b3 a3a6 24b4     ........0..S...$
2fff5c10:	3605 bad0 0693 cdd7 5729 54de 67bf 23d9     .6......)W.T.g.#
2fff5c20:	7a2e b366 4ab8 c461 1b02 5d68 2b94 2a6f     .zf..Ja...h].+o*
2fff5c30:	be37 b40b 8ea1 c30c df1b 5a05 ef8d 2d02     7..........Z...-

2fff5c40 <load_info>:
2fff5c40:	0001 0000 7bc3 2fff 0004 0000 7b7d 2fff     .....{./....}{./
2fff5c50:	0008 0000 7b87 2fff 0009 0000 7b98 2fff     .....{./.....{./
2fff5c60:	0005 0000 7ba9 2fff 0002 0000 7bb3 2fff     .....{./.....{./
2fff5c70:	0010 0000 7bbf 2fff 0004 0000 0005 0000     .....{./........
2fff5c80:	0002 0000 0010 0000                         ........

2fff5c88 <plat_prefix_str>:
2fff5c88:	8394 2fff 839e 2fff 83a8 2fff 83b2 2fff     .../.../.../.../
2fff5c98:	83bc 2fff                                   .../

2fff5c9c <stm32_tamp_nvram_nvmem_ops>:
2fff5c9c:	f229 2ffe f2cd 2ffe                         )../.../

2fff5ca4 <CSWTCH.28>:
2fff5ca4:	8e2c 2fff 8e21 2fff 8ddc 2fff 8e23 2fff     ,../!../.../#../

2fff5cb4 <CSWTCH.27>:
2fff5cb4:	8e25 2fff 8e28 2fff 8e2b 2fff 8e2e 2fff     %../(../+../.../

2fff5cc4 <i2c_specs>:
2fff5cc4:	86a0 0001 012c 0000 03e8 0000 0000 0000     ....,...........
2fff5cd4:	0d7a 0000 00fa 0000 125c 0000 0fa0 0000     z.......\.......
2fff5ce4:	1a80 0006 012c 0000 012c 0000 0000 0000     ....,...,.......
2fff5cf4:	0384 0000 0064 0000 0514 0000 0258 0000     ....d.......X...
2fff5d04:	4240 000f 0064 0000 0078 0000 0000 0000     @B..d...x.......
2fff5d14:	01c2 0000 0032 0000 01f4 0000 0104 0000     ....2...........

2fff5d24 <pmic_regs>:
2fff5d24:	92e2 2fff 5e3c 2fff 0000 0000 0000 0000     .../<^./........
2fff5d34:	03e8 0000 81b1 2fff 5e3c 2fff 0000 0000     ......./<^./....
2fff5d44:	0000 0000 03e8 0000 81c5 2fff 5e3c 2fff     .........../<^./
	...
2fff5d5c:	03e8 0000 92e8 2fff 5e3c 2fff 0000 0000     ......./<^./....
2fff5d6c:	0000 0000 03e8 0000 92ee 2fff 5e3c 2fff     .........../<^./
	...
2fff5d84:	03e8 0000 92f3 2fff 5e3c 2fff 0000 0000     ......./<^./....
2fff5d94:	0000 0000 03e8 0000 81b7 2fff 5e3c 2fff     .........../<^./
	...
2fff5dac:	03e8 0000 92f8 2fff 5e3c 2fff 0000 0000     ......./<^./....
2fff5dbc:	0000 0000 03e8 0000 92fd 2fff 5e3c 2fff     .........../<^./
	...
2fff5dd4:	03e8 0000 9302 2fff 5e3c 2fff 0000 0000     ......./<^./....
2fff5de4:	0000 0000 03e8 0000 81bc 2fff 5e3c 2fff     .........../<^./
	...
2fff5dfc:	03e8 0000 9307 2fff 5e3c 2fff 0000 0000     ......./<^./....
2fff5e0c:	0000 0000 03e8 0000 930d 2fff 5e3c 2fff     .........../<^./
	...
2fff5e24:	03e8 0000 9315 2fff 5e3c 2fff 0000 0000     ......./<^./....
2fff5e34:	0000 0000 03e8 0000                         ........

2fff5e3c <pmic_ops>:
2fff5e3c:	4a47 2fff 49f9 2fff 49f3 2fff 49ed 2fff     GJ./.I./.I./.I./
2fff5e4c:	49e7 2fff 4a03 2fff 0000 0000 0000 0000     .I./.J./........

2fff5e5c <regulators_table>:
2fff5e5c:	92e2 2fff 650e 2fff 2040 3001 0012 0018     .../.e./@ .0....
2fff5e6c:	001d 0000 81b1 2fff 64c4 2fff 2125 3101     ......./.d./%!.1
2fff5e7c:	0212 0118 011d 0000 81c5 2fff 6454 2fff     .........../Td./
2fff5e8c:	2238 3201 0412 0218 021d 0000 92e8 2fff     8".2.........../
2fff5e9c:	63da 2fff 233d 3301 0612 0318 031d 0000     .c./=#.3........
2fff5eac:	92ee 2fff 63a8 2fff 2519 3501 0000 001a     .../.c./.%.5....
2fff5ebc:	001e 0000 92f3 2fff 6376 2fff 2619 3601     ......./vc./.&.6
2fff5ecc:	0000 011a 011e 0000 81b7 2fff 6338 2fff     .........../8c./
2fff5edc:	271f 3701 0000 021a 021e 0000 92f8 2fff     .'.7.........../
2fff5eec:	62c4 2fff 2801 3801 0000 031a 031e 0000     .b./.(.8........
2fff5efc:	92fd 2fff 62f8 2fff 291f 3901 0000 041a     .../.b./.).9....
2fff5f0c:	041e 0000 9302 2fff 62c6 2fff 2a19 3a01     ......./.b./.*.:
2fff5f1c:	0000 051a 051e 0000 81bc 2fff 62c2 2fff     .........../.b./
2fff5f2c:	2401 3401 0000 061a 0000 0000 9307 2fff     .$.4.........../
2fff5f3c:	62c0 2fff 4001 0001 0000 0000 061d 0000     .b./.@..........
2fff5f4c:	930d 2fff 62c0 2fff 4001 0002 0000 0000     .../.b./.@......
2fff5f5c:	041d 0000 9315 2fff 62c0 2fff 4001 0004     ......./.b./.@..
2fff5f6c:	0000 0000 051d 0000                         ........

2fff5f74 <stm32mp1_tamp_nvram>:
2fff5f74:	0003 0000 5f7c 2fff                         ....|_./

2fff5f7c <mp1_zone_cfg_fields>:
2fff5f7c:	0020 0000 0000 0000 0007 0000 0020 0000      ........... ...
2fff5f8c:	0010 0000 0017 0000                         ........

2fff5f94 <stm32mp_clk_ops>:
2fff5f94:	23e1 2fff 2351 2fff 25a9 2fff 2299 2fff     .#./Q#./.%./."./
2fff5fa4:	2311 2fff                                   .#./

2fff5fa8 <stm32mp1_clk_pll>:
2fff5fa8:	0001 0000 0028 0084 0088 008c 0080 0090     ....(...........
2fff5fb8:	0000 0000 0001 0000 00ff 0000 00ff 0000     ................
2fff5fc8:	0001 0000 0028 0098 009c 00a0 0094 00a4     ....(...........
2fff5fd8:	0000 0000 0001 0000 00ff 0000 00ff 0000     ................
2fff5fe8:	0000 0000 0820 0884 0888 088c 0880 0890     .... ...........
2fff5ff8:	0000 0000 0001 0000 0002 0000 00ff 0000     ................
2fff6008:	0000 0000 0824 0898 089c 08a0 0894 08a4     ....$...........
2fff6018:	0000 0000 0001 0000 0002 0000 0005 0000     ................

2fff6028 <stm32mp1_clk_sel>:
2fff6028:	08c0 0700 0004 0000 963e 2fff 08c4 0700     ........>../....
2fff6038:	0004 0000 963a 2fff 00d4 0300 0002 0000     ....:../........
2fff6048:	9638 2fff 00c0 0700 0004 0000 9634 2fff     8../........4../
2fff6058:	00c4 0700 0006 0000 962e 2fff 00c8 0700     .........../....
2fff6068:	0006 0000 9628 2fff 00cc 0300 0004 0000     ....(../........
2fff6078:	9624 2fff 08e4 0700 0005 0000 961f 2fff     $../.........../
2fff6088:	08e8 0700 0005 0000 961a 2fff 08ec 0700     .........../....
2fff6098:	0005 0000 961a 2fff 08f0 0700 0005 0000     ......./........
2fff60a8:	961a 2fff 08f4 0700 0004 0000 9616 2fff     .../.........../
2fff60b8:	08f8 0700 0004 0000 9612 2fff 0900 0300     .........../....
2fff60c8:	0004 0000 960e 2fff 0904 0300 0004 0000     ......./........
2fff60d8:	960a 2fff 0024 0700 0003 0000 9607 2fff     .../$........../
2fff60e8:	0048 0300 0004 0000 9603 2fff 091c 0300     H........../....
2fff60f8:	0003 0000 9600 2fff 091c 0104 0002 0000     ......./........
2fff6108:	95fe 2fff 0020 0300 0004 0000 95fa 2fff     .../ ........../
2fff6118:	00d0 0300 0003 0000 95f7 2fff 0140 0310     .........../@...
2fff6128:	0004 0000 95f3 2fff 00e4 0000 0045 0000     ......./....E...
2fff6138:	00dc 0000 00dd 0000 00de 0000 00df 0000     ................
2fff6148:	00e2 0000 00e5 0000 00e6 0000 00e0 0000     ................
2fff6158:	00e1 0000 0041 0000 0042 0000 0071 0000     ....A...B...q...
2fff6168:	0043 0000 0080 0000                         C.......

2fff6170 <ddrphy_timing>:
2fff6170:	0018 0000 001c 0004 0020 0008 0034 000c     ........ ...4...
2fff6180:	0038 0010 003c 0014 0040 0018 0044 001c     8...<...@...D...
2fff6190:	0048 0020 004c 0024                         H. .L.$.

2fff6198 <ddrphy_reg>:
2fff6198:	0008 0000 0024 0004 0028 0008 002c 000c     ....$...(...,...
2fff61a8:	0030 0010 0050 0014 0184 0018 01c0 001c     0...P...........
2fff61b8:	0200 0020 0240 0024 0280 0028               .. .@.$...(.

2fff61c4 <ddr_perf>:
2fff61c4:	0250 0000 0254 0004 025c 0008 0264 000c     P...T...\...d...
2fff61d4:	026c 0010 0404 0014 0408 0018 0494 001c     l...............
2fff61e4:	0498 0020 049c 0024 04a0 0028 04b4 002c     .. ...$...(...,.
2fff61f4:	04b8 0030 0544 0034 0548 0038 054c 003c     ..0.D.4.H.8.L.<.
2fff6204:	0550 0040                                   P.@.

2fff6208 <ddr_map>:
2fff6208:	0204 0000 0208 0004 020c 0008 0210 000c     ................
2fff6218:	0214 0010 0218 0014 0224 0018 0228 001c     ........$...(...
2fff6228:	022c 0020                                   ,. .

2fff622c <ddr_timing>:
2fff622c:	0064 0000 0100 0004 0104 0008 0108 000c     d...............
2fff623c:	010c 0010 0110 0014 0114 0018 0118 001c     ................
2fff624c:	011c 0020 0120 0024 0138 0028 0240 002c     .. . .$.8.(.@.,.

2fff625c <ddr_reg>:
2fff625c:	0000 0000 0010 0004 0014 0008 0020 000c     ............ ...
2fff626c:	0024 0010 0030 0014 0034 0018 0038 001c     $...0...4...8...
2fff627c:	0050 0020 0060 0024 00c0 0028 0180 002c     P. .`.$...(...,.
2fff628c:	0190 0030 0194 0034 0198 0038 01a0 003c     ..0...4...8...<.
2fff629c:	01a4 0040 01a8 0044 01c4 0048 0244 004c     ..@...D...H.D.L.
2fff62ac:	0300 0050 0304 0054 030c 0058 036c 005c     ..P...T...X.l.\.
2fff62bc:	0400 0060                                   ..`.

2fff62c0 <fixed_5v_voltage_table>:
2fff62c0:	1388                                        ..

2fff62c2 <vref_ddr_voltage_table>:
2fff62c2:	0ce4                                        ..

2fff62c4 <ldo4_voltage_table>:
2fff62c4:	0ce4                                        ..

2fff62c6 <ldo6_voltage_table>:
2fff62c6:	0384 03e8 044c 04b0 0514 0578 05dc 0640     ....L.....x...@.
2fff62d6:	06a4 0708 076c 07d0 0834 0898 08fc 0960     ....l...4.....`.
2fff62e6:	09c4 0a28 0a8c 0af0 0b54 0bb8 0c1c 0c80     ..(.....T.......
2fff62f6:	0ce4                                        ..

2fff62f8 <ldo5_voltage_table>:
2fff62f8:	06a4 06a4 06a4 06a4 06a4 06a4 06a4 06a4     ................
2fff6308:	06a4 0708 076c 07d0 0834 0898 08fc 0960     ....l...4.....`.
2fff6318:	09c4 0a28 0a8c 0af0 0b54 0bb8 0c1c 0c80     ..(.....T.......
2fff6328:	0ce4 0d48 0dac 0e10 0e74 0ed8 0f3c          ..H.....t...<.

2fff6336 <ldo3_special_mode_table>:
	...

2fff6338 <ldo3_voltage_table>:
2fff6338:	06a4 06a4 06a4 06a4 06a4 06a4 06a4 06a4     ................
2fff6348:	06a4 0708 076c 07d0 0834 0898 08fc 0960     ....l...4.....`.
2fff6358:	09c4 0a28 0a8c 0af0 0b54 0bb8 0c1c 0c80     ..(.....T.......
2fff6368:	0ce4 0ce4 0ce4 0ce4 0ce4 0ce4 0ce4          ..............

2fff6376 <ldo2_voltage_table>:
2fff6376:	06a4 06a4 06a4 06a4 06a4 06a4 06a4 06a4     ................
2fff6386:	06a4 0708 076c 07d0 0834 0898 08fc 0960     ....l...4.....`.
2fff6396:	09c4 0a28 0a8c 0af0 0b54 0bb8 0c1c 0c80     ..(.....T.......
2fff63a6:	0ce4                                        ..

2fff63a8 <ldo1_voltage_table>:
2fff63a8:	06a4 06a4 06a4 06a4 06a4 06a4 06a4 06a4     ................
2fff63b8:	06a4 0708 076c 07d0 0834 0898 08fc 0960     ....l...4.....`.
2fff63c8:	09c4 0a28 0a8c 0af0 0b54 0bb8 0c1c 0c80     ..(.....T.......
2fff63d8:	0ce4                                        ..

2fff63da <buck4_voltage_table>:
2fff63da:	0258 0271 028a 02a3 02bc 02d5 02ee 0307     X.q.............
2fff63ea:	0320 0339 0352 036b 0384 039d 03b6 03cf      .9.R.k.........
2fff63fa:	03e8 0401 041a 0433 044c 0465 047e 0497     ......3.L.e.~...
2fff640a:	04b0 04c9 04e2 04fb 0514 0514 0546 0546     ............F.F.
2fff641a:	0578 0578 05aa 05aa 05dc 0640 06a4 0708     x.x.......@.....
2fff642a:	076c 07d0 0834 0898 08fc 0960 09c4 0a28     l...4.....`...(.
2fff643a:	0a8c 0af0 0b54 0bb8 0c1c 0c80 0ce4 0d48     ....T.........H.
2fff644a:	0dac 0e10 0e74 0ed8 0f3c                    ....t...<.

2fff6454 <buck3_voltage_table>:
2fff6454:	03e8 03e8 03e8 03e8 03e8 03e8 03e8 03e8     ................
2fff6464:	03e8 03e8 03e8 03e8 03e8 03e8 03e8 03e8     ................
2fff6474:	03e8 03e8 03e8 03e8 044c 044c 044c 044c     ........L.L.L.L.
2fff6484:	04b0 04b0 04b0 04b0 0514 0514 0514 0514     ................
2fff6494:	0578 0578 0578 0578 05dc 0640 06a4 0708     x.x.x.x...@.....
2fff64a4:	076c 07d0 0834 0898 08fc 0960 09c4 0a28     l...4.....`...(.
2fff64b4:	0a8c 0af0 0b54 0bb8 0c1c 0c80 0ce4 0d48     ....T.........H.

2fff64c4 <buck2_voltage_table>:
2fff64c4:	03e8 03e8 03e8 03e8 03e8 03e8 03e8 03e8     ................
2fff64d4:	03e8 03e8 03e8 03e8 03e8 03e8 03e8 03e8     ................
2fff64e4:	03e8 03e8 041a 041a 044c 044c 047e 047e     ........L.L.~.~.
2fff64f4:	04b0 04b0 04e2 04e2 0514 0514 0546 0546     ............F.F.
2fff6504:	0578 0578 05aa 05aa 05dc                    x.x.......

2fff650e <buck1_voltage_table>:
2fff650e:	02d5 02d5 02d5 02d5 02d5 02d5 02ee 0307     ................
2fff651e:	0320 0339 0352 036b 0384 039d 03b6 03cf      .9.R.k.........
2fff652e:	03e8 0401 041a 0433 044c 0465 047e 0497     ......3.L.e.~...
2fff653e:	04b0 04c9 04e2 04fb 0514 052d 0546 055f     ..........-.F._.
2fff654e:	0578 0591 05aa 05c3 05dc 05dc 05dc 05dc     x...............
2fff655e:	05dc 05dc 05dc 05dc 05dc 05dc 05dc 05dc     ................
2fff656e:	05dc 05dc 05dc 05dc 05dc 05dc 05dc 05dc     ................
2fff657e:	05dc 05dc 05dc 05dc 05dc 05dc 05dc 05dc     ................

2fff658e <stm32mp1_clk_gate>:
2fff658e:	00d8 dc00 0100 17ff 00d8 dd01 0100 17ff     ................
2fff659e:	00d8 de02 0100 17ff 00d8 df03 0100 17ff     ................
2fff65ae:	00d8 e004 0100 10ff 00d8 e105 0100 10ff     ................
2fff65be:	00d8 e206 0100 1bff 00d8 e307 0100 1bff     ................
2fff65ce:	00d8 e408 0100 17ff 00d8 e509 0100 1bff     ................
2fff65de:	00d8 e60a 0100 1bff 0a00 950e 0001 ff08     ................
2fff65ee:	0a00 960f 0001 ff09 0a00 9710 0001 ff08     ................
2fff65fe:	0a00 9811 0001 ff09 0a00 9a12 0001 ff0a     ................
2fff660e:	0a00 9b13 0001 ff0a 0a00 8915 0001 ff00     ................
2fff661e:	0a00 8a16 0001 ff00 0a00 8b17 0001 ff01     ................
2fff662e:	0a00 8d18 0001 ff01 0a08 990d 0001 ff07     ................
2fff663e:	0a10 330b 0001 ffff 0200 e708 0001 ffff     ...3............
2fff664e:	0200 3a0f 0001 ffff 0200 7f10 0001 ff11     ...:............
2fff665e:	0208 8700 0101 ff04 0208 8c02 0101 ff03     ................
2fff666e:	0208 8e03 0101 ff03 0208 9404 0101 ff05     ................
2fff667e:	0208 4108 0101 1cff 0208 420b 0101 1cff     ...A.......B....
2fff668e:	0208 710c 0101 1cff 0208 430d 0101 1cff     ...q.......C....
2fff669e:	0208 440f 0101 1cff 0208 4510 0101 1cff     ...D.......E....
2fff66ae:	0208 8014 0101 ff02 0a28 5400 0001 ffff     ........(..T....
2fff66be:	0a28 5501 0001 ffff 0a28 5602 0001 ffff     (..U....(..V....
2fff66ce:	0a28 5703 0001 ffff 0a28 5804 0001 ffff     (..W....(..X....
2fff66de:	0a28 5905 0001 ffff 0a28 5a06 0001 ffff     (..Y....(..Z....
2fff66ee:	0a28 5b07 0001 ffff 0a28 5c08 0001 ffff     (..[....(..\....
2fff66fe:	0a28 5d09 0001 ffff 0a28 5e0a 0001 ffff     (..]....(..^....
2fff670e:	0210 5f00 0101 1cff 0210 6004 0101 1cff     ..._.......`....
2fff671e:	0210 6105 0101 1cff 0210 7c06 0101 ff06     ...a.......|....
2fff672e:	0210 6308 0101 1cff 0218 790c 0001 ff0e     ...c.......y....
2fff673e:	0218 7a0e 0001 ff0d 0218 7610 0001 ff0b     ...z.......v....
2fff674e:	0218 7711 0001 ff0b 0140 c014 0100 ff15     ...w....@.......
2fff675e:	080c d608 0000 ffff                         ........

2fff6766 <parent_mp15>:
2fff6766:	0020 0200 001f 0024 0300 001f 0048 0200      .....$.....H...
2fff6776:	001f 0028 0200 00ff 0820 0200 00ff 0824     ..(..... .....$.
2fff6786:	0200 00ff 00d0 0200 00ff 0140 0210 00ff     ..........@.....
2fff6796:	08f4 0300 00ff 08f8 0300 00ff 0904 0200     ................
2fff67a6:	00ff 0900 0200 00ff 00cc 0200 00ff 0920     .............. .
2fff67b6:	0200 00ff 091c 0200 00ff 091c 0104 00ff     ................
2fff67c6:	00d4 0200 00ff 0914 0200 00ff 08d8 0300     ................
2fff67d6:	00ff 08dc 0300 00ff 08e0 0300 00ff 00c4     ................
2fff67e6:	0300 00ff 0918 0200 00ff 08c0 0300 00ff     ................
2fff67f6:	08c4 0300 00ff 00c0 0300 00ff 0934 0300     ............4...
2fff6806:	00ff 0930 0300 00ff 092c 0300 00ff 00c8     ..0.....,.......
2fff6816:	0300 00ff 08e8 0300 00ff 08ec 0300 00ff     ................
2fff6826:	08e4 0300 00ff 08f0 0300 00ff 08c8 0300     ................
2fff6836:	00ff 08cc 0300 00ff 08d0 0300 00ff 08d4     ................
2fff6846:	0300 00ff 0924 0100 00ff 090c 0200 00ff     ....$...........
2fff6856:	0928 0200 00ff 08fc 0200 00ff 0800 0300     (...............
2fff6866:	00ff 0804 0300 00ff                         ........

2fff686e <dividers_mp15>:
	...
2fff68aa:	002c 0400 001f 0030 0300 001f 0830 0400     ,.....0.....0...
2fff68ba:	001f 0834 0300 001f 0838 0300 001f 083c     ..4.....8.....<.
2fff68ca:	0300 001f 003c 0300 001f 0040 0300 001f     ....<.....@.....
2fff68da:	0000 0000 0000 0044 0600 00ff 0800 0404     ......D.........
2fff68ea:	00ff 0804 0404 00ff 0000 0000 0000 080c     ................
2fff68fa:	0300 00ff 08fc 0404 00ff                    ..........

2fff6904 <version_string>:
2fff6904:	3276 382e 732d 6d74 3233 706d 2d31 3272     v2.8-stm32mp1-r2
2fff6914:	302e 6428 6265 6775 3a29 6366 6135 6237     .0(debug):fc5a7b
2fff6924:	3330 2d38 6964 7472 2879 6366 6135 6237     038-dirty(fc5a7b
2fff6934:	3330 0029                                   03).

2fff6938 <build_message>:
2fff6938:	7542 6c69 2074 203a 3032 303a 3a37 3135     Built : 20:07:51
2fff6948:	202c 7541 2067 3720 3220 3230 0034 6c62     , Aug  7 2024.bl
2fff6958:	2f32 6c62 5f32 6d69 6761 5f65 6f6c 6461     2/bl2_image_load
2fff6968:	765f 2e32 0063 421e 324c 203a 6c50 7461     _v2.c..BL2: Plat
2fff6978:	6f66 6d72 7320 7465 7075 6120 726c 6165     form setup alrea
2fff6988:	7964 6420 6e6f 2165 0a21 2800 4c42 3a32     dy done!!..(BL2:
2fff6998:	4420 696f 676e 7020 616c 6674 726f 206d      Doing platform 
2fff69a8:	6573 7574 0a70 0a00 4c42 3a32 4620 6961     setup...BL2: Fai
2fff69b8:	756c 6572 6920 206e 7270 2065 6d69 6761     lure in pre imag
2fff69c8:	2065 6f6c 6461 6820 6e61 6c64 6e69 2067     e load handling 
2fff69d8:	2528 2969 000a 4228 324c 203a 6f4c 6461     (%i)..(BL2: Load
2fff69e8:	6e69 2067 6d69 6761 2065 6469 2520 0a75     ing image id %u.
2fff69f8:	0a00 4c42 3a32 4620 6961 656c 2064 6f74     ..BL2: Failed to
2fff6a08:	6c20 616f 2064 6d69 6761 2065 6469 2520      load image id %
2fff6a18:	2075 2528 2969 000a 4228 324c 203a 6b53     u (%i)..(BL2: Sk
2fff6a28:	7069 6c20 616f 6964 676e 6920 616d 6567     ip loading image
2fff6a38:	6920 2064 7525 000a 420a 324c 203a 6146      id %u...BL2: Fa
2fff6a48:	6c69 7275 2065 6e69 7020 736f 2074 6d69     ilure in post im
2fff6a58:	6761 2065 6f6c 6461 6820 6e61 6c64 6e69     age load handlin
2fff6a68:	2067 2528 2969 000a 4214 324c 203a 7325     g (%i)...BL2: %s
2fff6a78:	000a 4214 324c 203a 6f42 746f 6e69 2067     ...BL2: Booting 
2fff6a88:	4c42 3233 000a 6f63 6d6d 6e6f 642f 7365     BL32..common/des
2fff6a98:	5f63 6d69 6761 5f65 6f6c 6461 632e           c_image_load.c.

2fff6aa7 <CSWTCH.28>:
2fff6aa7:	1019 631b 6d6f 6f6d 2f6e 6466 5f74 7277     ...common/fdt_wr
2fff6ab7:	7061 6570 7372 632e 1e00 7250 706f 7265     appers.c..Proper
2fff6ac7:	7974 6c20 6e65 7467 2068 696d 6d73 7461     ty length mismat
2fff6ad7:	6863 000a 431e 756f 646c 276e 2074 6966     ch...Couldn't fi
2fff6ae7:	646e 7020 6f72 6570 7472 2079 7325 6920     nd property %s i
2fff6af7:	206e 7464 0a62 1e00 7453 6972 676e 6f20     n dtb...String o
2fff6b07:	2066 7270 706f 7265 7974 2520 2073 6e69     f property %s in
2fff6b17:	6420 6274 6820 7361 6220 6565 206e 7274      dtb has been tr
2fff6b27:	6e75 6163 6574 0a64 2f00 6573 7563 6572     uncated../secure
2fff6b37:	632d 6f68 6573 006e 632f 6f68 6573 006e     -chosen./chosen.
2fff6b47:	7473 6f64 7475 702d 7461 0068 461e 6961     stdout-path..Fai
2fff6b57:	656c 2064 6f74 7320 7465 7220 6665 7265     led to set refer
2fff6b67:	6e65 6563 7420 206f 6d69 6761 2065 6469     ence to image id
2fff6b77:	253d 2075 2528 2969 000a 461e 6961 656c     =%u (%i)...Faile
2fff6b87:	2064 6f74 6c20 616f 2064 6d69 6761 2065     d to load image 
2fff6b97:	6469 6920 3d64 7525 2820 6925 0a29 1e00     id id=%u (%i)...
2fff6ba7:	6146 6c69 6465 7420 206f 6572 6461 6920     Failed to read i
2fff6bb7:	616d 6567 6920 3d64 7525 2820 6925 0a29     mage id=%u (%i).
2fff6bc7:	1e00 6552 6461 6220 7479 7365 2820 7a25     ..Read bytes (%z
2fff6bd7:	2975 6920 736e 6574 6461 6f20 2066 7865     u) instead of ex
2fff6be7:	6570 7463 6465 2820 7a25 2975 6220 7479     pected (%zu) byt
2fff6bf7:	7365 000a 491e 636e 726f 6572 7463 4620     es...Incorrect F
2fff6c07:	5557 4d20 7465 6461 7461 2061 6576 7372     WU Metadata vers
2fff6c17:	6f69 206e 666f 2520 0a75 1e00 6341 6974     ion of %u...Acti
2fff6c27:	6576 4920 646e 7865 7620 6c61 6575 2528     ve Index value(%
2fff6c37:	2975 6720 6572 7461 7265 7420 6168 206e     u) greater than 
2fff6c47:	6874 2065 6f63 666e 6769 7275 6465 7620     the configured v
2fff6c57:	6c61 6575 2528 2964 1e00 7250 7665 6f69     alue(%d)..Previo
2fff6c67:	7375 4120 7463 7669 2065 6e49 6564 2078     us Active Index 
2fff6c77:	6176 756c 2865 7525 2029 7267 6165 6574     value(%u) greate
2fff6c87:	2072 6874 6e61 7420 6568 6320 6e6f 6966     r than the confi
2fff6c97:	7567 6572 2064 6176 756c 2865 6425 0029     gured value(%d).
2fff6ca7:	4e1e 6d75 6562 2072 666f 4220 6e61 736b     .Number of Banks
2fff6cb7:	2528 2975 6920 206e 5746 2055 654d 6174     (%u) in FWU Meta
2fff6cc7:	6164 6174 6420 6669 6566 6572 746e 6620     data different f
2fff6cd7:	6f72 206d 6874 2065 6f63 666e 6769 7275     rom the configur
2fff6ce7:	6465 7620 6c61 6575 2528 2964 1e00 754e     ed value(%d)..Nu
2fff6cf7:	626d 7265 6f20 2066 6d49 6761 7365 2528     mber of Images(%
2fff6d07:	2975 6920 206e 5746 2055 654d 6174 6164     u) in FWU Metada
2fff6d17:	6174 6420 6669 6566 6572 746e 6620 6f72     ta different fro
2fff6d27:	206d 6874 2065 6f63 666e 6769 7275 6465     m the configured
2fff6d37:	7620 6c61 6575 2528 2964 1e00 6544 6373      value(%d)..Desc
2fff6d47:	6972 7470 726f 4f20 6666 6573 2874 7830     riptor Offset(0x
2fff6d57:	7825 2029 6e69 7420 6568 4620 5557 4d20     %x) in the FWU M
2fff6d67:	7465 6461 7461 2061 6f6e 2074 7165 6175     etadata not equa
2fff6d77:	206c 6f74 3020 3278 0a30 6300 6568 6b63     l to 0x20..check
2fff6d87:	6620 6961 656c 2064 6e6f 4620 5557 6d20      failed on FWU m
2fff6d97:	7465 6461 7461 0061 531e 6e61 7469 2079     etadata..Sanity 
2fff6da7:	7325 000a 431e 4352 2520 0a73 6400 6972     %s...CRC %s..dri
2fff6db7:	6576 7372 662f 7577 662f 7577 632e 1e00     vers/fwu/fwu.c..
2fff6dc7:	6f6c 6461 6e69 2067 666f 4620 5557 4d2d     loading of FWU-M
2fff6dd7:	7465 6461 7461 2061 6166 6c69 6465 202c     etadata failed, 
2fff6de7:	7375 6e69 2067 6b42 7075 462d 5557 4d2d     using Bkup-FWU-M
2fff6df7:	7465 6461 7461 0a61 0a00 6f6c 6461 6e69     etadata...loadin
2fff6e07:	2067 666f 4220 756b 2d70 5746 2d55 654d     g of Bkup-FWU-Me
2fff6e17:	6174 6164 6174 6620 6961 656c 0a64 6400     tadata failed..d
2fff6e27:	6972 6576 7372 692f 2f6f 6f69 625f 6f6c     rivers/io/io_blo
2fff6e37:	6b63 632e 6400 6972 6576 7372 692f 2f6f     ck.c.drivers/io/
2fff6e47:	6f69 665f 7069 632e 1e00 6146 6c69 6465     io_fip.c..Failed
2fff6e57:	7420 206f 626f 6174 6e69 7220 6665 7265      to obtain refer
2fff6e67:	6e65 6563 7420 206f 6d69 6761 2065 6469     ence to image id
2fff6e77:	253d 2075 2528 2969 000a 461e 6961 656c     =%u (%i)...Faile
2fff6e87:	2064 6f74 6120 6363 7365 2073 6d69 6761     d to access imag
2fff6e97:	2065 6469 253d 2075 2528 2969 000a 461e     e id=%u (%i)...F
2fff6ea7:	7269 776d 7261 2065 6d49 6761 2065 6150     irmware Image Pa
2fff6eb7:	6b63 6761 2065 6568 6461 7265 6320 6568     ckage header che
2fff6ec7:	6b63 6620 6961 656c 2e64 000a 461e 6961     ck failed....Fai
2fff6ed7:	656c 2064 6f74 6f20 6570 206e 4946 2050     led to open FIP 
2fff6ee7:	2528 2969 000a 661e 7069 665f 6c69 5f65     (%i)...fip_file_
2fff6ef7:	6572 6461 203a 6166 6c69 6465 7420 206f     read: failed to 
2fff6f07:	6573 6b65 000a 461e 6961 656c 2064 6f74     seek...Failed to
2fff6f17:	7220 6165 2064 6170 6c79 616f 2064 2528      read payload (%
2fff6f27:	2969 000a 661e 7069 665f 6c69 5f65 706f     i)...fip_file_op
2fff6f37:	6e65 3a20 4f20 6c6e 2079 6e6f 2065 706f     en : Only one op
2fff6f47:	6e65 6620 6c69 2065 7461 6120 7420 6d69     en file at a tim
2fff6f57:	2e65 000a 461e 6961 656c 2064 6f74 6f20     e....Failed to o
2fff6f67:	6570 206e 6946 6d72 6177 6572 4920 616d     pen Firmware Ima
2fff6f77:	6567 5020 6361 616b 6567 2820 6925 0a29     ge Package (%i).
2fff6f87:	1e00 6966 5f70 6966 656c 6f5f 6570 3a6e     ..fip_file_open:
2fff6f97:	6620 6961 656c 2064 6f74 7320 6565 0a6b      failed to seek.
2fff6fa7:	1e00 6146 6c69 6465 7420 206f 6572 6461     ..Failed to read
2fff6fb7:	4620 5049 2820 6925 0a29                      FIP (%i)..

2fff6fc2 <uuid_null.0>:
	...
2fff6fd2:	7264 7669 7265 2f73 6f69 692f 5f6f 7473     drivers/io/io_st
2fff6fe2:	726f 6761 2e65 0063 430a 444d 3331 6620     orage.c..CMD13 f
2fff6ff2:	6961 656c 2064 6661 6574 2072 6425 7220     ailed after %d r
2fff7002:	7465 6972 7365 000a 7264 7669 7265 2f73     etries..drivers/
2fff7012:	6d6d 2f63 6d6d 2e63 0063 430a 444d 2031     mmc/mmc.c..CMD1 
2fff7022:	6166 6c69 6465 6120 7466 7265 2520 2064     failed after %d 
2fff7032:	6572 7274 6569 0a73 0a00 4341 444d 3134     retries...ACMD41
2fff7042:	6620 6961 656c 2064 6661 6574 2072 6425      failed after %d
2fff7052:	7220 7465 6972 7365 000a 571e 6f72 676e      retries...Wrong
2fff7062:	6220 7375 6320 6e6f 6966 2067 6f66 2072      bus config for 
2fff7072:	4453 632d 7261 2c64 6620 726f 6563 7420     SD-card, force t
2fff7082:	206f 0a34 0a00 4341 444d 3135 6620 6961     o 4...ACMD51 fai
2fff7092:	656c 2064 6661 6574 2072 6425 7220 7465     led after %d ret
2fff70a2:	6972 7365 2820 6572 3d74 6425 0a29           ries (ret=%d)..

2fff70b1 <sd_tran_speed_base>:
2fff70b1:	0a00 0d0c 140f 1e19 2823 322d 3c37 5046     ........#(-27<FP

2fff70c1 <tran_speed_base>:
2fff70c1:	0a00 0d0c 140f 1e1a 2823 342d 3c37 5046     ........#(-47<FP
2fff70d1:	7264 7669 7265 2f73 6170 7472 7469 6f69     drivers/partitio
2fff70e1:	2f6e 7067 2e74 0063 461e 6961 656c 2064     n/gpt.c..Failed 
2fff70f1:	6f74 7320 6565 206b 2528 2969 000a 461e     to seek (%i)...F
2fff7101:	6961 656c 2064 6f74 7220 6165 2064 6164     ailed to read da
2fff7111:	6174 2820 6925 0a29 4500 4946 5020 5241     ta (%i)..EFI PAR
2fff7121:	0054 490a 766e 6c61 6469 4720 5450 4820     T..Invalid GPT H
2fff7131:	6165 6564 2072 5243 3a43 4520 7078 6365     eader CRC: Expec
2fff7141:	6574 2064 7830 7825 6220 7475 6720 746f     ted 0x%x but got
2fff7151:	3020 2578 2e78 000a 7264 7669 7265 2f73      0x%x...drivers/
2fff7161:	6170 7472 7469 6f69 2f6e 6170 7472 7469     partition/partit
2fff7171:	6f69 2e6e 0063 440a 5244 7420 7079 2065     ion.c..DDR type 
2fff7181:	6f6e 2074 7573 7070 726f 6574 0a64 7300     not supported..s
2fff7191:	6174 6974 0063 7473 732c 6d74 3233 706d     tatic.st,stm32mp
2fff71a1:	2d31 6464 0072 250a 3a73 4320 6e61 6f6e     1-ddr..%s: Canno
2fff71b1:	2074 6572 6461 4420 5244 6e20 646f 2065     t read DDR node 
2fff71c1:	6e69 4420 0a54 0a00 4444 2052 7772 7420     in DT...DDR rw t
2fff71d1:	7365 3a74 4320 6e61 7427 6120 6363 7365     est: Can't acces
2fff71e1:	2073 656d 6f6d 7972 4020 3020 2578 786c     s memory @ 0x%lx
2fff71f1:	000a 440a 5244 6420 7461 2061 7562 2073     ...DDR data bus 
2fff7201:	6574 7473 203a 6163 276e 2074 6361 6563     test: can't acce
2fff7211:	7373 6d20 6d65 726f 2079 2040 7830 6c25     ss memory @ 0x%l
2fff7221:	0a78 0a00 4444 2052 6461 7264 6220 7375     x...DDR addr bus
2fff7231:	7420 7365 3a74 6320 6e61 7427 6120 6363      test: can't acc
2fff7241:	7365 2073 656d 6f6d 7972 4020 3020 2578     ess memory @ 0x%
2fff7251:	786c 000a 440a 5244 7320 7a69 3a65 3020     lx...DDR size: 0
2fff7261:	2578 787a 6420 656f 2073 6f6e 2074 616d     x%zx does not ma
2fff7271:	6374 2068 5444 6320 6e6f 6966 3a67 3020     tch DT config: 0
2fff7281:	2578 787a 000a 4d28 6d65 726f 2079 6973     x%zx..(Memory si
2fff7291:	657a 3d20 3020 2578 787a 2820 7a25 2075     ze = 0x%zx (%zu 
2fff72a1:	424d 0a29 0a00 4444 2052 7865 6570 7463     MB)...DDR expect
2fff72b1:	6465 6620 6572 2071 7525 6b20 7a48 202c     ed freq %u kHz, 
2fff72c1:	7563 7272 6e65 2074 7369 2520 756c 6b20     current is %lu k
2fff72d1:	7a48 000a                                   Hz..

2fff72d5 <__func__.0>:
2fff72d5:	7473 336d 6d32 3170 645f 7264 735f 7465     stm32mp1_ddr_set
2fff72e5:	7075 7300 2c74 7463 2d6c 6572 0067 7473     up.st,ctl-reg.st
2fff72f5:	632c 6c74 742d 6d69 6e69 0067 7473 632c     ,ctl-timing.st,c
2fff7305:	6c74 6d2d 7061 7300 2c74 7463 2d6c 6570     tl-map.st,ctl-pe
2fff7315:	6672 7300 2c74 6870 2d79 6572 0067 7473     rf.st,phy-reg.st
2fff7325:	702c 7968 742d 6d69 6e69 0067 7473 6d2c     ,phy-timing.st,m
2fff7335:	6d65 732d 6570 6465 7300 2c74 656d 2d6d     em-speed.st,mem-
2fff7345:	616e 656d 2800 4152 3a4d 2520 0a73 0a00     name.(RAM: %s...
2fff7355:	7325 203a 6143 6e6e 746f 7220 6165 2064     %s: Cannot read 
2fff7365:	7325 202c 7265 6f72 3d72 6425 000a          %s, error=%d..

2fff7373 <__func__.0>:
2fff7373:	7473 336d 6d32 5f70 6464 5f72 7464 675f     stm32mp_ddr_dt_g
2fff7383:	7465 705f 7261 6d61 6400 6972 6576 7372     et_param.drivers
2fff7393:	732f 2f74 6d6d 2f63 7473 336d 5f32 6473     /st/mmc/stm32_sd
2fff73a3:	6d6d 3263 632e 0a00 7325 203a 6974 656d     mmc2.c..%s: time
2fff73b3:	756f 2074 3031 736d 2820 6d63 2064 203d     out 10ms (cmd = 
2fff73c3:	7525 732c 6174 7574 2073 203d 7825 0a29     %u,status = %x).
2fff73d3:	0a00 7325 203a 5443 4d49 4f45 5455 2820     ..%s: CTIMEOUT (
2fff73e3:	6d63 2064 203d 7525 732c 6174 7574 2073     cmd = %u,status 
2fff73f3:	203d 7825 0a29 0a00 7325 203a 5243 4643     = %x)...%s: CRCF
2fff7403:	4941 204c 6328 646d 3d20 2520 2c75 7473     AIL (cmd = %u,st
2fff7413:	7461 7375 3d20 2520 2978 000a 250a 3a73     atus = %x)...%s:
2fff7423:	4520 7272 726f 6620 616c 2067 6328 646d      Error flag (cmd
2fff7433:	3d20 2520 2c75 7473 7461 7375 3d20 2520      = %u,status = %
2fff7443:	2978 000a 201e 4d43 2544 2c75 5220 7465     x)... CMD%u, Ret
2fff7453:	7972 203a 7525 202c 7245 6f72 3a72 2520     ry: %u, Error: %
2fff7463:	0a64 0a00 7325 203a 6552 6461 6520 7272     d...%s: Read err
2fff7473:	726f 2820 7473 7461 7375 3d20 2520 2978     or (status = %x)
2fff7483:	000a 250a 3a73 7420 6d69 6f65 7475 3120     ...%s: timeout 1
2fff7493:	2073 7328 6174 7574 2073 203d 7825 0a29     s (status = %x).
2fff74a3:	1e00 7325 203a 5044 4d53 4341 3d54 2c31     ..%s: DPSMACT=1,
2fff74b3:	7320 6e65 2064 7473 706f 000a 430a 444d      send stop...CMD
2fff74c3:	3631 6620 6961 656c 0a64 0a00 7325 203a     16 failed...%s: 
2fff74d3:	5444 6520 7272 726f 000a 7473 732c 6d74     DT error..st,stm
2fff74e3:	3233 732d 6d64 636d 0032 7473 752c 6573     32-sdmmc2.st,use
2fff74f3:	632d 696b 006e 7473 732c 6769 642d 7269     -ckin.st,sig-dir
2fff7503:	7300 2c74 656e 2d67 6465 6567 6200 7375     .st,neg-edge.bus
2fff7513:	772d 6469 6874 6d00 7861 662d 6572 7571     -width.max-frequ
2fff7523:	6e65 7963 7600 6d6d 0063                    ency.vmmc.

2fff752d <__func__.0>:
2fff752d:	7473 336d 5f32 6473 6d6d 3263 735f 6e65     stm32_sdmmc2_sen
2fff753d:	5f64 6d63 5f64 6572 0071                    d_cmd_req.

2fff7547 <__func__.1>:
2fff7547:	7473 336d 5f32 6473 6d6d 3263 725f 6165     stm32_sdmmc2_rea
2fff7557:	0064                                        d.

2fff7559 <__func__.2>:
2fff7559:	7473 336d 5f32 6473 6d6d 3263 6d5f 636d     stm32_sdmmc2_mmc
2fff7569:	695f 696e 0074 696c 2f62 6366 6e6f 2f66     _init.lib/fconf/
2fff7579:	6366 6e6f 2e66 0063 4628 4f43 464e 203a     fconf.c.(FCONF: 
2fff7589:	6f43 666e 6769 6620 6c69 2065 6977 6874     Config file with
2fff7599:	6920 616d 6567 4920 3a44 7525 6c20 616f      image ID:%u loa
2fff75a9:	6564 2064 7461 6120 6464 6572 7373 3d20     ded at address =
2fff75b9:	3020 2578 786c 000a 460a 4f43 464e 203a      0x%lx...FCONF: 
2fff75c9:	6e49 6176 696c 2064 5444 2042 6966 656c     Invalid DTB file
2fff75d9:	7020 7361 6573 2064 6f66 2072 7325 000a      passed for %s..
2fff75e9:	4628 4f43 464e 203a 6552 6461 6e69 2067     (FCONF: Reading 
2fff75f9:	7325 6620 7269 776d 7261 2065 6f63 666e     %s firmware conf
2fff7609:	6769 7275 7461 6f69 206e 6966 656c 6620     iguration file f
2fff7619:	6f72 3a6d 3020 2578 786c 000a 4628 4f43     rom: 0x%lx..(FCO
2fff7629:	464e 203a 6552 6461 6e69 2067 6966 6d72     NF: Reading firm
2fff7639:	6177 6572 6320 6e6f 6966 7567 6172 6974     ware configurati
2fff7649:	6e6f 6920 666e 726f 616d 6974 6e6f 6620     on information f
2fff7659:	726f 203a 7325 000a 430a 6e61 6f6e 2074     or: %s...Cannot 
2fff7669:	6c61 6f6c 6163 6574 2520 757a 6f20 6a62     allocate %zu obj
2fff7679:	6365 7374 6f20 7475 6f20 2066 6f70 6c6f     ects out of pool
2fff7689:	2820 7a25 2075 626f 656a 7463 2073 656c      (%zu objects le
2fff7699:	7466 2e29 000a 6366 6e6f 2c66 7964 5f6e     ft)...fconf,dyn_
2fff76a9:	6663 2d67 7464 5f62 6572 6967 7473 7972     cfg-dtb_registry
2fff76b9:	0a00 4346 4e4f 3a46 4320 6e61 7427 6620     ..FCONF: Can't f
2fff76c9:	6e69 2064 7325 6320 6d6f 6170 6974 6c62     ind %s compatibl
2fff76d9:	2065 6e69 6420 6274 000a 460a 4f43 464e     e in dtb...FCONF
2fff76e9:	203a 6e49 6f63 706d 656c 6574 6320 6e6f     : Incomplete con
2fff76f9:	6966 7567 6172 6974 6e6f 7020 6f72 6570     figuration prope
2fff7709:	7472 2079 6e69 6420 6274 722d 6765 7369     rty in dtb-regis
2fff7719:	7274 2e79 000a 616d 2d78 6973 657a 6e00     try...max-size.n
2fff7729:	2d73 6f6c 6461 612d 6464 6572 7373 0a00     s-load-address..
2fff7739:	6425 203a 6466 5f74 6f66 5f72 6165 6863     %d: fdt_for_each
2fff7749:	735f 6275 6f6e 6564 2928 203a 6425 000a     _subnode(): %d..
2fff7759:	461e 4f43 464e 203a 6e49 6176 696c 2064     .FCONF: Invalid 
2fff7769:	6f63 666e 6769 6920 2064 7525 000a 5746     config id %u..FW
2fff7779:	435f 4e4f 4946 0047 7964 5f6e 6663 0067     _CONFIG.dyn_cfg.
2fff7789:	541e 6568 6c20 616f 2064 6461 7264 7365     .The load addres
2fff7799:	2073 6e69 6f20 7470 6565 6820 6165 6564     s in optee heade
2fff77a9:	2072 7025 2d20 2520 2070 7369 6e20 746f     r %p - %p is not
2fff77b9:	6920 206e 6572 6573 7672 6465 6120 6572      in reserved are
2fff77c9:	3a61 2520 2070 202d 7025 0a2e 6c00 6269     a: %p - %p...lib
2fff77d9:	6f2f 7470 6565 6f2f 7470 6565 755f 6974     /optee/optee_uti
2fff77e9:	736c 632e 2800 504f 4554 2045 7065 303d     ls.c.(OPTEE ep=0
2fff77f9:	2578 0a78 2800 504f 4554 2045 6568 6461     x%x..(OPTEE head
2fff7809:	7265 6920 666e 3a6f 000a 2028 2020 2020     er info:..(     
2fff7819:	6d20 6761 6369 303d 2578 0a78 2800 2020      magic=0x%x..(  
2fff7829:	2020 2020 6576 7372 6f69 3d6e 7830 7825         version=0x%x
2fff7839:	000a 2028 2020 2020 6120 6372 3d68 7830     ..(      arch=0x
2fff7849:	7825 000a 2028 2020 2020 6620 616c 7367     %x..(      flags
2fff7859:	303d 2578 0a78 2800 2020 2020 2020 626e     =0x%x..(      nb
2fff7869:	695f 616d 6567 3d73 7830 7825 000a 4928     _images=0x%x..(I
2fff7879:	766e 6c61 6469 4f20 5450 4545 6820 6165     nvalid OPTEE hea
2fff7889:	6564 2c72 7320 7465 6c20 6765 6361 2079     der, set legacy 
2fff7899:	6f6d 6564 0a2e 0a00 6150 6567 2064 6d69     mode....Paged im
2fff78a9:	6761 2065 7369 6e20 746f 7320 7075 6f70     age is not suppo
2fff78b9:	7472 6465 000a 500a 7261 6573 6f20 7470     rted...Parse opt
2fff78c9:	6565 6920 616d 6567 6620 6961 656c 2e64     ee image failed.
2fff78d9:	000a 430a 6e61 6f6e 2074 6f62 746f 6120     ...Cannot boot a
2fff78e9:	206e 4141 6372 3668 2034 504f 542d 4545     n AArch64 OP-TEE
2fff78f9:	000a 5528 6973 676e 5320 4d44 434d 000a     ..(Using SDMMC..
2fff7909:	5528 6973 676e 4520 4d4d 0a43 2800 7355     (Using EMMC..(Us
2fff7919:	6e69 2067 5053 2049 4f4e 0a52 2800 7355     ing SPI NOR..(Us
2fff7929:	6e69 2067 4d46 2043 414e 444e 000a 5528     ing FMC NAND..(U
2fff7939:	6973 676e 5320 4950 4e20 4e41 0a44 2800     sing SPI NAND..(
2fff7949:	7355 6e69 2067 4155 5452 000a 5528 6973     Using UART..(Usi
2fff7959:	676e 5520 4253 000a 420a 6f6f 2074 6e69     ng USB...Boot in
2fff7969:	6574 6672 6361 2065 7525 6e20 746f 6620     terface %u not f
2fff7979:	756f 646e 000a 2028 4920 736e 6174 636e     ound..(  Instanc
2fff7989:	2065 6425 000a 4228 6f6f 2074 7375 6465     e %d..(Boot used
2fff7999:	7020 7261 6974 6974 6e6f 6620 6273 256c      partition fsbl%
2fff79a9:	0a75 7000 616c 2f74 7473 632f 6d6f 6f6d     u..plat/st/commo
2fff79b9:	2f6e 6c62 5f32 6f69 735f 6f74 6172 6567     n/bl2_io_storage
2fff79c9:	632e 1e00 4453 4d4d 2043 6e69 7473 6e61     .c..SDMMC instan
2fff79d9:	6563 6e20 746f 6620 756f 646e 202c 7375     ce not found, us
2fff79e9:	6e69 2067 6564 6166 6c75 0a74 0a00 4453     ing default...SD
2fff79f9:	4d4d 2543 2075 6e69 7469 6620 6961 656c     MMC%u init faile
2fff7a09:	0a64 0a00 6f42 746f 6920 746e 7265 6166     d...Boot interfa
2fff7a19:	6563 2520 2064 6f6e 2074 7573 7070 726f     ce %d not suppor
2fff7a29:	6574 0a64 0a00 4946 2050 6f4e 2074 6f66     ted...FIP Not fo
2fff7a39:	6e75 0a64 1e00 7254 6169 206c 5746 2055     und...Trial FWU 
2fff7a49:	6166 6c69 2073 7525 7420 6d69 7365 000a     fails %u times..
2fff7a59:	540a 6568 6120 7463 7669 2065 6162 6b6e     .The active bank
2fff7a69:	2528 2975 6f20 2066 6874 2065 6c70 7461     (%u) of the plat
2fff7a79:	6f66 6d72 6920 2073 6e69 4920 766e 6c61     form is in Inval
2fff7a89:	6469 5320 6174 6574 0a2e 0a00 6e55 6261     id State....Unab
2fff7a99:	656c 7420 206f 6567 2074 6d69 6761 2065     le to get image 
2fff7aa9:	7073 6365 6620 726f 7420 6568 6920 616d     spec for the ima
2fff7ab9:	6567 6920 206e 6874 2065 656d 6174 6164     ge in the metada
2fff7ac9:	6174 000a 4e0a 206f 6170 7472 7469 6f69     ta...No partitio
2fff7ad9:	206e 6977 6874 7420 6568 7520 6975 2064     n with the uuid 
2fff7ae9:	656d 746e 6f69 656e 2064 6e69 6d20 7465     mentioned in met
2fff7af9:	6461 7461 0a61 6d00 7465 6461 7461 3161     adata..metadata1
2fff7b09:	6d00 7465 6461 7461 3261 0a00 6e55 6261     .metadata2..Unab
2fff7b19:	656c 7420 206f 6966 646e 6120 6d20 7465     le to find a met
2fff7b29:	6461 7461 2061 6170 7472 7469 6f69 0a6e     adata partition.
2fff7b39:	7300 2c74 6f69 662d 7069 682d 6e61 6c64     .st,io-fip-handl
2fff7b49:	0065 461e 4f43 464e 203a 6552 6461 6320     e..FCONF: Read c
2fff7b59:	6c65 206c 6166 6c69 6465 6620 726f 2520     ell failed for %
2fff7b69:	0a73 5400 5f42 5746 7300 6d74 3233 706d     s..TB_FW.stm32mp
2fff7b79:	695f 006f 6c62 3233 755f 6975 0064 6c62     _io.bl32_uuid.bl
2fff7b89:	3233 655f 7478 6172 5f31 7575 6469 6200     32_extra1_uuid.b
2fff7b99:	336c 5f32 7865 7274 3261 755f 6975 0064     l32_extra2_uuid.
2fff7ba9:	6c62 3333 755f 6975 0064 7768 635f 6766     bl33_uuid.hw_cfg
2fff7bb9:	755f 6975 0064 6f74 5f73 7766 635f 6766     _uuid.tos_fw_cfg
2fff7bc9:	755f 6975 0064 490a 766e 6c61 6469 4420     _uuid..Invalid D
2fff7bd9:	5244 6920 696e 3a74 6520 7272 726f 2520     DR init: error %
2fff7be9:	0a64 0a00 4444 2052 616d 7070 6e69 3a67     d...DDR mapping:
2fff7bf9:	6520 7272 726f 2520 0a64 6600 6961 656c      error %d..faile
2fff7c09:	0064 7573 6363 6565 6564 0064 4e49 4554     d.succeeded.INTE
2fff7c19:	4e52 4c41 4500 5458 5245 414e 004c 4d14     RNAL.EXTERNAL..M
2fff7c29:	646f 6c65 203a 7325 000a 4214 6f6f 7274     odel: %s...Bootr
2fff7c39:	6d6f 6120 7475 6568 746e 6369 7461 6f69     om authenticatio
2fff7c49:	206e 7325 000a 2a0a 202a 4e49 5254 5355     n %s...** INTRUS
2fff7c59:	4f49 204e 4c41 5245 3a54 4c20 4553 4d20     ION ALERT: LSE M
2fff7c69:	4e4f 5449 524f 4e49 2047 4154 504d 5245     ONITORING TAMPER
2fff7c79:	4420 5445 4345 4554 2044 2a2a 000a 2a0a      DETECTED **...*
2fff7c89:	202a 6552 6f62 746f 6e69 2e67 2e2e 2a20     * Rebooting... *
2fff7c99:	0a2a 0a00 2a2a 4920 544e 5552 4953 4e4f     *...** INTRUSION
2fff7ca9:	4120 454c 5452 203a 7325 5420 4d41 4550      ALERT: %s TAMPE
2fff7cb9:	2052 7525 4420 5445 4345 4554 2044 2a2a     R %u DETECTED **
2fff7cc9:	000a 530a 6365 7275 2065 6863 7069 203a     ...Secure chip: 
2fff7cd9:	5254 5355 4554 5f44 4f42 5241 5f44 4f42     TRUSTED_BOARD_BO
2fff7ce9:	544f 6d20 7375 2074 6562 6520 616e 6c62     OT must be enabl
2fff7cf9:	6465 000a 500a 494d 2043 6f76 746c 6761     ed...PMIC voltag
2fff7d09:	7365 6920 696e 2074 6166 6c69 6465 000a     es init failed..
2fff7d19:	0a1e 7325 1e00 6552 6573 2074 6572 7361     ..%s..Reset reas
2fff7d29:	6e6f 7520 6b6e 6f6e 6e77 000a 5228 7365     on unknown..(Res
2fff7d39:	7465 7220 6165 6f73 206e 3028 2578 2978     et reason (0x%x)
2fff7d49:	0a3a 2800 7953 7473 6d65 6520 6978 7374     :..(System exits
2fff7d59:	6620 6f72 206d 5453 4e41 4244 0a59 2800      from STANDBY..(
2fff7d69:	504d 2055 7865 7469 2073 7266 6d6f 4320     MPU exits from C
2fff7d79:	5453 4e41 4244 0a59 2800 2020 6f50 6577     STANDBY..(  Powe
2fff7d89:	2d72 6e6f 5220 7365 7465 2820 7372 5f74     r-on Reset (rst_
2fff7d99:	6f70 2972 000a 2028 4220 6f72 6e77 756f     por)..(  Brownou
2fff7da9:	2074 6552 6573 2074 7228 7473 625f 726f     t Reset (rst_bor
2fff7db9:	0a29 2800 2020 7953 7473 6d65 7220 7365     )..(  System res
2fff7dc9:	7465 6720 6e65 7265 7461 6465 6220 2079     et generated by 
2fff7dd9:	434d 2055 4d28 5343 5359 5352 2954 000a     MCU (MCSYSRST)..
2fff7de9:	2028 4c20 636f 6c61 7220 7365 7465 6720     (  Local reset g
2fff7df9:	6e65 7265 7461 6465 6220 2079 434d 2055     enerated by MCU 
2fff7e09:	4d28 5343 5359 5352 2954 000a 2028 5320     (MCSYSRST)..(  S
2fff7e19:	7379 6574 206d 6572 6573 2074 6567 656e     ystem reset gene
2fff7e29:	6172 6574 2064 7962 4d20 5550 2820 504d     rated by MPU (MP
2fff7e39:	5953 5253 5453 0a29 2800 2020 6552 6573     SYSRST)..(  Rese
2fff7e49:	2074 7564 2065 6f74 6120 6320 6f6c 6b63     t due to a clock
2fff7e59:	6620 6961 756c 6572 6f20 206e 5348 0a45      failure on HSE.
2fff7e69:	2800 2020 5749 4744 2031 6552 6573 2074     .(  IWDG1 Reset 
2fff7e79:	7228 7473 695f 6477 3167 0a29 2800 2020     (rst_iwdg1)..(  
2fff7e89:	5749 4744 2032 6552 6573 2074 7228 7473     IWDG2 Reset (rst
2fff7e99:	695f 6477 3267 0a29 2800 2020 504d 2055     _iwdg2)..(  MPU 
2fff7ea9:	7250 636f 7365 6f73 2072 2030 6552 6573     Processor 0 Rese
2fff7eb9:	0a74 2800 2020 504d 2055 7250 636f 7365     t..(  MPU Proces
2fff7ec9:	6f73 2072 2031 6552 6573 0a74 2800 2020     sor 1 Reset..(  
2fff7ed9:	6150 2064 6552 6573 2074 7266 6d6f 4e20     Pad Reset from N
2fff7ee9:	5352 0a54 2800 2020 6552 6573 2074 7564     RST..(  Reset du
2fff7ef9:	2065 6f74 6120 6620 6961 756c 6572 6f20     e to a failure o
2fff7f09:	2066 4456 5f44 4f43 4552 000a 200a 5520     f VDD_CORE...  U
2fff7f19:	696e 6564 746e 6669 6569 2064 6572 6573     nidentified rese
2fff7f29:	2074 6572 7361 6e6f 000a 6f6d 6f6e 6f74     t reason..monoto
2fff7f39:	696e 5f63 746f 0070 420a 4553 3a43 4d20     nic_otp..BSEC: M
2fff7f49:	4e4f 544f 4e4f 4349 4f5f 5054 7020 6f72     ONOTONIC_OTP pro
2fff7f59:	7267 6d61 4520 7272 726f 2520 0a75 2800     gram Error %u..(
2fff7f69:	6f4d 6f6e 6f74 696e 2063 6f63 6e75 6574     Monotonic counte
2fff7f79:	2072 6168 2073 6562 6e65 6920 636e 6572     r has been incre
2fff7f89:	656d 746e 6465 2820 6176 756c 2065 7830     mented (value 0x
2fff7f99:	7825 0a29 7000 616c 2f74 7473 732f 6d74     %x)..plat/st/stm
2fff7fa9:	3233 706d 2f31 6c62 5f32 6c70 7461 735f     32mp1/bl2_plat_s
2fff7fb9:	7465 7075 632e 0a00 504f 4554 2045 6568     etup.c..OPTEE he
2fff7fc9:	6461 7265 7020 7261 6573 6520 7272 726f     ader parse error
2fff7fd9:	0a2e                                         ...

2fff7fdc <debug_msg>:
2fff7fdc:	2a2a 2a2a 2a2a 2a2a 2a2a 2a2a 2a2a 2a2a     ****************
2fff7fec:	2a2a 2a2a 2a2a 2a2a 2a2a 2a2a 2a2a 2a2a     ****************
2fff7ffc:	2a2a 2a2a 2a2a 2a2a 2a2a 2a2a 2a2a 2a2a     ****************
2fff800c:	2a2a 0a2a 2a2a 4420 4245 4755 4120 4343     ***.** DEBUG ACC
2fff801c:	5345 2053 4f50 5452 4920 2053 504f 4e45     ESS PORT IS OPEN
2fff802c:	2021 2020 2020 2020 2020 2020 2020 2020     !               
2fff803c:	2020 2020 2a20 0a2a 2a2a 5420 6968 2073          **.** This 
2fff804c:	6f62 746f 6920 616d 6567 6920 2073 6e6f     boot image is on
2fff805c:	796c 6620 726f 6420 6265 6775 6967 676e     ly for debugging
2fff806c:	7020 7275 6f70 6573 2a20 0a2a 2a2a 6120      purpose **.** a
2fff807c:	646e 6920 2073 6e75 6173 6566 6620 726f     nd is unsafe for
2fff808c:	7020 6f72 7564 7463 6f69 206e 7375 2e65      production use.
2fff809c:	2020 2020 2020 2020 2020 2020 2a20 0a2a                  **.
2fff80ac:	2a2a 2020 2020 2020 2020 2020 2020 2020     **              
2fff80bc:	2020 2020 2020 2020 2020 2020 2020 2020                     
2fff80cc:	2020 2020 2020 2020 2020 2020 2020 2020                     
2fff80dc:	2a20 0a2a 2a2a 4920 2066 6f79 2075 6573      **.** If you se
2fff80ec:	2065 6874 7369 6d20 7365 6173 6567 6120     e this message a
2fff80fc:	646e 7920 756f 6120 6572 6e20 746f 2020     nd you are not  
2fff810c:	2020 2020 2a20 0a2a 2a2a 6420 6265 6775          **.** debug
2fff811c:	6967 676e 7220 7065 726f 2074 6874 7369     ging report this
2fff812c:	6920 6d6d 6465 6169 6574 796c 7420 206f      immediately to 
2fff813c:	6f79 7275 2020 2020 2a20 0a2a 2a2a 7620     your     **.** v
2fff814c:	6e65 6f64 2172 2020 2020 2020 2020 2020     endor!          
2fff815c:	2020 2020 2020 2020 2020 2020 2020 2020                     
2fff816c:	2020 2020 2020 2020 2020 2020 2a20 0a2a                  **.
2fff817c:	2a2a 2a2a 2a2a 2a2a 2a2a 2a2a 2a2a 2a2a     ****************
2fff818c:	2a2a 2a2a 2a2a 2a2a 2a2a 2a2a 2a2a 2a2a     ****************
2fff819c:	2a2a 2a2a 2a2a 2a2a 2a2a 2a2a 2a2a 2a2a     ****************
2fff81ac:	2a2a 0a2a 6200 6375 326b 6c00 6f64 0033     ***..buck2.ldo3.
2fff81bc:	7276 6665 645f 7264 6200 6375 336b 0a00     vref_ddr.buck3..
2fff81cc:	504c 564c 532d 6f74 3270 6d20 646f 2065     LPLV-Stop2 mode 
2fff81dc:	6f6e 2074 7573 7070 726f 6574 0a64 0a00     not supported...
2fff81ec:	6e55 6261 656c 7420 206f 7570 2074 4444     Unable to put DD
2fff81fc:	2052 6e69 5320 0a52 7300 2c74 656d 2d6d     R in SR..st,mem-
2fff820c:	6966 6572 6177 6c6c 6d00 6d65 726f 2d79     firewall.memory-
2fff821c:	6172 676e 7365 7000 616c 2f74 7473 732f     ranges.plat/st/s
2fff822c:	6d74 3233 706d 2f31 7473 336d 6d32 3170     tm32mp1/stm32mp1
2fff823c:	665f 6f63 666e 665f 7269 7765 6c61 2e6c     _fconf_firewall.
2fff824c:	0063 7473 336d 6d32 3170 665f 7269 7765     c.stm32mp1_firew
2fff825c:	6c61 006c 6f63 6d6d 6e6f 622f 5f6c 6f63     all.common/bl_co
2fff826c:	6d6d 6e6f 632e 2800 6f4c 6461 6e69 2067     mmon.c.(Loading 
2fff827c:	6d69 6761 2065 6469 253d 2075 7461 6120     image id=%u at a
2fff828c:	6464 6572 7373 3020 2578 786c 000a 461e     ddress 0x%lx...F
2fff829c:	6961 656c 2064 6f74 6420 7465 7265 696d     ailed to determi
2fff82ac:	656e 7420 6568 7320 7a69 2065 666f 7420     ne the size of t
2fff82bc:	6568 6920 616d 6567 6920 3d64 7525 2820     he image id=%u (
2fff82cc:	6925 0a29 1e00 6d49 6761 2065 6469 253d     %i)...Image id=%
2fff82dc:	2075 6973 657a 6f20 7475 6f20 2066 6f62     u size out of bo
2fff82ec:	6e75 7364 000a 461e 6961 656c 2064 6f74     unds...Failed to
2fff82fc:	6c20 616f 2064 6d69 6761 2065 6469 253d      load image id=%
2fff830c:	2075 2528 2969 000a 4928 616d 6567 6920     u (%i)..(Image i
2fff831c:	3d64 7525 6c20 616f 6564 3a64 3020 2578     d=%u loaded: 0x%
2fff832c:	786c 2d20 3020 2578 786c 000a 4528 746e     lx - 0x%lx..(Ent
2fff833c:	7972 7020 696f 746e 6120 6464 6572 7373     ry point address
2fff834c:	3d20 3020 2578 786c 000a 5328 5350 2052      = 0x%lx..(SPSR 
2fff835c:	203d 7830 7825 000a 6f63 6d6d 6e6f 742f     = 0x%x..common/t
2fff836c:	5f66 6f6c 2e67 0063 7264 7669 7265 2f73     f_log.c.drivers/
2fff837c:	6f63 736e 6c6f 2f65 756d 746c 5f69 6f63     console/multi_co
2fff838c:	736e 6c6f 2e65 0063 5245 4f52 3a52 2020     nsole.c.ERROR:  
2fff839c:	0020 4f4e 4954 4543 203a 0020 4157 4e52      .NOTICE:  .WARN
2fff83ac:	4e49 3a47 0020 4e49 4f46 203a 2020 0020     ING: .INFO:    .
2fff83bc:	4556 4252 534f 3a45 0020 551e 4955 2044     VERBOSE: ..UUID 
2fff83cc:	7473 6972 676e 6920 2073 6f74 206f 6873     string is too sh
2fff83dc:	726f 0a74 1e00 7245 6f72 2072 6170 7372     ort...Error pars
2fff83ec:	6e69 2067 5555 4449 000a 7473 732c 6d74     ing UUID..st,stm
2fff83fc:	3233 706d 622d 6f6f 6974 666e 006f 6c70     32mp-bootinfo.pl
2fff840c:	7461 732f 2f74 6f63 6d6d 6e6f 732f 6d74     at/st/common/stm
2fff841c:	3233 706d 635f 6d6f 6f6d 2e6e 0063 420a     32mp_common.c..B
2fff842c:	4553 3a43 6920 7864 253d 2075 6552 6461     SEC: idx=%u Read
2fff843c:	4520 7272 726f 000a 420a 4553 3a43 2520      Error...BSEC: %
2fff844c:	2073 6552 6461 4520 7272 726f 000a 4214     s Read Error...B
2fff845c:	616f 6472 203a 424d 3025 7834 5620 7261     oard: MB%04x Var
2fff846c:	7525 252e 2075 6552 2e76 6325 252d 3230     %u.%u Rev.%c-%02
2fff847c:	0a75 6d00 6761 6369 6e2d 6d75 6562 0072     u..magic-number.
2fff848c:	6f63 6572 2d31 7262 6e61 6863 612d 6464     core1-branch-add
2fff849c:	6572 7373 6600 7577 692d 666e 006f 6f62     ress.fwu-info.bo
2fff84ac:	746f 6d2d 646f 0065 696c 2f62 6c78 7461     ot-mode.lib/xlat
2fff84bc:	745f 6261 656c 5f73 3276 612f 7261 6863     _tables_v2/aarch
2fff84cc:	3233 782f 616c 5f74 6174 6c62 7365 615f     32/xlat_tables_a
2fff84dc:	6372 2e68 0063 696c 2f62 6c78 7461 745f     rch.c.lib/xlat_t
2fff84ec:	6261 656c 5f73 3276 782f 616c 5f74 6174     ables_v2/xlat_ta
2fff84fc:	6c62 7365 635f 6e6f 6574 7478 632e 6c00     bles_context.c.l
2fff850c:	6269 782f 616c 5f74 6174 6c62 7365 765f     ib/xlat_tables_v
2fff851c:	2f32 6c78 7461 745f 6261 656c 5f73 6f63     2/xlat_tables_co
2fff852c:	6572 632e 0a00 6d6d 7061 615f 6464 725f     re.c..mmap_add_r
2fff853c:	6765 6f69 5f6e 6863 6365 286b 2029 6166     egion_check() fa
2fff854c:	6c69 6465 202e 7265 6f72 2072 6425 000a     iled. error %d..
2fff855c:	4e0a 746f 6520 6f6e 6775 2068 656d 6f6d     .Not enough memo
2fff856c:	7972 7420 206f 616d 2070 6572 6967 6e6f     ry to map region
2fff857c:	0a3a 5620 3a41 7830 6c25 2078 5020 3a41     :. VA:0x%lx  PA:
2fff858c:	7830 6c25 786c 2020 6973 657a 303a 2578     0x%llx  size:0x%
2fff859c:	787a 2020 7461 7274 303a 2578 0a78 6400     zx  attr:0x%x..d
2fff85ac:	6972 6576 7372 632f 6b6c 632f 6b6c 632e     rivers/clk/clk.c
2fff85bc:	6400 6972 6576 7372 642f 6c65 7961 745f     .drivers/delay_t
2fff85cc:	6d69 7265 642f 6c65 7961 745f 6d69 7265     imer/delay_timer
2fff85dc:	632e 6400 6972 6576 7372 642f 6c65 7961     .c.drivers/delay
2fff85ec:	745f 6d69 7265 672f 6e65 7265 6369 645f     _timer/generic_d
2fff85fc:	6c65 7961 745f 6d69 7265 632e 2f00 6c63     elay_timer.c./cl
2fff860c:	636f 736b 6300 6f6c 6b63 662d 6572 7571     ocks.clock-frequ
2fff861c:	6e65 7963 0a00 6e69 6176 696c 2064 6170     ency..invalid pa
2fff862c:	6172 656d 6574 2072 666f 7366 7465 000a     rameter offset..
2fff863c:	7264 7669 7265 2f73 7473 672f 6970 2f6f     drivers/st/gpio/
2fff864c:	7473 336d 5f32 7067 6f69 632e 7000 6e69     stm32_gpio.c.pin
2fff865c:	7463 6c72 302d 7000 6e69 756d 0078 6c73     ctrl-0.pinmux.sl
2fff866c:	7765 722d 7461 0065 6962 7361 702d 6c75     ew-rate.bias-pul
2fff867c:	2d6c 7075 6200 6169 2d73 7570 6c6c 642d     l-up.bias-pull-d
2fff868c:	776f 006e 7264 7669 2d65 706f 6e65 642d     own.drive-open-d
2fff869c:	6172 6e69 6f00 7475 7570 2d74 6968 6867     rain.output-high
2fff86ac:	6f00 7475 7570 2d74 6f6c 0077 7067 6f69     .output-low.gpio
2fff86bc:	632d 6e6f 7274 6c6f 656c 0072 500a 4e49     -controller..PIN
2fff86cc:	5443 4c52 6920 636e 6e6f 6973 7473 6e65     CTRL inconsisten
2fff86dc:	2074 6e69 4420 0a54 1e00 6f4e 2074 6e65     t in DT...Not en
2fff86ec:	756f 6867 7020 616c 6563 6620 726f 4e20     ough place for N
2fff86fc:	4d56 4d45 6420 7665 202c 4c50 5441 4e5f     VMEM dev, PLAT_N
2fff870c:	5f42 564e 454d 5f4d 4544 5356 7320 6f68     B_NVMEM_DEVS sho
2fff871c:	6c75 2064 6562 6920 636e 6572 7361 6465     uld be increased
2fff872c:	0a2e 6e00 6d76 6d65 632d 6c65 736c 0a00     ...nvmem-cells..
2fff873c:	6143 276e 2074 6966 646e 6e20 6d76 6d65     Can't find nvmem
2fff874c:	6320 6c65 006c 251e 3a73 6e20 646f 2065      cell..%s: node 
2fff875c:	6425 6e20 746f 6620 756f 646e 000a 766e     %d not found..nv
2fff876c:	656d 2d6d 6563 6c6c 6e2d 6d61 7365           mem-cell-names.

2fff877b <__func__.0>:
2fff877b:	766e 656d 5f6d 6567 5f74 7962 6e5f 646f     nvmem_get_by_nod
2fff878b:	0065 570a 6f72 676e 6120 6363 7365 2073     e..Wrong access 
2fff879b:	6972 6867 7374 6620 726f 7a20 6e6f 2065     rights for zone 
2fff87ab:	6425 2820 7525 0a29 0a00 6146 6c69 6465     %d (%u)...Failed
2fff87bb:	7420 206f 6572 6461 6220 706b 2520 757a      to read bkp %zu
2fff87cb:	000a 430a 6e61 7427 7220 6165 2064 6966     ...Can't read fi
2fff87db:	6c65 2064 6f66 2072 6572 6967 7473 7265     eld for register
2fff87eb:	2073 6f7a 656e 0a73 1400 6146 6c69 6465     s zones...Failed
2fff87fb:	7420 206f 6567 2074 6874 2065 6162 6b63      to get the back
2fff880b:	7075 7a20 6e6f 2065 7266 6d6f 7420 6d61     up zone from tam
2fff881b:	2070 6572 7367 0a0a 0a00 6146 6c69 6465     p regs....Failed
2fff882b:	7420 206f 6567 2074 6874 2065 6162 6b63      to get the back
2fff883b:	7075 7a20 6e6f 2065 6361 6563 7373 7220     up zone access r
2fff884b:	6769 7468 0a73 000a 7473 732c 6d74 3233     ights...st,stm32
2fff885b:	706d 3531 742d 6d61 2d70 766e 6172 006d     mp15-tamp-nvram.
2fff886b:	7264 7669 7265 2f73 7473 722f 6765 6c75     drivers/st/regul
2fff887b:	7461 726f 722f 6765 6c75 7461 726f 635f     ator/regulator_c
2fff888b:	726f 2e65 0063 251e 3a73 2520 2073 6f6e     ore.c..%s: %s no
2fff889b:	2074 6f66 6e75 0a64 2500 2d73 7573 7070     t found..%s-supp
2fff88ab:	796c 1e00 7325 203a 6870 6e61 6c64 2065     ly..%s: phandle 
2fff88bb:	6425 6e20 746f 6620 756f 646e 000a 720a     %d not found...r
2fff88cb:	6765 6c75 2520 2073 6567 2074 6f76 746c     egul %s get volt
2fff88db:	6761 2065 6166 6c69 6465 203a 7265 3a72     age failed: err:
2fff88eb:	6425 000a 720a 6765 6c75 2520 2073 6573     %d...regul %s se
2fff88fb:	2074 6f76 746c 6620 6961 656c 3a64 6520     t volt failed: e
2fff890b:	7272 253a 0a64 0a00 6572 7567 206c 7325     rr:%d...regul %s
2fff891b:	6c20 7369 5f74 6f76 746c 6761 7365 6620      list_voltages f
2fff892b:	6961 656c 3a64 6520 7272 203a 6425 000a     ailed: err: %d..
2fff893b:	720a 6765 6c75 2520 3a73 6d20 7861 7620     .regul %s: max v
2fff894b:	6c61 6575 2520 2075 7369 6920 766e 6c61     alue %u is inval
2fff895b:	6469 000a 720a 6765 6c75 2520 2073 6573     id...regul %s se
2fff896b:	2074 696d 206e 6f76 746c 6761 2065 7369     t min voltage is
2fff897b:	7420 6f6f 6820 6769 0a68 0a00 6572 7567      too high...regu
2fff898b:	206c 7325 203a 696d 206e 6176 756c 2065     l %s: min value 
2fff899b:	7525 6920 2073 6e69 6176 696c 0a64 0a00     %u is invalid...
2fff89ab:	7325 6320 6e61 6e20 746f 7320 7465 6120     %s can not set a
2fff89bb:	796e 6620 616c 0a67 0a00 7325 203a 6f63     ny flag...%s: co
2fff89cb:	6c75 2064 6f6e 2074 6573 2074 6c66 6761     uld not set flag
2fff89db:	2520 2064 6572 3d74 6425 000a 4e1e 746f      %d ret=%d...Not
2fff89eb:	6520 6f6e 6775 2068 6c70 6361 2065 6f66      enough place fo
2fff89fb:	2072 6572 7567 616c 6f74 7372 202c 4c50     r regulators, PL
2fff8a0b:	5441 4e5f 5f42 4452 5645 2053 6873 756f     AT_NB_RDEVS shou
2fff8a1b:	646c 6220 2065 6e69 7263 6165 6573 2e64     ld be increased.
2fff8a2b:	000a 720a 6765 6c75 2520 2073 6573 2074     ...regul %s set 
2fff8a3b:	7473 7461 2065 6166 6c69 6465 203a 7265     state failed: er
2fff8a4b:	3a72 6425 000a 6572 7567 616c 6f74 2d72     r:%d..regulator-
2fff8a5b:	696d 2d6e 696d 7263 766f 6c6f 0074 250a     min-microvolt..%
2fff8a6b:	3a73 6d20 6e69 6d5f 3d76 6425 6920 2073     s: min_mv=%d is 
2fff8a7b:	6f74 206f 6968 6867 000a 6572 7567 616c     too high..regula
2fff8a8b:	6f74 2d72 616d 2d78 696d 7263 766f 6c6f     tor-max-microvol
2fff8a9b:	0074 250a 3a73 6d20 7861 6d5f 3d76 6425     t..%s: max_mv=%d
2fff8aab:	6920 2073 6f74 206f 6f6c 0a77 7200 6765      is too low..reg
2fff8abb:	6c75 7461 726f 612d 776c 7961 2d73 6e6f     ulator-always-on
2fff8acb:	7200 6765 6c75 7461 726f 652d 616e 6c62     .regulator-enabl
2fff8adb:	2d65 6172 706d 642d 6c65 7961                e-ramp-delay.

2fff8ae8 <__func__.0>:
2fff8ae8:	6572 7567 616c 6f74 5f72 6567 5f74 7962     regulator_get_by
2fff8af8:	705f 6168 646e 656c                          _phandle.

2fff8b01 <__func__.1>:
2fff8b01:	6572 7567 616c 6f74 5f72 6567 5f74 7962     regulator_get_by
2fff8b11:	6e5f 6d61 0065 6572 7567 616c 6f74 2d72     _name.regulator-
2fff8b21:	6966 6578 0064 7264 7669 7265 2f73 7473     fixed.drivers/st
2fff8b31:	722f 6765 6c75 7461 726f 722f 6765 6c75     /regulator/regul
2fff8b41:	7461 726f 665f 7869 6465 632e 1e00 7325     ator_fixed.c..%s
2fff8b51:	253a 2064 6166 6c69 6465 7420 206f 6572     :%d failed to re
2fff8b61:	6967 7473 7265 2520 0a73                     gister %s..

2fff8b6c <__func__.0>:
2fff8b6c:	6966 6578 5f64 6572 7567 616c 6f74 5f72     fixed_regulator_
2fff8b7c:	6572 6967 7473 7265 6f00 616b 0079 6573     register.okay.se
2fff8b8c:	7563 6572 732d 6174 7574 0073 6c70 7461     cure-status.plat
2fff8b9c:	732f 2f74 6f63 6d6d 6e6f 732f 6d74 3233     /st/common/stm32
2fff8bac:	706d 645f 2e74 0063 6572 6573 7374 2800     mp_dt.c.resets.(
2fff8bbc:	7325 203a 6143 6e6e 746f 7220 6165 2064     %s: Cannot read 
2fff8bcc:	4444 2052 6f6e 6564 6920 206e 5444 000a     DDR node in DT..
2fff8bdc:	7473 6d2c 6d65 732d 7a69 0065 7473 732c     st,mem-size.st,s
2fff8bec:	6d74 3233 706d 2c31 7770 2d72 6572 0067     tm32mp1,pwr-reg.
2fff8bfc:	6476 0064 002f 6f6d 6564 006c 7473 732c     vdd./.model.st,s
2fff8c0c:	6d74 3233 706d 3531 622d 6573 0063 6e0a     tm32mp15-bsec..n
2fff8c1c:	6d76 6d65 6e20 646f 2065 7325 6e20 746f     vmem node %s not
2fff8c2c:	6620 756f 646e 000a 4d0a 6c61 6f66 6d72      found...Malform
2fff8c3c:	6465 6e20 6d76 6d65 6e20 646f 2065 7325     ed nvmem node %s
2fff8c4c:	203a 6769 6f6e 6572 0a64 0a00 694d 6173     : ignored...Misa
2fff8c5c:	696c 6e67 6465 6e20 6d76 6d65 2520 2073     ligned nvmem %s 
2fff8c6c:	6c65 6d65 6e65 3a74 6920 6e67 726f 6465     element: ignored
2fff8c7c:	000a                                        ..

2fff8c7e <__func__.0>:
2fff8c7e:	7464 675f 7465 645f 7264 735f 7a69 0065     dt_get_ddr_size.
2fff8c8e:	7473 702c 6f72 6976 6973 6e6f 6e69 0067     st,provisioning.
2fff8c9e:	501e 6168 646e 656c 6e20 746f 6620 756f     .Phandle not fou
2fff8cae:	646e 000a 7473 732c 6168 6f64 2d77 6176     nd..st,shadow-va
2fff8cbe:	756c 0065 491e 766e 6c61 6469 4f20 5054     lue..Invalid OTP
2fff8cce:	7320 7a69 0a65 1e00 6853 6461 776f 7720      size...Shadow w
2fff8cde:	6972 6574 6c20 636f 0a6b 2800 764f 7265     rite lock..(Over
2fff8cee:	6972 6564 7420 6568 4f20 5054 2520 2075     ride the OTP %u 
2fff8cfe:	6e69 7469 6169 206c 6176 756c 0a65 7300     initial value..s
2fff8d0e:	6d74 3233 706d 665f 7375 0065 6c70 7461     tm32mp_fuse.plat
2fff8d1e:	732f 2f74 7473 336d 6d32 3170 732f 6d74     /st/stm32mp1/stm
2fff8d2e:	3233 706d 5f31 7270 7669 7461 2e65 0063     32mp1_private.c.
2fff8d3e:	4328 6e61 6f6e 2074 6567 2074 5043 2055     (Cannot get CPU 
2fff8d4e:	6576 7372 6f69 2c6e 6420 6265 6775 6420     version, debug d
2fff8d5e:	7369 6261 656c 0a64 2800 7355 2065 6564     isabled..(Use de
2fff8d6e:	6166 6c75 2074 6863 7069 4920 2c44 6420     fault chip ID, d
2fff8d7e:	6265 6775 6420 7369 6261 656c 0a64 7000     ebug disabled..p
2fff8d8e:	7261 5f74 756e 626d 7265 6f5f 7074 3100     art_number_otp.1
2fff8d9e:	3735 0043 3531 4137 3100 3335 0043 3531     57C.157A.153C.15
2fff8dae:	4133 3100 3135 0043 3531 4131 3100 3735     3A.151C.151A.157
2fff8dbe:	0046 3531 4437 3100 3335 0046 3531 4433     F.157D.153F.153D
2fff8dce:	3100 3135 0046 3531 4431 3f00 3f3f 003f     .151F.151D.????.
2fff8dde:	6170 6b63 6761 5f65 746f 0070 5453 334d     package_otp.STM3
2fff8dee:	4d32 2550 2573 2073 6552 2e76 7325 1400     2MP%s%s Rev.%s..
2fff8dfe:	5043 3a55 2520 0a73 6200 616f 6472 695f     CPU: %s..board_i
2fff8e0e:	0064 6663 3067 6f5f 7074 6800 3277 6f5f     d.cfg0_otp.hw2_o
2fff8e1e:	7074 5a00 5900 4100 0044 4341 4100 0042     tp.Z.Y.AD.AC.AB.
2fff8e2e:	4141 6400 6972 6576 7372 612f 6d72 742f     AA.drivers/arm/t
2fff8e3e:	637a 742f 637a 3034 2e30 0063 540a 435a     zc/tzc400.c..TZC
2fff8e4e:	342d 3030 3a20 5720 6f72 676e 6420 7665     -400 : Wrong dev
2fff8e5e:	6369 2065 4449 2820 7830 7825 2e29 000a     ice ID (0x%x)...
2fff8e6e:	540a 435a 342d 3030 3a20 4620 6c69 6574     .TZC-400 : Filte
2fff8e7e:	2072 7525 4720 7461 6b65 6565 6570 2072     r %u Gatekeeper 
2fff8e8e:	6c61 6572 6461 2079 6e65 6261 656c 2e64     already enabled.
2fff8e9e:	000a 4f0a 5054 6d20 646f 2065 7369 4f20     ...OTP mode is O
2fff8eae:	5054 492d 564e 4c41 4449 000a 7264 7669     TP-INVALID..driv
2fff8ebe:	7265 2f73 7473 622f 6573 2f63 7362 6365     ers/st/bsec/bsec
2fff8ece:	2e32 0063 420a 4553 3a43 2520 2075 7453     2.c..BSEC: %u St
2fff8ede:	6369 796b 772d 6972 6574 6220 7469 7220     icky-write bit r
2fff8eee:	6165 2064 7245 6f72 2072 7525 000a 420a     ead Error %u...B
2fff8efe:	4553 3a43 2520 2075 7453 6369 796b 702d     SEC: %u Sticky-p
2fff8f0e:	6f72 2067 6962 2074 6572 6461 4520 7272     rog bit read Err
2fff8f1e:	726f 2520 0a75 0a00 5342 4345 203a 7525     or %u...BSEC: %u
2fff8f2e:	7020 7265 616d 656e 746e 6220 7469 7220      permanent bit r
2fff8f3e:	6165 2064 7245 6f72 2072 7525 000a 421e     ead Error %u...B
2fff8f4e:	4553 3a43 4f20 5054 6c20 636f 656b 2c64     SEC: OTP locked,
2fff8f5e:	7020 6f72 2067 6977 6c6c 6220 2065 6769      prog will be ig
2fff8f6e:	6f6e 6572 0a64 1e00 5342 4345 203a 5047     nored...BSEC: GP
2fff8f7e:	4f4c 4b43 6120 7463 7669 7461 6465 202c     LOCK activated, 
2fff8f8e:	7270 676f 7720 6c69 206c 6562 6920 6e67     prog will be ign
2fff8f9e:	726f 6465 000a 420a 4553 3a43 2520 2075     ored...BSEC: %u 
2fff8fae:	7453 6369 796b 722d 6165 2064 6962 2074     Sticky-read bit 
2fff8fbe:	6572 6461 4520 7272 726f 2520 0a75 0a00     read Error %u...
2fff8fce:	5342 4345 203a 7525 5320 6168 6f64 6977     BSEC: %u Shadowi
2fff8fde:	676e 4520 7272 726f 2520 0a75 0a00 5342     ng Error %u...BS
2fff8fee:	4345 203a 7525 5220 6165 2064 7245 6f72     EC: %u Read Erro
2fff8ffe:	2072 7525 000a 550a 6b6e 6f6e 6e77 5320     r %u...Unknown S
2fff900e:	6c65 2066 6552 7266 7365 2068 6f6d 6564     elf Refresh mode
2fff901e:	000a                                        ..

2fff9020 <CSWTCH.37>:
2fff9020:	0001 0000 0000 0000 0302 3269 2d63 6373     ..........i2c-sc
2fff9030:	2d6c 6972 6973 676e 742d 6d69 2d65 736e     l-rising-time-ns
2fff9040:	6900 6332 732d 6c63 662d 6c61 696c 676e     .i2c-scl-falling
2fff9050:	742d 6d69 2d65 736e 0a00 6e49 6176 696c     -time-ns..Invali
2fff9060:	2064 7562 2073 7073 6565 2064 2528 2075     d bus speed (%u 
2fff9070:	203e 7525 0a29 0a00 3249 2043 6c63 636f     > %u)...I2C cloc
2fff9080:	206b 6172 6574 6920 2073 0a30 0a00 3249     k rate is 0...I2
2fff9090:	2043 7073 6565 2064 756f 2074 666f 6220     C speed out of b
2fff90a0:	756f 646e 7b20 7525 0a7d 0a00 4920 4332     ound {%u}... I2C
2fff90b0:	7420 6d69 6e69 7367 6f20 7475 6f20 2066      timings out of 
2fff90c0:	6f62 6e75 2064 6952 6573 257b 3e75 7525     bound Rise{%u>%u
2fff90d0:	2f7d 6146 6c6c 257b 3e75 7525 0a7d 0a00     }/Fall{%u>%u}...
2fff90e0:	4e44 2046 756f 2074 666f 6220 756f 646e     DNF out of bound
2fff90f0:	2520 2f75 7525 000a 200a 3249 2043 6f6e      %u/%u... I2C no
2fff9100:	5020 6572 6373 6c61 7265 7320 6c6f 7475      Prescaler solut
2fff9110:	6f69 0a6e 0a00 4920 4332 6e20 206f 6f73     ion... I2C no so
2fff9120:	756c 6974 6e6f 6120 2074 6c61 0a6c 0a00     lution at all...
2fff9130:	6146 6c69 6465 7420 206f 6f63 706d 7475     Failed to comput
2fff9140:	2065 3249 2043 6974 696d 676e 0a73 1e00     e I2C timings...
2fff9150:	6f44 6e77 7267 6461 2065 3249 2043 7073     Downgrade I2C sp
2fff9160:	6565 2064 6f74 2520 4875 297a 000a 490a     eed to %uHz)...I
2fff9170:	706d 736f 6973 6c62 2065 6f74 6320 6d6f     mpossible to com
2fff9180:	7570 6574 4920 4332 7420 6d69 6e69 7367     pute I2C timings
2fff9190:	000a 430a 6e61 6f6e 2074 6e69 7469 6169     ...Cannot initia
2fff91a0:	696c 657a 4920 4332 6120 616e 6f6c 2067     lize I2C analog 
2fff91b0:	6966 746c 7265 2820 6425 0a29 7300 2c74     filter (%d)..st,
2fff91c0:	7473 336d 6d32 3170 692d 6477 0067 4f0a     stm32mp1-iwdg..O
2fff91d0:	5054 6520 616e 6c62 6465 6220 7475 6920     TP enabled but i
2fff91e0:	6477 2567 2075 5444 642d 7369 6261 656c     wdg%u DT-disable
2fff91f0:	0a64 7300 2c74 7473 6d70 6369 0031 490a     d..st,stpmic1..I
2fff9200:	4332 6320 6e6f 6966 7567 6172 6974 6e6f     2C configuration
2fff9210:	6620 6961 656c 2064 6425 000a 430a 6e61      failed %d...Can
2fff9220:	6f6e 2074 6e69 7469 6169 696c 657a 4920     not initialize I
2fff9230:	4332 2520 2078 2528 2964 000a 490a 4332     2C %x (%d)...I2C
2fff9240:	6420 7665 6369 2065 6f6e 2074 6572 6461      device not read
2fff9250:	0a79 7200 6765 6c75 7461 726f 0073 7264     y..regulators.dr
2fff9260:	7669 7265 2f73 7473 702f 696d 2f63 7473     ivers/st/pmic/st
2fff9270:	336d 6d32 5f70 6d70 6369 632e 7300 2c74     m32mp_pmic.c.st,
2fff9280:	616d 6b73 722d 7365 7465 0a00 6573 2074     mask-reset..set 
2fff9290:	616d 6b73 722d 7365 7465 6620 6961 656c     mask-reset faile
2fff92a0:	0a64 0a00 6146 6c69 6465 7420 206f 6361     d...Failed to ac
2fff92b0:	6563 7373 5020 494d 0a43 2800 4d50 4349     cess PMIC..(PMIC
2fff92c0:	7620 7265 6973 6e6f 3d20 3020 2578 3230      version = 0x%02
2fff92d0:	786c 000a                                   lx..

2fff92d4 <__func__.0>:
2fff92d4:	6572 6967 7473 7265 705f 696d 0063 7562     register_pmic.bu
2fff92e4:	6b63 0031 7562 6b63 0034 646c 316f 6c00     ck1.buck4.ldo1.l
2fff92f4:	6f64 0032 646c 346f 6c00 6f64 0035 646c     do2.ldo4.ldo5.ld
2fff9304:	366f 6200 6f6f 7473 7000 7277 735f 3177     o6.boost.pwr_sw1
2fff9314:	7000 7277 735f 3277 6200 6375 006b 646c     .pwr_sw2.buck.ld
2fff9324:	006f 500a 204d 6f63 746e 7865 3a74 6220     o..PM context: b
2fff9334:	6461 6d20 6761 6369 000a 5328 666f 7774     ad magic..(Softw
2fff9344:	7261 2065 6361 6563 7373 7420 206f 6c61     are access to al
2fff9354:	206c 6564 7562 2067 6f63 706d 6e6f 6e65     l debug componen
2fff9364:	7374 6920 2073 6964 6173 6c62 6465 000a     ts is disabled..
2fff9374:	6c70 7461 732f 2f74 7473 336d 6d32 3170     plat/st/stm32mp1
2fff9384:	732f 6d74 3233 706d 5f31 6264 6d67 7563     /stm32mp1_dbgmcu
2fff9394:	632e 1e00 4456 2044 6e75 6e6b 776f 0a6e     .c..VDD unknown.
2fff93a4:	2800 7250 646f 6375 5f74 6562 6f6c 5f77     .(Product_below_
2fff93b4:	7632 3d35 3a30 4820 4c53 4556 204e 7270     2v5=0: HSLVEN pr
2fff93c4:	746f 6365 6574 2064 7962 4820 0a57 0a00     otected by HW...
2fff93d4:	7250 646f 6375 5f74 6562 6f6c 5f77 7632     Product_below_2v
2fff93e4:	3d35 3a31 000a 090a 5348 564c 4e45 7520     5=1:....HSLVEN u
2fff93f4:	6470 7461 2065 7369 6420 7365 7274 6375     pdate is destruc
2fff9404:	6974 6576 0a2c 0a00 6e09 206f 7075 6164     tive,....no upda
2fff9414:	6574 6120 2073 4456 2044 203e 2e32 5637     te as VDD > 2.7V
2fff9424:	000a 491e 204f 6f63 706d 6e65 6173 6974     ...IO compensati
2fff9434:	6e6f 6320 6c65 206c 6f6e 2074 6572 6461     on cell not read
2fff9444:	0a79 0a00 7325 203a 6c63 206b 6469 2520     y...%s: clk id %
2fff9454:	756c 6e20 746f 6620 756f 646e 000a 430a     lu not found...C
2fff9464:	6f6c 6b63 2520 756c 6320 6e61 7427 6220     lock %lu can't b
2fff9474:	2065 6964 6173 6c62 6465 000a 430a 6f6c     e disabled...Clo
2fff9484:	6b63 2520 756c 7220 6665 6f63 6e75 2074     ck %lu refcount 
2fff9494:	6572 6361 6568 2064 0a30 0a00 6c43 636f     reached 0...Cloc
2fff94a4:	206b 6c25 2075 6163 276e 2074 6562 6520     k %lu can't be e
2fff94b4:	616e 6c62 6465 000a 430a 6f6c 6b63 2520     nabled...Clock %
2fff94c4:	756c 7220 6665 6f63 6e75 2074 6572 6361     lu refcount reac
2fff94d4:	6568 2064 616d 2078 6176 756c 0a65 0a00     hed max value...
2fff94e4:	534f 2043 7825 4020 2520 786c 7420 6d69     OSC %x @ %lx tim
2fff94f4:	6f65 7475 6620 726f 6520 616e 6c62 3d65     eout for enable=
2fff9504:	6425 3a20 3020 2578 0a78 7300 2c74 7962     %d : 0x%x..st,by
2fff9514:	6170 7373 7300 2c74 6964 6267 7079 7361     pass.st,digbypas
2fff9524:	0073 7473 632c 7373 7300 2c74 7264 7669     s.st,css.st,driv
2fff9534:	0065 480a 4953 4944 2056 6166 6c69 6465     e..HSIDIV failed
2fff9544:	4020 3020 2578 786c 203a 7830 7825 000a      @ 0x%lx: 0x%x..
2fff9554:	7473 732c 6d74 3233 706d 2d31 6372 0063     st,stm32mp1-rcc.
2fff9564:	7473 702c 6c6c 2540 0075 7473 702c 6c6c     st,pll@%u.st,pll
2fff9574:	7300 2c74 6c70 5f6c 6376 006f 6964 6d76     .st,pll_vco.divm
2fff9584:	006e 7363 0067 7266 6361 7300 2c74 6c70     n.csg.frac.st,pl
2fff9594:	5f6c 6964 5f76 7170 0072 7473 632c 6b6c     l_div_pqr.st,clk
2fff95a4:	6964 0076 7473 632c 6b6c 7273 0063          div.st,clksrc.

2fff95b2 <__func__.0>:
2fff95b2:	7473 336d 6d32 3170 635f 6b6c 675f 7465     stm32mp1_clk_get
2fff95c2:	675f 7461 6465 695f 0064                    _gated_id.

2fff95cc <stm32mp1_axi_div>:
2fff95cc:	0201 0403 0404 0404                         ........

2fff95d4 <stm32mp1_mpu_apbx_div>:
2fff95d4:	0100 0302 0404 0404                         ........

2fff95dc <stm32mp1_mcu_div>:
2fff95dc:	0100 0302 0604 0807 0909 0909 0909 0909     ................

2fff95ec <pllncfgr2>:
2fff95ec:	0800                                         ...

2fff95ef <stm32mp1_pll>:
2fff95ef:	1004 1008                                   ....

2fff95f3 <rtc_parents>:
2fff95f3:	04ff 0903                                   ....

2fff95f7 <per_parents>:
2fff95f7:	0100                                         ...

2fff95fa <mpu_parents>:
2fff95fa:	0100 0b0b                                   ....

2fff95fe <usbo_parents>:
2fff95fe:	2216                                        ."

2fff9600 <usbphy_parents>:
2fff9600:	1607                                         ...

2fff9603 <mcuss_parents>:
2fff9603:	0100 1102                                   ....

2fff9607 <axiss_parents>:
2fff9607:	0100                                         ...

2fff960a <fmc_parents>:
2fff960a:	1317 1f14                                   ....

2fff960e <qspi_parents>:
2fff960e:	1317 1f14                                   ....

2fff9612 <sdmmc3_parents>:
2fff9612:	131e 0614                                   ....

2fff9616 <sdmmc12_parents>:
2fff9616:	131d 0614                                   ....

2fff961a <uart234578_parents>:
2fff961a:	1518 0a06                                    .....

2fff961f <uart6_parents>:
2fff961f:	1519 0a06                                    .....

2fff9624 <rng1_parents>:
2fff9624:	1602 0304                                   ....

2fff9628 <usart1_parents>:
2fff9628:	121c 0a06 0715                              ......

2fff962e <spi6_parents>:
2fff962e:	151c 0a06 1207                              ......

2fff9634 <i2c46_parents>:
2fff9634:	121c 0a06                                   ....

2fff9638 <stgen_parents>:
2fff9638:	0706                                        ..

2fff963a <i2c35_parents>:
2fff963a:	1618 0a06                                   ....

2fff963e <i2c12_parents>:
2fff963e:	1618 0a06                                   ....

2fff9642 <parent_id_clock_id>:
2fff9642:	0004 0201 ff03 0004 ff05 b401 b6b5 b8b7     ................
2fff9652:	bab9 bcbb bebd c3bf c3c3 c3c3 00c3 c100     ................
2fff9662:	c4c2 63ff 6b6c 682d 6973 6300 6b6c 682d     ...clk-hsi.clk-h
2fff9672:	6573 6300 6b6c 632d 6973 6300 6b6c 6c2d     se.clk-csi.clk-l
2fff9682:	6973 6300 6b6c 6c2d 6573 6900 7332 635f     si.clk-lse.i2s_c
2fff9692:	696b 006e 6e69 6c63 6475 2f65 7261 6863     kin.include/arch
2fff96a2:	612f 7261 6863 3233 652f 336c 635f 6d6f     /aarch32/el3_com
2fff96b2:	6f6d 5f6e 616d 7263 736f 532e 6c00 6269     mon_macros.S.lib
2fff96c2:	632f 7570 2f73 6161 6372 3368 2f32 7063     /cpus/aarch32/cp
2fff96d2:	5f75 6568 706c 7265 2e73 0053               u_helpers.S.

2fff96de <assert_msg1>:
2fff96de:	5341      	.short	0x5341
2fff96e0:	54524553 	.word	0x54524553
2fff96e4:	6946203a 	.word	0x6946203a
2fff96e8:	0020656c 	.word	0x0020656c

2fff96ec <assert_msg2>:
2fff96ec:	6e694c20 	.word	0x6e694c20
2fff96f0:	2065      	.short	0x2065
	...

2fff96f3 <panic_msg>:
2fff96f3:	50          	.byte	0x50
2fff96f4:	43494e41 	.word	0x43494e41
2fff96f8:	20746120 	.word	0x20746120
2fff96fc:	3a204350 	.word	0x3a204350
2fff9700:	00783020 	.word	0x00783020

2fff9704 <panic_end>:
2fff9704:	0a0d      	.short	0x0a0d
2fff9706:	00          	.byte	0x00
2fff9707:	6c          	.byte	0x6c
2fff9708:	782f6269 	.word	0x782f6269
2fff970c:	5f74616c 	.word	0x5f74616c
2fff9710:	6c626174 	.word	0x6c626174
2fff9714:	765f7365 	.word	0x765f7365
2fff9718:	61612f32 	.word	0x61612f32
2fff971c:	33686372 	.word	0x33686372
2fff9720:	6e652f32 	.word	0x6e652f32
2fff9724:	656c6261 	.word	0x656c6261
2fff9728:	756d6d5f 	.word	0x756d6d5f
2fff972c:	532e      	.short	0x532e
2fff972e:	00          	.byte	0x00
2fff972f:	64          	.byte	0x64
2fff9730:	65766972 	.word	0x65766972
2fff9734:	732f7372 	.word	0x732f7372
2fff9738:	61752f74 	.word	0x61752f74
2fff973c:	612f7472 	.word	0x612f7472
2fff9740:	68637261 	.word	0x68637261
2fff9744:	732f3233 	.word	0x732f3233
2fff9748:	32336d74 	.word	0x32336d74
2fff974c:	6e6f635f 	.word	0x6e6f635f
2fff9750:	656c6f73 	.word	0x656c6f73
2fff9754:	532e      	.short	0x532e
	...

2fff9757 <cortex_a7_errata_list_end>:
2fff9757:	0a          	.byte	0x0a
2fff9758:	66657250 	.word	0x66657250
2fff975c:	68637465 	.word	0x68637465
2fff9760:	6f624120 	.word	0x6f624120
2fff9764:	61207472 	.word	0x61207472
2fff9768:	30203a74 	.word	0x30203a74
2fff976c:	0078      	.short	0x0078

2fff976e <data_abort_str>:
2fff976e:	440a      	.short	0x440a
2fff9770:	20617461 	.word	0x20617461
2fff9774:	726f6241 	.word	0x726f6241
2fff9778:	74612074 	.word	0x74612074
2fff977c:	7830203a 	.word	0x7830203a
	...

2fff9781 <undefined_str>:
2fff9781:	0a          	.byte	0x0a
2fff9782:	6e55      	.short	0x6e55
2fff9784:	69666564 	.word	0x69666564
2fff9788:	2064656e 	.word	0x2064656e
2fff978c:	74736e69 	.word	0x74736e69
2fff9790:	74637572 	.word	0x74637572
2fff9794:	206e6f69 	.word	0x206e6f69
2fff9798:	203a7461 	.word	0x203a7461
2fff979c:	7830      	.short	0x7830
	...

2fff979f <exception_start_str>:
2fff979f:	0a          	.byte	0x0a
2fff97a0:	65637845 	.word	0x65637845
2fff97a4:	6f697470 	.word	0x6f697470
2fff97a8:	6f6d206e 	.word	0x6f6d206e
2fff97ac:	303d6564 	.word	0x303d6564
2fff97b0:	0078      	.short	0x0078

2fff97b2 <exception_end_str>:
2fff97b2:	6120      	.short	0x6120
2fff97b4:	30203a74 	.word	0x30203a74
2fff97b8:	0078      	.short	0x0078

2fff97ba <dfsr_str>:
2fff97ba:	4420      	.short	0x4420
2fff97bc:	20525346 	.word	0x20525346
2fff97c0:	7830203d 	.word	0x7830203d
	...

2fff97c5 <dfar_str>:
2fff97c5:	20          	.byte	0x20
2fff97c6:	4644      	.short	0x4644
2fff97c8:	3d205241 	.word	0x3d205241
2fff97cc:	00783020 	.word	0x00783020

2fff97d0 <ifsr_str>:
2fff97d0:	53464920 	.word	0x53464920
2fff97d4:	203d2052 	.word	0x203d2052
2fff97d8:	7830      	.short	0x7830
	...

2fff97db <ifar_str>:
2fff97db:	20          	.byte	0x20
2fff97dc:	52414649 	.word	0x52414649
2fff97e0:	30203d20 	.word	0x30203d20
2fff97e4:	0078      	.short	0x0078

2fff97e6 <end_error_str>:
2fff97e6:	0d0a      	.short	0x0d0a
2fff97e8:	00          	.byte	0x00
2fff97e9:	23          	.byte	0x23
2fff97ea:	6461      	.short	0x6461
2fff97ec:	73657264 	.word	0x73657264
2fff97f0:	65632d73 	.word	0x65632d73
2fff97f4:	00736c6c 	.word	0x00736c6c
2fff97f8:	756e696c 	.word	0x756e696c
2fff97fc:	68702c78 	.word	0x68702c78
2fff9800:	6c646e61 	.word	0x6c646e61
2fff9804:	0065      	.short	0x0065
2fff9806:	612f      	.short	0x612f
2fff9808:	7361696c 	.word	0x7361696c
2fff980c:	7365      	.short	0x7365
2fff980e:	00          	.byte	0x00
2fff980f:	63          	.byte	0x63
2fff9810:	61706d6f 	.word	0x61706d6f
2fff9814:	6c626974 	.word	0x6c626974
2fff9818:	0065      	.short	0x0065
2fff981a:	5341      	.short	0x5341
2fff981c:	54524553 	.word	0x54524553
2fff9820:	7325203a 	.word	0x7325203a
2fff9824:	0a75253a 	.word	0x0a75253a
2fff9828:	00          	.byte	0x00
2fff9829:	6c          	.byte	0x6c
2fff982a:	6269      	.short	0x6269
2fff982c:	62696c2f 	.word	0x62696c2f
2fff9830:	72702f63 	.word	0x72702f63
2fff9834:	66746e69 	.word	0x66746e69
2fff9838:	3000632e 	.word	0x3000632e
2fff983c:	00000078 	.word	0x00000078

2fff9840 <dyn_cfg__populator>:
2fff9840:	2fff7777 2fff7781 2ffec519              ww./.w./.../

2fff984c <stm32mp_io__populator>:
2fff984c:	2fff7b6c 2fff7b72 2ffecc85              l{./r{./.../

2fff9858 <stm32mp1_firewall__populator>:
2fff9858:	2fff7777 2fff824e 2ffed575              ww./N../u../

2fff9864 <stm32mp_fuse__populator>:
2fff9864:	2fff7b6c 2fff8d0d 2ffefee1              l{./.../.../

2fff9870 <__CPU_OPS_START__>:
2fff9870:	410fc070 	.word	0x410fc070
2fff9874:	2ffe98cc 	.word	0x2ffe98cc
2fff9878:	2fff9757 	.word	0x2fff9757
2fff987c:	2fff9757 	.word	0x2fff9757

2fff9880 <__CPU_OPS_END__>:
2fff9880:	eaffbdde 	b	2ffe9000 <bl2_entrypoint>
2fff9884:	eaffbee3 	b	2ffe9418 <report_exception>
2fff9888:	eaffbee2 	b	2ffe9418 <report_exception>
2fff988c:	eaffbee6 	b	2ffe942c <report_prefetch_abort>
2fff9890:	eaffbee9 	b	2ffe943c <report_data_abort>
2fff9894:	eaffbedf 	b	2ffe9418 <report_exception>
2fff9898:	eaffbede 	b	2ffe9418 <report_exception>
2fff989c:	eaffbedd 	b	2ffe9418 <report_exception>

2fff98a0 <__spin_lock_from_thumb>:
2fff98a0:	4778      	bx	pc
2fff98a2:	e7fd      	b.n	2fff98a0 <__spin_lock_from_thumb>
2fff98a4:	eaffbe64 	b	2ffe923c <spin_lock>

2fff98a8 <__enable_mmu_direct_svc_mon_from_thumb>:
2fff98a8:	4778      	bx	pc
2fff98aa:	e7fd      	b.n	2fff98a8 <__enable_mmu_direct_svc_mon_from_thumb>
2fff98ac:	eaffbf6d 	b	2ffe9668 <enable_mmu_direct_svc_mon>

2fff98b0 <__bl2_run_next_image_from_thumb>:
2fff98b0:	4778      	bx	pc
2fff98b2:	e7fd      	b.n	2fff98b0 <__bl2_run_next_image_from_thumb>
2fff98b4:	eaffbe29 	b	2ffe9160 <bl2_run_next_image>

2fff98b8 <__spin_unlock_from_thumb>:
2fff98b8:	4778      	bx	pc
2fff98ba:	e7fd      	b.n	2fff98b8 <__spin_unlock_from_thumb>
2fff98bc:	eaffbe67 	b	2ffe9260 <spin_unlock>

2fff98c0 <__clean_dcache_range_from_thumb>:
2fff98c0:	4778      	bx	pc
2fff98c2:	e7fd      	b.n	2fff98c0 <__clean_dcache_range_from_thumb>
2fff98c4:	eaffbeef 	b	2ffe9488 <clean_dcache_range>

2fff98c8 <__flush_dcache_range_from_thumb>:
2fff98c8:	4778      	bx	pc
2fff98ca:	e7fd      	b.n	2fff98c8 <__flush_dcache_range_from_thumb>
2fff98cc:	eaffbede 	b	2ffe944c <flush_dcache_range>

2fff98d0 <__console_register_from_arm>:
2fff98d0:	e51ff004 	ldr	pc, [pc, #-4]	@ 2fff98d4 <__console_register_from_arm+0x4>
2fff98d4:	2ffed89d 	.word	0x2ffed89d

2fff98d8 <__RO_END_UNALIGNED__>:
	...
