
/home/lubuntu/Dokument/GitHub/STM32-Computer/Firmware/STM32-Computer-Firmware/CA7/optee-os-3.19.0-r2/optee-os-stm32mp-3.19.0-stm32mp-r2/../build/stm32mp135f-dk/ta/pkcs11/fd02c9da-306c-48c7-a49c-bbd827ae86ee.elf:     file format elf32-littlearm
/home/lubuntu/Dokument/GitHub/STM32-Computer/Firmware/STM32-Computer-Firmware/CA7/optee-os-3.19.0-r2/optee-os-stm32mp-3.19.0-stm32mp-r2/../build/stm32mp135f-dk/ta/pkcs11/fd02c9da-306c-48c7-a49c-bbd827ae86ee.elf
architecture: armv7, flags 0x00000150:
HAS_SYMS, DYNAMIC, D_PAGED
start address 0x00009e64

Program Header:
    LOAD off    0x00001000 vaddr 0x00000000 paddr 0x00000000 align 2**12
         filesz 0x00019680 memsz 0x00019680 flags r-x
    LOAD off    0x0001b000 vaddr 0x0001a000 paddr 0x0001a000 align 2**12
         filesz 0x00001f8c memsz 0x0000d028 flags rw-
 DYNAMIC off    0x0001b000 vaddr 0x0001a000 paddr 0x0001a000 align 2**2
         filesz 0x00000088 memsz 0x00000088 flags rw-
   STACK off    0x00000000 vaddr 0x00000000 paddr 0x00000000 align 2**4
         filesz 0x00000000 memsz 0x00000000 flags rw-

Dynamic Section:
  HASH                 0x00019654
  GNU_HASH             0x00019598
  STRTAB               0x00019624
  SYMTAB               0x000195c4
  STRSZ                0x0000002e
  SYMENT               0x00000010
  DEBUG                0x00000000
  REL                  0x0001a0ec
  RELSZ                0x00000d50
  RELENT               0x00000008
  FLAGS_1              0x08000000
  RELCOUNT             0x00000194
private flags = 0x5000400: [Version5 EABI] [hard-float ABI]

Sections:
Idx Name          Size      VMA       LMA       File off  Algn
  0 .ta_head      00000020  00000000  00000000  00001000  2**3
                  CONTENTS, ALLOC, LOAD, READONLY, DATA
  1 .text         00013a60  00000020  00000020  00001020  2**3
                  CONTENTS, ALLOC, LOAD, READONLY, CODE
  2 .rodata       00005b17  00013a80  00013a80  00014a80  2**2
                  CONTENTS, ALLOC, LOAD, READONLY, DATA
  3 .gnu.hash     0000002c  00019598  00019598  0001a598  2**2
                  CONTENTS, ALLOC, LOAD, READONLY, DATA
  4 .dynsym       00000060  000195c4  000195c4  0001a5c4  2**2
                  CONTENTS, ALLOC, LOAD, READONLY, DATA
  5 .dynstr       0000002e  00019624  00019624  0001a624  2**0
                  CONTENTS, ALLOC, LOAD, READONLY, DATA
  6 .hash         0000002c  00019654  00019654  0001a654  2**2
                  CONTENTS, ALLOC, LOAD, READONLY, DATA
  7 .dynamic      00000088  0001a000  0001a000  0001b000  2**2
                  CONTENTS, ALLOC, LOAD, DATA
  8 .got          00000064  0001a088  0001a088  0001b088  2**2
                  CONTENTS, ALLOC, LOAD, DATA
  9 .rel.got      000000b0  0001ad8c  0001ad8c  0001bd8c  2**2
                  CONTENTS, ALLOC, LOAD, READONLY, DATA
 10 .data         00001150  0001ae3c  0001ae3c  0001be3c  2**2
                  CONTENTS, ALLOC, LOAD, DATA
 11 .bss          0000b09c  0001bf8c  0001bf8c  0001cf8c  2**2
                  ALLOC
 12 .debug_info   0003f950  00000000  00000000  0001cf8c  2**0
                  CONTENTS, READONLY, DEBUGGING, OCTETS
 13 .debug_abbrev 00009493  00000000  00000000  0005c8dc  2**0
                  CONTENTS, READONLY, DEBUGGING, OCTETS
 14 .debug_loclists 0001e233  00000000  00000000  00065d6f  2**0
                  CONTENTS, READONLY, DEBUGGING, OCTETS
 15 .debug_aranges 00000928  00000000  00000000  00083fa8  2**3
                  CONTENTS, READONLY, DEBUGGING, OCTETS
 16 .debug_rnglists 00000f8a  00000000  00000000  000848d0  2**0
                  CONTENTS, READONLY, DEBUGGING, OCTETS
 17 .debug_macro  0002f896  00000000  00000000  0008585a  2**0
                  CONTENTS, READONLY, DEBUGGING, OCTETS
 18 .debug_line   00024f85  00000000  00000000  000b50f0  2**0
                  CONTENTS, READONLY, DEBUGGING, OCTETS
 19 .debug_str    00022516  00000000  00000000  000da075  2**0
                  CONTENTS, READONLY, DEBUGGING, OCTETS
 20 .comment      00000012  00000000  00000000  000fc58b  2**0
                  CONTENTS, READONLY
 21 .ARM.attributes 00000033  00000000  00000000  000fc59d  2**0
                  CONTENTS, READONLY
 22 .debug_frame  00004864  00000000  00000000  000fc5d0  2**2
                  CONTENTS, READONLY, DEBUGGING, OCTETS
 23 .rel.dyn      00000ca0  0001a0ec  0001a0ec  0001b0ec  2**2
                  CONTENTS, ALLOC, LOAD, READONLY, DATA
 24 .debug_line_str 000001bd  00000000  00000000  00100e34  2**0
                  CONTENTS, READONLY, DEBUGGING, OCTETS
SYMBOL TABLE:
00000000 l    d  .ta_head	00000000 .ta_head
00000020 l    d  .text	00000000 .text
00013a80 l    d  .rodata	00000000 .rodata
00019598 l    d  .gnu.hash	00000000 .gnu.hash
000195c4 l    d  .dynsym	00000000 .dynsym
00019624 l    d  .dynstr	00000000 .dynstr
00019654 l    d  .hash	00000000 .hash
0001a000 l    d  .dynamic	00000000 .dynamic
0001a088 l    d  .got	00000000 .got
0001ad8c l    d  .rel.got	00000000 .rel.got
0001ae3c l    d  .data	00000000 .data
0001bf8c l    d  .bss	00000000 .bss
00000000 l    d  .debug_info	00000000 .debug_info
00000000 l    d  .debug_abbrev	00000000 .debug_abbrev
00000000 l    d  .debug_loclists	00000000 .debug_loclists
00000000 l    d  .debug_aranges	00000000 .debug_aranges
00000000 l    d  .debug_rnglists	00000000 .debug_rnglists
00000000 l    d  .debug_macro	00000000 .debug_macro
00000000 l    d  .debug_line	00000000 .debug_line
00000000 l    d  .debug_str	00000000 .debug_str
00000000 l    d  .comment	00000000 .comment
00000000 l    d  .ARM.attributes	00000000 .ARM.attributes
00000000 l    d  .debug_frame	00000000 .debug_frame
0001a0ec l    d  .rel.dyn	00000000 .rel.dyn
00000000 l    d  .debug_line_str	00000000 .debug_line_str
00000000 l    df *ABS*	00000000 user_ta_header.c
000143bc l     O .rodata	00000004 __compound_literal.4
000143c0 l     O .rodata	00000004 __compound_literal.3
000143c4 l     O .rodata	00000001 __compound_literal.2
000143c5 l     O .rodata	00000001 __compound_literal.1
000143c6 l     O .rodata	00000001 __compound_literal.0
00000000 l    df *ABS*	00000000 attributes.c
00000020 l     F .text	00000078 _remove_attribute.isra.0
0001474c l     O .rodata	00000009 __func__.2
00014755 l     O .rodata	00000011 __func__.1
00014766 l     O .rodata	00000013 __func__.0
00000000 l    df *ABS*	00000000 entry.c
00014796 l     O .rodata	0000001b __func__.0
00000000 l    df *ABS*	00000000 object.c
00000850 l     F .text	0000003a cleanup_volatile_obj_ref
0000088a l     F .text	00000022 get_class
000008ac l     F .text	0000002a find_ctx_add
0001481f l     O .rodata	0000000f __func__.1
0001482e l     O .rodata	00000018 __func__.0
00000000 l    df *ABS*	00000000 persistent_token.c
00001510 l     F .text	00000074 do_hash
00001584 l     F .text	00000032 get_persistent_obj_idx
000015b6 l     F .text	00000042 open_db_file
00014a9f l     O .rodata	00000015 __func__.8
00014ab4 l     O .rodata	00000023 __func__.7
00014ad7 l     O .rodata	0000001d __func__.6
00014af4 l     O .rodata	00000015 __func__.5
00014b09 l     O .rodata	00000013 __func__.4
00014b1c l     O .rodata	00000014 __func__.3
00014b30 l     O .rodata	00000022 __func__.2
00014b52 l     O .rodata	00000024 __func__.1
00014b76 l     O .rodata	00000013 __func__.0
00000000 l    df *ABS*	00000000 pkcs11_attributes.c
00001ff0 l     F .text	00000052 set_mandatory_attributes
00002042 l     F .text	00000026 get_key_type
00002068 l     F .text	000000e4 set_mandatory_boolprops
0000214c l     F .text	0000001c get_u32_attribute
00002168 l     F .text	0000001e get_certificate_type
00002186 l     F .text	00000022 get_class
000021a8 l     F .text	0000004a check_attr_bval.constprop.0
000021f2 l     F .text	00000016 _assert_trap.constprop.0
00002208 l     F .text	00000084 set_optional_attributes_with_def
0000228c l     F .text	0000008c create_storage_attributes
00002318 l     F .text	0000009c create_genkey_attributes
00013a80 l     O .rodata	00000001 bool_false.12
00013a81 l     O .rodata	00000001 bool_true.13
00013a82 l     O .rodata	00000012 __func__.11
00013a94 l     O .rodata	0000001a __func__.14
00013ab0 l     O .rodata	00000014 any_object_boolprops
00013ac4 l     O .rodata	00000004 any_object_opt_or_null
00013ac8 l     O .rodata	00000019 __func__.7
00013ae4 l     O .rodata	00000004 any_key_boolprops
00013ae8 l     O .rodata	0000000c any_key_opt_or_null
00013af4 l     O .rodata	00000004 any_key_optional
00013af8 l     O .rodata	00000030 CSWTCH.88
00013b28 l     O .rodata	00000023 __func__.17
00013b4c l     O .rodata	00000004 ec_public_key_opt_or_null
00013b50 l     O .rodata	00000004 ec_public_key_mandated
00013b54 l     O .rodata	00000004 rsa_pub_key_gen_opt_or_null
00013b58 l     O .rodata	00000004 rsa_pub_key_gen_mand
00013b5c l     O .rodata	00000008 rsa_pub_key_create_mand
00013b64 l     O .rodata	00000020 rsa_priv_key_opt_or_null
00013b84 l     O .rodata	00000008 ec_private_key_opt_or_null
00013b8c l     O .rodata	00000000 ec_private_key_mandated
00013b8c l     O .rodata	0000000c eddsa_private_key_opt_or_null
00013b98 l     O .rodata	00000020 __func__.16
00013bb8 l     O .rodata	00000017 __func__.15
00013bcf l     O .rodata	0000001e __func__.10
00013bf0 l     O .rodata	00000004 pkcs11_certificate_boolprops
00013bf4 l     O .rodata	00000004 pkcs11_certificate_mandated
00013bf8 l     O .rodata	00000014 pkcs11_certificate_optional
00013c0c l     O .rodata	00000004 pkcs11_x509_certificate_mandated
00013c10 l     O .rodata	00000024 pkcs11_x509_certificate_optional
00013c34 l     O .rodata	0000001d __func__.9
00013c51 l     O .rodata	0000001b __func__.8
00013c6c l     O .rodata	00000028 symm_key_boolprops
00013c94 l     O .rodata	00000010 symm_key_opt_or_null
00013ca4 l     O .rodata	00000004 symm_key_optional
00013ca8 l     O .rodata	0000001a __func__.6
00013cc4 l     O .rodata	00000014 public_key_boolprops
00013cd8 l     O .rodata	00000000 public_key_mandated
00013cd8 l     O .rodata	0000000c public_key_opt_or_null
00013ce4 l     O .rodata	0000001b __func__.5
00013d00 l     O .rodata	00000020 private_key_boolprops
00013d20 l     O .rodata	00000000 private_key_mandated
00013d20 l     O .rodata	0000000c private_key_opt_or_null
00013d2c l     O .rodata	00000027 __func__.4
00013d53 l     O .rodata	00000014 __func__.3
00013d68 l     O .rodata	0000000e CSWTCH.91
00013d76 l     O .rodata	00000026 __func__.2
00013d9c l     O .rodata	00000028 __func__.1
00013dc4 l     O .rodata	00000019 __func__.0
00000000 l    df *ABS*	00000000 pkcs11_helpers.c
00003be0 l     F .text	00000048 id2str
00013dec l     O .rodata	00000015 unknown
00013e04 l     O .rodata	00000058 bpa.5
00013e5c l     O .rodata	00000013 __func__.4
00013e6f l     O .rodata	0000001a __func__.3
00013e89 l     O .rodata	00000006 str_false.1
00013e8f l     O .rodata	00000002 str_unknown.0
00013e91 l     O .rodata	00000005 str_true.2
0001ae3c l     O .data	000002f4 attr_ids
0001b130 l     O .data	00000210 string_rc
0001b340 l     O .data	000001a8 string_ta_cmd
0001b4e8 l     O .data	00000018 string_slot_flags
0001b500 l     O .data	00000090 string_token_flags
0001b590 l     O .data	00000010 string_session_flags
0001b5a0 l     O .data	00000028 string_session_state
0001b5c8 l     O .data	00000050 string_class
0001b618 l     O .data	00000068 string_key_type
0001b680 l     O .data	00000020 string_certificate_type
0001b6a0 l     O .data	00000008 string_internal_processing
0001b6a8 l     O .data	00000048 string_functions
00000000 l    df *ABS*	00000000 pkcs11_token.c
000041dc l     F .text	00000058 close_ck_session
00004234 l     F .text	00000018 pad_str
0000424c l     F .text	00000096 set_pin
000042e2 l     F .text	000000a6 check_user_pin.isra.0
00004388 l     F .text	000000c4 check_so_pin.isra.0
00013e98 l     O .rodata	0000000d __func__.2
00013ea5 l     O .rodata	0000000d __func__.7
00013eb2 l     O .rodata	00000012 __func__.6
00013f5c l     O .rodata	00000019 __func__.5
00013f75 l     O .rodata	00000012 __func__.4
00013f87 l     O .rodata	00000012 __func__.3
00013f9c l     O .rodata	00000010 system_uuid.1
00013fac l     O .rodata	0000000e __func__.0
0001b6f0 l     O .data	00000008 pkcs11_client_list
00000000 l    df *ABS*	00000000 processing.c
00005440 l     F .text	00000062 get_active_session.isra.0
00016be4 l     O .rodata	00000017 __func__.2
00016bfb l     O .rodata	00000016 __func__.1
00016c11 l     O .rodata	00000015 __func__.0
00016c26 l     O .rodata	0000001f CSWTCH.188
00000000 l    df *ABS*	00000000 processing_asymm.c
0000629c l     F .text	00000022 get_class
000062be l     F .text	00000026 get_key_type
000062e4 l     F .text	00000018 _assert_trap.constprop.0
00013fbc l     O .rodata	00000015 __func__.4
00013fd1 l     O .rodata	00000017 __func__.3
00013fe8 l     O .rodata	00000108 pkcs2tee_algo.2
000140f0 l     O .rodata	0000000d __func__.1
000140fd l     O .rodata	00000015 __func__.0
00000000 l    df *ABS*	00000000 processing_digest.c
00014114 l     O .rodata	00000016 __func__.3
0001412a l     O .rodata	00000017 __func__.2
00014144 l     O .rodata	00000030 pkcs2tee_algo.1
00014174 l     O .rodata	00000016 __func__.0
00000000 l    df *ABS*	00000000 processing_ec.c
000070d4 l     F .text	0000004c get_curve
00007120 l     F .text	00000026 get_key_type
00007146 l     F .text	00000022 get_class
000170df l     O .rodata	00000014 __func__.6
000170f3 l     O .rodata	00000016 __func__.5
00017109 l     O .rodata	00000011 __func__.4
0001711a l     O .rodata	00000017 __func__.3
00017131 l     O .rodata	00000019 __func__.2
0001714a l     O .rodata	00000014 __func__.1
0001715e l     O .rodata	00000014 __func__.0
00017172 l     O .rodata	0000000b ed25519_oid_der
0001717d l     O .rodata	0000000e ed25519_name_der
0001718b l     O .rodata	000001c7 secp521r1_oid_der
00017352 l     O .rodata	0000015b secp384r1_oid_der
000174ad l     O .rodata	000000fa prime256v1_oid_der
000175a7 l     O .rodata	000000e2 secp224r1_oid_der
00017689 l     O .rodata	000000ca prime192v1_oid_der
00017753 l     O .rodata	00000007 secp521r1_name_der
0001775a l     O .rodata	00000007 secp384r1_name_der
00017761 l     O .rodata	0000000a prime256v1_name_der
0001776b l     O .rodata	00000007 secp224r1_name_der
00017772 l     O .rodata	0000000a prime192v1_name_der
0001b6f8 l     O .data	000000c0 ec_curve_param
00000000 l    df *ABS*	00000000 processing_rsa.c
00007b00 l     F .text	00000006 serialargs_get_u32
00017805 l     O .rodata	0000001a __func__.3
0001781f l     O .rodata	00000017 __func__.2
00017836 l     O .rodata	00000017 __func__.1
0001784d l     O .rodata	00000012 __func__.0
00000000 l    df *ABS*	00000000 processing_symm.c
00008430 l     F .text	00000026 get_key_type
00008456 l     F .text	0000007a pkcs2tee_key_type.constprop.0
0001418c l     O .rodata	00000012 __func__.3
000141a0 l     O .rodata	00000040 pkcs2tee_key_type.2
000141e0 l     O .rodata	00000014 __func__.10
000141f4 l     O .rodata	00000017 __func__.9
0001420c l     O .rodata	000000a0 pkcs2tee_algo.8
000142ac l     O .rodata	00000060 pkcs2tee_key_type.6
0001430c l     O .rodata	00000060 hmac_hash.4
0001436c l     O .rodata	00000013 __func__.5
0001437f l     O .rodata	0000000d __func__.7
0001438c l     O .rodata	00000014 __func__.1
000143a0 l     O .rodata	00000016 __func__.0
00000000 l    df *ABS*	00000000 sanitize_object.c
00009384 l     F .text	00000026 get_key_type
000093aa l     F .text	00000044 read_attr_advance
00017a64 l     O .rodata	0000001f __func__.1
00017a83 l     O .rodata	00000013 __func__.0
00017a96 l     O .rodata	00000018 __func__.3
00017aae l     O .rodata	00000017 __func__.2
00017ac5 l     O .rodata	00000017 __func__.4
00000000 l    df *ABS*	00000000 serializer.c
000099d8 l     F .text	00000058 alloc_and_get
00017b0c l     O .rodata	00000013 __func__.0
00000000 l    df *ABS*	00000000 token_capabilities.c
00018681 l     O .rodata	00000020 __func__.2
000186a1 l     O .rodata	0000001a __func__.1
000186bb l     O .rodata	0000001a __func__.0
0001b7b8 l     O .data	00000360 pkcs11_modes
00000000 l    df *ABS*	00000000 ta_entry_a32.o
00000000 l    df *ABS*	00000000 memcpy.c
00000000 l    df *ABS*	00000000 snprintk.c
00009f9c l     F .text	000006e0 kprintf.constprop.0
000187b5 l     O .rodata	00000011 hexdigits
000187c6 l     O .rodata	00000011 HEXDIGITS
00000000 l    df *ABS*	00000000 trace.c
000187f1 l     O .rodata	00000005 lvl_strs.0
00000000 l    df *ABS*	00000000 arm32_aeabi_ldivmod_a32.o
00000000 l    df *ABS*	00000000 assert.c
00000000 l    df *ABS*	00000000 tee_uuid_from_str.c
0000a880 l     F .text	00000048 parse_hex
00000000 l    df *ABS*	00000000 trace_ext.c
00000000 l    df *ABS*	00000000 tee_api.c
0000aa30 l     F .text	00000066 update_out_param
0000ab08 l     F .text	00000124 copy_param
0001882e l     O .rodata	0000000b __func__.0
0001bfd8 l     O .bss	00000004 tee_api_instance_data
00000000 l    df *ABS*	00000000 tee_api_objects.c
00000000 l    df *ABS*	00000000 tee_api_operations.c
0000b6d4 l     F .text	00000040 __tee_alg_get_main_alg
0000b714 l     F .text	00000158 tee_buffer_update
00000000 l    df *ABS*	00000000 tee_api_panic.c
0000d3bc l     F .text	00000020 check_access
0000d3e0 l     F .text	00000006 check_res.part.0
0000d3e6 l     F .text	0000002e __utee_check_outbuf_annotation.localalias
00000000 l    df *ABS*	00000000 tee_api_property.c
0000d478 l     F .text	00000050 propset_get
0000d4c8 l     F .text	00000014 is_propset_pseudo_handle
0000d4dc l     F .text	00000088 propget_get_ext_prop
0000d564 l     F .text	000000f0 propget_get_property
000143d0 l     O .rodata	00000004 __compound_literal.3
000143d4 l     O .rodata	00000004 __compound_literal.2
000143d8 l     O .rodata	00000004 __compound_literal.1
000143dc l     O .rodata	00000004 __compound_literal.0
00000000 l    df *ABS*	00000000 tee_system_pta.c
0000dadc l     F .text	00000050 invoke_system_pta
000143e0 l     O .rodata	00000010 uuid.2
000143f0 l     O .rodata	0000000a __func__.1
000143fa l     O .rodata	00000017 __func__.0
0001bfdc l     O .bss	00000004 sess.3
00000000 l    df *ABS*	00000000 utee_syscalls_a32.o
00000000 l    df *ABS*	00000000 user_ta_entry.c
0000e0e8 l     F .text	0000006a _get_fn_array
0000e152 l     F .text	00000032 _fini_iterate_phdr_cb
0000e184 l     F .text	0000001c ta_header_get_session
0000e1a0 l     F .text	0000005a to_utee_params
0000e1fa l     F .text	0000003c from_utee_params
0000e236 l     F .text	00000062 _init_iterate_phdr_cb
0000e368 l     F .text	0000006c ta_header_remove_session
00018971 l     O .rodata	00000016 __func__.0
0001bfe0 l     O .bss	00000004 _num_mod_init
0001bfe4 l     O .bss	00000001 init_done
0001befc l     O .data	00000008 ta_sessions
0001bf04 l     O .data	00000008 __phdr_info_head
00000000 l    df *ABS*	00000000 abort.c
00000000 l    df *ABS*	00000000 base64.c
0001898e l     O .rodata	00000041 base64_table
00000000 l    df *ABS*	00000000 tee_api_arith_mpi.c
0000e740 l     F .text	00000020 api_panic
0000e760 l     F .text	00000020 mpi_panic
0000e780 l     F .text	00000050 get_mpi
0000e7d0 l     F .text	00000040 copy_mpi_to_bigint
0000e810 l     F .text	000000a8 bigint_binary
0000e8b8 l     F .text	00000010 mpi_is_odd
0000e8c8 l     F .text	00000016 rng_read
0000e8de l     F .text	0000045e mpi_egcd
0001c018 l     O .bss	00003000 data.17
0000ef74 l     F .text	00000110 bigint_binary_mod
00018a86 l     O .rodata	00000008 __func__.14
00018a8e l     O .rodata	0000000e __func__.10
00018a9c l     O .rodata	00000009 __func__.2
00018aa5 l     O .rodata	00000012 __func__.16
00018ab7 l     O .rodata	0000000f __func__.15
00018ac6 l     O .rodata	0000001f __func__.13
00018ae5 l     O .rodata	00000019 __func__.12
00018afe l     O .rodata	00000012 __func__.6
00018b10 l     O .rodata	00000015 __func__.11
00018b25 l     O .rodata	0000000e __func__.9
00018b33 l     O .rodata	0000000e __func__.8
00018b41 l     O .rodata	0000000e __func__.7
00018b4f l     O .rodata	00000011 __func__.5
00018b60 l     O .rodata	00000018 __func__.4
00018b78 l     O .rodata	0000001d __func__.3
00018b95 l     O .rodata	00000019 __func__.1
00018bae l     O .rodata	00000015 __func__.0
00000000 l    df *ABS*	00000000 tcb.c
00018c59 l     O .rodata	00000010 __func__.1
00018c69 l     O .rodata	00000010 __func__.0
0001f018 l     O .bss	00000004 _tls_size
0001f01c l     O .bss	00000004 _tcb
00000000 l    df *ABS*	00000000 bignum.c
0000fb68 l     F .text	00000036 mpi_get_digit
0000fb9e l     F .text	00000364 mpi_mul_hlp
0000ff02 l     F .text	000000e6 mpi_montmul
0000ffe8 l     F .text	00000022 mpi_montred
0001000a l     F .text	00000026 mpi_montg_init.isra.0
00010030 l     F .text	00000052 mpi_bigendian_to_host.part.0
00010082 l     F .text	00000064 mpi_fill_random_internal
000101f8 l     F .text	00000036 mbedtls_mpi_resize_clear
000112c4 l     F .text	00000050 mpi_check_small_factors
000118a0 l     F .text	00000192 mpi_miller_rabin
00014414 l     O .rodata	000002a0 small_prime
000146b4 l     O .rodata	00000024 gcd_pairs
00000000 l    df *ABS*	00000000 platform_util.c
0001bf0c l     O .data	00000004 memset_func
00000000 l    df *ABS*	00000000 bget_malloc.c
000123d0 l     F .text	00000020 myrand
000123f0 l     F .text	0000000a _assert_trap
000123fa l     F .text	00000022 bget_buf_size.part.0
00012a10 l     F .text	00000044 stats.constprop.0
00012e58 l     F .text	00000080 gen_malloc_add_pool
00019478 l     O .rodata	0000000e __func__.2
00019486 l     O .rodata	00000005 __func__.9
0001948b l     O .rodata	00000006 __func__.8
00019491 l     O .rodata	00000005 __func__.6
00019496 l     O .rodata	00000006 __func__.7
0001949c l     O .rodata	00000006 __func__.5
000194a2 l     O .rodata	00000007 __func__.4
000194a9 l     O .rodata	0000000f __func__.3
000194b8 l     O .rodata	00000003 CSWTCH.113
000194bb l     O .rodata	00000014 __func__.1
000194cf l     O .rodata	00000013 __func__.0
0001bf10 l     O .data	00000004 next
0001f024 l     O .bss	00000004 bchain
0001bf14 l     O .data	0000001c mypoolset
0001bf30 l     O .data	0000005c malloc_ctx
00000000 l    df *ABS*	00000000 mempool.c
0001956b l     O .rodata	00000013 __func__.2
0001957e l     O .rodata	0000000b __func__.1
00019589 l     O .rodata	0000000e __func__.0
00000000 l    df *ABS*	00000000 handle.c
00000000 l    df *ABS*	00000000 processing_aes.c
00000000 l    df *ABS*	00000000 snprintf.c
00000000 l    df *ABS*	00000000 memset.c
00000000 l    df *ABS*	00000000 strchr.c
00000000 l    df *ABS*	00000000 strcmp.c
00000000 l    df *ABS*	00000000 strcpy.c
00000000 l    df *ABS*	00000000 strlen.c
00000000 l    df *ABS*	00000000 strnlen.c
00000000 l    df *ABS*	00000000 strstr.c
00000000 l    df *ABS*	00000000 consttime_memcmp.c
00000000 l    df *ABS*	00000000 memchr.c
00000000 l    df *ABS*	00000000 arm32_aeabi_ldivmod.c
00013430 l     F .text	0000008a ul_div_qr
00000000 l    df *ABS*	00000000 constant_time.c
00013564 l     F .text	00000010 mbedtls_ct_uchar_mask_of_range
00000000 l    df *ABS*	00000000 isxdigit.c
00000000 l    df *ABS*	00000000 tolower.c
00000000 l    df *ABS*	00000000 memmove.c
00000000 l    df *ABS*	00000000 strlcpy.c
00000000 l    df *ABS*	00000000 
0001a000 l     O *ABS*	00000000 _DYNAMIC
0001a088 l     O *ABS*	00000000 _GLOBAL_OFFSET_TABLE_
00013a40 l     F .text	00000010 ___utee_check_access_rights_from_thumb
00013a50 l     F .text	00000010 ___utee_cache_operation_from_thumb
00013a60 l     F .text	00000010 ___utee_log_from_thumb
00013a70 l     F .text	00000010 ___utee_panic_from_thumb
00000098 g     F .text	00000018 init_attributes_head
0000aa0c g     F .text	00000022 putchar
0000b174 g     F .text	00000078 TEE_PopulateTransientObject
00003f0c g     F .text	000000c0 pkcs2tee_load_hashed_attr
00013362 g     F .text	00000010 strcpy
00001a18 g     F .text	00000040 destroy_object_uuid
0000f802 g     F .text	00000004 TEE_BigIntConvertToFMM
0000f4e0 g     F .text	00000008 TEE_BigIntSquareMod
0000f084 g     F .text	00000110 TEE_BigIntShiftRight
00012f96 g     F .text	00000002 raw_malloc_add_pool
0000dbb0 g     F .text	00000088 tee_invoke_supp_plugin
00009c50 g     F .text	00000084 tee_malloc_mechanism_list
00001d4c g     F .text	0000009c update_persistent_object_attributes
00009490 g     F .text	00000174 trace_attributes_from_api_head
0001015c g     F .text	0000009c mbedtls_mpi_grow
000134f4 g     F .text	00000070 __l_divmod
000016a2 g     F .text	0000004a verify_pin
0000c434 g     F .text	00000030 TEE_DigestUpdate
00004bec g     F .text	00000054 entry_ck_close_session
0000aea6 g     F .text	00000020 TEE_Realloc
0000c28c g     F .text	000000f4 TEE_SetOperationKey2
0000d460 g     F .text	00000016 __utee_check_inout_annotation
00012d3c g     F .text	00000008 raw_free
0000a9ae g     F .text	0000003a printf
00003afc g     F .text	00000028 get_key_data_to_wrap
0000175c g     F .text	000001b0 setup_identity_auth_from_pin
00006f08 g     F .text	000001cc step_digest_operation
000040bc g     F .text	00000018 id2str_class
00003cf2 g     F .text	0000000c pkcs11_attr_class_is_key
0000b1ec g     F .text	00000022 TEE_InitRefAttribute
0000dc60 g     F .text	00000014 _utee_log
000072e8 g     F .text	0000006c pkcs2tee_algo_ecdsa
0000acbc g     F .text	000000bc TEE_InvokeTACommand
0000d3e6 g     F .text	0000002e __utee_check_outbuf_annotation
000100f2 g     F .text	00000026 mbedtls_mpi_init_mempool
00000402 g     F .text	0000014e trace_attributes
0000defc g     F .text	00000014 _utee_cryp_random_number_generate
00010592 g     F .text	0000006a mbedtls_mpi_write_binary
0000a8c8 g     F .text	000000cc tee_uuid_from_str
00002f88 g     F .text	00000008 object_is_modifiable
0000cae4 g     F .text	00000114 TEE_AEEncryptFinal
00003cca g     F .text	00000014 pkcs11_attr_has_indirect_attributes
00000c1e g     F .text	000000b6 entry_destroy_object
00000a08 g     F .text	00000128 create_object
00001a58 g     F .text	0000002a get_persistent_objects_list
00009f74 g     F .text	0000000e vsnprintk
00010a88 g     F .text	0000002e mbedtls_mpi_sub_int
00006e20 g     F .text	000000e8 init_digest_operation
0000010a g     F .text	00000006 remove_empty_attribute
000139dc g     F .text	00000034 memmove
000132f6 g     F .text	0000001e snprintf
000045d8 g     F .text	00000016 pkcs11_deinit
0000ef4e g     F .text	00000026 TEE_BigIntCmpS32
0000405c g     F .text	00000018 id2str_session_flag
0001382e g     F .text	00000186 mbedtls_ct_rsaes_pkcs1_v15_unpadding
00001a82 g     F .text	000000b4 unregister_persistent_object
0000b20e g     F .text	00000022 TEE_InitValueAttribute
0001022e g     F .text	000000b6 mbedtls_mpi_shrink
00000950 g     F .text	00000098 destroy_object
000093ee g     F .text	000000a2 sanitize_consistent_class_and_type
0000f1e0 g     F .text	00000020 TEE_BigIntAdd
000040d4 g     F .text	00000018 id2str_key_type
000044ca g     F .text	00000006 get_session_list
0000de5c g     F .text	00000014 _utee_cryp_obj_restrict_usage
00000110 g     F .text	00000094 get_attribute_ptrs
000143c8 g     O .rodata	00000004 ta_heap_size
0000b144 g     F .text	00000030 TEE_ResetTransientObject
00009b06 g     F .text	0000004e serialize
0000df84 g     F .text	00000018 _utee_asymm_operate
0000e5a4 g     F .text	0000000e _base64_enc_len
00007a68 g     F .text	00000098 pkcs2tee_algo_ecdh
00010bfc g     F .text	0000011c mbedtls_mpi_read_string
0000c4ec g     F .text	00000074 TEE_CipherInit
00001b36 g     F .text	00000094 register_persistent_object
000019b8 g     F .text	00000002 close_persistent_db
00003428 g     F .text	00000354 check_parent_attrs_against_processing
00005d34 g     F .text	000002c4 entry_processing_key
0000f220 g     F .text	00000074 TEE_BigIntNeg
0000e020 g     F .text	00000014 _utee_storage_free_enum
00000020 g       .text	00000000 __text_start
00006080 g     F .text	0000021c entry_wrap_key
0000da74 g     F .text	00000068 TEE_GetNextProperty
0000b4e4 g     F .text	0000002c TEE_StartPersistentObjectEnumerator
000106a0 g     F .text	0000007a mbedtls_mpi_shift_r
00008184 g     F .text	00000288 generate_rsa_keys
0001306c g     F .text	00000054 malloc_buffer_overlaps_heap
0000ddc4 g     F .text	00000014 _utee_hash_init
000009e8 g     F .text	00000020 create_token_object
0000f4a8 g     F .text	0000001c TEE_BigIntSubMod
00011e6e g     F .text	00000212 mbedtls_mpi_gen_prime
0000d870 g     F .text	00000068 TEE_GetPropertyAsBinaryBlock
000103b4 g     F .text	00000020 mbedtls_mpi_get_bit
000104e4 g     F .text	00000042 mbedtls_mpi_read_binary
0000c94c g     F .text	00000070 TEE_AEInit
0000a7fc g     F .text	00000018 trace_printf
0001131a g     F .text	00000004 mbedtls_mpi_montmul
0000e0d4 g     F .text	00000014 _utee_cache_operation
00009e68 g     F .text	000000dc memcpy
00009954 g     F .text	00000008 serialargs_init
000084d0 g     F .text	00000074 processing_is_tee_symm
0000123e g     F .text	00000114 entry_set_attribute_value
00007910 g     F .text	00000064 ecdsa_get_input_max_byte_size
00013226 g     F .text	0000001c handle_put
0000f806 g     F .text	00000066 TEE_BigIntConvertFromFMM
0000d3dc g     F .text	00000004 TEE_Panic
00002f82 g     F .text	00000006 object_is_token
0000a830 g     F .text	00000018 __aeabi_uldivmod
0000c380 g     F .text	000000b4 TEE_CopyOperation
0000a9e8 g     F .text	00000024 puts
0000f86c g     F .text	000000c0 TEE_BigIntComputeFMM
00012cb8 g     F .text	0000001c malloc_get_stats
00003c28 g     F .text	00000054 tee2pkcs_error
0000ae34 g     F .text	00000016 TEE_GetREETime
00012f98 g     F .text	00000018 raw_malloc_get_stats
0000b488 g     F .text	00000034 TEE_AllocatePersistentObjectEnumerator
000139d0 g     F .text	0000000c tolower
000099b4 g     F .text	00000024 serialargs_get
0001be6c g     O .data	00000054 ta_props
0000ccf8 g     F .text	000000c0 TEE_AsymmetricEncrypt
0000d414 g     F .text	0000001c __utee_check_instring_annotation
00012ed8 g     F .text	00000014 malloc
00009604 g     F .text	00000350 sanitize_client_object
000132e8 g     F .text	0000000a __ta_entry_c
0000d9d0 g     F .text	00000004 TEE_FreePropertyEnumerator
0000036c g     F .text	00000096 attributes_match_add_reference
000040ec g     F .text	00000014 id2str_type
000135a4 g     F .text	00000008 mbedtls_ct_mpi_uint_mask
00000fb0 g     F .text	00000020 release_session_find_obj_context
00013314 g     F .text	0000000e vsnprintf
0000b2c8 g     F .text	00000054 TEE_GenerateKey
0001be68 g     O .data	00000004 trace_level
00004478 g     F .text	0000004c get_token_id
0000ef18 g     F .text	00000036 TEE_BigIntCmp
000016ec g     F .text	00000070 setup_so_identity_auth_from_client
00003cde g     F .text	00000014 pkcs11_class_has_type
000143b8 g     O .rodata	00000004 ta_num_props
000091da g     F .text	0000010e wrap_data_by_symm_enc
00007174 g     F .text	00000030 ec_params2tee_curve
000044d0 g     F .text	00000018 tee_session2client
00012898 g     F .text	00000080 bgetr
0000dfb4 g     F .text	00000018 _utee_storage_obj_open
0000995c g     F .text	00000058 serialargs_get_ptr
00009a30 g     F .text	00000016 serialargs_alloc_and_get
00000fd0 g     F .text	0000005c entry_find_objects_final
000131a2 g     F .text	0000000c mempool_free
0000c560 g     F .text	000000ec TEE_CipherUpdate
0000ddd8 g     F .text	00000014 _utee_hash_update
0000ee14 g     F .text	00000058 TEE_BigIntConvertToOctetString
00000246 g     F .text	00000058 modify_attributes_list
0000c0e0 g     F .text	000000d4 TEE_GetOperationInfoMultiple
000051ca g     F .text	000000d4 entry_ck_logout
0001045a g     F .text	0000003a mbedtls_mpi_bitlen
0000f194 g     F .text	0000002a TEE_BigIntGetBit
000143cc g     O .rodata	00000003 trace_ext_prefix
0000e05c g     F .text	00000014 _utee_storage_next_enum
000041c4 g     F .text	00000018 id2str_function
00012d2a g     F .text	00000012 raw_malloc
00003d2c g     F .text	00000024 pkcs11_attr2boolprop_shift
00012638 g     F .text	0000005c bgetz
00004540 g     F .text	0000006c unregister_client
000135ac g     F .text	0000000c mbedtls_ct_size_bool_eq
0000ad84 g     F .text	0000000c TEE_GetInstanceData
0000adb2 g     F .text	0000001e TEE_Wait
00005394 g     F .text	000000ac entry_ck_generate_random
00010ab6 g     F .text	000000ea mbedtls_mpi_mul_mpi
00001668 g     F .text	0000003a hash_pin
0000aecc g     F .text	00000006 TEE_CacheFlush
0000a6c4 g     F .text	00000138 trace_vprintf
00000554 g     F .text	00000004 TA_DestroyEntryPoint
00009a86 g     F .text	00000040 serialargs_alloc_get_attributes
0000190c g     F .text	000000ac verify_identity_auth
000100e6 g     F .text	0000000c mbedtls_mpi_init
0000dfe4 g     F .text	00000014 _utee_storage_obj_del
00010422 g     F .text	00000038 mbedtls_mpi_lsb
0000a848 g     F .text	00000028 _assert_log
00005814 g     F .text	0000024e entry_generate_key_pair
0000dd9c g     F .text	00000014 _utee_cryp_state_copy
0000f7fe g     F .text	00000004 TEE_BigIntFMMContextSizeInU32
000024fc g     F .text	00000a80 create_attributes_from_template
0000db62 g     F .text	0000004e tee_unmap
0000c8c8 g     F .text	00000084 TEE_MACCompareFinal
000135c6 g     F .text	00000012 mbedtls_ct_uint_if
0000b44e g     F .text	0000003a TEE_RenamePersistentObject
00009ba0 g     F .text	00000084 mechanism_flags_complies_pkcs11
0000c464 g     F .text	00000088 TEE_DigestDoFinal
000044e8 g     F .text	0000000c pkcs11_handle2session
0000ed3c g     F .text	00000044 _TEE_MathAPI_Init
000000b0 g     F .text	0000005a add_attribute
0000f92c g     F .text	0000017c __utee_tcb_init
000109c0 g     F .text	0000004c mbedtls_mpi_add_mpi
0000e58c g     F .text	00000018 abort
000001a4 g     F .text	00000024 get_attribute_ptr
00011a32 g     F .text	000000e6 mbedtls_mpi_random
0000840c g     F .text	00000022 rsa_get_input_max_byte_size
00001bca g     F .text	00000172 load_persistent_object_attributes
00004018 g     F .text	00000014 id2str_ta_cmd
0001bf8c g     O .bss	00000004 temporary_object_list
0000d432 g     F .text	00000016 __utee_check_out_annotation
0001f028 g     O .bss	00008000 ta_heap
0000f4e8 g     F .text	000000c0 TEE_BigIntInvMod
00009c24 g     F .text	0000002c mechanism_is_one_shot_only
000139b4 g     F .text	0000001c isxdigit
0000e298 g     F .text	000000c0 __utee_call_elf_init_fn
00007e24 g     F .text	00000184 pkcs2tee_algo_rsa_oaep
00000570 g     F .text	0000000e TA_CloseSessionEntryPoint
00009e1c g     F .text	00000048 mechanism_supported_key_sizes_bytes
0000dccc g     F .text	00000014 _utee_close_ta_session
000062fc g     F .text	00000038 processing_is_tee_asymm
00009178 g     F .text	00000062 derive_key_by_symm_enc
0000cdb8 g     F .text	000000c0 TEE_AsymmetricDecrypt
0000b31c g     F .text	00000070 TEE_OpenPersistentObject
00010a0c g     F .text	0000004e mbedtls_mpi_sub_mpi
0000dc4c g     F .text	00000014 _utee_return
000133cc g     F .text	00000048 consttime_memcmp
0000dc74 g     F .text	00000014 __utee_panic
00013574 g     F .text	00000028 mbedtls_ct_memcmp
0000faa8 g     F .text	00000018 __tls_get_addr
00013382 g     F .text	00000018 strnlen
0000057e g     F .text	000002d2 TA_InvokeCommandEntryPoint
0001bf90 g     O .bss	00000048 ck_token
0000e358 g     F .text	00000010 __utee_call_elf_fini_fn
00012f70 g     F .text	00000010 free_wipe
00013144 g     F .text	0000003c mempool_alloc
0000dc38 g     F .text	00000014 _utee_panic
00012f84 g     F .text	00000012 raw_malloc_init_ctx
00013180 g     F .text	00000022 mempool_calloc
0000e0c0 g     F .text	00000014 _utee_cryp_obj_generate_key
0000e098 g     F .text	00000014 _utee_storage_obj_trunc
0000b298 g     F .text	00000030 TEE_CopyObjectAttributes
0001bec0 g     O .data	0000003c tee_props
0000dd20 g     F .text	00000014 _utee_unmask_cancellation
0000418c g     F .text	00000038 id2str_proc
0001bb18 g     O .data	00000350 token_mechanism
0000d9a0 g     F .text	00000008 TEE_ResetPropertyEnumerator
00012eec g     F .text	00000020 calloc
00004044 g     F .text	00000018 id2str_token_flag
0000ae4a g     F .text	00000052 TEE_Malloc
0000aafe g     F .text	0000000a TEE_CheckMemoryAccessRights
000134ba g     F .text	0000003a __ul_divmod
0000d8d8 g     F .text	00000064 TEE_GetPropertyAsUUID
0000dc88 g     F .text	00000018 _utee_get_property
0001037c g     F .text	00000038 mbedtls_mpi_lset
00007610 g     F .text	000000e4 load_tee_eddsa_key_attrs
0000b58c g     F .text	00000054 TEE_ReadObjectData
0000af98 g     F .text	00000078 TEE_GetObjectBufferAttribute
00000558 g     F .text	00000018 TA_OpenSessionEntryPoint
000031f0 g     F .text	00000238 check_created_attrs
0000b86c g     F .text	00000026 TEE_FreeOperation
0000fac0 g     F .text	000000a8 dl_iterate_phdr
000076f4 g     F .text	00000194 generate_eddsa_keys
00003b24 g     F .text	000000bc add_missing_attribute_id
00027028 g       .bss	00000000 __ftrace_buf_end
0001c014 g     O .bss	00000004 ta_param_types
00008544 g     F .text	000006f2 init_symm_operation
00011068 g     F .text	0000002e mbedtls_mpi_div_int
0000aed8 g     F .text	0000002a __utee_from_attr
00002f98 g     F .text	00000036 check_access_attrs_against_token
000019ba g     F .text	0000005e create_object_uuid
000037f6 g     F .text	00000282 check_attrs_against_modification
00003a78 g     F .text	00000084 set_key_data
00011dfe g     F .text	00000066 mbedtls_mpi_is_prime_ext
00004ef0 g     F .text	000000b4 entry_ck_init_pin
0000f7c0 g     F .text	00000030 TEE_BigIntIsProbablePrime
00010ba0 g     F .text	0000005c mbedtls_mpi_mul_int
0000b414 g     F .text	00000024 TEE_CloseAndDeletePersistentObject1
00011322 g     F .text	0000044a mbedtls_mpi_exp_mod
000136b2 g     F .text	00000062 mbedtls_mpi_safe_cond_assign
00003d18 g     F .text	00000014 key_type_is_asymm_key
0000d654 g     F .text	00000158 TEE_GetPropertyAsString
00005ba2 g     F .text	00000192 entry_processing_step
0001379c g     F .text	00000092 mbedtls_mpi_lt_mpi_ct
0000cbf8 g     F .text	00000100 TEE_AEDecryptFinal
0000ed80 g     F .text	00000038 TEE_BigIntInit
0000d430 g     F .text	00000002 __utee_check_outstring_annotation
0000ad90 g     F .text	00000004 TEE_MemMove
000123bc g     F .text	00000014 mbedtls_platform_zeroize
0000edb8 g     F .text	0000005c TEE_BigIntConvertFromOctetString
0000df6c g     F .text	00000018 _utee_authenc_dec_final
0001071a g     F .text	00000062 mbedtls_mpi_cmp_abs
0000e070 g     F .text	00000014 _utee_storage_obj_read
0000c7a8 g     F .text	00000056 TEE_MACInit
0000029e g     F .text	00000052 get_bool
0000ce78 g     F .text	000000bc TEE_AsymmetricSignDigest
00013414 g     F .text	0000001c memchr
0000aac6 g     F .text	0000001c TEE_UnmaskCancellation
0000af02 g     F .text	0000002a TEE_GetObjectInfo
00012080 g     F .text	0000033c mbedtls_mpi_self_test
00002f7c g     F .text	00000006 object_is_private
0000e0ac g     F .text	00000014 _utee_storage_obj_seek
0000ca02 g     F .text	000000e2 TEE_AEUpdate
0000b114 g     F .text	00000030 TEE_FreeTransientObject
0000dd0c g     F .text	00000014 _utee_check_access_rights
000045ee g     F .text	00000096 set_processing_state
00010802 g     F .text	0000002e mbedtls_mpi_cmp_int
0001339a g     F .text	00000032 strstr
0000e674 g     F .text	000000cc _base64_dec
0000e034 g     F .text	00000014 _utee_storage_reset_enum
00013654 g     F .text	0000005e mbedtls_ct_base64_dec_value
00012a54 g     F .text	00000250 bget_main_test
0000d0ce g     F .text	00000018 rand
0000408c g     F .text	00000030 id2str_attr
0000d448 g     F .text	00000018 __utee_check_attr_in_annotation
0000df3c g     F .text	00000018 _utee_authenc_update_payload
00003c7c g     F .text	00000034 valid_pkcs11_attribute_id
00007c1c g     F .text	00000158 pkcs2tee_algo_rsa_pss
00005a62 g     F .text	00000140 entry_processing_init
0000c0b0 g     F .text	00000030 TEE_GetOperationInfo
0000f43c g     F .text	00000050 TEE_BigIntMod
000110fa g     F .text	0000006c mbedtls_mpi_mod_int
000104a0 g     F .text	00000044 mbedtls_mpi_read_binary_le
0000f342 g     F .text	000000fa TEE_BigIntDiv
0000de84 g     F .text	00000014 _utee_cryp_obj_alloc
00027028 g       .bss	00000000 __ftrace_buf_start
00013a10 g     F .text	0000002a strlcpy
000092e8 g     F .text	0000009c unwrap_key_by_symm
000135fc g     F .text	00000058 mbedtls_ct_base64_enc_char
000102e4 g     F .text	0000006a mbedtls_mpi_copy
000044f4 g     F .text	0000004c register_client
0000d0e6 g     F .text	000002d6 TEE_IsAlgorithmSupported
00012ca4 g     F .text	00000014 malloc_reset_stats
0000d93c g     F .text	00000064 TEE_GetPropertyAsIdentity
0000a67c g     F .text	00000016 __vsprintf
000046da g     F .text	0000010e entry_ck_slot_info
0000102c g     F .text	00000176 entry_get_attribute_value
0000dd70 g     F .text	00000014 _utee_set_ta_time
0000dce0 g     F .text	00000018 _utee_invoke_ta_command
00007168 g     F .text	0000000c ec_params2tee_keysize
0000af4c g     F .text	00000020 TEE_RestrictObjectUsage1
00009b80 g     F .text	00000020 mechanism_is_valid
00012f0c g     F .text	00000020 realloc
0001034e g     F .text	0000002e mbedtls_mpi_swap
000130c0 g     F .text	00000084 mempool_alloc_pool
00007888 g     F .text	00000088 pkcs2tee_proc_params_eddsa
0000f294 g     F .text	000000a8 TEE_BigIntMul
000023b4 g     F .text	00000148 check_mechanism_against_processing
0000c1b4 g     F .text	00000040 TEE_ResetOperation
00007974 g     F .text	000000f4 pkcs2tee_param_ecdh
00012f80 g     F .text	00000004 raw_malloc_get_ctx_size
000105fc g     F .text	000000a4 mbedtls_mpi_shift_l
00003cb0 g     F .text	0000001a pkcs11_attr_is_type
00004fa4 g     F .text	000000d6 entry_ck_set_pin
0001077c g     F .text	00000086 mbedtls_mpi_cmp_mpi
0000ad98 g     F .text	00000004 TEE_MemFill
00000cd4 g     F .text	00000248 entry_find_objects_init
00012fb0 g     F .text	00000010 malloc_add_pool
0000c7fe g     F .text	0000004e TEE_MACUpdate
0000a6b0 g     F .text	00000014 trace_get_level
00010830 g     F .text	000000ae mbedtls_mpi_add_abs
0000af6c g     F .text	0000002c TEE_RestrictObjectUsage
00007354 g     F .text	000002bc generate_ec_keys
0000f7f6 g     F .text	00000008 TEE_BigIntFMMSizeInU32
0000d7ac g     F .text	00000060 TEE_GetPropertyAsBool
00012da2 g     F .text	000000b6 raw_realloc
0000f7f0 g     F .text	00000004 TEE_BigIntInitFMM
0000b0c0 g     F .text	00000014 TEE_CloseObject
00001352 g     F .text	000001bc entry_copy_object
0000de04 g     F .text	00000014 _utee_cipher_init
00004074 g     F .text	00000018 id2str_session_state
0000e3d4 g     F .text	000001b8 __utee_entry
0000d80c g     F .text	00000064 TEE_GetPropertyAsU32
000071a4 g     F .text	00000144 load_tee_ec_key_attrs
00013a80 g       .text	00000000 __text_end
0000f5a8 g     F .text	0000007c TEE_BigIntRelativePrime
00011096 g     F .text	00000064 mbedtls_mpi_mod_mpi
0000de48 g     F .text	00000014 _utee_cryp_obj_get_info
00004118 g     F .text	00000074 id2str_attr_value
0000377c g     F .text	0000007a attribute_is_exportable
00012918 g     F .text	00000098 bpool
0000d9a8 g     F .text	00000028 TEE_AllocatePropertyEnumerator
0000dd84 g     F .text	00000018 _utee_cryp_state_alloc
0000aaaa g     F .text	0000001c TEE_GetCancellationFlag
0001176c g     F .text	00000100 mbedtls_mpi_gcd
000047e8 g     F .text	0000011c entry_ck_token_info
0000ae0c g     F .text	00000028 TEE_SetTAPersistentTime
00009ac6 g     F .text	00000012 serialargs_remaining_bytes
000008f8 g     F .text	00000014 pkcs11_object2handle
00010526 g     F .text	0000006c mbedtls_mpi_write_binary_le
00013322 g     F .text	00000010 memset
0000557c g     F .text	000001cc entry_generate_secret
00012cd4 g     F .text	00000056 raw_memalign
0000add0 g     F .text	0000003c TEE_GetTAPersistentTime
0000a814 g     F .text	00000002 dhex_dump
0000b38c g     F .text	00000088 TEE_CreatePersistentObject
0000aae2 g     F .text	0000001c TEE_MaskCancellation
0000c9bc g     F .text	00000046 TEE_AEUpdateAAD
00004d36 g     F .text	000001ba entry_ck_token_initialize
0000b620 g     F .text	00000038 TEE_TruncateObjectData
0000de70 g     F .text	00000014 _utee_cryp_obj_get_attr
000015f8 g     F .text	00000070 update_persistent_db
00003036 g     F .text	000001ba check_created_attrs_against_processing
0000af2c g     F .text	00000020 TEE_GetObjectInfo1
0000de30 g     F .text	00000018 _utee_cipher_final
0000a694 g     F .text	0000001c trace_set_level
0000b010 g     F .text	000000b0 TEE_GetObjectValueAttribute
0000c1f4 g     F .text	00000098 TEE_SetOperationKey
000135b8 g     F .text	0000000e mbedtls_ct_mpi_uint_lt
00004684 g     F .text	00000056 entry_ck_slot_list
0000444c g     F .text	0000002c get_token
0000ddb0 g     F .text	00000014 _utee_cryp_state_free
0001334c g     F .text	00000016 strcmp
0000dcb4 g     F .text	00000018 _utee_open_ta_session
0000eebc g     F .text	0000005c TEE_BigIntConvertToS32
0000f200 g     F .text	00000020 TEE_BigIntSub
00003fcc g     F .text	00000034 pkcs2tee_mode
00003cfe g     F .text	0000001a key_type_is_symm_key
000132f2 g     F .text	00000004 tahead_get_trace_level
0000e048 g     F .text	00000014 _utee_storage_start_enum
0000b658 g     F .text	0000007c TEE_SeekObjectData
0000db2c g     F .text	00000036 tee_map_zi
0001131e g     F .text	00000004 mbedtls_mpi_montred
00005748 g     F .text	00000064 alloc_get_tee_attribute_data
000002f0 g     F .text	0000007c attributes_match_reference
00012f2c g     F .text	00000020 memalign
0001359c g     F .text	00000008 mbedtls_ct_uint_mask
0000c64c g     F .text	0000015c TEE_CipherDoFinal
0001327c g     F .text	0000006c tee_init_ctr_operation
0000ee6c g     F .text	00000050 TEE_BigIntConvertFromS32
00010a5a g     F .text	0000002e mbedtls_mpi_add_int
00013242 g     F .text	00000016 handle_lookup
0000df54 g     F .text	00000018 _utee_authenc_enc_final
000001c8 g     F .text	00000050 get_attribute
00012fc0 g     F .text	000000ac malloc_buffer_is_within_alloced
0000507a g     F .text	00000150 entry_ck_login
00004904 g     F .text	000000c4 entry_ck_token_mecha_ids
0000de98 g     F .text	00000014 _utee_cryp_obj_close
0000f7f4 g     F .text	00000002 TEE_BigIntInitFMMContext
00006cbc g     F .text	00000124 do_asymm_derivation
0000dd34 g     F .text	00000014 _utee_mask_cancellation
0000dff8 g     F .text	00000014 _utee_storage_obj_rename
0000b4d0 g     F .text	00000014 TEE_ResetPersistentObjectEnumerator
0000b5e0 g     F .text	00000040 TEE_WriteObjectData
0000f33c g     F .text	00000006 TEE_BigIntSquare
0000e084 g     F .text	00000014 _utee_storage_obj_write
00000550 g     F .text	00000004 TA_CreateEntryPoint
00009d30 g     F .text	000000ec pkcs11_mechanism_supported_key_sizes
00009e64 g     F .text	00000004 __ta_entry
0000df28 g     F .text	00000014 _utee_authenc_update_aad
00011314 g     F .text	00000006 mbedtls_mpi_montg_init
00009f82 g     F .text	0000001a snprintk
0000f1be g     F .text	00000022 TEE_BigIntGetBitCount
0000ded4 g     F .text	00000014 _utee_cryp_obj_copy
00001d3c g     F .text	00000010 release_persistent_object_attributes
0000f4c4 g     F .text	0000001c TEE_BigIntMulMod
00011b18 g     F .text	000002e6 mbedtls_mpi_inv_mod
0000cfdc g     F .text	000000e0 TEE_DeriveKey
00004ca8 g     F .text	0000008e entry_ck_session_info
0001bff4 g     O .bss	00000020 ta_params
0000090c g     F .text	00000044 cleanup_persistent_object
00010d18 g     F .text	00000350 mbedtls_mpi_div_mpi
00010494 g     F .text	0000000c mbedtls_mpi_size
0001241c g     F .text	0000021c bget
00013258 g     F .text	00000024 handle_lookup_handle
0000b0d4 g     F .text	00000040 TEE_AllocateTransientObject
000011a2 g     F .text	0000009c entry_get_object_size
0000d9d4 g     F .text	0000000a TEE_StartPropertyEnumerator
0000dd48 g     F .text	00000014 _utee_wait
000103d4 g     F .text	0000004e mbedtls_mpi_set_bit
00013de0 g     O .rodata	0000000c raw_data_opt_or_null
00006334 g     F .text	00000474 init_asymm_operation
0000ae9c g     F .text	0000000a TEE_Free
00000b30 g     F .text	000000ee entry_create_object
00001de8 g     F .text	00000208 init_persistent_db
00011e64 g     F .text	0000000a mbedtls_mpi_is_prime
0000aed2 g     F .text	00000006 TEE_CacheInvalidate
00002f90 g     F .text	00000008 object_is_copyable
0000a870 g     F .text	00000010 _assert_break
0000f48c g     F .text	0000001c TEE_BigIntAddMod
000135d8 g     F .text	00000024 mbedtls_ct_mpi_uint_cond_assign
0000dd5c g     F .text	00000014 _utee_get_time
000131cc g     F .text	0000005a handle_get
0000d9de g     F .text	00000096 TEE_GetPropertyName
0000b892 g     F .text	0000081e TEE_AllocateOperation
0000dec0 g     F .text	00000014 _utee_cryp_obj_populate
00009a46 g     F .text	00000040 serialargs_alloc_get_one_attribute
0000d0bc g     F .text	00000012 TEE_GenerateRandom
0000ad94 g     F .text	00000004 TEE_MemCompare
000057ac g     F .text	00000068 tee2pkcs_add_attribute
0000de18 g     F .text	00000018 _utee_cipher_update
00009f44 g     F .text	00000030 __vsnprintf
00004c40 g     F .text	00000068 entry_ck_close_all_sessions
0001bfe8 g     O .bss	0000000c __elf_phdr_info
00007fa8 g     F .text	000001dc load_tee_rsa_key_attrs
000008d6 g     F .text	00000022 pkcs11_handle2object
0000b4bc g     F .text	00000014 TEE_FreePersistentObjectEnumerator
0000ac2c g     F .text	00000090 TEE_OpenTASession
0000529e g     F .text	000000f6 entry_ck_seed_random
000049c8 g     F .text	000000ae entry_ck_token_mecha_info
000131b8 g     F .text	00000014 handle_db_destroy
00006de0 g     F .text	00000040 processing_is_tee_digest
0000a994 g     F .text	00000014 trace_ext_puts
00000f1c g     F .text	00000094 entry_find_objects
0000a9a8 g     F .text	00000006 trace_ext_get_thread_id
0000b438 g     F .text	00000016 TEE_CloseAndDeletePersistentObject
0000dee8 g     F .text	00000014 _utee_cryp_derive_key
00010118 g     F .text	00000044 mbedtls_mpi_free
00003d50 g     F .text	000001bc pkcs2tee_load_attr
0000deac g     F .text	00000014 _utee_cryp_obj_reset
00007d74 g     F .text	000000b0 pkcs2tee_proc_params_rsa_oaep
00005ff8 g     F .text	00000088 entry_release_active_processing
0000aec6 g     F .text	00000006 TEE_CacheClean
0000dca0 g     F .text	00000014 _utee_get_property_name_to_index
00012d44 g     F .text	0000005e raw_calloc
0000e5b2 g     F .text	000000c2 _base64_enc
000131b0 g     F .text	00000008 handle_db_init
00013714 g     F .text	00000088 mbedtls_mpi_safe_cond_swap
00004000 g     F .text	00000018 id2str_rc
0000df10 g     F .text	00000018 _utee_authenc_init
0000b230 g     F .text	00000068 TEE_CopyObjectAttributes1
00013372 g     F .text	00000010 strlen
0000f624 g     F .text	0000019c TEE_BigIntComputeExtendedGcd
00008c36 g     F .text	00000542 step_symm_operation
0000e00c g     F .text	00000014 _utee_storage_alloc_enum
000054de g     F .text	0000009e get_object_key_bit_size
00013332 g     F .text	0000001a strchr
0000ad9c g     F .text	00000016 TEE_GetSystemTime
0000df9c g     F .text	00000018 _utee_asymm_verify
00000000 g     O .ta_head	00000020 ta_head
00000218 g     F .text	0000002e set_attribute
00012694 g     F .text	00000204 brel
000045ac g     F .text	0000002c pkcs11_init
000108de g     F .text	000000e2 mbedtls_mpi_sub_abs
0001186c g     F .text	00000034 mbedtls_mpi_fill_random
0000402c g     F .text	00000018 id2str_slot_flag
0000ad78 g     F .text	0000000c TEE_SetInstanceData
0000dcf8 g     F .text	00000014 _utee_get_cancellation_flag
00004a76 g     F .text	00000176 entry_ck_open_session
0000a818 g     F .text	00000018 __aeabi_ldivmod
00007b80 g     F .text	0000009c pkcs2tee_validate_rsa_pss
00011166 g     F .text	0000015e mbedtls_mpi_write_string
00012f4c g     F .text	00000012 aligned_alloc
00007b06 g     F .text	0000007a pkcs2tee_proc_params_rsa_pss
00002fce g     F .text	00000068 check_created_attrs_against_token
0000b510 g     F .text	0000007c TEE_GetNextPersistentObject
00009cd4 g     F .text	0000005c mechanism_supported_flags
0000aa96 g     F .text	00000014 TEE_CloseTASession
0000cf34 g     F .text	000000a8 TEE_AsymmetricVerifyDigest
0000dfcc g     F .text	00000018 _utee_storage_obj_create
00009ad8 g     F .text	0000002e serialargs_get_session_from_handle
000054a2 g     F .text	0000003c release_active_processing
00012f5e g     F .text	00000012 free
00004100 g     F .text	00000018 id2str_certificate_type
00009b54 g     F .text	0000002c mechanism_string_id
000067a8 g     F .text	00000514 step_asymm_operation
000044c4 g     F .text	00000006 get_object_handle_db
000129b0 g     F .text	00000060 bstats
0000c84c g     F .text	0000007c TEE_MACComputeFinal
0001f020 g     O .bss	00000004 mbedtls_mpi_mempool
0000ddec g     F .text	00000018 _utee_hash_final



Disassembly of section .text:

00000020 <_remove_attribute.isra.0>:
_remove_attribute():
/home/lubuntu/Dokument/GitHub/STM32-Computer/Firmware/STM32-Computer-Firmware/CA7/optee-os-3.19.0-r2/optee-os-stm32mp-3.19.0-stm32mp-r2/ta/pkcs11/src/attributes.c:61
      20:	e92d 47f0 	stmdb	sp!, {r4, r5, r6, r7, r8, r9, sl, lr}
/home/lubuntu/Dokument/GitHub/STM32-Computer/Firmware/STM32-Computer-Firmware/CA7/optee-os-3.19.0-r2/optee-os-stm32mp-3.19.0-stm32mp-r2/ta/pkcs11/src/attributes.c:70
      24:	4604      	mov	r4, r0
/home/lubuntu/Dokument/GitHub/STM32-Computer/Firmware/STM32-Computer-Firmware/CA7/optee-os-3.19.0-r2/optee-os-stm32mp-3.19.0-stm32mp-r2/ta/pkcs11/src/attributes.c:61
      26:	ed2d 8b02 	vpush	{d8}
/home/lubuntu/Dokument/GitHub/STM32-Computer/Firmware/STM32-Computer-Firmware/CA7/optee-os-3.19.0-r2/optee-os-stm32mp-3.19.0-stm32mp-r2/ta/pkcs11/src/attributes.c:71
      2a:	f854 6b08 	ldr.w	r6, [r4], #8
/home/lubuntu/Dokument/GitHub/STM32-Computer/Firmware/STM32-Computer-Firmware/CA7/optee-os-3.19.0-r2/optee-os-stm32mp-3.19.0-stm32mp-r2/ta/pkcs11/src/attributes.c:61
      2e:	b082      	sub	sp, #8
/home/lubuntu/Dokument/GitHub/STM32-Computer/Firmware/STM32-Computer-Firmware/CA7/optee-os-3.19.0-r2/optee-os-stm32mp-3.19.0-stm32mp-r2/ta/pkcs11/src/attributes.c:73
      30:	ef80 8010 	vmov.i32	d8, #0	@ 0x00000000
/home/lubuntu/Dokument/GitHub/STM32-Computer/Firmware/STM32-Computer-Firmware/CA7/optee-os-3.19.0-r2/optee-os-stm32mp-3.19.0-stm32mp-r2/ta/pkcs11/src/attributes.c:71
      34:	4426      	add	r6, r4
/home/lubuntu/Dokument/GitHub/STM32-Computer/Firmware/STM32-Computer-Firmware/CA7/optee-os-3.19.0-r2/optee-os-stm32mp-3.19.0-stm32mp-r2/ta/pkcs11/src/attributes.c:61
      36:	4605      	mov	r5, r0
      38:	460f      	mov	r7, r1
      3a:	4690      	mov	r8, r2
/home/lubuntu/Dokument/GitHub/STM32-Computer/Firmware/STM32-Computer-Firmware/CA7/optee-os-3.19.0-r2/optee-os-stm32mp-3.19.0-stm32mp-r2/ta/pkcs11/src/attributes.c:73
      3c:	46ea      	mov	sl, sp
/home/lubuntu/Dokument/GitHub/STM32-Computer/Firmware/STM32-Computer-Firmware/CA7/optee-os-3.19.0-r2/optee-os-stm32mp-3.19.0-stm32mp-r2/ta/pkcs11/src/attributes.c:72
      3e:	42a6      	cmp	r6, r4
      40:	d802      	bhi.n	48 <_remove_attribute.isra.0+0x28>
/home/lubuntu/Dokument/GitHub/STM32-Computer/Firmware/STM32-Computer-Firmware/CA7/optee-os-3.19.0-r2/optee-os-stm32mp-3.19.0-stm32mp-r2/ta/pkcs11/src/attributes.c:95
      42:	f04f 4000 	mov.w	r0, #2147483648	@ 0x80000000
      46:	e020      	b.n	8a <_remove_attribute.isra.0+0x6a>
/home/lubuntu/Dokument/GitHub/STM32-Computer/Firmware/STM32-Computer-Firmware/CA7/optee-os-3.19.0-r2/optee-os-stm32mp-3.19.0-stm32mp-r2/ta/pkcs11/src/attributes.c:75
      48:	2208      	movs	r2, #8
      4a:	4621      	mov	r1, r4
      4c:	4650      	mov	r0, sl
/home/lubuntu/Dokument/GitHub/STM32-Computer/Firmware/STM32-Computer-Firmware/CA7/optee-os-3.19.0-r2/optee-os-stm32mp-3.19.0-stm32mp-r2/ta/pkcs11/src/attributes.c:73
      4e:	ed8a 8b00 	vstr	d8, [sl]
/home/lubuntu/Dokument/GitHub/STM32-Computer/Firmware/STM32-Computer-Firmware/CA7/optee-os-3.19.0-r2/optee-os-stm32mp-3.19.0-stm32mp-r2/ta/pkcs11/src/attributes.c:75
      52:	f00a fe9d 	bl	ad90 <TEE_MemMove>
/home/lubuntu/Dokument/GitHub/STM32-Computer/Firmware/STM32-Computer-Firmware/CA7/optee-os-3.19.0-r2/optee-os-stm32mp-3.19.0-stm32mp-r2/ta/pkcs11/src/attributes.c:78
      56:	9a00      	ldr	r2, [sp, #0]
/home/lubuntu/Dokument/GitHub/STM32-Computer/Firmware/STM32-Computer-Firmware/CA7/optee-os-3.19.0-r2/optee-os-stm32mp-3.19.0-stm32mp-r2/ta/pkcs11/src/attributes.c:76
      58:	9b01      	ldr	r3, [sp, #4]
/home/lubuntu/Dokument/GitHub/STM32-Computer/Firmware/STM32-Computer-Firmware/CA7/optee-os-3.19.0-r2/optee-os-stm32mp-3.19.0-stm32mp-r2/ta/pkcs11/src/attributes.c:78
      5a:	42ba      	cmp	r2, r7
/home/lubuntu/Dokument/GitHub/STM32-Computer/Firmware/STM32-Computer-Firmware/CA7/optee-os-3.19.0-r2/optee-os-stm32mp-3.19.0-stm32mp-r2/ta/pkcs11/src/attributes.c:76
      5c:	f103 0908 	add.w	r9, r3, #8
/home/lubuntu/Dokument/GitHub/STM32-Computer/Firmware/STM32-Computer-Firmware/CA7/optee-os-3.19.0-r2/optee-os-stm32mp-3.19.0-stm32mp-r2/ta/pkcs11/src/attributes.c:78
      60:	d001      	beq.n	66 <_remove_attribute.isra.0+0x46>
/home/lubuntu/Dokument/GitHub/STM32-Computer/Firmware/STM32-Computer-Firmware/CA7/optee-os-3.19.0-r2/optee-os-stm32mp-3.19.0-stm32mp-r2/ta/pkcs11/src/attributes.c:72
      62:	444c      	add	r4, r9
      64:	e7eb      	b.n	3e <_remove_attribute.isra.0+0x1e>
/home/lubuntu/Dokument/GitHub/STM32-Computer/Firmware/STM32-Computer-Firmware/CA7/optee-os-3.19.0-r2/optee-os-stm32mp-3.19.0-stm32mp-r2/ta/pkcs11/src/attributes.c:81
      66:	f1b8 0f00 	cmp.w	r8, #0
      6a:	d000      	beq.n	6e <_remove_attribute.isra.0+0x4e>
      6c:	b993      	cbnz	r3, 94 <_remove_attribute.isra.0+0x74>
/home/lubuntu/Dokument/GitHub/STM32-Computer/Firmware/STM32-Computer-Firmware/CA7/optee-os-3.19.0-r2/optee-os-stm32mp-3.19.0-stm32mp-r2/ta/pkcs11/src/attributes.c:84
      6e:	eb04 0109 	add.w	r1, r4, r9
      72:	4620      	mov	r0, r4
      74:	1a72      	subs	r2, r6, r1
      76:	f00a fe8b 	bl	ad90 <TEE_MemMove>
/home/lubuntu/Dokument/GitHub/STM32-Computer/Firmware/STM32-Computer-Firmware/CA7/optee-os-3.19.0-r2/optee-os-stm32mp-3.19.0-stm32mp-r2/ta/pkcs11/src/attributes.c:86
      7a:	686b      	ldr	r3, [r5, #4]
/home/lubuntu/Dokument/GitHub/STM32-Computer/Firmware/STM32-Computer-Firmware/CA7/optee-os-3.19.0-r2/optee-os-stm32mp-3.19.0-stm32mp-r2/ta/pkcs11/src/attributes.c:91
      7c:	2000      	movs	r0, #0
/home/lubuntu/Dokument/GitHub/STM32-Computer/Firmware/STM32-Computer-Firmware/CA7/optee-os-3.19.0-r2/optee-os-stm32mp-3.19.0-stm32mp-r2/ta/pkcs11/src/attributes.c:86
      7e:	3b01      	subs	r3, #1
      80:	606b      	str	r3, [r5, #4]
/home/lubuntu/Dokument/GitHub/STM32-Computer/Firmware/STM32-Computer-Firmware/CA7/optee-os-3.19.0-r2/optee-os-stm32mp-3.19.0-stm32mp-r2/ta/pkcs11/src/attributes.c:87
      82:	682b      	ldr	r3, [r5, #0]
      84:	eba3 0309 	sub.w	r3, r3, r9
      88:	602b      	str	r3, [r5, #0]
/home/lubuntu/Dokument/GitHub/STM32-Computer/Firmware/STM32-Computer-Firmware/CA7/optee-os-3.19.0-r2/optee-os-stm32mp-3.19.0-stm32mp-r2/ta/pkcs11/src/attributes.c:96
      8a:	b002      	add	sp, #8
      8c:	ecbd 8b02 	vpop	{d8}
      90:	e8bd 87f0 	ldmia.w	sp!, {r4, r5, r6, r7, r8, r9, sl, pc}
/home/lubuntu/Dokument/GitHub/STM32-Computer/Firmware/STM32-Computer-Firmware/CA7/optee-os-3.19.0-r2/optee-os-stm32mp-3.19.0-stm32mp-r2/ta/pkcs11/src/attributes.c:82
      94:	2006      	movs	r0, #6
      96:	e7f8      	b.n	8a <_remove_attribute.isra.0+0x6a>

00000098 <init_attributes_head>:
init_attributes_head():
/home/lubuntu/Dokument/GitHub/STM32-Computer/Firmware/STM32-Computer-Firmware/CA7/optee-os-3.19.0-r2/optee-os-stm32mp-3.19.0-stm32mp-r2/ta/pkcs11/src/attributes.c:23
      98:	b510      	push	{r4, lr}
/home/lubuntu/Dokument/GitHub/STM32-Computer/Firmware/STM32-Computer-Firmware/CA7/optee-os-3.19.0-r2/optee-os-stm32mp-3.19.0-stm32mp-r2/ta/pkcs11/src/attributes.c:24
      9a:	2100      	movs	r1, #0
/home/lubuntu/Dokument/GitHub/STM32-Computer/Firmware/STM32-Computer-Firmware/CA7/optee-os-3.19.0-r2/optee-os-stm32mp-3.19.0-stm32mp-r2/ta/pkcs11/src/attributes.c:23
      9c:	4604      	mov	r4, r0
/home/lubuntu/Dokument/GitHub/STM32-Computer/Firmware/STM32-Computer-Firmware/CA7/optee-os-3.19.0-r2/optee-os-stm32mp-3.19.0-stm32mp-r2/ta/pkcs11/src/attributes.c:24
      9e:	2008      	movs	r0, #8
      a0:	f00a fed3 	bl	ae4a <TEE_Malloc>
      a4:	6020      	str	r0, [r4, #0]
/home/lubuntu/Dokument/GitHub/STM32-Computer/Firmware/STM32-Computer-Firmware/CA7/optee-os-3.19.0-r2/optee-os-stm32mp-3.19.0-stm32mp-r2/ta/pkcs11/src/attributes.c:28
      a6:	2800      	cmp	r0, #0
/home/lubuntu/Dokument/GitHub/STM32-Computer/Firmware/STM32-Computer-Firmware/CA7/optee-os-3.19.0-r2/optee-os-stm32mp-3.19.0-stm32mp-r2/ta/pkcs11/src/attributes.c:29
      a8:	bf0c      	ite	eq
      aa:	2031      	moveq	r0, #49	@ 0x31
      ac:	2000      	movne	r0, #0
      ae:	bd10      	pop	{r4, pc}

000000b0 <add_attribute>:
add_attribute():
/home/lubuntu/Dokument/GitHub/STM32-Computer/Firmware/STM32-Computer-Firmware/CA7/optee-os-3.19.0-r2/optee-os-stm32mp-3.19.0-stm32mp-r2/ta/pkcs11/src/attributes.c:33
      b0:	e92d 41f3 	stmdb	sp!, {r0, r1, r4, r5, r6, r7, r8, lr}
      b4:	461c      	mov	r4, r3
/home/lubuntu/Dokument/GitHub/STM32-Computer/Firmware/STM32-Computer-Firmware/CA7/optee-os-3.19.0-r2/optee-os-stm32mp-3.19.0-stm32mp-r2/ta/pkcs11/src/attributes.c:34
      b6:	6803      	ldr	r3, [r0, #0]
/home/lubuntu/Dokument/GitHub/STM32-Computer/Firmware/STM32-Computer-Firmware/CA7/optee-os-3.19.0-r2/optee-os-stm32mp-3.19.0-stm32mp-r2/ta/pkcs11/src/attributes.c:40
      b8:	f10d 0804 	add.w	r8, sp, #4
      bc:	466e      	mov	r6, sp
/home/lubuntu/Dokument/GitHub/STM32-Computer/Firmware/STM32-Computer-Firmware/CA7/optee-os-3.19.0-r2/optee-os-stm32mp-3.19.0-stm32mp-r2/ta/pkcs11/src/attributes.c:33
      be:	4617      	mov	r7, r2
/home/lubuntu/Dokument/GitHub/STM32-Computer/Firmware/STM32-Computer-Firmware/CA7/optee-os-3.19.0-r2/optee-os-stm32mp-3.19.0-stm32mp-r2/ta/pkcs11/src/attributes.c:34
      c0:	681b      	ldr	r3, [r3, #0]
/home/lubuntu/Dokument/GitHub/STM32-Computer/Firmware/STM32-Computer-Firmware/CA7/optee-os-3.19.0-r2/optee-os-stm32mp-3.19.0-stm32mp-r2/ta/pkcs11/src/attributes.c:40
      c2:	4642      	mov	r2, r8
/home/lubuntu/Dokument/GitHub/STM32-Computer/Firmware/STM32-Computer-Firmware/CA7/optee-os-3.19.0-r2/optee-os-stm32mp-3.19.0-stm32mp-r2/ta/pkcs11/src/attributes.c:33
      c4:	4605      	mov	r5, r0
/home/lubuntu/Dokument/GitHub/STM32-Computer/Firmware/STM32-Computer-Firmware/CA7/optee-os-3.19.0-r2/optee-os-stm32mp-3.19.0-stm32mp-r2/ta/pkcs11/src/attributes.c:34
      c6:	3308      	adds	r3, #8
/home/lubuntu/Dokument/GitHub/STM32-Computer/Firmware/STM32-Computer-Firmware/CA7/optee-os-3.19.0-r2/optee-os-stm32mp-3.19.0-stm32mp-r2/ta/pkcs11/src/attributes.c:39
      c8:	e9cd 3100 	strd	r3, r1, [sp]
/home/lubuntu/Dokument/GitHub/STM32-Computer/Firmware/STM32-Computer-Firmware/CA7/optee-os-3.19.0-r2/optee-os-stm32mp-3.19.0-stm32mp-r2/ta/pkcs11/src/attributes.c:40
      cc:	2304      	movs	r3, #4
      ce:	4631      	mov	r1, r6
      d0:	f009 fd19 	bl	9b06 <serialize>
/home/lubuntu/Dokument/GitHub/STM32-Computer/Firmware/STM32-Computer-Firmware/CA7/optee-os-3.19.0-r2/optee-os-stm32mp-3.19.0-stm32mp-r2/ta/pkcs11/src/attributes.c:41
      d4:	b9b0      	cbnz	r0, 104 <add_attribute+0x54>
/home/lubuntu/Dokument/GitHub/STM32-Computer/Firmware/STM32-Computer-Firmware/CA7/optee-os-3.19.0-r2/optee-os-stm32mp-3.19.0-stm32mp-r2/ta/pkcs11/src/attributes.c:44
      d6:	9401      	str	r4, [sp, #4]
/home/lubuntu/Dokument/GitHub/STM32-Computer/Firmware/STM32-Computer-Firmware/CA7/optee-os-3.19.0-r2/optee-os-stm32mp-3.19.0-stm32mp-r2/ta/pkcs11/src/attributes.c:45
      d8:	2304      	movs	r3, #4
      da:	4642      	mov	r2, r8
      dc:	4631      	mov	r1, r6
      de:	4628      	mov	r0, r5
      e0:	f009 fd11 	bl	9b06 <serialize>
/home/lubuntu/Dokument/GitHub/STM32-Computer/Firmware/STM32-Computer-Firmware/CA7/optee-os-3.19.0-r2/optee-os-stm32mp-3.19.0-stm32mp-r2/ta/pkcs11/src/attributes.c:46
      e4:	b970      	cbnz	r0, 104 <add_attribute+0x54>
/home/lubuntu/Dokument/GitHub/STM32-Computer/Firmware/STM32-Computer-Firmware/CA7/optee-os-3.19.0-r2/optee-os-stm32mp-3.19.0-stm32mp-r2/ta/pkcs11/src/attributes.c:49
      e6:	4623      	mov	r3, r4
      e8:	463a      	mov	r2, r7
      ea:	4631      	mov	r1, r6
      ec:	4628      	mov	r0, r5
      ee:	f009 fd0a 	bl	9b06 <serialize>
/home/lubuntu/Dokument/GitHub/STM32-Computer/Firmware/STM32-Computer-Firmware/CA7/optee-os-3.19.0-r2/optee-os-stm32mp-3.19.0-stm32mp-r2/ta/pkcs11/src/attributes.c:50
      f2:	b938      	cbnz	r0, 104 <add_attribute+0x54>
/home/lubuntu/Dokument/GitHub/STM32-Computer/Firmware/STM32-Computer-Firmware/CA7/optee-os-3.19.0-r2/optee-os-stm32mp-3.19.0-stm32mp-r2/ta/pkcs11/src/attributes.c:55
      f4:	682b      	ldr	r3, [r5, #0]
      f6:	3408      	adds	r4, #8
      f8:	681a      	ldr	r2, [r3, #0]
      fa:	4422      	add	r2, r4
      fc:	601a      	str	r2, [r3, #0]
/home/lubuntu/Dokument/GitHub/STM32-Computer/Firmware/STM32-Computer-Firmware/CA7/optee-os-3.19.0-r2/optee-os-stm32mp-3.19.0-stm32mp-r2/ta/pkcs11/src/attributes.c:56
      fe:	685a      	ldr	r2, [r3, #4]
     100:	3201      	adds	r2, #1
     102:	605a      	str	r2, [r3, #4]
/home/lubuntu/Dokument/GitHub/STM32-Computer/Firmware/STM32-Computer-Firmware/CA7/optee-os-3.19.0-r2/optee-os-stm32mp-3.19.0-stm32mp-r2/ta/pkcs11/src/attributes.c:59
     104:	b002      	add	sp, #8
     106:	e8bd 81f0 	ldmia.w	sp!, {r4, r5, r6, r7, r8, pc}

0000010a <remove_empty_attribute>:
remove_empty_attribute():
/home/lubuntu/Dokument/GitHub/STM32-Computer/Firmware/STM32-Computer-Firmware/CA7/optee-os-3.19.0-r2/optee-os-stm32mp-3.19.0-stm32mp-r2/ta/pkcs11/src/attributes.c:101
     10a:	6800      	ldr	r0, [r0, #0]
     10c:	2201      	movs	r2, #1
     10e:	e787      	b.n	20 <_remove_attribute.isra.0>

00000110 <get_attribute_ptrs>:
get_attribute_ptrs():
/home/lubuntu/Dokument/GitHub/STM32-Computer/Firmware/STM32-Computer-Firmware/CA7/optee-os-3.19.0-r2/optee-os-stm32mp-3.19.0-stm32mp-r2/ta/pkcs11/src/attributes.c:106
     110:	e92d 4ff0 	stmdb	sp!, {r4, r5, r6, r7, r8, r9, sl, fp, lr}
     114:	468a      	mov	sl, r1
     116:	ed2d 8b02 	vpush	{d8}
/home/lubuntu/Dokument/GitHub/STM32-Computer/Firmware/STM32-Computer-Firmware/CA7/optee-os-3.19.0-r2/optee-os-stm32mp-3.19.0-stm32mp-r2/ta/pkcs11/src/attributes.c:107
     11a:	4601      	mov	r1, r0
/home/lubuntu/Dokument/GitHub/STM32-Computer/Firmware/STM32-Computer-Firmware/CA7/optee-os-3.19.0-r2/optee-os-stm32mp-3.19.0-stm32mp-r2/ta/pkcs11/src/attributes.c:106
     11c:	b085      	sub	sp, #20
     11e:	4699      	mov	r9, r3
     120:	4690      	mov	r8, r2
/home/lubuntu/Dokument/GitHub/STM32-Computer/Firmware/STM32-Computer-Firmware/CA7/optee-os-3.19.0-r2/optee-os-stm32mp-3.19.0-stm32mp-r2/ta/pkcs11/src/attributes.c:110
     122:	9b10      	ldr	r3, [sp, #64]	@ 0x40
/home/lubuntu/Dokument/GitHub/STM32-Computer/Firmware/STM32-Computer-Firmware/CA7/optee-os-3.19.0-r2/optee-os-stm32mp-3.19.0-stm32mp-r2/ta/pkcs11/src/attributes.c:113
     124:	464d      	mov	r5, r9
/home/lubuntu/Dokument/GitHub/STM32-Computer/Firmware/STM32-Computer-Firmware/CA7/optee-os-3.19.0-r2/optee-os-stm32mp-3.19.0-stm32mp-r2/ta/pkcs11/src/attributes.c:108
     126:	f851 7b08 	ldr.w	r7, [r1], #8
/home/lubuntu/Dokument/GitHub/STM32-Computer/Firmware/STM32-Computer-Firmware/CA7/optee-os-3.19.0-r2/optee-os-stm32mp-3.19.0-stm32mp-r2/ta/pkcs11/src/attributes.c:112
     12a:	4614      	mov	r4, r2
/home/lubuntu/Dokument/GitHub/STM32-Computer/Firmware/STM32-Computer-Firmware/CA7/optee-os-3.19.0-r2/optee-os-stm32mp-3.19.0-stm32mp-r2/ta/pkcs11/src/attributes.c:117
     12c:	ef80 8010 	vmov.i32	d8, #0	@ 0x00000000
/home/lubuntu/Dokument/GitHub/STM32-Computer/Firmware/STM32-Computer-Firmware/CA7/optee-os-3.19.0-r2/optee-os-stm32mp-3.19.0-stm32mp-r2/ta/pkcs11/src/attributes.c:110
     130:	f8d3 b000 	ldr.w	fp, [r3]
/home/lubuntu/Dokument/GitHub/STM32-Computer/Firmware/STM32-Computer-Firmware/CA7/optee-os-3.19.0-r2/optee-os-stm32mp-3.19.0-stm32mp-r2/ta/pkcs11/src/attributes.c:111
     134:	2600      	movs	r6, #0
/home/lubuntu/Dokument/GitHub/STM32-Computer/Firmware/STM32-Computer-Firmware/CA7/optee-os-3.19.0-r2/optee-os-stm32mp-3.19.0-stm32mp-r2/ta/pkcs11/src/attributes.c:108
     136:	440f      	add	r7, r1
/home/lubuntu/Dokument/GitHub/STM32-Computer/Firmware/STM32-Computer-Firmware/CA7/optee-os-3.19.0-r2/optee-os-stm32mp-3.19.0-stm32mp-r2/ta/pkcs11/src/attributes.c:117
     138:	ab02      	add	r3, sp, #8
/home/lubuntu/Dokument/GitHub/STM32-Computer/Firmware/STM32-Computer-Firmware/CA7/optee-os-3.19.0-r2/optee-os-stm32mp-3.19.0-stm32mp-r2/ta/pkcs11/src/attributes.c:115 (discriminator 1)
     13a:	42b9      	cmp	r1, r7
     13c:	d30b      	bcc.n	156 <get_attribute_ptrs+0x46>
/home/lubuntu/Dokument/GitHub/STM32-Computer/Firmware/STM32-Computer-Firmware/CA7/optee-os-3.19.0-r2/optee-os-stm32mp-3.19.0-stm32mp-r2/ta/pkcs11/src/attributes.c:145
     13e:	42b9      	cmp	r1, r7
     140:	d902      	bls.n	148 <get_attribute_ptrs+0x38>
/home/lubuntu/Dokument/GitHub/STM32-Computer/Firmware/STM32-Computer-Firmware/CA7/optee-os-3.19.0-r2/optee-os-stm32mp-3.19.0-stm32mp-r2/ta/pkcs11/src/attributes.c:147
     142:	2000      	movs	r0, #0
     144:	f00d f94a 	bl	d3dc <TEE_Panic>
/home/lubuntu/Dokument/GitHub/STM32-Computer/Firmware/STM32-Computer-Firmware/CA7/optee-os-3.19.0-r2/optee-os-stm32mp-3.19.0-stm32mp-r2/ta/pkcs11/src/attributes.c:150
     148:	9b10      	ldr	r3, [sp, #64]	@ 0x40
     14a:	601e      	str	r6, [r3, #0]
/home/lubuntu/Dokument/GitHub/STM32-Computer/Firmware/STM32-Computer-Firmware/CA7/optee-os-3.19.0-r2/optee-os-stm32mp-3.19.0-stm32mp-r2/ta/pkcs11/src/attributes.c:151
     14c:	b005      	add	sp, #20
     14e:	ecbd 8b02 	vpop	{d8}
     152:	e8bd 8ff0 	ldmia.w	sp!, {r4, r5, r6, r7, r8, r9, sl, fp, pc}
/home/lubuntu/Dokument/GitHub/STM32-Computer/Firmware/STM32-Computer-Firmware/CA7/optee-os-3.19.0-r2/optee-os-stm32mp-3.19.0-stm32mp-r2/ta/pkcs11/src/attributes.c:119
     156:	9101      	str	r1, [sp, #4]
     158:	2208      	movs	r2, #8
     15a:	9300      	str	r3, [sp, #0]
     15c:	4618      	mov	r0, r3
/home/lubuntu/Dokument/GitHub/STM32-Computer/Firmware/STM32-Computer-Firmware/CA7/optee-os-3.19.0-r2/optee-os-stm32mp-3.19.0-stm32mp-r2/ta/pkcs11/src/attributes.c:117
     15e:	ed83 8b00 	vstr	d8, [r3]
/home/lubuntu/Dokument/GitHub/STM32-Computer/Firmware/STM32-Computer-Firmware/CA7/optee-os-3.19.0-r2/optee-os-stm32mp-3.19.0-stm32mp-r2/ta/pkcs11/src/attributes.c:119
     162:	f00a fe15 	bl	ad90 <TEE_MemMove>
/home/lubuntu/Dokument/GitHub/STM32-Computer/Firmware/STM32-Computer-Firmware/CA7/optee-os-3.19.0-r2/optee-os-stm32mp-3.19.0-stm32mp-r2/ta/pkcs11/src/attributes.c:122
     166:	9802      	ldr	r0, [sp, #8]
/home/lubuntu/Dokument/GitHub/STM32-Computer/Firmware/STM32-Computer-Firmware/CA7/optee-os-3.19.0-r2/optee-os-stm32mp-3.19.0-stm32mp-r2/ta/pkcs11/src/attributes.c:120
     168:	9a03      	ldr	r2, [sp, #12]
/home/lubuntu/Dokument/GitHub/STM32-Computer/Firmware/STM32-Computer-Firmware/CA7/optee-os-3.19.0-r2/optee-os-stm32mp-3.19.0-stm32mp-r2/ta/pkcs11/src/attributes.c:122
     16a:	4550      	cmp	r0, sl
     16c:	9b00      	ldr	r3, [sp, #0]
/home/lubuntu/Dokument/GitHub/STM32-Computer/Firmware/STM32-Computer-Firmware/CA7/optee-os-3.19.0-r2/optee-os-stm32mp-3.19.0-stm32mp-r2/ta/pkcs11/src/attributes.c:120
     16e:	f102 0c08 	add.w	ip, r2, #8
/home/lubuntu/Dokument/GitHub/STM32-Computer/Firmware/STM32-Computer-Firmware/CA7/optee-os-3.19.0-r2/optee-os-stm32mp-3.19.0-stm32mp-r2/ta/pkcs11/src/attributes.c:122
     172:	9901      	ldr	r1, [sp, #4]
     174:	d112      	bne.n	19c <get_attribute_ptrs+0x8c>
/home/lubuntu/Dokument/GitHub/STM32-Computer/Firmware/STM32-Computer-Firmware/CA7/optee-os-3.19.0-r2/optee-os-stm32mp-3.19.0-stm32mp-r2/ta/pkcs11/src/attributes.c:125
     176:	3601      	adds	r6, #1
/home/lubuntu/Dokument/GitHub/STM32-Computer/Firmware/STM32-Computer-Firmware/CA7/optee-os-3.19.0-r2/optee-os-stm32mp-3.19.0-stm32mp-r2/ta/pkcs11/src/attributes.c:127
     178:	f1bb 0f00 	cmp.w	fp, #0
     17c:	d00e      	beq.n	19c <get_attribute_ptrs+0x8c>
/home/lubuntu/Dokument/GitHub/STM32-Computer/Firmware/STM32-Computer-Firmware/CA7/optee-os-3.19.0-r2/optee-os-stm32mp-3.19.0-stm32mp-r2/ta/pkcs11/src/attributes.c:130
     17e:	f1b8 0f00 	cmp.w	r8, #0
     182:	d004      	beq.n	18e <get_attribute_ptrs+0x7e>
/home/lubuntu/Dokument/GitHub/STM32-Computer/Firmware/STM32-Computer-Firmware/CA7/optee-os-3.19.0-r2/optee-os-stm32mp-3.19.0-stm32mp-r2/ta/pkcs11/src/attributes.c:131
     184:	b162      	cbz	r2, 1a0 <get_attribute_ptrs+0x90>
/home/lubuntu/Dokument/GitHub/STM32-Computer/Firmware/STM32-Computer-Firmware/CA7/optee-os-3.19.0-r2/optee-os-stm32mp-3.19.0-stm32mp-r2/ta/pkcs11/src/attributes.c:132
     186:	f101 0008 	add.w	r0, r1, #8
     18a:	f844 0b04 	str.w	r0, [r4], #4
/home/lubuntu/Dokument/GitHub/STM32-Computer/Firmware/STM32-Computer-Firmware/CA7/optee-os-3.19.0-r2/optee-os-stm32mp-3.19.0-stm32mp-r2/ta/pkcs11/src/attributes.c:137
     18e:	f1b9 0f00 	cmp.w	r9, #0
     192:	d001      	beq.n	198 <get_attribute_ptrs+0x88>
/home/lubuntu/Dokument/GitHub/STM32-Computer/Firmware/STM32-Computer-Firmware/CA7/optee-os-3.19.0-r2/optee-os-stm32mp-3.19.0-stm32mp-r2/ta/pkcs11/src/attributes.c:138
     194:	f845 2b04 	str.w	r2, [r5], #4
/home/lubuntu/Dokument/GitHub/STM32-Computer/Firmware/STM32-Computer-Firmware/CA7/optee-os-3.19.0-r2/optee-os-stm32mp-3.19.0-stm32mp-r2/ta/pkcs11/src/attributes.c:140
     198:	45b3      	cmp	fp, r6
     19a:	d0d0      	beq.n	13e <get_attribute_ptrs+0x2e>
/home/lubuntu/Dokument/GitHub/STM32-Computer/Firmware/STM32-Computer-Firmware/CA7/optee-os-3.19.0-r2/optee-os-stm32mp-3.19.0-stm32mp-r2/ta/pkcs11/src/attributes.c:115
     19c:	4461      	add	r1, ip
     19e:	e7cc      	b.n	13a <get_attribute_ptrs+0x2a>
     1a0:	4610      	mov	r0, r2
     1a2:	e7f2      	b.n	18a <get_attribute_ptrs+0x7a>

000001a4 <get_attribute_ptr>:
get_attribute_ptr():
/home/lubuntu/Dokument/GitHub/STM32-Computer/Firmware/STM32-Computer-Firmware/CA7/optee-os-3.19.0-r2/optee-os-stm32mp-3.19.0-stm32mp-r2/ta/pkcs11/src/attributes.c:155
     1a4:	b51f      	push	{r0, r1, r2, r3, r4, lr}
/home/lubuntu/Dokument/GitHub/STM32-Computer/Firmware/STM32-Computer-Firmware/CA7/optee-os-3.19.0-r2/optee-os-stm32mp-3.19.0-stm32mp-r2/ta/pkcs11/src/attributes.c:156
     1a6:	2401      	movs	r4, #1
     1a8:	9403      	str	r4, [sp, #12]
/home/lubuntu/Dokument/GitHub/STM32-Computer/Firmware/STM32-Computer-Firmware/CA7/optee-os-3.19.0-r2/optee-os-stm32mp-3.19.0-stm32mp-r2/ta/pkcs11/src/attributes.c:158
     1aa:	ac03      	add	r4, sp, #12
     1ac:	9400      	str	r4, [sp, #0]
     1ae:	f7ff ffaf 	bl	110 <get_attribute_ptrs>
/home/lubuntu/Dokument/GitHub/STM32-Computer/Firmware/STM32-Computer-Firmware/CA7/optee-os-3.19.0-r2/optee-os-stm32mp-3.19.0-stm32mp-r2/ta/pkcs11/src/attributes.c:160
     1b2:	9b03      	ldr	r3, [sp, #12]
     1b4:	b12b      	cbz	r3, 1c2 <get_attribute_ptr+0x1e>
/home/lubuntu/Dokument/GitHub/STM32-Computer/Firmware/STM32-Computer-Firmware/CA7/optee-os-3.19.0-r2/optee-os-stm32mp-3.19.0-stm32mp-r2/ta/pkcs11/src/attributes.c:166
     1b6:	2b01      	cmp	r3, #1
     1b8:	bf14      	ite	ne
     1ba:	2005      	movne	r0, #5
     1bc:	2000      	moveq	r0, #0
/home/lubuntu/Dokument/GitHub/STM32-Computer/Firmware/STM32-Computer-Firmware/CA7/optee-os-3.19.0-r2/optee-os-stm32mp-3.19.0-stm32mp-r2/ta/pkcs11/src/attributes.c:167
     1be:	b004      	add	sp, #16
     1c0:	bd10      	pop	{r4, pc}
/home/lubuntu/Dokument/GitHub/STM32-Computer/Firmware/STM32-Computer-Firmware/CA7/optee-os-3.19.0-r2/optee-os-stm32mp-3.19.0-stm32mp-r2/ta/pkcs11/src/attributes.c:161
     1c2:	f04f 4000 	mov.w	r0, #2147483648	@ 0x80000000
     1c6:	e7fa      	b.n	1be <get_attribute_ptr+0x1a>

000001c8 <get_attribute>:
get_attribute():
/home/lubuntu/Dokument/GitHub/STM32-Computer/Firmware/STM32-Computer-Firmware/CA7/optee-os-3.19.0-r2/optee-os-stm32mp-3.19.0-stm32mp-r2/ta/pkcs11/src/attributes.c:171
     1c8:	b573      	push	{r0, r1, r4, r5, r6, lr}
     1ca:	461d      	mov	r5, r3
/home/lubuntu/Dokument/GitHub/STM32-Computer/Firmware/STM32-Computer-Firmware/CA7/optee-os-3.19.0-r2/optee-os-stm32mp-3.19.0-stm32mp-r2/ta/pkcs11/src/attributes.c:173
     1cc:	2300      	movs	r3, #0
/home/lubuntu/Dokument/GitHub/STM32-Computer/Firmware/STM32-Computer-Firmware/CA7/optee-os-3.19.0-r2/optee-os-stm32mp-3.19.0-stm32mp-r2/ta/pkcs11/src/attributes.c:171
     1ce:	4614      	mov	r4, r2
/home/lubuntu/Dokument/GitHub/STM32-Computer/Firmware/STM32-Computer-Firmware/CA7/optee-os-3.19.0-r2/optee-os-stm32mp-3.19.0-stm32mp-r2/ta/pkcs11/src/attributes.c:174
     1d0:	e9cd 3300 	strd	r3, r3, [sp]
/home/lubuntu/Dokument/GitHub/STM32-Computer/Firmware/STM32-Computer-Firmware/CA7/optee-os-3.19.0-r2/optee-os-stm32mp-3.19.0-stm32mp-r2/ta/pkcs11/src/attributes.c:176
     1d4:	466a      	mov	r2, sp
     1d6:	ab01      	add	r3, sp, #4
     1d8:	f7ff ffe4 	bl	1a4 <get_attribute_ptr>
/home/lubuntu/Dokument/GitHub/STM32-Computer/Firmware/STM32-Computer-Firmware/CA7/optee-os-3.19.0-r2/optee-os-stm32mp-3.19.0-stm32mp-r2/ta/pkcs11/src/attributes.c:177
     1dc:	4606      	mov	r6, r0
     1de:	b938      	cbnz	r0, 1f0 <get_attribute+0x28>
/home/lubuntu/Dokument/GitHub/STM32-Computer/Firmware/STM32-Computer-Firmware/CA7/optee-os-3.19.0-r2/optee-os-stm32mp-3.19.0-stm32mp-r2/ta/pkcs11/src/attributes.c:180
     1e0:	b14d      	cbz	r5, 1f6 <get_attribute+0x2e>
/home/lubuntu/Dokument/GitHub/STM32-Computer/Firmware/STM32-Computer-Firmware/CA7/optee-os-3.19.0-r2/optee-os-stm32mp-3.19.0-stm32mp-r2/ta/pkcs11/src/attributes.c:180 (discriminator 1)
     1e2:	9a01      	ldr	r2, [sp, #4]
     1e4:	682b      	ldr	r3, [r5, #0]
     1e6:	4293      	cmp	r3, r2
     1e8:	d20d      	bcs.n	206 <get_attribute+0x3e>
/home/lubuntu/Dokument/GitHub/STM32-Computer/Firmware/STM32-Computer-Firmware/CA7/optee-os-3.19.0-r2/optee-os-stm32mp-3.19.0-stm32mp-r2/ta/pkcs11/src/attributes.c:181
     1ea:	602a      	str	r2, [r5, #0]
/home/lubuntu/Dokument/GitHub/STM32-Computer/Firmware/STM32-Computer-Firmware/CA7/optee-os-3.19.0-r2/optee-os-stm32mp-3.19.0-stm32mp-r2/ta/pkcs11/src/attributes.c:183
     1ec:	f44f 76a8 	mov.w	r6, #336	@ 0x150
/home/lubuntu/Dokument/GitHub/STM32-Computer/Firmware/STM32-Computer-Firmware/CA7/optee-os-3.19.0-r2/optee-os-stm32mp-3.19.0-stm32mp-r2/ta/pkcs11/src/attributes.c:193
     1f0:	4630      	mov	r0, r6
     1f2:	b002      	add	sp, #8
     1f4:	bd70      	pop	{r4, r5, r6, pc}
/home/lubuntu/Dokument/GitHub/STM32-Computer/Firmware/STM32-Computer-Firmware/CA7/optee-os-3.19.0-r2/optee-os-stm32mp-3.19.0-stm32mp-r2/ta/pkcs11/src/attributes.c:186
     1f6:	2c00      	cmp	r4, #0
     1f8:	d0fa      	beq.n	1f0 <get_attribute+0x28>
/home/lubuntu/Dokument/GitHub/STM32-Computer/Firmware/STM32-Computer-Firmware/CA7/optee-os-3.19.0-r2/optee-os-stm32mp-3.19.0-stm32mp-r2/ta/pkcs11/src/attributes.c:187
     1fa:	e9dd 1200 	ldrd	r1, r2, [sp]
     1fe:	4620      	mov	r0, r4
     200:	f00a fdc6 	bl	ad90 <TEE_MemMove>
/home/lubuntu/Dokument/GitHub/STM32-Computer/Firmware/STM32-Computer-Firmware/CA7/optee-os-3.19.0-r2/optee-os-stm32mp-3.19.0-stm32mp-r2/ta/pkcs11/src/attributes.c:189
     204:	e7f4      	b.n	1f0 <get_attribute+0x28>
/home/lubuntu/Dokument/GitHub/STM32-Computer/Firmware/STM32-Computer-Firmware/CA7/optee-os-3.19.0-r2/optee-os-stm32mp-3.19.0-stm32mp-r2/ta/pkcs11/src/attributes.c:186
     206:	b914      	cbnz	r4, 20e <get_attribute+0x46>
/home/lubuntu/Dokument/GitHub/STM32-Computer/Firmware/STM32-Computer-Firmware/CA7/optee-os-3.19.0-r2/optee-os-stm32mp-3.19.0-stm32mp-r2/ta/pkcs11/src/attributes.c:190
     208:	9b01      	ldr	r3, [sp, #4]
     20a:	602b      	str	r3, [r5, #0]
     20c:	e7f0      	b.n	1f0 <get_attribute+0x28>
/home/lubuntu/Dokument/GitHub/STM32-Computer/Firmware/STM32-Computer-Firmware/CA7/optee-os-3.19.0-r2/optee-os-stm32mp-3.19.0-stm32mp-r2/ta/pkcs11/src/attributes.c:187
     20e:	9900      	ldr	r1, [sp, #0]
     210:	4620      	mov	r0, r4
     212:	f00a fdbd 	bl	ad90 <TEE_MemMove>
/home/lubuntu/Dokument/GitHub/STM32-Computer/Firmware/STM32-Computer-Firmware/CA7/optee-os-3.19.0-r2/optee-os-stm32mp-3.19.0-stm32mp-r2/ta/pkcs11/src/attributes.c:189
     216:	e7f7      	b.n	208 <get_attribute+0x40>

00000218 <set_attribute>:
set_attribute():
/home/lubuntu/Dokument/GitHub/STM32-Computer/Firmware/STM32-Computer-Firmware/CA7/optee-os-3.19.0-r2/optee-os-stm32mp-3.19.0-stm32mp-r2/ta/pkcs11/src/attributes.c:197
     218:	e92d 41f0 	stmdb	sp!, {r4, r5, r6, r7, r8, lr}
     21c:	4604      	mov	r4, r0
/home/lubuntu/Dokument/GitHub/STM32-Computer/Firmware/STM32-Computer-Firmware/CA7/optee-os-3.19.0-r2/optee-os-stm32mp-3.19.0-stm32mp-r2/ta/pkcs11/src/attributes.c:200
     21e:	6800      	ldr	r0, [r0, #0]
/home/lubuntu/Dokument/GitHub/STM32-Computer/Firmware/STM32-Computer-Firmware/CA7/optee-os-3.19.0-r2/optee-os-stm32mp-3.19.0-stm32mp-r2/ta/pkcs11/src/attributes.c:197
     220:	4616      	mov	r6, r2
/home/lubuntu/Dokument/GitHub/STM32-Computer/Firmware/STM32-Computer-Firmware/CA7/optee-os-3.19.0-r2/optee-os-stm32mp-3.19.0-stm32mp-r2/ta/pkcs11/src/attributes.c:200
     222:	2200      	movs	r2, #0
/home/lubuntu/Dokument/GitHub/STM32-Computer/Firmware/STM32-Computer-Firmware/CA7/optee-os-3.19.0-r2/optee-os-stm32mp-3.19.0-stm32mp-r2/ta/pkcs11/src/attributes.c:197
     224:	461f      	mov	r7, r3
     226:	460d      	mov	r5, r1
/home/lubuntu/Dokument/GitHub/STM32-Computer/Firmware/STM32-Computer-Firmware/CA7/optee-os-3.19.0-r2/optee-os-stm32mp-3.19.0-stm32mp-r2/ta/pkcs11/src/attributes.c:200
     228:	f7ff fefa 	bl	20 <_remove_attribute.isra.0>
/home/lubuntu/Dokument/GitHub/STM32-Computer/Firmware/STM32-Computer-Firmware/CA7/optee-os-3.19.0-r2/optee-os-stm32mp-3.19.0-stm32mp-r2/ta/pkcs11/src/attributes.c:201
     22c:	f030 4300 	bics.w	r3, r0, #2147483648	@ 0x80000000
     230:	d107      	bne.n	242 <set_attribute+0x2a>
/home/lubuntu/Dokument/GitHub/STM32-Computer/Firmware/STM32-Computer-Firmware/CA7/optee-os-3.19.0-r2/optee-os-stm32mp-3.19.0-stm32mp-r2/ta/pkcs11/src/attributes.c:204
     232:	463b      	mov	r3, r7
     234:	4632      	mov	r2, r6
     236:	4629      	mov	r1, r5
     238:	4620      	mov	r0, r4
/home/lubuntu/Dokument/GitHub/STM32-Computer/Firmware/STM32-Computer-Firmware/CA7/optee-os-3.19.0-r2/optee-os-stm32mp-3.19.0-stm32mp-r2/ta/pkcs11/src/attributes.c:205
     23a:	e8bd 41f0 	ldmia.w	sp!, {r4, r5, r6, r7, r8, lr}
/home/lubuntu/Dokument/GitHub/STM32-Computer/Firmware/STM32-Computer-Firmware/CA7/optee-os-3.19.0-r2/optee-os-stm32mp-3.19.0-stm32mp-r2/ta/pkcs11/src/attributes.c:204
     23e:	f7ff bf37 	b.w	b0 <add_attribute>
/home/lubuntu/Dokument/GitHub/STM32-Computer/Firmware/STM32-Computer-Firmware/CA7/optee-os-3.19.0-r2/optee-os-stm32mp-3.19.0-stm32mp-r2/ta/pkcs11/src/attributes.c:205
     242:	e8bd 81f0 	ldmia.w	sp!, {r4, r5, r6, r7, r8, pc}

00000246 <modify_attributes_list>:
modify_attributes_list():
/home/lubuntu/Dokument/GitHub/STM32-Computer/Firmware/STM32-Computer-Firmware/CA7/optee-os-3.19.0-r2/optee-os-stm32mp-3.19.0-stm32mp-r2/ta/pkcs11/src/attributes.c:209
     246:	e92d 41f0 	stmdb	sp!, {r4, r5, r6, r7, r8, lr}
/home/lubuntu/Dokument/GitHub/STM32-Computer/Firmware/STM32-Computer-Firmware/CA7/optee-os-3.19.0-r2/optee-os-stm32mp-3.19.0-stm32mp-r2/ta/pkcs11/src/attributes.c:210
     24a:	460c      	mov	r4, r1
/home/lubuntu/Dokument/GitHub/STM32-Computer/Firmware/STM32-Computer-Firmware/CA7/optee-os-3.19.0-r2/optee-os-stm32mp-3.19.0-stm32mp-r2/ta/pkcs11/src/attributes.c:209
     24c:	ed2d 8b02 	vpush	{d8}
/home/lubuntu/Dokument/GitHub/STM32-Computer/Firmware/STM32-Computer-Firmware/CA7/optee-os-3.19.0-r2/optee-os-stm32mp-3.19.0-stm32mp-r2/ta/pkcs11/src/attributes.c:211
     250:	f854 5b08 	ldr.w	r5, [r4], #8
/home/lubuntu/Dokument/GitHub/STM32-Computer/Firmware/STM32-Computer-Firmware/CA7/optee-os-3.19.0-r2/optee-os-stm32mp-3.19.0-stm32mp-r2/ta/pkcs11/src/attributes.c:209
     254:	b082      	sub	sp, #8
/home/lubuntu/Dokument/GitHub/STM32-Computer/Firmware/STM32-Computer-Firmware/CA7/optee-os-3.19.0-r2/optee-os-stm32mp-3.19.0-stm32mp-r2/ta/pkcs11/src/attributes.c:218
     256:	ef80 8010 	vmov.i32	d8, #0	@ 0x00000000
/home/lubuntu/Dokument/GitHub/STM32-Computer/Firmware/STM32-Computer-Firmware/CA7/optee-os-3.19.0-r2/optee-os-stm32mp-3.19.0-stm32mp-r2/ta/pkcs11/src/attributes.c:211
     25a:	4425      	add	r5, r4
/home/lubuntu/Dokument/GitHub/STM32-Computer/Firmware/STM32-Computer-Firmware/CA7/optee-os-3.19.0-r2/optee-os-stm32mp-3.19.0-stm32mp-r2/ta/pkcs11/src/attributes.c:209
     25c:	4606      	mov	r6, r0
/home/lubuntu/Dokument/GitHub/STM32-Computer/Firmware/STM32-Computer-Firmware/CA7/optee-os-3.19.0-r2/optee-os-stm32mp-3.19.0-stm32mp-r2/ta/pkcs11/src/attributes.c:218
     25e:	466f      	mov	r7, sp
/home/lubuntu/Dokument/GitHub/STM32-Computer/Firmware/STM32-Computer-Firmware/CA7/optee-os-3.19.0-r2/optee-os-stm32mp-3.19.0-stm32mp-r2/ta/pkcs11/src/attributes.c:215 (discriminator 1)
     260:	42ac      	cmp	r4, r5
     262:	d305      	bcc.n	270 <modify_attributes_list+0x2a>
/home/lubuntu/Dokument/GitHub/STM32-Computer/Firmware/STM32-Computer-Firmware/CA7/optee-os-3.19.0-r2/optee-os-stm32mp-3.19.0-stm32mp-r2/ta/pkcs11/src/attributes.c:230
     264:	2000      	movs	r0, #0
/home/lubuntu/Dokument/GitHub/STM32-Computer/Firmware/STM32-Computer-Firmware/CA7/optee-os-3.19.0-r2/optee-os-stm32mp-3.19.0-stm32mp-r2/ta/pkcs11/src/attributes.c:231
     266:	b002      	add	sp, #8
     268:	ecbd 8b02 	vpop	{d8}
     26c:	e8bd 81f0 	ldmia.w	sp!, {r4, r5, r6, r7, r8, pc}
/home/lubuntu/Dokument/GitHub/STM32-Computer/Firmware/STM32-Computer-Firmware/CA7/optee-os-3.19.0-r2/optee-os-stm32mp-3.19.0-stm32mp-r2/ta/pkcs11/src/attributes.c:220
     270:	4621      	mov	r1, r4
     272:	2208      	movs	r2, #8
     274:	4638      	mov	r0, r7
/home/lubuntu/Dokument/GitHub/STM32-Computer/Firmware/STM32-Computer-Firmware/CA7/optee-os-3.19.0-r2/optee-os-stm32mp-3.19.0-stm32mp-r2/ta/pkcs11/src/attributes.c:218
     276:	ed87 8b00 	vstr	d8, [r7]
/home/lubuntu/Dokument/GitHub/STM32-Computer/Firmware/STM32-Computer-Firmware/CA7/optee-os-3.19.0-r2/optee-os-stm32mp-3.19.0-stm32mp-r2/ta/pkcs11/src/attributes.c:220
     27a:	f00a fd89 	bl	ad90 <TEE_MemMove>
/home/lubuntu/Dokument/GitHub/STM32-Computer/Firmware/STM32-Computer-Firmware/CA7/optee-os-3.19.0-r2/optee-os-stm32mp-3.19.0-stm32mp-r2/ta/pkcs11/src/attributes.c:221
     27e:	9b01      	ldr	r3, [sp, #4]
/home/lubuntu/Dokument/GitHub/STM32-Computer/Firmware/STM32-Computer-Firmware/CA7/optee-os-3.19.0-r2/optee-os-stm32mp-3.19.0-stm32mp-r2/ta/pkcs11/src/attributes.c:223
     280:	9900      	ldr	r1, [sp, #0]
/home/lubuntu/Dokument/GitHub/STM32-Computer/Firmware/STM32-Computer-Firmware/CA7/optee-os-3.19.0-r2/optee-os-stm32mp-3.19.0-stm32mp-r2/ta/pkcs11/src/attributes.c:221
     282:	f103 0808 	add.w	r8, r3, #8
/home/lubuntu/Dokument/GitHub/STM32-Computer/Firmware/STM32-Computer-Firmware/CA7/optee-os-3.19.0-r2/optee-os-stm32mp-3.19.0-stm32mp-r2/ta/pkcs11/src/attributes.c:223
     286:	b143      	cbz	r3, 29a <modify_attributes_list+0x54>
/home/lubuntu/Dokument/GitHub/STM32-Computer/Firmware/STM32-Computer-Firmware/CA7/optee-os-3.19.0-r2/optee-os-stm32mp-3.19.0-stm32mp-r2/ta/pkcs11/src/attributes.c:223 (discriminator 1)
     288:	f104 0208 	add.w	r2, r4, #8
/home/lubuntu/Dokument/GitHub/STM32-Computer/Firmware/STM32-Computer-Firmware/CA7/optee-os-3.19.0-r2/optee-os-stm32mp-3.19.0-stm32mp-r2/ta/pkcs11/src/attributes.c:223 (discriminator 4)
     28c:	4630      	mov	r0, r6
     28e:	f7ff ffc3 	bl	218 <set_attribute>
/home/lubuntu/Dokument/GitHub/STM32-Computer/Firmware/STM32-Computer-Firmware/CA7/optee-os-3.19.0-r2/optee-os-stm32mp-3.19.0-stm32mp-r2/ta/pkcs11/src/attributes.c:226 (discriminator 4)
     292:	2800      	cmp	r0, #0
     294:	d1e7      	bne.n	266 <modify_attributes_list+0x20>
/home/lubuntu/Dokument/GitHub/STM32-Computer/Firmware/STM32-Computer-Firmware/CA7/optee-os-3.19.0-r2/optee-os-stm32mp-3.19.0-stm32mp-r2/ta/pkcs11/src/attributes.c:215
     296:	4444      	add	r4, r8
     298:	e7e2      	b.n	260 <modify_attributes_list+0x1a>
/home/lubuntu/Dokument/GitHub/STM32-Computer/Firmware/STM32-Computer-Firmware/CA7/optee-os-3.19.0-r2/optee-os-stm32mp-3.19.0-stm32mp-r2/ta/pkcs11/src/attributes.c:223
     29a:	461a      	mov	r2, r3
     29c:	e7f6      	b.n	28c <modify_attributes_list+0x46>

0000029e <get_bool>:
get_bool():
/home/lubuntu/Dokument/GitHub/STM32-Computer/Firmware/STM32-Computer-Firmware/CA7/optee-os-3.19.0-r2/optee-os-stm32mp-3.19.0-stm32mp-r2/ta/pkcs11/src/attributes.c:237
     29e:	2301      	movs	r3, #1
/home/lubuntu/Dokument/GitHub/STM32-Computer/Firmware/STM32-Computer-Firmware/CA7/optee-os-3.19.0-r2/optee-os-stm32mp-3.19.0-stm32mp-r2/ta/pkcs11/src/attributes.c:234
     2a0:	b513      	push	{r0, r1, r4, lr}
/home/lubuntu/Dokument/GitHub/STM32-Computer/Firmware/STM32-Computer-Firmware/CA7/optee-os-3.19.0-r2/optee-os-stm32mp-3.19.0-stm32mp-r2/ta/pkcs11/src/attributes.c:236
     2a2:	2400      	movs	r4, #0
/home/lubuntu/Dokument/GitHub/STM32-Computer/Firmware/STM32-Computer-Firmware/CA7/optee-os-3.19.0-r2/optee-os-stm32mp-3.19.0-stm32mp-r2/ta/pkcs11/src/attributes.c:237
     2a4:	9301      	str	r3, [sp, #4]
/home/lubuntu/Dokument/GitHub/STM32-Computer/Firmware/STM32-Computer-Firmware/CA7/optee-os-3.19.0-r2/optee-os-stm32mp-3.19.0-stm32mp-r2/ta/pkcs11/src/attributes.c:239
     2a6:	f10d 0203 	add.w	r2, sp, #3
/home/lubuntu/Dokument/GitHub/STM32-Computer/Firmware/STM32-Computer-Firmware/CA7/optee-os-3.19.0-r2/optee-os-stm32mp-3.19.0-stm32mp-r2/ta/pkcs11/src/attributes.c:236
     2aa:	f88d 4003 	strb.w	r4, [sp, #3]
/home/lubuntu/Dokument/GitHub/STM32-Computer/Firmware/STM32-Computer-Firmware/CA7/optee-os-3.19.0-r2/optee-os-stm32mp-3.19.0-stm32mp-r2/ta/pkcs11/src/attributes.c:239
     2ae:	ab01      	add	r3, sp, #4
     2b0:	f7ff ff8a 	bl	1c8 <get_attribute>
/home/lubuntu/Dokument/GitHub/STM32-Computer/Firmware/STM32-Computer-Firmware/CA7/optee-os-3.19.0-r2/optee-os-stm32mp-3.19.0-stm32mp-r2/ta/pkcs11/src/attributes.c:241
     2b4:	f1b0 4f00 	cmp.w	r0, #2147483648	@ 0x80000000
     2b8:	d012      	beq.n	2e0 <get_bool+0x42>
/home/lubuntu/Dokument/GitHub/STM32-Computer/Firmware/STM32-Computer-Firmware/CA7/optee-os-3.19.0-r2/optee-os-stm32mp-3.19.0-stm32mp-r2/ta/pkcs11/src/attributes.c:244
     2ba:	b150      	cbz	r0, 2d2 <get_bool+0x34>
_assert_trap():
/home/lubuntu/Dokument/GitHub/STM32-Computer/Firmware/STM32-Computer-Firmware/CA7/optee-os-3.19.0-r2/optee-os-stm32mp-3.19.0-stm32mp-r2/../build/stm32mp135f-dk/export-ta_arm32/include/assert.h:19
     2bc:	4b09      	ldr	r3, [pc, #36]	@ (2e4 <get_bool+0x46>)
     2be:	22f4      	movs	r2, #244	@ 0xf4
     2c0:	4909      	ldr	r1, [pc, #36]	@ (2e8 <get_bool+0x4a>)
     2c2:	480a      	ldr	r0, [pc, #40]	@ (2ec <get_bool+0x4e>)
     2c4:	447b      	add	r3, pc
     2c6:	4479      	add	r1, pc
     2c8:	4478      	add	r0, pc
     2ca:	f00a fabd 	bl	a848 <_assert_log>
/home/lubuntu/Dokument/GitHub/STM32-Computer/Firmware/STM32-Computer-Firmware/CA7/optee-os-3.19.0-r2/optee-os-stm32mp-3.19.0-stm32mp-r2/../build/stm32mp135f-dk/export-ta_arm32/include/assert.h:20
     2ce:	f00a facf 	bl	a870 <_assert_break>
get_bool():
/home/lubuntu/Dokument/GitHub/STM32-Computer/Firmware/STM32-Computer-Firmware/CA7/optee-os-3.19.0-r2/optee-os-stm32mp-3.19.0-stm32mp-r2/ta/pkcs11/src/attributes.c:245
     2d2:	f89d 0003 	ldrb.w	r0, [sp, #3]
     2d6:	3800      	subs	r0, #0
     2d8:	bf18      	it	ne
     2da:	2001      	movne	r0, #1
/home/lubuntu/Dokument/GitHub/STM32-Computer/Firmware/STM32-Computer-Firmware/CA7/optee-os-3.19.0-r2/optee-os-stm32mp-3.19.0-stm32mp-r2/ta/pkcs11/src/attributes.c:246
     2dc:	b002      	add	sp, #8
     2de:	bd10      	pop	{r4, pc}
/home/lubuntu/Dokument/GitHub/STM32-Computer/Firmware/STM32-Computer-Firmware/CA7/optee-os-3.19.0-r2/optee-os-stm32mp-3.19.0-stm32mp-r2/ta/pkcs11/src/attributes.c:242
     2e0:	4620      	mov	r0, r4
     2e2:	e7fb      	b.n	2dc <get_bool+0x3e>
     2e4:	00014484 	.word	0x00014484
     2e8:	0001440e 	.word	0x0001440e
     2ec:	00014427 	.word	0x00014427

000002f0 <attributes_match_reference>:
attributes_match_reference():
/home/lubuntu/Dokument/GitHub/STM32-Computer/Firmware/STM32-Computer-Firmware/CA7/optee-os-3.19.0-r2/optee-os-stm32mp-3.19.0-stm32mp-r2/ta/pkcs11/src/attributes.c:255
     2f0:	684b      	ldr	r3, [r1, #4]
/home/lubuntu/Dokument/GitHub/STM32-Computer/Firmware/STM32-Computer-Firmware/CA7/optee-os-3.19.0-r2/optee-os-stm32mp-3.19.0-stm32mp-r2/ta/pkcs11/src/attributes.c:250
     2f2:	e92d 43f0 	stmdb	sp!, {r4, r5, r6, r7, r8, r9, lr}
     2f6:	4607      	mov	r7, r0
     2f8:	ed2d 8b02 	vpush	{d8}
     2fc:	460c      	mov	r4, r1
     2fe:	b085      	sub	sp, #20
/home/lubuntu/Dokument/GitHub/STM32-Computer/Firmware/STM32-Computer-Firmware/CA7/optee-os-3.19.0-r2/optee-os-stm32mp-3.19.0-stm32mp-r2/ta/pkcs11/src/attributes.c:255
     300:	b92b      	cbnz	r3, 30e <attributes_match_reference+0x1e>
/home/lubuntu/Dokument/GitHub/STM32-Computer/Firmware/STM32-Computer-Firmware/CA7/optee-os-3.19.0-r2/optee-os-stm32mp-3.19.0-stm32mp-r2/ta/pkcs11/src/attributes.c:257
     302:	2001      	movs	r0, #1
/home/lubuntu/Dokument/GitHub/STM32-Computer/Firmware/STM32-Computer-Firmware/CA7/optee-os-3.19.0-r2/optee-os-stm32mp-3.19.0-stm32mp-r2/ta/pkcs11/src/attributes.c:277
     304:	b005      	add	sp, #20
     306:	ecbd 8b02 	vpop	{d8}
     30a:	e8bd 83f0 	ldmia.w	sp!, {r4, r5, r6, r7, r8, r9, pc}
/home/lubuntu/Dokument/GitHub/STM32-Computer/Firmware/STM32-Computer-Firmware/CA7/optee-os-3.19.0-r2/optee-os-stm32mp-3.19.0-stm32mp-r2/ta/pkcs11/src/attributes.c:261
     30e:	ef80 8010 	vmov.i32	d8, #0	@ 0x00000000
/home/lubuntu/Dokument/GitHub/STM32-Computer/Firmware/STM32-Computer-Firmware/CA7/optee-os-3.19.0-r2/optee-os-stm32mp-3.19.0-stm32mp-r2/ta/pkcs11/src/attributes.c:260
     312:	2500      	movs	r5, #0
/home/lubuntu/Dokument/GitHub/STM32-Computer/Firmware/STM32-Computer-Firmware/CA7/optee-os-3.19.0-r2/optee-os-stm32mp-3.19.0-stm32mp-r2/ta/pkcs11/src/attributes.c:252
     314:	f101 0608 	add.w	r6, r1, #8
/home/lubuntu/Dokument/GitHub/STM32-Computer/Firmware/STM32-Computer-Firmware/CA7/optee-os-3.19.0-r2/optee-os-stm32mp-3.19.0-stm32mp-r2/ta/pkcs11/src/attributes.c:261
     318:	f10d 0808 	add.w	r8, sp, #8
/home/lubuntu/Dokument/GitHub/STM32-Computer/Firmware/STM32-Computer-Firmware/CA7/optee-os-3.19.0-r2/optee-os-stm32mp-3.19.0-stm32mp-r2/ta/pkcs11/src/attributes.c:262
     31c:	46a9      	mov	r9, r5
/home/lubuntu/Dokument/GitHub/STM32-Computer/Firmware/STM32-Computer-Firmware/CA7/optee-os-3.19.0-r2/optee-os-stm32mp-3.19.0-stm32mp-r2/ta/pkcs11/src/attributes.c:260 (discriminator 1)
     31e:	6863      	ldr	r3, [r4, #4]
     320:	42ab      	cmp	r3, r5
     322:	d9ee      	bls.n	302 <attributes_match_reference+0x12>
/home/lubuntu/Dokument/GitHub/STM32-Computer/Firmware/STM32-Computer-Firmware/CA7/optee-os-3.19.0-r2/optee-os-stm32mp-3.19.0-stm32mp-r2/ta/pkcs11/src/attributes.c:265
     324:	2208      	movs	r2, #8
     326:	4631      	mov	r1, r6
     328:	4640      	mov	r0, r8
/home/lubuntu/Dokument/GitHub/STM32-Computer/Firmware/STM32-Computer-Firmware/CA7/optee-os-3.19.0-r2/optee-os-stm32mp-3.19.0-stm32mp-r2/ta/pkcs11/src/attributes.c:261
     32a:	ed88 8b00 	vstr	d8, [r8]
/home/lubuntu/Dokument/GitHub/STM32-Computer/Firmware/STM32-Computer-Firmware/CA7/optee-os-3.19.0-r2/optee-os-stm32mp-3.19.0-stm32mp-r2/ta/pkcs11/src/attributes.c:263
     32e:	e9cd 9900 	strd	r9, r9, [sp]
/home/lubuntu/Dokument/GitHub/STM32-Computer/Firmware/STM32-Computer-Firmware/CA7/optee-os-3.19.0-r2/optee-os-stm32mp-3.19.0-stm32mp-r2/ta/pkcs11/src/attributes.c:265
     332:	f00a fd2d 	bl	ad90 <TEE_MemMove>
/home/lubuntu/Dokument/GitHub/STM32-Computer/Firmware/STM32-Computer-Firmware/CA7/optee-os-3.19.0-r2/optee-os-stm32mp-3.19.0-stm32mp-r2/ta/pkcs11/src/attributes.c:267
     336:	9902      	ldr	r1, [sp, #8]
     338:	ab01      	add	r3, sp, #4
     33a:	466a      	mov	r2, sp
     33c:	4638      	mov	r0, r7
     33e:	f7ff ff31 	bl	1a4 <get_attribute_ptr>
/home/lubuntu/Dokument/GitHub/STM32-Computer/Firmware/STM32-Computer-Firmware/CA7/optee-os-3.19.0-r2/optee-os-stm32mp-3.19.0-stm32mp-r2/ta/pkcs11/src/attributes.c:269
     342:	b108      	cbz	r0, 348 <attributes_match_reference+0x58>
/home/lubuntu/Dokument/GitHub/STM32-Computer/Firmware/STM32-Computer-Firmware/CA7/optee-os-3.19.0-r2/optee-os-stm32mp-3.19.0-stm32mp-r2/ta/pkcs11/src/attributes.c:271
     344:	2000      	movs	r0, #0
     346:	e7dd      	b.n	304 <attributes_match_reference+0x14>
/home/lubuntu/Dokument/GitHub/STM32-Computer/Firmware/STM32-Computer-Firmware/CA7/optee-os-3.19.0-r2/optee-os-stm32mp-3.19.0-stm32mp-r2/ta/pkcs11/src/attributes.c:269 (discriminator 1)
     348:	9900      	ldr	r1, [sp, #0]
     34a:	2900      	cmp	r1, #0
     34c:	d0fa      	beq.n	344 <attributes_match_reference+0x54>
/home/lubuntu/Dokument/GitHub/STM32-Computer/Firmware/STM32-Computer-Firmware/CA7/optee-os-3.19.0-r2/optee-os-stm32mp-3.19.0-stm32mp-r2/ta/pkcs11/src/attributes.c:269 (discriminator 2)
     34e:	9a03      	ldr	r2, [sp, #12]
     350:	9b01      	ldr	r3, [sp, #4]
     352:	429a      	cmp	r2, r3
     354:	d1f6      	bne.n	344 <attributes_match_reference+0x54>
/home/lubuntu/Dokument/GitHub/STM32-Computer/Firmware/STM32-Computer-Firmware/CA7/optee-os-3.19.0-r2/optee-os-stm32mp-3.19.0-stm32mp-r2/ta/pkcs11/src/attributes.c:270 (discriminator 3)
     356:	f106 0008 	add.w	r0, r6, #8
     35a:	f00a fd1b 	bl	ad94 <TEE_MemCompare>
/home/lubuntu/Dokument/GitHub/STM32-Computer/Firmware/STM32-Computer-Firmware/CA7/optee-os-3.19.0-r2/optee-os-stm32mp-3.19.0-stm32mp-r2/ta/pkcs11/src/attributes.c:269 (discriminator 3)
     35e:	2800      	cmp	r0, #0
     360:	d1f0      	bne.n	344 <attributes_match_reference+0x54>
/home/lubuntu/Dokument/GitHub/STM32-Computer/Firmware/STM32-Computer-Firmware/CA7/optee-os-3.19.0-r2/optee-os-stm32mp-3.19.0-stm32mp-r2/ta/pkcs11/src/attributes.c:273
     362:	9b03      	ldr	r3, [sp, #12]
/home/lubuntu/Dokument/GitHub/STM32-Computer/Firmware/STM32-Computer-Firmware/CA7/optee-os-3.19.0-r2/optee-os-stm32mp-3.19.0-stm32mp-r2/ta/pkcs11/src/attributes.c:260
     364:	3501      	adds	r5, #1
/home/lubuntu/Dokument/GitHub/STM32-Computer/Firmware/STM32-Computer-Firmware/CA7/optee-os-3.19.0-r2/optee-os-stm32mp-3.19.0-stm32mp-r2/ta/pkcs11/src/attributes.c:273
     366:	3308      	adds	r3, #8
     368:	441e      	add	r6, r3
/home/lubuntu/Dokument/GitHub/STM32-Computer/Firmware/STM32-Computer-Firmware/CA7/optee-os-3.19.0-r2/optee-os-stm32mp-3.19.0-stm32mp-r2/ta/pkcs11/src/attributes.c:260
     36a:	e7d8      	b.n	31e <attributes_match_reference+0x2e>

0000036c <attributes_match_add_reference>:
attributes_match_add_reference():
/home/lubuntu/Dokument/GitHub/STM32-Computer/Firmware/STM32-Computer-Firmware/CA7/optee-os-3.19.0-r2/optee-os-stm32mp-3.19.0-stm32mp-r2/ta/pkcs11/src/attributes.c:286
     36c:	684b      	ldr	r3, [r1, #4]
/home/lubuntu/Dokument/GitHub/STM32-Computer/Firmware/STM32-Computer-Firmware/CA7/optee-os-3.19.0-r2/optee-os-stm32mp-3.19.0-stm32mp-r2/ta/pkcs11/src/attributes.c:281
     36e:	e92d 43f0 	stmdb	sp!, {r4, r5, r6, r7, r8, r9, lr}
     372:	4607      	mov	r7, r0
     374:	ed2d 8b02 	vpush	{d8}
     378:	460c      	mov	r4, r1
     37a:	b085      	sub	sp, #20
/home/lubuntu/Dokument/GitHub/STM32-Computer/Firmware/STM32-Computer-Firmware/CA7/optee-os-3.19.0-r2/optee-os-stm32mp-3.19.0-stm32mp-r2/ta/pkcs11/src/attributes.c:286
     37c:	b92b      	cbnz	r3, 38a <attributes_match_add_reference+0x1e>
/home/lubuntu/Dokument/GitHub/STM32-Computer/Firmware/STM32-Computer-Firmware/CA7/optee-os-3.19.0-r2/optee-os-stm32mp-3.19.0-stm32mp-r2/ta/pkcs11/src/attributes.c:287
     37e:	2000      	movs	r0, #0
/home/lubuntu/Dokument/GitHub/STM32-Computer/Firmware/STM32-Computer-Firmware/CA7/optee-os-3.19.0-r2/optee-os-stm32mp-3.19.0-stm32mp-r2/ta/pkcs11/src/attributes.c:314
     380:	b005      	add	sp, #20
     382:	ecbd 8b02 	vpop	{d8}
     386:	e8bd 83f0 	ldmia.w	sp!, {r4, r5, r6, r7, r8, r9, pc}
/home/lubuntu/Dokument/GitHub/STM32-Computer/Firmware/STM32-Computer-Firmware/CA7/optee-os-3.19.0-r2/optee-os-stm32mp-3.19.0-stm32mp-r2/ta/pkcs11/src/attributes.c:290
     38a:	ef80 8010 	vmov.i32	d8, #0	@ 0x00000000
/home/lubuntu/Dokument/GitHub/STM32-Computer/Firmware/STM32-Computer-Firmware/CA7/optee-os-3.19.0-r2/optee-os-stm32mp-3.19.0-stm32mp-r2/ta/pkcs11/src/attributes.c:289
     38e:	2600      	movs	r6, #0
/home/lubuntu/Dokument/GitHub/STM32-Computer/Firmware/STM32-Computer-Firmware/CA7/optee-os-3.19.0-r2/optee-os-stm32mp-3.19.0-stm32mp-r2/ta/pkcs11/src/attributes.c:283
     390:	f101 0508 	add.w	r5, r1, #8
/home/lubuntu/Dokument/GitHub/STM32-Computer/Firmware/STM32-Computer-Firmware/CA7/optee-os-3.19.0-r2/optee-os-stm32mp-3.19.0-stm32mp-r2/ta/pkcs11/src/attributes.c:290
     394:	f10d 0808 	add.w	r8, sp, #8
/home/lubuntu/Dokument/GitHub/STM32-Computer/Firmware/STM32-Computer-Firmware/CA7/optee-os-3.19.0-r2/optee-os-stm32mp-3.19.0-stm32mp-r2/ta/pkcs11/src/attributes.c:291
     398:	46b1      	mov	r9, r6
/home/lubuntu/Dokument/GitHub/STM32-Computer/Firmware/STM32-Computer-Firmware/CA7/optee-os-3.19.0-r2/optee-os-stm32mp-3.19.0-stm32mp-r2/ta/pkcs11/src/attributes.c:289 (discriminator 1)
     39a:	6863      	ldr	r3, [r4, #4]
     39c:	42b3      	cmp	r3, r6
     39e:	d9ee      	bls.n	37e <attributes_match_add_reference+0x12>
/home/lubuntu/Dokument/GitHub/STM32-Computer/Firmware/STM32-Computer-Firmware/CA7/optee-os-3.19.0-r2/optee-os-stm32mp-3.19.0-stm32mp-r2/ta/pkcs11/src/attributes.c:294
     3a0:	2208      	movs	r2, #8
     3a2:	4629      	mov	r1, r5
     3a4:	4640      	mov	r0, r8
/home/lubuntu/Dokument/GitHub/STM32-Computer/Firmware/STM32-Computer-Firmware/CA7/optee-os-3.19.0-r2/optee-os-stm32mp-3.19.0-stm32mp-r2/ta/pkcs11/src/attributes.c:290
     3a6:	ed88 8b00 	vstr	d8, [r8]
/home/lubuntu/Dokument/GitHub/STM32-Computer/Firmware/STM32-Computer-Firmware/CA7/optee-os-3.19.0-r2/optee-os-stm32mp-3.19.0-stm32mp-r2/ta/pkcs11/src/attributes.c:292
     3aa:	e9cd 9900 	strd	r9, r9, [sp]
/home/lubuntu/Dokument/GitHub/STM32-Computer/Firmware/STM32-Computer-Firmware/CA7/optee-os-3.19.0-r2/optee-os-stm32mp-3.19.0-stm32mp-r2/ta/pkcs11/src/attributes.c:294
     3ae:	f00a fcef 	bl	ad90 <TEE_MemMove>
/home/lubuntu/Dokument/GitHub/STM32-Computer/Firmware/STM32-Computer-Firmware/CA7/optee-os-3.19.0-r2/optee-os-stm32mp-3.19.0-stm32mp-r2/ta/pkcs11/src/attributes.c:296
     3b2:	9902      	ldr	r1, [sp, #8]
     3b4:	ab01      	add	r3, sp, #4
     3b6:	6838      	ldr	r0, [r7, #0]
     3b8:	466a      	mov	r2, sp
     3ba:	f7ff fef3 	bl	1a4 <get_attribute_ptr>
/home/lubuntu/Dokument/GitHub/STM32-Computer/Firmware/STM32-Computer-Firmware/CA7/optee-os-3.19.0-r2/optee-os-stm32mp-3.19.0-stm32mp-r2/ta/pkcs11/src/attributes.c:297
     3be:	f1b0 4f00 	cmp.w	r0, #2147483648	@ 0x80000000
     3c2:	d10d      	bne.n	3e0 <attributes_match_add_reference+0x74>
/home/lubuntu/Dokument/GitHub/STM32-Computer/Firmware/STM32-Computer-Firmware/CA7/optee-os-3.19.0-r2/optee-os-stm32mp-3.19.0-stm32mp-r2/ta/pkcs11/src/attributes.c:298
     3c4:	9b03      	ldr	r3, [sp, #12]
     3c6:	f105 0208 	add.w	r2, r5, #8
     3ca:	9902      	ldr	r1, [sp, #8]
     3cc:	4638      	mov	r0, r7
     3ce:	f7ff fe6f 	bl	b0 <add_attribute>
/home/lubuntu/Dokument/GitHub/STM32-Computer/Firmware/STM32-Computer-Firmware/CA7/optee-os-3.19.0-r2/optee-os-stm32mp-3.19.0-stm32mp-r2/ta/pkcs11/src/attributes.c:301
     3d2:	2800      	cmp	r0, #0
     3d4:	d1d4      	bne.n	380 <attributes_match_add_reference+0x14>
/home/lubuntu/Dokument/GitHub/STM32-Computer/Firmware/STM32-Computer-Firmware/CA7/optee-os-3.19.0-r2/optee-os-stm32mp-3.19.0-stm32mp-r2/ta/pkcs11/src/attributes.c:310
     3d6:	9b03      	ldr	r3, [sp, #12]
/home/lubuntu/Dokument/GitHub/STM32-Computer/Firmware/STM32-Computer-Firmware/CA7/optee-os-3.19.0-r2/optee-os-stm32mp-3.19.0-stm32mp-r2/ta/pkcs11/src/attributes.c:289
     3d8:	3601      	adds	r6, #1
/home/lubuntu/Dokument/GitHub/STM32-Computer/Firmware/STM32-Computer-Firmware/CA7/optee-os-3.19.0-r2/optee-os-stm32mp-3.19.0-stm32mp-r2/ta/pkcs11/src/attributes.c:310
     3da:	3308      	adds	r3, #8
     3dc:	441d      	add	r5, r3
/home/lubuntu/Dokument/GitHub/STM32-Computer/Firmware/STM32-Computer-Firmware/CA7/optee-os-3.19.0-r2/optee-os-stm32mp-3.19.0-stm32mp-r2/ta/pkcs11/src/attributes.c:289
     3de:	e7dc      	b.n	39a <attributes_match_add_reference+0x2e>
/home/lubuntu/Dokument/GitHub/STM32-Computer/Firmware/STM32-Computer-Firmware/CA7/optee-os-3.19.0-r2/optee-os-stm32mp-3.19.0-stm32mp-r2/ta/pkcs11/src/attributes.c:304
     3e0:	b108      	cbz	r0, 3e6 <attributes_match_add_reference+0x7a>
/home/lubuntu/Dokument/GitHub/STM32-Computer/Firmware/STM32-Computer-Firmware/CA7/optee-os-3.19.0-r2/optee-os-stm32mp-3.19.0-stm32mp-r2/ta/pkcs11/src/attributes.c:307
     3e2:	20d1      	movs	r0, #209	@ 0xd1
     3e4:	e7cc      	b.n	380 <attributes_match_add_reference+0x14>
/home/lubuntu/Dokument/GitHub/STM32-Computer/Firmware/STM32-Computer-Firmware/CA7/optee-os-3.19.0-r2/optee-os-stm32mp-3.19.0-stm32mp-r2/ta/pkcs11/src/attributes.c:304 (discriminator 1)
     3e6:	9900      	ldr	r1, [sp, #0]
     3e8:	2900      	cmp	r1, #0
     3ea:	d0fa      	beq.n	3e2 <attributes_match_add_reference+0x76>
/home/lubuntu/Dokument/GitHub/STM32-Computer/Firmware/STM32-Computer-Firmware/CA7/optee-os-3.19.0-r2/optee-os-stm32mp-3.19.0-stm32mp-r2/ta/pkcs11/src/attributes.c:304 (discriminator 2)
     3ec:	9a03      	ldr	r2, [sp, #12]
     3ee:	9b01      	ldr	r3, [sp, #4]
     3f0:	429a      	cmp	r2, r3
     3f2:	d1f6      	bne.n	3e2 <attributes_match_add_reference+0x76>
/home/lubuntu/Dokument/GitHub/STM32-Computer/Firmware/STM32-Computer-Firmware/CA7/optee-os-3.19.0-r2/optee-os-stm32mp-3.19.0-stm32mp-r2/ta/pkcs11/src/attributes.c:305 (discriminator 3)
     3f4:	f105 0008 	add.w	r0, r5, #8
     3f8:	f00a fccc 	bl	ad94 <TEE_MemCompare>
/home/lubuntu/Dokument/GitHub/STM32-Computer/Firmware/STM32-Computer-Firmware/CA7/optee-os-3.19.0-r2/optee-os-stm32mp-3.19.0-stm32mp-r2/ta/pkcs11/src/attributes.c:304 (discriminator 3)
     3fc:	2800      	cmp	r0, #0
     3fe:	d0ea      	beq.n	3d6 <attributes_match_add_reference+0x6a>
     400:	e7ef      	b.n	3e2 <attributes_match_add_reference+0x76>

00000402 <trace_attributes>:
trace_attributes():
/home/lubuntu/Dokument/GitHub/STM32-Computer/Firmware/STM32-Computer-Firmware/CA7/optee-os-3.19.0-r2/optee-os-stm32mp-3.19.0-stm32mp-r2/ta/pkcs11/src/attributes.c:427
     402:	e92d 4ff0 	stmdb	sp!, {r4, r5, r6, r7, r8, r9, sl, fp, lr}
/home/lubuntu/Dokument/GitHub/STM32-Computer/Firmware/STM32-Computer-Firmware/CA7/optee-os-3.19.0-r2/optee-os-stm32mp-3.19.0-stm32mp-r2/ta/pkcs11/src/attributes.c:431
     406:	2208      	movs	r2, #8
/home/lubuntu/Dokument/GitHub/STM32-Computer/Firmware/STM32-Computer-Firmware/CA7/optee-os-3.19.0-r2/optee-os-stm32mp-3.19.0-stm32mp-r2/ta/pkcs11/src/attributes.c:427
     408:	ed2d 8b02 	vpush	{d8}
/home/lubuntu/Dokument/GitHub/STM32-Computer/Firmware/STM32-Computer-Firmware/CA7/optee-os-3.19.0-r2/optee-os-stm32mp-3.19.0-stm32mp-r2/ta/pkcs11/src/attributes.c:428
     40c:	ef80 8010 	vmov.i32	d8, #0	@ 0x00000000
/home/lubuntu/Dokument/GitHub/STM32-Computer/Firmware/STM32-Computer-Firmware/CA7/optee-os-3.19.0-r2/optee-os-stm32mp-3.19.0-stm32mp-r2/ta/pkcs11/src/attributes.c:427
     410:	b089      	sub	sp, #36	@ 0x24
     412:	4604      	mov	r4, r0
/home/lubuntu/Dokument/GitHub/STM32-Computer/Firmware/STM32-Computer-Firmware/CA7/optee-os-3.19.0-r2/optee-os-stm32mp-3.19.0-stm32mp-r2/ta/pkcs11/src/attributes.c:431
     414:	a804      	add	r0, sp, #16
/home/lubuntu/Dokument/GitHub/STM32-Computer/Firmware/STM32-Computer-Firmware/CA7/optee-os-3.19.0-r2/optee-os-stm32mp-3.19.0-stm32mp-r2/ta/pkcs11/src/attributes.c:427
     416:	460f      	mov	r7, r1
/home/lubuntu/Dokument/GitHub/STM32-Computer/Firmware/STM32-Computer-Firmware/CA7/optee-os-3.19.0-r2/optee-os-stm32mp-3.19.0-stm32mp-r2/ta/pkcs11/src/attributes.c:428
     418:	ed8d 8b04 	vstr	d8, [sp, #16]
/home/lubuntu/Dokument/GitHub/STM32-Computer/Firmware/STM32-Computer-Firmware/CA7/optee-os-3.19.0-r2/optee-os-stm32mp-3.19.0-stm32mp-r2/ta/pkcs11/src/attributes.c:431
     41c:	f00a fcb8 	bl	ad90 <TEE_MemMove>
/home/lubuntu/Dokument/GitHub/STM32-Computer/Firmware/STM32-Computer-Firmware/CA7/optee-os-3.19.0-r2/optee-os-stm32mp-3.19.0-stm32mp-r2/ta/pkcs11/src/attributes.c:433
     420:	9b05      	ldr	r3, [sp, #20]
     422:	b1bb      	cbz	r3, 454 <trace_attributes+0x52>
/home/lubuntu/Dokument/GitHub/STM32-Computer/Firmware/STM32-Computer-Firmware/CA7/optee-os-3.19.0-r2/optee-os-stm32mp-3.19.0-stm32mp-r2/ta/pkcs11/src/attributes.c:436
     424:	b1dc      	cbz	r4, 45e <trace_attributes+0x5c>
/home/lubuntu/Dokument/GitHub/STM32-Computer/Firmware/STM32-Computer-Firmware/CA7/optee-os-3.19.0-r2/optee-os-stm32mp-3.19.0-stm32mp-r2/ta/pkcs11/src/attributes.c:436 (discriminator 1)
     426:	4620      	mov	r0, r4
     428:	f012 ffa3 	bl	13372 <strlen>
     42c:	3002      	adds	r0, #2
     42e:	2100      	movs	r1, #0
     430:	f00a fd0b 	bl	ae4a <TEE_Malloc>
/home/lubuntu/Dokument/GitHub/STM32-Computer/Firmware/STM32-Computer-Firmware/CA7/optee-os-3.19.0-r2/optee-os-stm32mp-3.19.0-stm32mp-r2/ta/pkcs11/src/attributes.c:437 (discriminator 1)
     434:	4605      	mov	r5, r0
     436:	2800      	cmp	r0, #0
     438:	d150      	bne.n	4dc <trace_attributes+0xda>
/home/lubuntu/Dokument/GitHub/STM32-Computer/Firmware/STM32-Computer-Firmware/CA7/optee-os-3.19.0-r2/optee-os-stm32mp-3.19.0-stm32mp-r2/ta/pkcs11/src/attributes.c:438
     43a:	4b41      	ldr	r3, [pc, #260]	@ (540 <trace_attributes+0x13e>)
     43c:	f44f 71db 	mov.w	r1, #438	@ 0x1b6
     440:	4840      	ldr	r0, [pc, #256]	@ (544 <trace_attributes+0x142>)
     442:	447b      	add	r3, pc
     444:	4478      	add	r0, pc
     446:	9300      	str	r3, [sp, #0]
     448:	2301      	movs	r3, #1
     44a:	9401      	str	r4, [sp, #4]
     44c:	461a      	mov	r2, r3
     44e:	3009      	adds	r0, #9
     450:	f00a f9d4 	bl	a7fc <trace_printf>
/home/lubuntu/Dokument/GitHub/STM32-Computer/Firmware/STM32-Computer-Firmware/CA7/optee-os-3.19.0-r2/optee-os-stm32mp-3.19.0-stm32mp-r2/ta/pkcs11/src/attributes.c:456
     454:	b009      	add	sp, #36	@ 0x24
     456:	ecbd 8b02 	vpop	{d8}
     45a:	e8bd 8ff0 	ldmia.w	sp!, {r4, r5, r6, r7, r8, r9, sl, fp, pc}
/home/lubuntu/Dokument/GitHub/STM32-Computer/Firmware/STM32-Computer-Firmware/CA7/optee-os-3.19.0-r2/optee-os-stm32mp-3.19.0-stm32mp-r2/ta/pkcs11/src/attributes.c:436
     45e:	4621      	mov	r1, r4
     460:	2002      	movs	r0, #2
     462:	f00a fcf2 	bl	ae4a <TEE_Malloc>
/home/lubuntu/Dokument/GitHub/STM32-Computer/Firmware/STM32-Computer-Firmware/CA7/optee-os-3.19.0-r2/optee-os-stm32mp-3.19.0-stm32mp-r2/ta/pkcs11/src/attributes.c:437
     466:	4605      	mov	r5, r0
     468:	2800      	cmp	r0, #0
     46a:	d0e6      	beq.n	43a <trace_attributes+0x38>
/home/lubuntu/Dokument/GitHub/STM32-Computer/Firmware/STM32-Computer-Firmware/CA7/optee-os-3.19.0-r2/optee-os-stm32mp-3.19.0-stm32mp-r2/ta/pkcs11/src/attributes.c:449 (discriminator 4)
     46c:	237c      	movs	r3, #124	@ 0x7c
__trace_attributes():
/home/lubuntu/Dokument/GitHub/STM32-Computer/Firmware/STM32-Computer-Firmware/CA7/optee-os-3.19.0-r2/optee-os-stm32mp-3.19.0-stm32mp-r2/ta/pkcs11/src/attributes.c:332 (discriminator 4)
     46e:	4628      	mov	r0, r5
trace_attributes():
/home/lubuntu/Dokument/GitHub/STM32-Computer/Firmware/STM32-Computer-Firmware/CA7/optee-os-3.19.0-r2/optee-os-stm32mp-3.19.0-stm32mp-r2/ta/pkcs11/src/attributes.c:449 (discriminator 4)
     470:	552b      	strb	r3, [r5, r4]
/home/lubuntu/Dokument/GitHub/STM32-Computer/Firmware/STM32-Computer-Firmware/CA7/optee-os-3.19.0-r2/optee-os-stm32mp-3.19.0-stm32mp-r2/ta/pkcs11/src/attributes.c:451 (discriminator 4)
     472:	f8dd 9010 	ldr.w	r9, [sp, #16]
__trace_attributes():
/home/lubuntu/Dokument/GitHub/STM32-Computer/Firmware/STM32-Computer-Firmware/CA7/optee-os-3.19.0-r2/optee-os-stm32mp-3.19.0-stm32mp-r2/ta/pkcs11/src/attributes.c:332 (discriminator 4)
     476:	f012 ff7c 	bl	13372 <strlen>
     47a:	4604      	mov	r4, r0
/home/lubuntu/Dokument/GitHub/STM32-Computer/Firmware/STM32-Computer-Firmware/CA7/optee-os-3.19.0-r2/optee-os-stm32mp-3.19.0-stm32mp-r2/ta/pkcs11/src/attributes.c:336 (discriminator 4)
     47c:	2100      	movs	r1, #0
     47e:	3005      	adds	r0, #5
     480:	f00a fce3 	bl	ae4a <TEE_Malloc>
/home/lubuntu/Dokument/GitHub/STM32-Computer/Firmware/STM32-Computer-Firmware/CA7/optee-os-3.19.0-r2/optee-os-stm32mp-3.19.0-stm32mp-r2/ta/pkcs11/src/attributes.c:337 (discriminator 4)
     484:	4606      	mov	r6, r0
     486:	b328      	cbz	r0, 4d4 <trace_attributes+0xd2>
/home/lubuntu/Dokument/GitHub/STM32-Computer/Firmware/STM32-Computer-Firmware/CA7/optee-os-3.19.0-r2/optee-os-stm32mp-3.19.0-stm32mp-r2/ta/pkcs11/src/attributes.c:340
     488:	1c62      	adds	r2, r4, #1
trace_attributes():
/home/lubuntu/Dokument/GitHub/STM32-Computer/Firmware/STM32-Computer-Firmware/CA7/optee-os-3.19.0-r2/optee-os-stm32mp-3.19.0-stm32mp-r2/ta/pkcs11/src/attributes.c:451
     48a:	f109 0908 	add.w	r9, r9, #8
__trace_attributes():
/home/lubuntu/Dokument/GitHub/STM32-Computer/Firmware/STM32-Computer-Firmware/CA7/optee-os-3.19.0-r2/optee-os-stm32mp-3.19.0-stm32mp-r2/ta/pkcs11/src/attributes.c:341
     48e:	4434      	add	r4, r6
/home/lubuntu/Dokument/GitHub/STM32-Computer/Firmware/STM32-Computer-Firmware/CA7/optee-os-3.19.0-r2/optee-os-stm32mp-3.19.0-stm32mp-r2/ta/pkcs11/src/attributes.c:340
     490:	4629      	mov	r1, r5
trace_attributes():
/home/lubuntu/Dokument/GitHub/STM32-Computer/Firmware/STM32-Computer-Firmware/CA7/optee-os-3.19.0-r2/optee-os-stm32mp-3.19.0-stm32mp-r2/ta/pkcs11/src/attributes.c:450
     492:	f107 0808 	add.w	r8, r7, #8
__trace_attributes():
/home/lubuntu/Dokument/GitHub/STM32-Computer/Firmware/STM32-Computer-Firmware/CA7/optee-os-3.19.0-r2/optee-os-stm32mp-3.19.0-stm32mp-r2/ta/pkcs11/src/attributes.c:340
     496:	f00a fc7b 	bl	ad90 <TEE_MemMove>
trace_attributes():
/home/lubuntu/Dokument/GitHub/STM32-Computer/Firmware/STM32-Computer-Firmware/CA7/optee-os-3.19.0-r2/optee-os-stm32mp-3.19.0-stm32mp-r2/ta/pkcs11/src/attributes.c:450
     49a:	444f      	add	r7, r9
__trace_attributes():
/home/lubuntu/Dokument/GitHub/STM32-Computer/Firmware/STM32-Computer-Firmware/CA7/optee-os-3.19.0-r2/optee-os-stm32mp-3.19.0-stm32mp-r2/ta/pkcs11/src/attributes.c:341
     49c:	4620      	mov	r0, r4
     49e:	2204      	movs	r2, #4
     4a0:	2120      	movs	r1, #32
/home/lubuntu/Dokument/GitHub/STM32-Computer/Firmware/STM32-Computer-Firmware/CA7/optee-os-3.19.0-r2/optee-os-stm32mp-3.19.0-stm32mp-r2/ta/pkcs11/src/attributes.c:342
     4a2:	f04f 0900 	mov.w	r9, #0
/home/lubuntu/Dokument/GitHub/STM32-Computer/Firmware/STM32-Computer-Firmware/CA7/optee-os-3.19.0-r2/optee-os-stm32mp-3.19.0-stm32mp-r2/ta/pkcs11/src/attributes.c:341
     4a6:	f00a fc77 	bl	ad98 <TEE_MemFill>
/home/lubuntu/Dokument/GitHub/STM32-Computer/Firmware/STM32-Computer-Firmware/CA7/optee-os-3.19.0-r2/optee-os-stm32mp-3.19.0-stm32mp-r2/ta/pkcs11/src/attributes.c:342
     4aa:	f884 9004 	strb.w	r9, [r4, #4]
/home/lubuntu/Dokument/GitHub/STM32-Computer/Firmware/STM32-Computer-Firmware/CA7/optee-os-3.19.0-r2/optee-os-stm32mp-3.19.0-stm32mp-r2/ta/pkcs11/src/attributes.c:345
     4ae:	ac06      	add	r4, sp, #24
/home/lubuntu/Dokument/GitHub/STM32-Computer/Firmware/STM32-Computer-Firmware/CA7/optee-os-3.19.0-r2/optee-os-stm32mp-3.19.0-stm32mp-r2/ta/pkcs11/src/attributes.c:344
     4b0:	4547      	cmp	r7, r8
     4b2:	d820      	bhi.n	4f6 <trace_attributes+0xf4>
/home/lubuntu/Dokument/GitHub/STM32-Computer/Firmware/STM32-Computer-Firmware/CA7/optee-os-3.19.0-r2/optee-os-stm32mp-3.19.0-stm32mp-r2/ta/pkcs11/src/attributes.c:420
     4b4:	d00b      	beq.n	4ce <trace_attributes+0xcc>
/home/lubuntu/Dokument/GitHub/STM32-Computer/Firmware/STM32-Computer-Firmware/CA7/optee-os-3.19.0-r2/optee-os-stm32mp-3.19.0-stm32mp-r2/ta/pkcs11/src/attributes.c:421
     4b6:	4b24      	ldr	r3, [pc, #144]	@ (548 <trace_attributes+0x146>)
     4b8:	f240 11a5 	movw	r1, #421	@ 0x1a5
     4bc:	4823      	ldr	r0, [pc, #140]	@ (54c <trace_attributes+0x14a>)
     4be:	447b      	add	r3, pc
     4c0:	4478      	add	r0, pc
     4c2:	9300      	str	r3, [sp, #0]
     4c4:	2301      	movs	r3, #1
     4c6:	461a      	mov	r2, r3
     4c8:	301a      	adds	r0, #26
     4ca:	f00a f997 	bl	a7fc <trace_printf>
/home/lubuntu/Dokument/GitHub/STM32-Computer/Firmware/STM32-Computer-Firmware/CA7/optee-os-3.19.0-r2/optee-os-stm32mp-3.19.0-stm32mp-r2/ta/pkcs11/src/attributes.c:423
     4ce:	4630      	mov	r0, r6
     4d0:	f00a fce4 	bl	ae9c <TEE_Free>
trace_attributes():
/home/lubuntu/Dokument/GitHub/STM32-Computer/Firmware/STM32-Computer-Firmware/CA7/optee-os-3.19.0-r2/optee-os-stm32mp-3.19.0-stm32mp-r2/ta/pkcs11/src/attributes.c:455
     4d4:	4628      	mov	r0, r5
     4d6:	f00a fce1 	bl	ae9c <TEE_Free>
     4da:	e7bb      	b.n	454 <trace_attributes+0x52>
/home/lubuntu/Dokument/GitHub/STM32-Computer/Firmware/STM32-Computer-Firmware/CA7/optee-os-3.19.0-r2/optee-os-stm32mp-3.19.0-stm32mp-r2/ta/pkcs11/src/attributes.c:443
     4dc:	4620      	mov	r0, r4
     4de:	f012 ff48 	bl	13372 <strlen>
     4e2:	4602      	mov	r2, r0
     4e4:	4621      	mov	r1, r4
     4e6:	4628      	mov	r0, r5
     4e8:	f00a fc52 	bl	ad90 <TEE_MemMove>
/home/lubuntu/Dokument/GitHub/STM32-Computer/Firmware/STM32-Computer-Firmware/CA7/optee-os-3.19.0-r2/optee-os-stm32mp-3.19.0-stm32mp-r2/ta/pkcs11/src/attributes.c:449
     4ec:	4620      	mov	r0, r4
     4ee:	f012 ff40 	bl	13372 <strlen>
     4f2:	4604      	mov	r4, r0
     4f4:	e7ba      	b.n	46c <trace_attributes+0x6a>
__trace_attributes():
/home/lubuntu/Dokument/GitHub/STM32-Computer/Firmware/STM32-Computer-Firmware/CA7/optee-os-3.19.0-r2/optee-os-stm32mp-3.19.0-stm32mp-r2/ta/pkcs11/src/attributes.c:346
     4f6:	f8cd 900c 	str.w	r9, [sp, #12]
/home/lubuntu/Dokument/GitHub/STM32-Computer/Firmware/STM32-Computer-Firmware/CA7/optee-os-3.19.0-r2/optee-os-stm32mp-3.19.0-stm32mp-r2/ta/pkcs11/src/attributes.c:348
     4fa:	2208      	movs	r2, #8
     4fc:	4641      	mov	r1, r8
     4fe:	4620      	mov	r0, r4
/home/lubuntu/Dokument/GitHub/STM32-Computer/Firmware/STM32-Computer-Firmware/CA7/optee-os-3.19.0-r2/optee-os-stm32mp-3.19.0-stm32mp-r2/ta/pkcs11/src/attributes.c:345
     500:	ed84 8b00 	vstr	d8, [r4]
/home/lubuntu/Dokument/GitHub/STM32-Computer/Firmware/STM32-Computer-Firmware/CA7/optee-os-3.19.0-r2/optee-os-stm32mp-3.19.0-stm32mp-r2/ta/pkcs11/src/attributes.c:349
     504:	f108 0a08 	add.w	sl, r8, #8
/home/lubuntu/Dokument/GitHub/STM32-Computer/Firmware/STM32-Computer-Firmware/CA7/optee-os-3.19.0-r2/optee-os-stm32mp-3.19.0-stm32mp-r2/ta/pkcs11/src/attributes.c:348
     508:	f00a fc42 	bl	ad90 <TEE_MemMove>
/home/lubuntu/Dokument/GitHub/STM32-Computer/Firmware/STM32-Computer-Firmware/CA7/optee-os-3.19.0-r2/optee-os-stm32mp-3.19.0-stm32mp-r2/ta/pkcs11/src/attributes.c:349
     50c:	9a07      	ldr	r2, [sp, #28]
     50e:	4651      	mov	r1, sl
     510:	a803      	add	r0, sp, #12
     512:	2a04      	cmp	r2, #4
     514:	bf28      	it	cs
     516:	2204      	movcs	r2, #4
     518:	f00a fc3a 	bl	ad90 <TEE_MemMove>
/home/lubuntu/Dokument/GitHub/STM32-Computer/Firmware/STM32-Computer-Firmware/CA7/optee-os-3.19.0-r2/optee-os-stm32mp-3.19.0-stm32mp-r2/ta/pkcs11/src/attributes.c:406
     51c:	9b06      	ldr	r3, [sp, #24]
     51e:	f46f 7104 	mvn.w	r1, #528	@ 0x210
/home/lubuntu/Dokument/GitHub/STM32-Computer/Firmware/STM32-Computer-Firmware/CA7/optee-os-3.19.0-r2/optee-os-stm32mp-3.19.0-stm32mp-r2/ta/pkcs11/src/attributes.c:352
     522:	9a07      	ldr	r2, [sp, #28]
/home/lubuntu/Dokument/GitHub/STM32-Computer/Firmware/STM32-Computer-Firmware/CA7/optee-os-3.19.0-r2/optee-os-stm32mp-3.19.0-stm32mp-r2/ta/pkcs11/src/attributes.c:406
     524:	f103 4340 	add.w	r3, r3, #3221225472	@ 0xc0000000
     528:	440b      	add	r3, r1
     52a:	2b02      	cmp	r3, #2
/home/lubuntu/Dokument/GitHub/STM32-Computer/Firmware/STM32-Computer-Firmware/CA7/optee-os-3.19.0-r2/optee-os-stm32mp-3.19.0-stm32mp-r2/ta/pkcs11/src/attributes.c:352
     52c:	f102 0b08 	add.w	fp, r2, #8
/home/lubuntu/Dokument/GitHub/STM32-Computer/Firmware/STM32-Computer-Firmware/CA7/optee-os-3.19.0-r2/optee-os-stm32mp-3.19.0-stm32mp-r2/ta/pkcs11/src/attributes.c:406
     530:	d804      	bhi.n	53c <trace_attributes+0x13a>
/home/lubuntu/Dokument/GitHub/STM32-Computer/Firmware/STM32-Computer-Firmware/CA7/optee-os-3.19.0-r2/optee-os-stm32mp-3.19.0-stm32mp-r2/ta/pkcs11/src/attributes.c:410
     532:	b11a      	cbz	r2, 53c <trace_attributes+0x13a>
/home/lubuntu/Dokument/GitHub/STM32-Computer/Firmware/STM32-Computer-Firmware/CA7/optee-os-3.19.0-r2/optee-os-stm32mp-3.19.0-stm32mp-r2/ta/pkcs11/src/attributes.c:411
     534:	4651      	mov	r1, sl
     536:	4630      	mov	r0, r6
     538:	f7ff ff63 	bl	402 <trace_attributes>
/home/lubuntu/Dokument/GitHub/STM32-Computer/Firmware/STM32-Computer-Firmware/CA7/optee-os-3.19.0-r2/optee-os-stm32mp-3.19.0-stm32mp-r2/ta/pkcs11/src/attributes.c:344
     53c:	44d8      	add	r8, fp
     53e:	e7b7      	b.n	4b0 <trace_attributes+0xae>
     540:	000142c1 	.word	0x000142c1
     544:	00014304 	.word	0x00014304
     548:	00014257 	.word	0x00014257
     54c:	00014288 	.word	0x00014288

00000550 <TA_CreateEntryPoint>:
TA_CreateEntryPoint():
/home/lubuntu/Dokument/GitHub/STM32-Computer/Firmware/STM32-Computer-Firmware/CA7/optee-os-3.19.0-r2/optee-os-stm32mp-3.19.0-stm32mp-r2/ta/pkcs11/src/entry.c:20
     550:	f004 b82c 	b.w	45ac <pkcs11_init>

00000554 <TA_DestroyEntryPoint>:
TA_DestroyEntryPoint():
/home/lubuntu/Dokument/GitHub/STM32-Computer/Firmware/STM32-Computer-Firmware/CA7/optee-os-3.19.0-r2/optee-os-stm32mp-3.19.0-stm32mp-r2/ta/pkcs11/src/entry.c:25
     554:	f004 b840 	b.w	45d8 <pkcs11_deinit>

00000558 <TA_OpenSessionEntryPoint>:
TA_OpenSessionEntryPoint():
/home/lubuntu/Dokument/GitHub/STM32-Computer/Firmware/STM32-Computer-Firmware/CA7/optee-os-3.19.0-r2/optee-os-stm32mp-3.19.0-stm32mp-r2/ta/pkcs11/src/entry.c:31
     558:	b510      	push	{r4, lr}
     55a:	4614      	mov	r4, r2
/home/lubuntu/Dokument/GitHub/STM32-Computer/Firmware/STM32-Computer-Firmware/CA7/optee-os-3.19.0-r2/optee-os-stm32mp-3.19.0-stm32mp-r2/ta/pkcs11/src/entry.c:32
     55c:	f003 ffca 	bl	44f4 <register_client>
/home/lubuntu/Dokument/GitHub/STM32-Computer/Firmware/STM32-Computer-Firmware/CA7/optee-os-3.19.0-r2/optee-os-stm32mp-3.19.0-stm32mp-r2/ta/pkcs11/src/entry.c:34
     560:	b110      	cbz	r0, 568 <TA_OpenSessionEntryPoint+0x10>
/home/lubuntu/Dokument/GitHub/STM32-Computer/Firmware/STM32-Computer-Firmware/CA7/optee-os-3.19.0-r2/optee-os-stm32mp-3.19.0-stm32mp-r2/ta/pkcs11/src/entry.c:37
     562:	6020      	str	r0, [r4, #0]
/home/lubuntu/Dokument/GitHub/STM32-Computer/Firmware/STM32-Computer-Firmware/CA7/optee-os-3.19.0-r2/optee-os-stm32mp-3.19.0-stm32mp-r2/ta/pkcs11/src/entry.c:39
     564:	2000      	movs	r0, #0
/home/lubuntu/Dokument/GitHub/STM32-Computer/Firmware/STM32-Computer-Firmware/CA7/optee-os-3.19.0-r2/optee-os-stm32mp-3.19.0-stm32mp-r2/ta/pkcs11/src/entry.c:40
     566:	bd10      	pop	{r4, pc}
/home/lubuntu/Dokument/GitHub/STM32-Computer/Firmware/STM32-Computer-Firmware/CA7/optee-os-3.19.0-r2/optee-os-stm32mp-3.19.0-stm32mp-r2/ta/pkcs11/src/entry.c:35
     568:	4800      	ldr	r0, [pc, #0]	@ (56c <TA_OpenSessionEntryPoint+0x14>)
     56a:	e7fc      	b.n	566 <TA_OpenSessionEntryPoint+0xe>
     56c:	ffff000c 	.word	0xffff000c

00000570 <TA_CloseSessionEntryPoint>:
TA_CloseSessionEntryPoint():
/home/lubuntu/Dokument/GitHub/STM32-Computer/Firmware/STM32-Computer-Firmware/CA7/optee-os-3.19.0-r2/optee-os-stm32mp-3.19.0-stm32mp-r2/ta/pkcs11/src/entry.c:43
     570:	b508      	push	{r3, lr}
/home/lubuntu/Dokument/GitHub/STM32-Computer/Firmware/STM32-Computer-Firmware/CA7/optee-os-3.19.0-r2/optee-os-stm32mp-3.19.0-stm32mp-r2/ta/pkcs11/src/entry.c:44
     572:	f003 ffad 	bl	44d0 <tee_session2client>
/home/lubuntu/Dokument/GitHub/STM32-Computer/Firmware/STM32-Computer-Firmware/CA7/optee-os-3.19.0-r2/optee-os-stm32mp-3.19.0-stm32mp-r2/ta/pkcs11/src/entry.c:47
     576:	e8bd 4008 	ldmia.w	sp!, {r3, lr}
/home/lubuntu/Dokument/GitHub/STM32-Computer/Firmware/STM32-Computer-Firmware/CA7/optee-os-3.19.0-r2/optee-os-stm32mp-3.19.0-stm32mp-r2/ta/pkcs11/src/entry.c:46
     57a:	f003 bfe1 	b.w	4540 <unregister_client>

0000057e <TA_InvokeCommandEntryPoint>:
TA_InvokeCommandEntryPoint():
/home/lubuntu/Dokument/GitHub/STM32-Computer/Firmware/STM32-Computer-Firmware/CA7/optee-os-3.19.0-r2/optee-os-stm32mp-3.19.0-stm32mp-r2/ta/pkcs11/src/entry.c:119
     57e:	b570      	push	{r4, r5, r6, lr}
     580:	b086      	sub	sp, #24
     582:	461d      	mov	r5, r3
     584:	460c      	mov	r4, r1
     586:	4616      	mov	r6, r2
/home/lubuntu/Dokument/GitHub/STM32-Computer/Firmware/STM32-Computer-Firmware/CA7/optee-os-3.19.0-r2/optee-os-stm32mp-3.19.0-stm32mp-r2/ta/pkcs11/src/entry.c:120
     588:	f003 ffa2 	bl	44d0 <tee_session2client>
/home/lubuntu/Dokument/GitHub/STM32-Computer/Firmware/STM32-Computer-Firmware/CA7/optee-os-3.19.0-r2/optee-os-stm32mp-3.19.0-stm32mp-r2/ta/pkcs11/src/entry.c:121
     58c:	2305      	movs	r3, #5
     58e:	9302      	str	r3, [sp, #8]
/home/lubuntu/Dokument/GitHub/STM32-Computer/Firmware/STM32-Computer-Firmware/CA7/optee-os-3.19.0-r2/optee-os-stm32mp-3.19.0-stm32mp-r2/ta/pkcs11/src/entry.c:123
     590:	2800      	cmp	r0, #0
     592:	f000 814c 	beq.w	82e <TA_InvokeCommandEntryPoint+0x2b0>
/home/lubuntu/Dokument/GitHub/STM32-Computer/Firmware/STM32-Computer-Firmware/CA7/optee-os-3.19.0-r2/optee-os-stm32mp-3.19.0-stm32mp-r2/ta/pkcs11/src/entry.c:133 (discriminator 2)
     596:	f006 030f 	and.w	r3, r6, #15
     59a:	3b06      	subs	r3, #6
     59c:	2b01      	cmp	r3, #1
     59e:	f200 8148 	bhi.w	832 <TA_InvokeCommandEntryPoint+0x2b4>
/home/lubuntu/Dokument/GitHub/STM32-Computer/Firmware/STM32-Computer-Firmware/CA7/optee-os-3.19.0-r2/optee-os-stm32mp-3.19.0-stm32mp-r2/ta/pkcs11/src/entry.c:136
     5a2:	686b      	ldr	r3, [r5, #4]
     5a4:	2b03      	cmp	r3, #3
     5a6:	f240 8144 	bls.w	832 <TA_InvokeCommandEntryPoint+0x2b4>
/home/lubuntu/Dokument/GitHub/STM32-Computer/Firmware/STM32-Computer-Firmware/CA7/optee-os-3.19.0-r2/optee-os-stm32mp-3.19.0-stm32mp-r2/ta/pkcs11/src/entry.c:155
     5aa:	2c34      	cmp	r4, #52	@ 0x34
     5ac:	f200 8130 	bhi.w	810 <TA_InvokeCommandEntryPoint+0x292>
     5b0:	e8df f014 	tbh	[pc, r4, lsl #1]
     5b4:	00580035 	.word	0x00580035
     5b8:	0063005e 	.word	0x0063005e
     5bc:	006d0068 	.word	0x006d0068
     5c0:	00770072 	.word	0x00770072
     5c4:	0081007c 	.word	0x0081007c
     5c8:	008b0086 	.word	0x008b0086
     5cc:	00950090 	.word	0x00950090
     5d0:	009f009a 	.word	0x009f009a
     5d4:	00a900a4 	.word	0x00a900a4
     5d8:	00b100af 	.word	0x00b100af
     5dc:	00c100b9 	.word	0x00c100b9
     5e0:	00bd00c3 	.word	0x00bd00c3
     5e4:	00c500bf 	.word	0x00c500bf
     5e8:	00d100c7 	.word	0x00d100c7
     5ec:	00d500d3 	.word	0x00d500d3
     5f0:	00c900d7 	.word	0x00c900d7
     5f4:	00d900cd 	.word	0x00d900cd
     5f8:	00e300de 	.word	0x00e300de
     5fc:	00f200e8 	.word	0x00f200e8
     600:	00f700ed 	.word	0x00f700ed
     604:	010100fc 	.word	0x010100fc
     608:	010b0106 	.word	0x010b0106
     60c:	01160111 	.word	0x01160111
     610:	0118011c 	.word	0x0118011c
     614:	011e0120 	.word	0x011e0120
     618:	01270122 	.word	0x01270122
     61c:	012c      	.short	0x012c
entry_ping():
/home/lubuntu/Dokument/GitHub/STM32-Computer/Firmware/STM32-Computer-Firmware/CA7/optee-os-3.19.0-r2/optee-os-stm32mp-3.19.0-stm32mp-r2/ta/pkcs11/src/entry.c:61
     61e:	2200      	movs	r2, #0
     620:	2101      	movs	r1, #1
     622:	9203      	str	r2, [sp, #12]
     624:	9205      	str	r2, [sp, #20]
/home/lubuntu/Dokument/GitHub/STM32-Computer/Firmware/STM32-Computer-Firmware/CA7/optee-os-3.19.0-r2/optee-os-stm32mp-3.19.0-stm32mp-r2/ta/pkcs11/src/entry.c:67
     626:	f240 6207 	movw	r2, #1543	@ 0x607
     62a:	4296      	cmp	r6, r2
/home/lubuntu/Dokument/GitHub/STM32-Computer/Firmware/STM32-Computer-Firmware/CA7/optee-os-3.19.0-r2/optee-os-stm32mp-3.19.0-stm32mp-r2/ta/pkcs11/src/entry.c:61
     62c:	9104      	str	r1, [sp, #16]
/home/lubuntu/Dokument/GitHub/STM32-Computer/Firmware/STM32-Computer-Firmware/CA7/optee-os-3.19.0-r2/optee-os-stm32mp-3.19.0-stm32mp-r2/ta/pkcs11/src/entry.c:67
     62e:	d117      	bne.n	660 <TA_InvokeCommandEntryPoint+0xe2>
     630:	2b04      	cmp	r3, #4
     632:	d115      	bne.n	660 <TA_InvokeCommandEntryPoint+0xe2>
/home/lubuntu/Dokument/GitHub/STM32-Computer/Firmware/STM32-Computer-Firmware/CA7/optee-os-3.19.0-r2/optee-os-stm32mp-3.19.0-stm32mp-r2/ta/pkcs11/src/entry.c:68
     634:	696a      	ldr	r2, [r5, #20]
     636:	2a0c      	cmp	r2, #12
     638:	d112      	bne.n	660 <TA_InvokeCommandEntryPoint+0xe2>
/home/lubuntu/Dokument/GitHub/STM32-Computer/Firmware/STM32-Computer-Firmware/CA7/optee-os-3.19.0-r2/optee-os-stm32mp-3.19.0-stm32mp-r2/ta/pkcs11/src/entry.c:72
     63a:	6928      	ldr	r0, [r5, #16]
     63c:	a903      	add	r1, sp, #12
     63e:	f00a fba7 	bl	ad90 <TEE_MemMove>
TA_InvokeCommandEntryPoint():
/home/lubuntu/Dokument/GitHub/STM32-Computer/Firmware/STM32-Computer-Firmware/CA7/optee-os-3.19.0-r2/optee-os-stm32mp-3.19.0-stm32mp-r2/ta/pkcs11/src/entry.c:366
     642:	6828      	ldr	r0, [r5, #0]
     644:	2204      	movs	r2, #4
/home/lubuntu/Dokument/GitHub/STM32-Computer/Firmware/STM32-Computer-Firmware/CA7/optee-os-3.19.0-r2/optee-os-stm32mp-3.19.0-stm32mp-r2/ta/pkcs11/src/entry.c:157
     646:	9402      	str	r4, [sp, #8]
/home/lubuntu/Dokument/GitHub/STM32-Computer/Firmware/STM32-Computer-Firmware/CA7/optee-os-3.19.0-r2/optee-os-stm32mp-3.19.0-stm32mp-r2/ta/pkcs11/src/entry.c:366
     648:	a902      	add	r1, sp, #8
     64a:	f00a fba1 	bl	ad90 <TEE_MemMove>
/home/lubuntu/Dokument/GitHub/STM32-Computer/Firmware/STM32-Computer-Firmware/CA7/optee-os-3.19.0-r2/optee-os-stm32mp-3.19.0-stm32mp-r2/ta/pkcs11/src/entry.c:370
     64e:	487a      	ldr	r0, [pc, #488]	@ (838 <TA_InvokeCommandEntryPoint+0x2ba>)
/home/lubuntu/Dokument/GitHub/STM32-Computer/Firmware/STM32-Computer-Firmware/CA7/optee-os-3.19.0-r2/optee-os-stm32mp-3.19.0-stm32mp-r2/ta/pkcs11/src/entry.c:367
     650:	2304      	movs	r3, #4
     652:	606b      	str	r3, [r5, #4]
/home/lubuntu/Dokument/GitHub/STM32-Computer/Firmware/STM32-Computer-Firmware/CA7/optee-os-3.19.0-r2/optee-os-stm32mp-3.19.0-stm32mp-r2/ta/pkcs11/src/entry.c:370
     654:	9b02      	ldr	r3, [sp, #8]
     656:	f5b3 7fa8 	cmp.w	r3, #336	@ 0x150
     65a:	bf18      	it	ne
     65c:	2000      	movne	r0, #0
     65e:	e0e4      	b.n	82a <TA_InvokeCommandEntryPoint+0x2ac>
entry_ping():
/home/lubuntu/Dokument/GitHub/STM32-Computer/Firmware/STM32-Computer-Firmware/CA7/optee-os-3.19.0-r2/optee-os-stm32mp-3.19.0-stm32mp-r2/ta/pkcs11/src/entry.c:70
     660:	2407      	movs	r4, #7
TA_InvokeCommandEntryPoint():
/home/lubuntu/Dokument/GitHub/STM32-Computer/Firmware/STM32-Computer-Firmware/CA7/optee-os-3.19.0-r2/optee-os-stm32mp-3.19.0-stm32mp-r2/ta/pkcs11/src/entry.c:158
     662:	e7ee      	b.n	642 <TA_InvokeCommandEntryPoint+0xc4>
/home/lubuntu/Dokument/GitHub/STM32-Computer/Firmware/STM32-Computer-Firmware/CA7/optee-os-3.19.0-r2/optee-os-stm32mp-3.19.0-stm32mp-r2/ta/pkcs11/src/entry.c:161
     664:	4629      	mov	r1, r5
     666:	4630      	mov	r0, r6
     668:	f004 f80c 	bl	4684 <entry_ck_slot_list>
/home/lubuntu/Dokument/GitHub/STM32-Computer/Firmware/STM32-Computer-Firmware/CA7/optee-os-3.19.0-r2/optee-os-stm32mp-3.19.0-stm32mp-r2/ta/pkcs11/src/entry.c:356
     66c:	4604      	mov	r4, r0
/home/lubuntu/Dokument/GitHub/STM32-Computer/Firmware/STM32-Computer-Firmware/CA7/optee-os-3.19.0-r2/optee-os-stm32mp-3.19.0-stm32mp-r2/ta/pkcs11/src/entry.c:358
     66e:	e7e8      	b.n	642 <TA_InvokeCommandEntryPoint+0xc4>
/home/lubuntu/Dokument/GitHub/STM32-Computer/Firmware/STM32-Computer-Firmware/CA7/optee-os-3.19.0-r2/optee-os-stm32mp-3.19.0-stm32mp-r2/ta/pkcs11/src/entry.c:164
     670:	4629      	mov	r1, r5
     672:	4630      	mov	r0, r6
     674:	f004 f831 	bl	46da <entry_ck_slot_info>
     678:	e7f8      	b.n	66c <TA_InvokeCommandEntryPoint+0xee>
/home/lubuntu/Dokument/GitHub/STM32-Computer/Firmware/STM32-Computer-Firmware/CA7/optee-os-3.19.0-r2/optee-os-stm32mp-3.19.0-stm32mp-r2/ta/pkcs11/src/entry.c:167
     67a:	4629      	mov	r1, r5
     67c:	4630      	mov	r0, r6
     67e:	f004 f8b3 	bl	47e8 <entry_ck_token_info>
     682:	e7f3      	b.n	66c <TA_InvokeCommandEntryPoint+0xee>
/home/lubuntu/Dokument/GitHub/STM32-Computer/Firmware/STM32-Computer-Firmware/CA7/optee-os-3.19.0-r2/optee-os-stm32mp-3.19.0-stm32mp-r2/ta/pkcs11/src/entry.c:170
     684:	4629      	mov	r1, r5
     686:	4630      	mov	r0, r6
     688:	f004 f93c 	bl	4904 <entry_ck_token_mecha_ids>
     68c:	e7ee      	b.n	66c <TA_InvokeCommandEntryPoint+0xee>
/home/lubuntu/Dokument/GitHub/STM32-Computer/Firmware/STM32-Computer-Firmware/CA7/optee-os-3.19.0-r2/optee-os-stm32mp-3.19.0-stm32mp-r2/ta/pkcs11/src/entry.c:173
     68e:	4629      	mov	r1, r5
     690:	4630      	mov	r0, r6
     692:	f004 f999 	bl	49c8 <entry_ck_token_mecha_info>
     696:	e7e9      	b.n	66c <TA_InvokeCommandEntryPoint+0xee>
/home/lubuntu/Dokument/GitHub/STM32-Computer/Firmware/STM32-Computer-Firmware/CA7/optee-os-3.19.0-r2/optee-os-stm32mp-3.19.0-stm32mp-r2/ta/pkcs11/src/entry.c:177
     698:	462a      	mov	r2, r5
     69a:	4631      	mov	r1, r6
     69c:	f004 f9eb 	bl	4a76 <entry_ck_open_session>
     6a0:	e7e4      	b.n	66c <TA_InvokeCommandEntryPoint+0xee>
/home/lubuntu/Dokument/GitHub/STM32-Computer/Firmware/STM32-Computer-Firmware/CA7/optee-os-3.19.0-r2/optee-os-stm32mp-3.19.0-stm32mp-r2/ta/pkcs11/src/entry.c:180
     6a2:	462a      	mov	r2, r5
     6a4:	4631      	mov	r1, r6
     6a6:	f004 faa1 	bl	4bec <entry_ck_close_session>
     6aa:	e7df      	b.n	66c <TA_InvokeCommandEntryPoint+0xee>
/home/lubuntu/Dokument/GitHub/STM32-Computer/Firmware/STM32-Computer-Firmware/CA7/optee-os-3.19.0-r2/optee-os-stm32mp-3.19.0-stm32mp-r2/ta/pkcs11/src/entry.c:183
     6ac:	462a      	mov	r2, r5
     6ae:	4631      	mov	r1, r6
     6b0:	f004 fac6 	bl	4c40 <entry_ck_close_all_sessions>
     6b4:	e7da      	b.n	66c <TA_InvokeCommandEntryPoint+0xee>
/home/lubuntu/Dokument/GitHub/STM32-Computer/Firmware/STM32-Computer-Firmware/CA7/optee-os-3.19.0-r2/optee-os-stm32mp-3.19.0-stm32mp-r2/ta/pkcs11/src/entry.c:186
     6b6:	462a      	mov	r2, r5
     6b8:	4631      	mov	r1, r6
     6ba:	f004 faf5 	bl	4ca8 <entry_ck_session_info>
     6be:	e7d5      	b.n	66c <TA_InvokeCommandEntryPoint+0xee>
/home/lubuntu/Dokument/GitHub/STM32-Computer/Firmware/STM32-Computer-Firmware/CA7/optee-os-3.19.0-r2/optee-os-stm32mp-3.19.0-stm32mp-r2/ta/pkcs11/src/entry.c:190
     6c0:	4629      	mov	r1, r5
     6c2:	4630      	mov	r0, r6
     6c4:	f004 fb37 	bl	4d36 <entry_ck_token_initialize>
     6c8:	e7d0      	b.n	66c <TA_InvokeCommandEntryPoint+0xee>
/home/lubuntu/Dokument/GitHub/STM32-Computer/Firmware/STM32-Computer-Firmware/CA7/optee-os-3.19.0-r2/optee-os-stm32mp-3.19.0-stm32mp-r2/ta/pkcs11/src/entry.c:193
     6ca:	462a      	mov	r2, r5
     6cc:	4631      	mov	r1, r6
     6ce:	f004 fc0f 	bl	4ef0 <entry_ck_init_pin>
     6d2:	e7cb      	b.n	66c <TA_InvokeCommandEntryPoint+0xee>
/home/lubuntu/Dokument/GitHub/STM32-Computer/Firmware/STM32-Computer-Firmware/CA7/optee-os-3.19.0-r2/optee-os-stm32mp-3.19.0-stm32mp-r2/ta/pkcs11/src/entry.c:196
     6d4:	462a      	mov	r2, r5
     6d6:	4631      	mov	r1, r6
     6d8:	f004 fc64 	bl	4fa4 <entry_ck_set_pin>
     6dc:	e7c6      	b.n	66c <TA_InvokeCommandEntryPoint+0xee>
/home/lubuntu/Dokument/GitHub/STM32-Computer/Firmware/STM32-Computer-Firmware/CA7/optee-os-3.19.0-r2/optee-os-stm32mp-3.19.0-stm32mp-r2/ta/pkcs11/src/entry.c:199
     6de:	462a      	mov	r2, r5
     6e0:	4631      	mov	r1, r6
     6e2:	f004 fcca 	bl	507a <entry_ck_login>
     6e6:	e7c1      	b.n	66c <TA_InvokeCommandEntryPoint+0xee>
/home/lubuntu/Dokument/GitHub/STM32-Computer/Firmware/STM32-Computer-Firmware/CA7/optee-os-3.19.0-r2/optee-os-stm32mp-3.19.0-stm32mp-r2/ta/pkcs11/src/entry.c:202
     6e8:	462a      	mov	r2, r5
     6ea:	4631      	mov	r1, r6
     6ec:	f004 fd6d 	bl	51ca <entry_ck_logout>
     6f0:	e7bc      	b.n	66c <TA_InvokeCommandEntryPoint+0xee>
/home/lubuntu/Dokument/GitHub/STM32-Computer/Firmware/STM32-Computer-Firmware/CA7/optee-os-3.19.0-r2/optee-os-stm32mp-3.19.0-stm32mp-r2/ta/pkcs11/src/entry.c:206
     6f2:	462a      	mov	r2, r5
     6f4:	4631      	mov	r1, r6
     6f6:	f000 fa1b 	bl	b30 <entry_create_object>
     6fa:	e7b7      	b.n	66c <TA_InvokeCommandEntryPoint+0xee>
/home/lubuntu/Dokument/GitHub/STM32-Computer/Firmware/STM32-Computer-Firmware/CA7/optee-os-3.19.0-r2/optee-os-stm32mp-3.19.0-stm32mp-r2/ta/pkcs11/src/entry.c:209
     6fc:	462a      	mov	r2, r5
     6fe:	4631      	mov	r1, r6
     700:	f000 fa8d 	bl	c1e <entry_destroy_object>
     704:	e7b2      	b.n	66c <TA_InvokeCommandEntryPoint+0xee>
/home/lubuntu/Dokument/GitHub/STM32-Computer/Firmware/STM32-Computer-Firmware/CA7/optee-os-3.19.0-r2/optee-os-stm32mp-3.19.0-stm32mp-r2/ta/pkcs11/src/entry.c:213
     706:	2306      	movs	r3, #6
/home/lubuntu/Dokument/GitHub/STM32-Computer/Firmware/STM32-Computer-Firmware/CA7/optee-os-3.19.0-r2/optee-os-stm32mp-3.19.0-stm32mp-r2/ta/pkcs11/src/entry.c:326
     708:	462a      	mov	r2, r5
     70a:	4631      	mov	r1, r6
     70c:	f005 f9a9 	bl	5a62 <entry_processing_init>
     710:	e7ac      	b.n	66c <TA_InvokeCommandEntryPoint+0xee>
/home/lubuntu/Dokument/GitHub/STM32-Computer/Firmware/STM32-Computer-Firmware/CA7/optee-os-3.19.0-r2/optee-os-stm32mp-3.19.0-stm32mp-r2/ta/pkcs11/src/entry.c:217
     712:	2307      	movs	r3, #7
     714:	e7f8      	b.n	708 <TA_InvokeCommandEntryPoint+0x18a>
/home/lubuntu/Dokument/GitHub/STM32-Computer/Firmware/STM32-Computer-Firmware/CA7/optee-os-3.19.0-r2/optee-os-stm32mp-3.19.0-stm32mp-r2/ta/pkcs11/src/entry.c:221
     716:	2302      	movs	r3, #2
/home/lubuntu/Dokument/GitHub/STM32-Computer/Firmware/STM32-Computer-Firmware/CA7/optee-os-3.19.0-r2/optee-os-stm32mp-3.19.0-stm32mp-r2/ta/pkcs11/src/entry.c:241
     718:	9300      	str	r3, [sp, #0]
     71a:	2306      	movs	r3, #6
/home/lubuntu/Dokument/GitHub/STM32-Computer/Firmware/STM32-Computer-Firmware/CA7/optee-os-3.19.0-r2/optee-os-stm32mp-3.19.0-stm32mp-r2/ta/pkcs11/src/entry.c:345
     71c:	462a      	mov	r2, r5
     71e:	4631      	mov	r1, r6
     720:	f005 fa3f 	bl	5ba2 <entry_processing_step>
     724:	e7a2      	b.n	66c <TA_InvokeCommandEntryPoint+0xee>
/home/lubuntu/Dokument/GitHub/STM32-Computer/Firmware/STM32-Computer-Firmware/CA7/optee-os-3.19.0-r2/optee-os-stm32mp-3.19.0-stm32mp-r2/ta/pkcs11/src/entry.c:226
     726:	2302      	movs	r3, #2
/home/lubuntu/Dokument/GitHub/STM32-Computer/Firmware/STM32-Computer-Firmware/CA7/optee-os-3.19.0-r2/optee-os-stm32mp-3.19.0-stm32mp-r2/ta/pkcs11/src/entry.c:246
     728:	9300      	str	r3, [sp, #0]
     72a:	2307      	movs	r3, #7
     72c:	e7f6      	b.n	71c <TA_InvokeCommandEntryPoint+0x19e>
/home/lubuntu/Dokument/GitHub/STM32-Computer/Firmware/STM32-Computer-Firmware/CA7/optee-os-3.19.0-r2/optee-os-stm32mp-3.19.0-stm32mp-r2/ta/pkcs11/src/entry.c:231
     72e:	2301      	movs	r3, #1
     730:	e7f2      	b.n	718 <TA_InvokeCommandEntryPoint+0x19a>
/home/lubuntu/Dokument/GitHub/STM32-Computer/Firmware/STM32-Computer-Firmware/CA7/optee-os-3.19.0-r2/optee-os-stm32mp-3.19.0-stm32mp-r2/ta/pkcs11/src/entry.c:236
     732:	2301      	movs	r3, #1
     734:	e7f8      	b.n	728 <TA_InvokeCommandEntryPoint+0x1aa>
/home/lubuntu/Dokument/GitHub/STM32-Computer/Firmware/STM32-Computer-Firmware/CA7/optee-os-3.19.0-r2/optee-os-stm32mp-3.19.0-stm32mp-r2/ta/pkcs11/src/entry.c:241
     736:	2304      	movs	r3, #4
     738:	e7ee      	b.n	718 <TA_InvokeCommandEntryPoint+0x19a>
/home/lubuntu/Dokument/GitHub/STM32-Computer/Firmware/STM32-Computer-Firmware/CA7/optee-os-3.19.0-r2/optee-os-stm32mp-3.19.0-stm32mp-r2/ta/pkcs11/src/entry.c:246
     73a:	2304      	movs	r3, #4
     73c:	e7f4      	b.n	728 <TA_InvokeCommandEntryPoint+0x1aa>
/home/lubuntu/Dokument/GitHub/STM32-Computer/Firmware/STM32-Computer-Firmware/CA7/optee-os-3.19.0-r2/optee-os-stm32mp-3.19.0-stm32mp-r2/ta/pkcs11/src/entry.c:251
     73e:	2308      	movs	r3, #8
     740:	e7e2      	b.n	708 <TA_InvokeCommandEntryPoint+0x18a>
/home/lubuntu/Dokument/GitHub/STM32-Computer/Firmware/STM32-Computer-Firmware/CA7/optee-os-3.19.0-r2/optee-os-stm32mp-3.19.0-stm32mp-r2/ta/pkcs11/src/entry.c:255
     742:	2309      	movs	r3, #9
     744:	e7e0      	b.n	708 <TA_InvokeCommandEntryPoint+0x18a>
/home/lubuntu/Dokument/GitHub/STM32-Computer/Firmware/STM32-Computer-Firmware/CA7/optee-os-3.19.0-r2/optee-os-stm32mp-3.19.0-stm32mp-r2/ta/pkcs11/src/entry.c:259
     746:	2301      	movs	r3, #1
/home/lubuntu/Dokument/GitHub/STM32-Computer/Firmware/STM32-Computer-Firmware/CA7/optee-os-3.19.0-r2/optee-os-stm32mp-3.19.0-stm32mp-r2/ta/pkcs11/src/entry.c:279
     748:	9300      	str	r3, [sp, #0]
     74a:	2308      	movs	r3, #8
     74c:	e7e6      	b.n	71c <TA_InvokeCommandEntryPoint+0x19e>
/home/lubuntu/Dokument/GitHub/STM32-Computer/Firmware/STM32-Computer-Firmware/CA7/optee-os-3.19.0-r2/optee-os-stm32mp-3.19.0-stm32mp-r2/ta/pkcs11/src/entry.c:264
     74e:	2301      	movs	r3, #1
/home/lubuntu/Dokument/GitHub/STM32-Computer/Firmware/STM32-Computer-Firmware/CA7/optee-os-3.19.0-r2/optee-os-stm32mp-3.19.0-stm32mp-r2/ta/pkcs11/src/entry.c:284
     750:	9300      	str	r3, [sp, #0]
     752:	2309      	movs	r3, #9
     754:	e7e2      	b.n	71c <TA_InvokeCommandEntryPoint+0x19e>
/home/lubuntu/Dokument/GitHub/STM32-Computer/Firmware/STM32-Computer-Firmware/CA7/optee-os-3.19.0-r2/optee-os-stm32mp-3.19.0-stm32mp-r2/ta/pkcs11/src/entry.c:269
     756:	2302      	movs	r3, #2
     758:	e7f6      	b.n	748 <TA_InvokeCommandEntryPoint+0x1ca>
/home/lubuntu/Dokument/GitHub/STM32-Computer/Firmware/STM32-Computer-Firmware/CA7/optee-os-3.19.0-r2/optee-os-stm32mp-3.19.0-stm32mp-r2/ta/pkcs11/src/entry.c:274
     75a:	2302      	movs	r3, #2
     75c:	e7f8      	b.n	750 <TA_InvokeCommandEntryPoint+0x1d2>
/home/lubuntu/Dokument/GitHub/STM32-Computer/Firmware/STM32-Computer-Firmware/CA7/optee-os-3.19.0-r2/optee-os-stm32mp-3.19.0-stm32mp-r2/ta/pkcs11/src/entry.c:279
     75e:	2304      	movs	r3, #4
     760:	e7f2      	b.n	748 <TA_InvokeCommandEntryPoint+0x1ca>
/home/lubuntu/Dokument/GitHub/STM32-Computer/Firmware/STM32-Computer-Firmware/CA7/optee-os-3.19.0-r2/optee-os-stm32mp-3.19.0-stm32mp-r2/ta/pkcs11/src/entry.c:284
     762:	2304      	movs	r3, #4
     764:	e7f4      	b.n	750 <TA_InvokeCommandEntryPoint+0x1d2>
/home/lubuntu/Dokument/GitHub/STM32-Computer/Firmware/STM32-Computer-Firmware/CA7/optee-os-3.19.0-r2/optee-os-stm32mp-3.19.0-stm32mp-r2/ta/pkcs11/src/entry.c:289
     766:	462a      	mov	r2, r5
     768:	4631      	mov	r1, r6
     76a:	f004 ff07 	bl	557c <entry_generate_secret>
     76e:	e77d      	b.n	66c <TA_InvokeCommandEntryPoint+0xee>
/home/lubuntu/Dokument/GitHub/STM32-Computer/Firmware/STM32-Computer-Firmware/CA7/optee-os-3.19.0-r2/optee-os-stm32mp-3.19.0-stm32mp-r2/ta/pkcs11/src/entry.c:292
     770:	462a      	mov	r2, r5
     772:	4631      	mov	r1, r6
     774:	f000 faae 	bl	cd4 <entry_find_objects_init>
     778:	e778      	b.n	66c <TA_InvokeCommandEntryPoint+0xee>
/home/lubuntu/Dokument/GitHub/STM32-Computer/Firmware/STM32-Computer-Firmware/CA7/optee-os-3.19.0-r2/optee-os-stm32mp-3.19.0-stm32mp-r2/ta/pkcs11/src/entry.c:295
     77a:	462a      	mov	r2, r5
     77c:	4631      	mov	r1, r6
     77e:	f000 fbcd 	bl	f1c <entry_find_objects>
     782:	e773      	b.n	66c <TA_InvokeCommandEntryPoint+0xee>
/home/lubuntu/Dokument/GitHub/STM32-Computer/Firmware/STM32-Computer-Firmware/CA7/optee-os-3.19.0-r2/optee-os-stm32mp-3.19.0-stm32mp-r2/ta/pkcs11/src/entry.c:298
     784:	462a      	mov	r2, r5
     786:	4631      	mov	r1, r6
     788:	f000 fc22 	bl	fd0 <entry_find_objects_final>
     78c:	e76e      	b.n	66c <TA_InvokeCommandEntryPoint+0xee>
/home/lubuntu/Dokument/GitHub/STM32-Computer/Firmware/STM32-Computer-Firmware/CA7/optee-os-3.19.0-r2/optee-os-stm32mp-3.19.0-stm32mp-r2/ta/pkcs11/src/entry.c:301
     78e:	462a      	mov	r2, r5
     790:	4631      	mov	r1, r6
     792:	f000 fc4b 	bl	102c <entry_get_attribute_value>
     796:	e769      	b.n	66c <TA_InvokeCommandEntryPoint+0xee>
/home/lubuntu/Dokument/GitHub/STM32-Computer/Firmware/STM32-Computer-Firmware/CA7/optee-os-3.19.0-r2/optee-os-stm32mp-3.19.0-stm32mp-r2/ta/pkcs11/src/entry.c:304
     798:	462a      	mov	r2, r5
     79a:	4631      	mov	r1, r6
     79c:	f000 fd01 	bl	11a2 <entry_get_object_size>
     7a0:	e764      	b.n	66c <TA_InvokeCommandEntryPoint+0xee>
/home/lubuntu/Dokument/GitHub/STM32-Computer/Firmware/STM32-Computer-Firmware/CA7/optee-os-3.19.0-r2/optee-os-stm32mp-3.19.0-stm32mp-r2/ta/pkcs11/src/entry.c:307
     7a2:	462a      	mov	r2, r5
     7a4:	4631      	mov	r1, r6
     7a6:	f000 fd4a 	bl	123e <entry_set_attribute_value>
     7aa:	e75f      	b.n	66c <TA_InvokeCommandEntryPoint+0xee>
/home/lubuntu/Dokument/GitHub/STM32-Computer/Firmware/STM32-Computer-Firmware/CA7/optee-os-3.19.0-r2/optee-os-stm32mp-3.19.0-stm32mp-r2/ta/pkcs11/src/entry.c:310
     7ac:	462a      	mov	r2, r5
     7ae:	4631      	mov	r1, r6
     7b0:	f000 fdcf 	bl	1352 <entry_copy_object>
     7b4:	e75a      	b.n	66c <TA_InvokeCommandEntryPoint+0xee>
/home/lubuntu/Dokument/GitHub/STM32-Computer/Firmware/STM32-Computer-Firmware/CA7/optee-os-3.19.0-r2/optee-os-stm32mp-3.19.0-stm32mp-r2/ta/pkcs11/src/entry.c:313
     7b6:	462a      	mov	r2, r5
     7b8:	4631      	mov	r1, r6
     7ba:	f004 fd70 	bl	529e <entry_ck_seed_random>
     7be:	e755      	b.n	66c <TA_InvokeCommandEntryPoint+0xee>
/home/lubuntu/Dokument/GitHub/STM32-Computer/Firmware/STM32-Computer-Firmware/CA7/optee-os-3.19.0-r2/optee-os-stm32mp-3.19.0-stm32mp-r2/ta/pkcs11/src/entry.c:316
     7c0:	462a      	mov	r2, r5
     7c2:	4631      	mov	r1, r6
     7c4:	f004 fde6 	bl	5394 <entry_ck_generate_random>
     7c8:	e750      	b.n	66c <TA_InvokeCommandEntryPoint+0xee>
/home/lubuntu/Dokument/GitHub/STM32-Computer/Firmware/STM32-Computer-Firmware/CA7/optee-os-3.19.0-r2/optee-os-stm32mp-3.19.0-stm32mp-r2/ta/pkcs11/src/entry.c:319
     7ca:	2303      	movs	r3, #3
/home/lubuntu/Dokument/GitHub/STM32-Computer/Firmware/STM32-Computer-Firmware/CA7/optee-os-3.19.0-r2/optee-os-stm32mp-3.19.0-stm32mp-r2/ta/pkcs11/src/entry.c:356
     7cc:	462a      	mov	r2, r5
     7ce:	4631      	mov	r1, r6
     7d0:	f005 fab0 	bl	5d34 <entry_processing_key>
     7d4:	e74a      	b.n	66c <TA_InvokeCommandEntryPoint+0xee>
/home/lubuntu/Dokument/GitHub/STM32-Computer/Firmware/STM32-Computer-Firmware/CA7/optee-os-3.19.0-r2/optee-os-stm32mp-3.19.0-stm32mp-r2/ta/pkcs11/src/entry.c:323
     7d6:	462a      	mov	r2, r5
     7d8:	4631      	mov	r1, r6
     7da:	f005 fc0d 	bl	5ff8 <entry_release_active_processing>
     7de:	e745      	b.n	66c <TA_InvokeCommandEntryPoint+0xee>
/home/lubuntu/Dokument/GitHub/STM32-Computer/Firmware/STM32-Computer-Firmware/CA7/optee-os-3.19.0-r2/optee-os-stm32mp-3.19.0-stm32mp-r2/ta/pkcs11/src/entry.c:326
     7e0:	2300      	movs	r3, #0
     7e2:	e791      	b.n	708 <TA_InvokeCommandEntryPoint+0x18a>
/home/lubuntu/Dokument/GitHub/STM32-Computer/Firmware/STM32-Computer-Firmware/CA7/optee-os-3.19.0-r2/optee-os-stm32mp-3.19.0-stm32mp-r2/ta/pkcs11/src/entry.c:330
     7e4:	2302      	movs	r3, #2
/home/lubuntu/Dokument/GitHub/STM32-Computer/Firmware/STM32-Computer-Firmware/CA7/optee-os-3.19.0-r2/optee-os-stm32mp-3.19.0-stm32mp-r2/ta/pkcs11/src/entry.c:345
     7e6:	9300      	str	r3, [sp, #0]
     7e8:	2300      	movs	r3, #0
     7ea:	e797      	b.n	71c <TA_InvokeCommandEntryPoint+0x19e>
/home/lubuntu/Dokument/GitHub/STM32-Computer/Firmware/STM32-Computer-Firmware/CA7/optee-os-3.19.0-r2/optee-os-stm32mp-3.19.0-stm32mp-r2/ta/pkcs11/src/entry.c:335
     7ec:	2303      	movs	r3, #3
     7ee:	e7fa      	b.n	7e6 <TA_InvokeCommandEntryPoint+0x268>
/home/lubuntu/Dokument/GitHub/STM32-Computer/Firmware/STM32-Computer-Firmware/CA7/optee-os-3.19.0-r2/optee-os-stm32mp-3.19.0-stm32mp-r2/ta/pkcs11/src/entry.c:340
     7f0:	2301      	movs	r3, #1
     7f2:	e7f8      	b.n	7e6 <TA_InvokeCommandEntryPoint+0x268>
/home/lubuntu/Dokument/GitHub/STM32-Computer/Firmware/STM32-Computer-Firmware/CA7/optee-os-3.19.0-r2/optee-os-stm32mp-3.19.0-stm32mp-r2/ta/pkcs11/src/entry.c:345
     7f4:	2304      	movs	r3, #4
     7f6:	e7f6      	b.n	7e6 <TA_InvokeCommandEntryPoint+0x268>
/home/lubuntu/Dokument/GitHub/STM32-Computer/Firmware/STM32-Computer-Firmware/CA7/optee-os-3.19.0-r2/optee-os-stm32mp-3.19.0-stm32mp-r2/ta/pkcs11/src/entry.c:350
     7f8:	462a      	mov	r2, r5
     7fa:	4631      	mov	r1, r6
     7fc:	f005 f80a 	bl	5814 <entry_generate_key_pair>
     800:	e734      	b.n	66c <TA_InvokeCommandEntryPoint+0xee>
/home/lubuntu/Dokument/GitHub/STM32-Computer/Firmware/STM32-Computer-Firmware/CA7/optee-os-3.19.0-r2/optee-os-stm32mp-3.19.0-stm32mp-r2/ta/pkcs11/src/entry.c:353
     802:	462a      	mov	r2, r5
     804:	4631      	mov	r1, r6
     806:	f005 fc3b 	bl	6080 <entry_wrap_key>
     80a:	e72f      	b.n	66c <TA_InvokeCommandEntryPoint+0xee>
/home/lubuntu/Dokument/GitHub/STM32-Computer/Firmware/STM32-Computer-Firmware/CA7/optee-os-3.19.0-r2/optee-os-stm32mp-3.19.0-stm32mp-r2/ta/pkcs11/src/entry.c:356
     80c:	2305      	movs	r3, #5
     80e:	e7dd      	b.n	7cc <TA_InvokeCommandEntryPoint+0x24e>
/home/lubuntu/Dokument/GitHub/STM32-Computer/Firmware/STM32-Computer-Firmware/CA7/optee-os-3.19.0-r2/optee-os-stm32mp-3.19.0-stm32mp-r2/ta/pkcs11/src/entry.c:360
     810:	4b0d      	ldr	r3, [pc, #52]	@ (848 <TA_InvokeCommandEntryPoint+0x2ca>)
     812:	f44f 71b4 	mov.w	r1, #360	@ 0x168
     816:	480d      	ldr	r0, [pc, #52]	@ (84c <TA_InvokeCommandEntryPoint+0x2ce>)
     818:	447b      	add	r3, pc
     81a:	9300      	str	r3, [sp, #0]
     81c:	2301      	movs	r3, #1
     81e:	4478      	add	r0, pc
     820:	461a      	mov	r2, r3
     822:	9401      	str	r4, [sp, #4]
     824:	f009 ffea 	bl	a7fc <trace_printf>
/home/lubuntu/Dokument/GitHub/STM32-Computer/Firmware/STM32-Computer-Firmware/CA7/optee-os-3.19.0-r2/optee-os-stm32mp-3.19.0-stm32mp-r2/ta/pkcs11/src/entry.c:361
     828:	4804      	ldr	r0, [pc, #16]	@ (83c <TA_InvokeCommandEntryPoint+0x2be>)
/home/lubuntu/Dokument/GitHub/STM32-Computer/Firmware/STM32-Computer-Firmware/CA7/optee-os-3.19.0-r2/optee-os-stm32mp-3.19.0-stm32mp-r2/ta/pkcs11/src/entry.c:373
     82a:	b006      	add	sp, #24
     82c:	bd70      	pop	{r4, r5, r6, pc}
/home/lubuntu/Dokument/GitHub/STM32-Computer/Firmware/STM32-Computer-Firmware/CA7/optee-os-3.19.0-r2/optee-os-stm32mp-3.19.0-stm32mp-r2/ta/pkcs11/src/entry.c:124
     82e:	4804      	ldr	r0, [pc, #16]	@ (840 <TA_InvokeCommandEntryPoint+0x2c2>)
     830:	e7fb      	b.n	82a <TA_InvokeCommandEntryPoint+0x2ac>
/home/lubuntu/Dokument/GitHub/STM32-Computer/Firmware/STM32-Computer-Firmware/CA7/optee-os-3.19.0-r2/optee-os-stm32mp-3.19.0-stm32mp-r2/ta/pkcs11/src/entry.c:137
     832:	4804      	ldr	r0, [pc, #16]	@ (844 <TA_InvokeCommandEntryPoint+0x2c6>)
     834:	e7f9      	b.n	82a <TA_InvokeCommandEntryPoint+0x2ac>
     836:	bf00      	nop
     838:	ffff0010 	.word	0xffff0010
     83c:	ffff000a 	.word	0xffff000a
     840:	ffff000f 	.word	0xffff000f
     844:	ffff0006 	.word	0xffff0006
     848:	00013f5d 	.word	0x00013f5d
     84c:	00013f74 	.word	0x00013f74

00000850 <cleanup_volatile_obj_ref>:
cleanup_volatile_obj_ref():
/home/lubuntu/Dokument/GitHub/STM32-Computer/Firmware/STM32-Computer-Firmware/CA7/optee-os-3.19.0-r2/optee-os-stm32mp-3.19.0-stm32mp-r2/ta/pkcs11/src/object.c:84
     850:	b510      	push	{r4, lr}
/home/lubuntu/Dokument/GitHub/STM32-Computer/Firmware/STM32-Computer-Firmware/CA7/optee-os-3.19.0-r2/optee-os-stm32mp-3.19.0-stm32mp-r2/ta/pkcs11/src/object.c:85
     852:	4604      	mov	r4, r0
     854:	b1c0      	cbz	r0, 888 <cleanup_volatile_obj_ref+0x38>
/home/lubuntu/Dokument/GitHub/STM32-Computer/Firmware/STM32-Computer-Firmware/CA7/optee-os-3.19.0-r2/optee-os-stm32mp-3.19.0-stm32mp-r2/ta/pkcs11/src/object.c:88
     856:	6803      	ldr	r3, [r0, #0]
     858:	b10b      	cbz	r3, 85e <cleanup_volatile_obj_ref+0xe>
/home/lubuntu/Dokument/GitHub/STM32-Computer/Firmware/STM32-Computer-Firmware/CA7/optee-os-3.19.0-r2/optee-os-stm32mp-3.19.0-stm32mp-r2/ta/pkcs11/src/object.c:88 (discriminator 1)
     85a:	6842      	ldr	r2, [r0, #4]
     85c:	605a      	str	r2, [r3, #4]
/home/lubuntu/Dokument/GitHub/STM32-Computer/Firmware/STM32-Computer-Firmware/CA7/optee-os-3.19.0-r2/optee-os-stm32mp-3.19.0-stm32mp-r2/ta/pkcs11/src/object.c:88 (discriminator 3)
     85e:	6862      	ldr	r2, [r4, #4]
/home/lubuntu/Dokument/GitHub/STM32-Computer/Firmware/STM32-Computer-Firmware/CA7/optee-os-3.19.0-r2/optee-os-stm32mp-3.19.0-stm32mp-r2/ta/pkcs11/src/object.c:90 (discriminator 3)
     860:	68e0      	ldr	r0, [r4, #12]
/home/lubuntu/Dokument/GitHub/STM32-Computer/Firmware/STM32-Computer-Firmware/CA7/optee-os-3.19.0-r2/optee-os-stm32mp-3.19.0-stm32mp-r2/ta/pkcs11/src/object.c:88 (discriminator 3)
     862:	6013      	str	r3, [r2, #0]
/home/lubuntu/Dokument/GitHub/STM32-Computer/Firmware/STM32-Computer-Firmware/CA7/optee-os-3.19.0-r2/optee-os-stm32mp-3.19.0-stm32mp-r2/ta/pkcs11/src/object.c:90 (discriminator 3)
     864:	b108      	cbz	r0, 86a <cleanup_volatile_obj_ref+0x1a>
/home/lubuntu/Dokument/GitHub/STM32-Computer/Firmware/STM32-Computer-Firmware/CA7/optee-os-3.19.0-r2/optee-os-stm32mp-3.19.0-stm32mp-r2/ta/pkcs11/src/object.c:91
     866:	f00a fc55 	bl	b114 <TEE_FreeTransientObject>
/home/lubuntu/Dokument/GitHub/STM32-Computer/Firmware/STM32-Computer-Firmware/CA7/optee-os-3.19.0-r2/optee-os-stm32mp-3.19.0-stm32mp-r2/ta/pkcs11/src/object.c:93
     86a:	69e0      	ldr	r0, [r4, #28]
     86c:	b108      	cbz	r0, 872 <cleanup_volatile_obj_ref+0x22>
/home/lubuntu/Dokument/GitHub/STM32-Computer/Firmware/STM32-Computer-Firmware/CA7/optee-os-3.19.0-r2/optee-os-stm32mp-3.19.0-stm32mp-r2/ta/pkcs11/src/object.c:94
     86e:	f00a fc27 	bl	b0c0 <TEE_CloseObject>
/home/lubuntu/Dokument/GitHub/STM32-Computer/Firmware/STM32-Computer-Firmware/CA7/optee-os-3.19.0-r2/optee-os-stm32mp-3.19.0-stm32mp-r2/ta/pkcs11/src/object.c:96
     872:	68a0      	ldr	r0, [r4, #8]
     874:	f00a fb12 	bl	ae9c <TEE_Free>
/home/lubuntu/Dokument/GitHub/STM32-Computer/Firmware/STM32-Computer-Firmware/CA7/optee-os-3.19.0-r2/optee-os-stm32mp-3.19.0-stm32mp-r2/ta/pkcs11/src/object.c:97
     878:	69a0      	ldr	r0, [r4, #24]
     87a:	f00a fb0f 	bl	ae9c <TEE_Free>
/home/lubuntu/Dokument/GitHub/STM32-Computer/Firmware/STM32-Computer-Firmware/CA7/optee-os-3.19.0-r2/optee-os-stm32mp-3.19.0-stm32mp-r2/ta/pkcs11/src/object.c:98
     87e:	4620      	mov	r0, r4
/home/lubuntu/Dokument/GitHub/STM32-Computer/Firmware/STM32-Computer-Firmware/CA7/optee-os-3.19.0-r2/optee-os-stm32mp-3.19.0-stm32mp-r2/ta/pkcs11/src/object.c:99
     880:	e8bd 4010 	ldmia.w	sp!, {r4, lr}
/home/lubuntu/Dokument/GitHub/STM32-Computer/Firmware/STM32-Computer-Firmware/CA7/optee-os-3.19.0-r2/optee-os-stm32mp-3.19.0-stm32mp-r2/ta/pkcs11/src/object.c:98
     884:	f00a bb0a 	b.w	ae9c <TEE_Free>
/home/lubuntu/Dokument/GitHub/STM32-Computer/Firmware/STM32-Computer-Firmware/CA7/optee-os-3.19.0-r2/optee-os-stm32mp-3.19.0-stm32mp-r2/ta/pkcs11/src/object.c:99
     888:	bd10      	pop	{r4, pc}

0000088a <get_class>:
get_class():
/home/lubuntu/Dokument/GitHub/STM32-Computer/Firmware/STM32-Computer-Firmware/CA7/optee-os-3.19.0-r2/optee-os-stm32mp-3.19.0-stm32mp-r2/ta/pkcs11/src/attributes.h:237
     88a:	b507      	push	{r0, r1, r2, lr}
/home/lubuntu/Dokument/GitHub/STM32-Computer/Firmware/STM32-Computer-Firmware/CA7/optee-os-3.19.0-r2/optee-os-stm32mp-3.19.0-stm32mp-r2/ta/pkcs11/src/attributes.h:239
     88c:	2304      	movs	r3, #4
     88e:	2100      	movs	r1, #0
/home/lubuntu/Dokument/GitHub/STM32-Computer/Firmware/STM32-Computer-Firmware/CA7/optee-os-3.19.0-r2/optee-os-stm32mp-3.19.0-stm32mp-r2/ta/pkcs11/src/attributes.h:241
     890:	466a      	mov	r2, sp
/home/lubuntu/Dokument/GitHub/STM32-Computer/Firmware/STM32-Computer-Firmware/CA7/optee-os-3.19.0-r2/optee-os-stm32mp-3.19.0-stm32mp-r2/ta/pkcs11/src/attributes.h:239
     892:	e9cd 1300 	strd	r1, r3, [sp]
/home/lubuntu/Dokument/GitHub/STM32-Computer/Firmware/STM32-Computer-Firmware/CA7/optee-os-3.19.0-r2/optee-os-stm32mp-3.19.0-stm32mp-r2/ta/pkcs11/src/attributes.h:241
     896:	446b      	add	r3, sp
     898:	f7ff fc96 	bl	1c8 <get_attribute>
     89c:	b918      	cbnz	r0, 8a6 <get_class+0x1c>
/home/lubuntu/Dokument/GitHub/STM32-Computer/Firmware/STM32-Computer-Firmware/CA7/optee-os-3.19.0-r2/optee-os-stm32mp-3.19.0-stm32mp-r2/ta/pkcs11/src/attributes.h:244
     89e:	9800      	ldr	r0, [sp, #0]
/home/lubuntu/Dokument/GitHub/STM32-Computer/Firmware/STM32-Computer-Firmware/CA7/optee-os-3.19.0-r2/optee-os-stm32mp-3.19.0-stm32mp-r2/ta/pkcs11/src/attributes.h:245
     8a0:	b003      	add	sp, #12
     8a2:	f85d fb04 	ldr.w	pc, [sp], #4
/home/lubuntu/Dokument/GitHub/STM32-Computer/Firmware/STM32-Computer-Firmware/CA7/optee-os-3.19.0-r2/optee-os-stm32mp-3.19.0-stm32mp-r2/ta/pkcs11/src/attributes.h:242
     8a6:	f04f 30ff 	mov.w	r0, #4294967295	@ 0xffffffff
     8aa:	e7f9      	b.n	8a0 <get_class+0x16>

000008ac <find_ctx_add>:
find_ctx_add():
/home/lubuntu/Dokument/GitHub/STM32-Computer/Firmware/STM32-Computer-Firmware/CA7/optee-os-3.19.0-r2/optee-os-stm32mp-3.19.0-stm32mp-r2/ta/pkcs11/src/object.c:473
     8ac:	b538      	push	{r3, r4, r5, lr}
     8ae:	460d      	mov	r5, r1
/home/lubuntu/Dokument/GitHub/STM32-Computer/Firmware/STM32-Computer-Firmware/CA7/optee-os-3.19.0-r2/optee-os-stm32mp-3.19.0-stm32mp-r2/ta/pkcs11/src/object.c:475
     8b0:	6841      	ldr	r1, [r0, #4]
/home/lubuntu/Dokument/GitHub/STM32-Computer/Firmware/STM32-Computer-Firmware/CA7/optee-os-3.19.0-r2/optee-os-stm32mp-3.19.0-stm32mp-r2/ta/pkcs11/src/object.c:473
     8b2:	4604      	mov	r4, r0
/home/lubuntu/Dokument/GitHub/STM32-Computer/Firmware/STM32-Computer-Firmware/CA7/optee-os-3.19.0-r2/optee-os-stm32mp-3.19.0-stm32mp-r2/ta/pkcs11/src/object.c:474
     8b4:	6880      	ldr	r0, [r0, #8]
/home/lubuntu/Dokument/GitHub/STM32-Computer/Firmware/STM32-Computer-Firmware/CA7/optee-os-3.19.0-r2/optee-os-stm32mp-3.19.0-stm32mp-r2/ta/pkcs11/src/object.c:475
     8b6:	3101      	adds	r1, #1
/home/lubuntu/Dokument/GitHub/STM32-Computer/Firmware/STM32-Computer-Firmware/CA7/optee-os-3.19.0-r2/optee-os-stm32mp-3.19.0-stm32mp-r2/ta/pkcs11/src/object.c:474
     8b8:	0089      	lsls	r1, r1, #2
     8ba:	f00a faf4 	bl	aea6 <TEE_Realloc>
/home/lubuntu/Dokument/GitHub/STM32-Computer/Firmware/STM32-Computer-Firmware/CA7/optee-os-3.19.0-r2/optee-os-stm32mp-3.19.0-stm32mp-r2/ta/pkcs11/src/object.c:477
     8be:	b140      	cbz	r0, 8d2 <find_ctx_add+0x26>
/home/lubuntu/Dokument/GitHub/STM32-Computer/Firmware/STM32-Computer-Firmware/CA7/optee-os-3.19.0-r2/optee-os-stm32mp-3.19.0-stm32mp-r2/ta/pkcs11/src/object.c:482
     8c0:	6863      	ldr	r3, [r4, #4]
/home/lubuntu/Dokument/GitHub/STM32-Computer/Firmware/STM32-Computer-Firmware/CA7/optee-os-3.19.0-r2/optee-os-stm32mp-3.19.0-stm32mp-r2/ta/pkcs11/src/object.c:480
     8c2:	60a0      	str	r0, [r4, #8]
/home/lubuntu/Dokument/GitHub/STM32-Computer/Firmware/STM32-Computer-Firmware/CA7/optee-os-3.19.0-r2/optee-os-stm32mp-3.19.0-stm32mp-r2/ta/pkcs11/src/object.c:482
     8c4:	f840 5023 	str.w	r5, [r0, r3, lsl #2]
/home/lubuntu/Dokument/GitHub/STM32-Computer/Firmware/STM32-Computer-Firmware/CA7/optee-os-3.19.0-r2/optee-os-stm32mp-3.19.0-stm32mp-r2/ta/pkcs11/src/object.c:485
     8c8:	2000      	movs	r0, #0
/home/lubuntu/Dokument/GitHub/STM32-Computer/Firmware/STM32-Computer-Firmware/CA7/optee-os-3.19.0-r2/optee-os-stm32mp-3.19.0-stm32mp-r2/ta/pkcs11/src/object.c:483
     8ca:	6863      	ldr	r3, [r4, #4]
     8cc:	3301      	adds	r3, #1
     8ce:	6063      	str	r3, [r4, #4]
/home/lubuntu/Dokument/GitHub/STM32-Computer/Firmware/STM32-Computer-Firmware/CA7/optee-os-3.19.0-r2/optee-os-stm32mp-3.19.0-stm32mp-r2/ta/pkcs11/src/object.c:486
     8d0:	bd38      	pop	{r3, r4, r5, pc}
/home/lubuntu/Dokument/GitHub/STM32-Computer/Firmware/STM32-Computer-Firmware/CA7/optee-os-3.19.0-r2/optee-os-stm32mp-3.19.0-stm32mp-r2/ta/pkcs11/src/object.c:478
     8d2:	2031      	movs	r0, #49	@ 0x31
     8d4:	e7fc      	b.n	8d0 <find_ctx_add+0x24>

000008d6 <pkcs11_handle2object>:
pkcs11_handle2object():
/home/lubuntu/Dokument/GitHub/STM32-Computer/Firmware/STM32-Computer-Firmware/CA7/optee-os-3.19.0-r2/optee-os-stm32mp-3.19.0-stm32mp-r2/ta/pkcs11/src/object.c:35
     8d6:	b538      	push	{r3, r4, r5, lr}
     8d8:	4605      	mov	r5, r0
/home/lubuntu/Dokument/GitHub/STM32-Computer/Firmware/STM32-Computer-Firmware/CA7/optee-os-3.19.0-r2/optee-os-stm32mp-3.19.0-stm32mp-r2/ta/pkcs11/src/object.c:38
     8da:	4608      	mov	r0, r1
/home/lubuntu/Dokument/GitHub/STM32-Computer/Firmware/STM32-Computer-Firmware/CA7/optee-os-3.19.0-r2/optee-os-stm32mp-3.19.0-stm32mp-r2/ta/pkcs11/src/object.c:35
     8dc:	460c      	mov	r4, r1
/home/lubuntu/Dokument/GitHub/STM32-Computer/Firmware/STM32-Computer-Firmware/CA7/optee-os-3.19.0-r2/optee-os-stm32mp-3.19.0-stm32mp-r2/ta/pkcs11/src/object.c:38
     8de:	f003 fdf1 	bl	44c4 <get_object_handle_db>
     8e2:	4629      	mov	r1, r5
     8e4:	f012 fcad 	bl	13242 <handle_lookup>
/home/lubuntu/Dokument/GitHub/STM32-Computer/Firmware/STM32-Computer-Firmware/CA7/optee-os-3.19.0-r2/optee-os-stm32mp-3.19.0-stm32mp-r2/ta/pkcs11/src/object.c:39
     8e8:	b128      	cbz	r0, 8f6 <pkcs11_handle2object+0x20>
/home/lubuntu/Dokument/GitHub/STM32-Computer/Firmware/STM32-Computer-Firmware/CA7/optee-os-3.19.0-r2/optee-os-stm32mp-3.19.0-stm32mp-r2/ta/pkcs11/src/object.c:46
     8ea:	6943      	ldr	r3, [r0, #20]
     8ec:	b11b      	cbz	r3, 8f6 <pkcs11_handle2object+0x20>
/home/lubuntu/Dokument/GitHub/STM32-Computer/Firmware/STM32-Computer-Firmware/CA7/optee-os-3.19.0-r2/optee-os-stm32mp-3.19.0-stm32mp-r2/ta/pkcs11/src/object.c:53
     8ee:	68e2      	ldr	r2, [r4, #12]
/home/lubuntu/Dokument/GitHub/STM32-Computer/Firmware/STM32-Computer-Firmware/CA7/optee-os-3.19.0-r2/optee-os-stm32mp-3.19.0-stm32mp-r2/ta/pkcs11/src/object.c:40
     8f0:	4293      	cmp	r3, r2
     8f2:	bf18      	it	ne
     8f4:	2000      	movne	r0, #0
/home/lubuntu/Dokument/GitHub/STM32-Computer/Firmware/STM32-Computer-Firmware/CA7/optee-os-3.19.0-r2/optee-os-stm32mp-3.19.0-stm32mp-r2/ta/pkcs11/src/object.c:57
     8f6:	bd38      	pop	{r3, r4, r5, pc}

000008f8 <pkcs11_object2handle>:
pkcs11_object2handle():
/home/lubuntu/Dokument/GitHub/STM32-Computer/Firmware/STM32-Computer-Firmware/CA7/optee-os-3.19.0-r2/optee-os-stm32mp-3.19.0-stm32mp-r2/ta/pkcs11/src/object.c:61
     8f8:	b510      	push	{r4, lr}
     8fa:	4604      	mov	r4, r0
/home/lubuntu/Dokument/GitHub/STM32-Computer/Firmware/STM32-Computer-Firmware/CA7/optee-os-3.19.0-r2/optee-os-stm32mp-3.19.0-stm32mp-r2/ta/pkcs11/src/object.c:62
     8fc:	4608      	mov	r0, r1
     8fe:	f003 fde1 	bl	44c4 <get_object_handle_db>
     902:	4621      	mov	r1, r4
/home/lubuntu/Dokument/GitHub/STM32-Computer/Firmware/STM32-Computer-Firmware/CA7/optee-os-3.19.0-r2/optee-os-stm32mp-3.19.0-stm32mp-r2/ta/pkcs11/src/object.c:63
     904:	e8bd 4010 	ldmia.w	sp!, {r4, lr}
/home/lubuntu/Dokument/GitHub/STM32-Computer/Firmware/STM32-Computer-Firmware/CA7/optee-os-3.19.0-r2/optee-os-stm32mp-3.19.0-stm32mp-r2/ta/pkcs11/src/object.c:62
     908:	f012 bca6 	b.w	13258 <handle_lookup_handle>

0000090c <cleanup_persistent_object>:
cleanup_persistent_object():
/home/lubuntu/Dokument/GitHub/STM32-Computer/Firmware/STM32-Computer-Firmware/CA7/optee-os-3.19.0-r2/optee-os-stm32mp-3.19.0-stm32mp-r2/ta/pkcs11/src/object.c:104
     90c:	b537      	push	{r0, r1, r2, r4, r5, lr}
     90e:	460d      	mov	r5, r1
/home/lubuntu/Dokument/GitHub/STM32-Computer/Firmware/STM32-Computer-Firmware/CA7/optee-os-3.19.0-r2/optee-os-stm32mp-3.19.0-stm32mp-r2/ta/pkcs11/src/object.c:107
     910:	4604      	mov	r4, r0
     912:	b1d8      	cbz	r0, 94c <cleanup_persistent_object+0x40>
/home/lubuntu/Dokument/GitHub/STM32-Computer/Firmware/STM32-Computer-Firmware/CA7/optee-os-3.19.0-r2/optee-os-stm32mp-3.19.0-stm32mp-r2/ta/pkcs11/src/object.c:111
     914:	69c0      	ldr	r0, [r0, #28]
     916:	b108      	cbz	r0, 91c <cleanup_persistent_object+0x10>
/home/lubuntu/Dokument/GitHub/STM32-Computer/Firmware/STM32-Computer-Firmware/CA7/optee-os-3.19.0-r2/optee-os-stm32mp-3.19.0-stm32mp-r2/ta/pkcs11/src/object.c:112
     918:	f00a fbd2 	bl	b0c0 <TEE_CloseObject>
/home/lubuntu/Dokument/GitHub/STM32-Computer/Firmware/STM32-Computer-Firmware/CA7/optee-os-3.19.0-r2/optee-os-stm32mp-3.19.0-stm32mp-r2/ta/pkcs11/src/object.c:114
     91c:	f104 031c 	add.w	r3, r4, #28
     920:	2210      	movs	r2, #16
     922:	9300      	str	r3, [sp, #0]
     924:	2001      	movs	r0, #1
     926:	69a1      	ldr	r1, [r4, #24]
     928:	2304      	movs	r3, #4
     92a:	f00a fcf7 	bl	b31c <TEE_OpenPersistentObject>
/home/lubuntu/Dokument/GitHub/STM32-Computer/Firmware/STM32-Computer-Firmware/CA7/optee-os-3.19.0-r2/optee-os-stm32mp-3.19.0-stm32mp-r2/ta/pkcs11/src/object.c:118
     92e:	b910      	cbnz	r0, 936 <cleanup_persistent_object+0x2a>
/home/lubuntu/Dokument/GitHub/STM32-Computer/Firmware/STM32-Computer-Firmware/CA7/optee-os-3.19.0-r2/optee-os-stm32mp-3.19.0-stm32mp-r2/ta/pkcs11/src/object.c:119
     930:	69e0      	ldr	r0, [r4, #28]
     932:	f00a fd6f 	bl	b414 <TEE_CloseAndDeletePersistentObject1>
/home/lubuntu/Dokument/GitHub/STM32-Computer/Firmware/STM32-Computer-Firmware/CA7/optee-os-3.19.0-r2/optee-os-stm32mp-3.19.0-stm32mp-r2/ta/pkcs11/src/object.c:121
     936:	2300      	movs	r3, #0
/home/lubuntu/Dokument/GitHub/STM32-Computer/Firmware/STM32-Computer-Firmware/CA7/optee-os-3.19.0-r2/optee-os-stm32mp-3.19.0-stm32mp-r2/ta/pkcs11/src/object.c:122
     938:	4628      	mov	r0, r5
/home/lubuntu/Dokument/GitHub/STM32-Computer/Firmware/STM32-Computer-Firmware/CA7/optee-os-3.19.0-r2/optee-os-stm32mp-3.19.0-stm32mp-r2/ta/pkcs11/src/object.c:121
     93a:	61e3      	str	r3, [r4, #28]
/home/lubuntu/Dokument/GitHub/STM32-Computer/Firmware/STM32-Computer-Firmware/CA7/optee-os-3.19.0-r2/optee-os-stm32mp-3.19.0-stm32mp-r2/ta/pkcs11/src/object.c:122
     93c:	4621      	mov	r1, r4
     93e:	f001 f86b 	bl	1a18 <destroy_object_uuid>
/home/lubuntu/Dokument/GitHub/STM32-Computer/Firmware/STM32-Computer-Firmware/CA7/optee-os-3.19.0-r2/optee-os-stm32mp-3.19.0-stm32mp-r2/ta/pkcs11/src/object.c:124
     942:	4620      	mov	r0, r4
/home/lubuntu/Dokument/GitHub/STM32-Computer/Firmware/STM32-Computer-Firmware/CA7/optee-os-3.19.0-r2/optee-os-stm32mp-3.19.0-stm32mp-r2/ta/pkcs11/src/object.c:125
     944:	b003      	add	sp, #12
     946:	e8bd 4030 	ldmia.w	sp!, {r4, r5, lr}
/home/lubuntu/Dokument/GitHub/STM32-Computer/Firmware/STM32-Computer-Firmware/CA7/optee-os-3.19.0-r2/optee-os-stm32mp-3.19.0-stm32mp-r2/ta/pkcs11/src/object.c:124
     94a:	e781      	b.n	850 <cleanup_volatile_obj_ref>
/home/lubuntu/Dokument/GitHub/STM32-Computer/Firmware/STM32-Computer-Firmware/CA7/optee-os-3.19.0-r2/optee-os-stm32mp-3.19.0-stm32mp-r2/ta/pkcs11/src/object.c:125
     94c:	b003      	add	sp, #12
     94e:	bd30      	pop	{r4, r5, pc}

00000950 <destroy_object>:
destroy_object():
/home/lubuntu/Dokument/GitHub/STM32-Computer/Firmware/STM32-Computer-Firmware/CA7/optee-os-3.19.0-r2/optee-os-stm32mp-3.19.0-stm32mp-r2/ta/pkcs11/src/object.c:136
     950:	b570      	push	{r4, r5, r6, lr}
     952:	4605      	mov	r5, r0
     954:	460c      	mov	r4, r1
/home/lubuntu/Dokument/GitHub/STM32-Computer/Firmware/STM32-Computer-Firmware/CA7/optee-os-3.19.0-r2/optee-os-stm32mp-3.19.0-stm32mp-r2/ta/pkcs11/src/object.c:143
     956:	4616      	mov	r6, r2
     958:	b172      	cbz	r2, 978 <destroy_object+0x28>
/home/lubuntu/Dokument/GitHub/STM32-Computer/Firmware/STM32-Computer-Firmware/CA7/optee-os-3.19.0-r2/optee-os-stm32mp-3.19.0-stm32mp-r2/ta/pkcs11/src/object.c:164
     95a:	f003 fdb3 	bl	44c4 <get_object_handle_db>
     95e:	4606      	mov	r6, r0
     960:	4629      	mov	r1, r5
     962:	4620      	mov	r0, r4
     964:	f7ff ffc8 	bl	8f8 <pkcs11_object2handle>
     968:	4601      	mov	r1, r0
     96a:	4630      	mov	r0, r6
     96c:	f012 fc5b 	bl	13226 <handle_put>
/home/lubuntu/Dokument/GitHub/STM32-Computer/Firmware/STM32-Computer-Firmware/CA7/optee-os-3.19.0-r2/optee-os-stm32mp-3.19.0-stm32mp-r2/ta/pkcs11/src/object.c:166
     970:	4620      	mov	r0, r4
/home/lubuntu/Dokument/GitHub/STM32-Computer/Firmware/STM32-Computer-Firmware/CA7/optee-os-3.19.0-r2/optee-os-stm32mp-3.19.0-stm32mp-r2/ta/pkcs11/src/object.c:168
     972:	e8bd 4070 	ldmia.w	sp!, {r4, r5, r6, lr}
/home/lubuntu/Dokument/GitHub/STM32-Computer/Firmware/STM32-Computer-Firmware/CA7/optee-os-3.19.0-r2/optee-os-stm32mp-3.19.0-stm32mp-r2/ta/pkcs11/src/object.c:166
     976:	e76b      	b.n	850 <cleanup_volatile_obj_ref>
/home/lubuntu/Dokument/GitHub/STM32-Computer/Firmware/STM32-Computer-Firmware/CA7/optee-os-3.19.0-r2/optee-os-stm32mp-3.19.0-stm32mp-r2/ta/pkcs11/src/object.c:153
     978:	68a0      	ldr	r0, [r4, #8]
     97a:	2101      	movs	r1, #1
     97c:	f7ff fc8f 	bl	29e <get_bool>
     980:	b350      	cbz	r0, 9d8 <destroy_object+0x88>
/home/lubuntu/Dokument/GitHub/STM32-Computer/Firmware/STM32-Computer-Firmware/CA7/optee-os-3.19.0-r2/optee-os-stm32mp-3.19.0-stm32mp-r2/ta/pkcs11/src/object.c:154
     982:	69a1      	ldr	r1, [r4, #24]
     984:	b951      	cbnz	r1, 99c <destroy_object+0x4c>
_assert_trap():
/home/lubuntu/Dokument/GitHub/STM32-Computer/Firmware/STM32-Computer-Firmware/CA7/optee-os-3.19.0-r2/optee-os-stm32mp-3.19.0-stm32mp-r2/../build/stm32mp135f-dk/export-ta_arm32/include/assert.h:19
     986:	4b15      	ldr	r3, [pc, #84]	@ (9dc <destroy_object+0x8c>)
     988:	229a      	movs	r2, #154	@ 0x9a
     98a:	4915      	ldr	r1, [pc, #84]	@ (9e0 <destroy_object+0x90>)
     98c:	4815      	ldr	r0, [pc, #84]	@ (9e4 <destroy_object+0x94>)
     98e:	447b      	add	r3, pc
     990:	4479      	add	r1, pc
     992:	4478      	add	r0, pc
     994:	f009 ff58 	bl	a848 <_assert_log>
/home/lubuntu/Dokument/GitHub/STM32-Computer/Firmware/STM32-Computer-Firmware/CA7/optee-os-3.19.0-r2/optee-os-stm32mp-3.19.0-stm32mp-r2/../build/stm32mp135f-dk/export-ta_arm32/include/assert.h:20
     998:	f009 ff6a 	bl	a870 <_assert_break>
destroy_object():
/home/lubuntu/Dokument/GitHub/STM32-Computer/Firmware/STM32-Computer-Firmware/CA7/optee-os-3.19.0-r2/optee-os-stm32mp-3.19.0-stm32mp-r2/ta/pkcs11/src/object.c:156
     99c:	68e8      	ldr	r0, [r5, #12]
     99e:	f001 f870 	bl	1a82 <unregister_persistent_object>
     9a2:	b138      	cbz	r0, 9b4 <destroy_object+0x64>
/home/lubuntu/Dokument/GitHub/STM32-Computer/Firmware/STM32-Computer-Firmware/CA7/optee-os-3.19.0-r2/optee-os-stm32mp-3.19.0-stm32mp-r2/ta/pkcs11/src/object.c:157
     9a4:	69a1      	ldr	r1, [r4, #24]
     9a6:	68e8      	ldr	r0, [r5, #12]
     9a8:	f001 f86b 	bl	1a82 <unregister_persistent_object>
/home/lubuntu/Dokument/GitHub/STM32-Computer/Firmware/STM32-Computer-Firmware/CA7/optee-os-3.19.0-r2/optee-os-stm32mp-3.19.0-stm32mp-r2/ta/pkcs11/src/object.c:156
     9ac:	b110      	cbz	r0, 9b4 <destroy_object+0x64>
/home/lubuntu/Dokument/GitHub/STM32-Computer/Firmware/STM32-Computer-Firmware/CA7/optee-os-3.19.0-r2/optee-os-stm32mp-3.19.0-stm32mp-r2/ta/pkcs11/src/object.c:158
     9ae:	4630      	mov	r0, r6
     9b0:	f00c fd14 	bl	d3dc <TEE_Panic>
/home/lubuntu/Dokument/GitHub/STM32-Computer/Firmware/STM32-Computer-Firmware/CA7/optee-os-3.19.0-r2/optee-os-stm32mp-3.19.0-stm32mp-r2/ta/pkcs11/src/object.c:160
     9b4:	4628      	mov	r0, r5
     9b6:	f003 fd85 	bl	44c4 <get_object_handle_db>
     9ba:	4606      	mov	r6, r0
     9bc:	4629      	mov	r1, r5
     9be:	4620      	mov	r0, r4
     9c0:	f7ff ff9a 	bl	8f8 <pkcs11_object2handle>
     9c4:	4601      	mov	r1, r0
     9c6:	4630      	mov	r0, r6
     9c8:	f012 fc2d 	bl	13226 <handle_put>
/home/lubuntu/Dokument/GitHub/STM32-Computer/Firmware/STM32-Computer-Firmware/CA7/optee-os-3.19.0-r2/optee-os-stm32mp-3.19.0-stm32mp-r2/ta/pkcs11/src/object.c:162
     9cc:	68e9      	ldr	r1, [r5, #12]
     9ce:	4620      	mov	r0, r4
/home/lubuntu/Dokument/GitHub/STM32-Computer/Firmware/STM32-Computer-Firmware/CA7/optee-os-3.19.0-r2/optee-os-stm32mp-3.19.0-stm32mp-r2/ta/pkcs11/src/object.c:168
     9d0:	e8bd 4070 	ldmia.w	sp!, {r4, r5, r6, lr}
/home/lubuntu/Dokument/GitHub/STM32-Computer/Firmware/STM32-Computer-Firmware/CA7/optee-os-3.19.0-r2/optee-os-stm32mp-3.19.0-stm32mp-r2/ta/pkcs11/src/object.c:162
     9d4:	f7ff bf9a 	b.w	90c <cleanup_persistent_object>
/home/lubuntu/Dokument/GitHub/STM32-Computer/Firmware/STM32-Computer-Firmware/CA7/optee-os-3.19.0-r2/optee-os-stm32mp-3.19.0-stm32mp-r2/ta/pkcs11/src/object.c:164
     9d8:	4628      	mov	r0, r5
     9da:	e7be      	b.n	95a <destroy_object+0xa>
     9dc:	00013e8d 	.word	0x00013e8d
     9e0:	00013e1d 	.word	0x00013e1d
     9e4:	00014025 	.word	0x00014025

000009e8 <create_token_object>:
create_token_object():
/home/lubuntu/Dokument/GitHub/STM32-Computer/Firmware/STM32-Computer-Firmware/CA7/optee-os-3.19.0-r2/optee-os-stm32mp-3.19.0-stm32mp-r2/ta/pkcs11/src/object.c:190
     9e8:	b570      	push	{r4, r5, r6, lr}
     9ea:	4606      	mov	r6, r0
     9ec:	460c      	mov	r4, r1
create_obj_instance():
/home/lubuntu/Dokument/GitHub/STM32-Computer/Firmware/STM32-Computer-Firmware/CA7/optee-os-3.19.0-r2/optee-os-stm32mp-3.19.0-stm32mp-r2/ta/pkcs11/src/object.c:175
     9ee:	2020      	movs	r0, #32
     9f0:	2100      	movs	r1, #0
create_token_object():
/home/lubuntu/Dokument/GitHub/STM32-Computer/Firmware/STM32-Computer-Firmware/CA7/optee-os-3.19.0-r2/optee-os-stm32mp-3.19.0-stm32mp-r2/ta/pkcs11/src/object.c:190
     9f2:	4615      	mov	r5, r2
create_obj_instance():
/home/lubuntu/Dokument/GitHub/STM32-Computer/Firmware/STM32-Computer-Firmware/CA7/optee-os-3.19.0-r2/optee-os-stm32mp-3.19.0-stm32mp-r2/ta/pkcs11/src/object.c:175
     9f4:	f00a fa29 	bl	ae4a <TEE_Malloc>
/home/lubuntu/Dokument/GitHub/STM32-Computer/Firmware/STM32-Computer-Firmware/CA7/optee-os-3.19.0-r2/optee-os-stm32mp-3.19.0-stm32mp-r2/ta/pkcs11/src/object.c:176
     9f8:	b128      	cbz	r0, a06 <create_token_object+0x1e>
/home/lubuntu/Dokument/GitHub/STM32-Computer/Firmware/STM32-Computer-Firmware/CA7/optee-os-3.19.0-r2/optee-os-stm32mp-3.19.0-stm32mp-r2/ta/pkcs11/src/object.c:181
     9fa:	6086      	str	r6, [r0, #8]
/home/lubuntu/Dokument/GitHub/STM32-Computer/Firmware/STM32-Computer-Firmware/CA7/optee-os-3.19.0-r2/optee-os-stm32mp-3.19.0-stm32mp-r2/ta/pkcs11/src/object.c:179
     9fc:	2300      	movs	r3, #0
     9fe:	60c3      	str	r3, [r0, #12]
/home/lubuntu/Dokument/GitHub/STM32-Computer/Firmware/STM32-Computer-Firmware/CA7/optee-os-3.19.0-r2/optee-os-stm32mp-3.19.0-stm32mp-r2/ta/pkcs11/src/object.c:180
     a00:	61c3      	str	r3, [r0, #28]
/home/lubuntu/Dokument/GitHub/STM32-Computer/Firmware/STM32-Computer-Firmware/CA7/optee-os-3.19.0-r2/optee-os-stm32mp-3.19.0-stm32mp-r2/ta/pkcs11/src/object.c:182
     a02:	6145      	str	r5, [r0, #20]
create_token_object():
/home/lubuntu/Dokument/GitHub/STM32-Computer/Firmware/STM32-Computer-Firmware/CA7/optee-os-3.19.0-r2/optee-os-stm32mp-3.19.0-stm32mp-r2/ta/pkcs11/src/object.c:194
     a04:	6184      	str	r4, [r0, #24]
/home/lubuntu/Dokument/GitHub/STM32-Computer/Firmware/STM32-Computer-Firmware/CA7/optee-os-3.19.0-r2/optee-os-stm32mp-3.19.0-stm32mp-r2/ta/pkcs11/src/object.c:197
     a06:	bd70      	pop	{r4, r5, r6, pc}

00000a08 <create_object>:
create_object():
/home/lubuntu/Dokument/GitHub/STM32-Computer/Firmware/STM32-Computer-Firmware/CA7/optee-os-3.19.0-r2/optee-os-stm32mp-3.19.0-stm32mp-r2/ta/pkcs11/src/object.c:208
     a08:	e92d 47ff 	stmdb	sp!, {r0, r1, r2, r3, r4, r5, r6, r7, r8, r9, sl, lr}
     a0c:	4605      	mov	r5, r0
     a0e:	4e46      	ldr	r6, [pc, #280]	@ (b28 <create_object+0x120>)
     a10:	4688      	mov	r8, r1
create_obj_instance():
/home/lubuntu/Dokument/GitHub/STM32-Computer/Firmware/STM32-Computer-Firmware/CA7/optee-os-3.19.0-r2/optee-os-stm32mp-3.19.0-stm32mp-r2/ta/pkcs11/src/object.c:175
     a12:	2020      	movs	r0, #32
     a14:	2100      	movs	r1, #0
create_object():
/home/lubuntu/Dokument/GitHub/STM32-Computer/Firmware/STM32-Computer-Firmware/CA7/optee-os-3.19.0-r2/optee-os-stm32mp-3.19.0-stm32mp-r2/ta/pkcs11/src/object.c:208
     a16:	447e      	add	r6, pc
     a18:	4691      	mov	r9, r2
create_obj_instance():
/home/lubuntu/Dokument/GitHub/STM32-Computer/Firmware/STM32-Computer-Firmware/CA7/optee-os-3.19.0-r2/optee-os-stm32mp-3.19.0-stm32mp-r2/ta/pkcs11/src/object.c:175
     a1a:	f00a fa16 	bl	ae4a <TEE_Malloc>
/home/lubuntu/Dokument/GitHub/STM32-Computer/Firmware/STM32-Computer-Firmware/CA7/optee-os-3.19.0-r2/optee-os-stm32mp-3.19.0-stm32mp-r2/ta/pkcs11/src/object.c:176
     a1e:	4604      	mov	r4, r0
     a20:	2800      	cmp	r0, #0
     a22:	d07e      	beq.n	b22 <create_object+0x11a>
/home/lubuntu/Dokument/GitHub/STM32-Computer/Firmware/STM32-Computer-Firmware/CA7/optee-os-3.19.0-r2/optee-os-stm32mp-3.19.0-stm32mp-r2/ta/pkcs11/src/object.c:181
     a24:	f8c0 8008 	str.w	r8, [r0, #8]
/home/lubuntu/Dokument/GitHub/STM32-Computer/Firmware/STM32-Computer-Firmware/CA7/optee-os-3.19.0-r2/optee-os-stm32mp-3.19.0-stm32mp-r2/ta/pkcs11/src/object.c:179
     a28:	2300      	movs	r3, #0
     a2a:	60c3      	str	r3, [r0, #12]
/home/lubuntu/Dokument/GitHub/STM32-Computer/Firmware/STM32-Computer-Firmware/CA7/optee-os-3.19.0-r2/optee-os-stm32mp-3.19.0-stm32mp-r2/ta/pkcs11/src/object.c:180
     a2c:	61c3      	str	r3, [r0, #28]
/home/lubuntu/Dokument/GitHub/STM32-Computer/Firmware/STM32-Computer-Firmware/CA7/optee-os-3.19.0-r2/optee-os-stm32mp-3.19.0-stm32mp-r2/ta/pkcs11/src/object.c:182
     a2e:	6143      	str	r3, [r0, #20]
create_object():
/home/lubuntu/Dokument/GitHub/STM32-Computer/Firmware/STM32-Computer-Firmware/CA7/optee-os-3.19.0-r2/optee-os-stm32mp-3.19.0-stm32mp-r2/ta/pkcs11/src/object.c:227
     a30:	4b3e      	ldr	r3, [pc, #248]	@ (b2c <create_object+0x124>)
     a32:	58f3      	ldr	r3, [r6, r3]
     a34:	681a      	ldr	r2, [r3, #0]
     a36:	6002      	str	r2, [r0, #0]
     a38:	b102      	cbz	r2, a3c <create_object+0x34>
/home/lubuntu/Dokument/GitHub/STM32-Computer/Firmware/STM32-Computer-Firmware/CA7/optee-os-3.19.0-r2/optee-os-stm32mp-3.19.0-stm32mp-r2/ta/pkcs11/src/object.c:227 (discriminator 1)
     a3a:	6050      	str	r0, [r2, #4]
/home/lubuntu/Dokument/GitHub/STM32-Computer/Firmware/STM32-Computer-Firmware/CA7/optee-os-3.19.0-r2/optee-os-stm32mp-3.19.0-stm32mp-r2/ta/pkcs11/src/object.c:227 (discriminator 3)
     a3c:	6063      	str	r3, [r4, #4]
/home/lubuntu/Dokument/GitHub/STM32-Computer/Firmware/STM32-Computer-Firmware/CA7/optee-os-3.19.0-r2/optee-os-stm32mp-3.19.0-stm32mp-r2/ta/pkcs11/src/object.c:230 (discriminator 3)
     a3e:	4628      	mov	r0, r5
/home/lubuntu/Dokument/GitHub/STM32-Computer/Firmware/STM32-Computer-Firmware/CA7/optee-os-3.19.0-r2/optee-os-stm32mp-3.19.0-stm32mp-r2/ta/pkcs11/src/object.c:227 (discriminator 3)
     a40:	601c      	str	r4, [r3, #0]
/home/lubuntu/Dokument/GitHub/STM32-Computer/Firmware/STM32-Computer-Firmware/CA7/optee-os-3.19.0-r2/optee-os-stm32mp-3.19.0-stm32mp-r2/ta/pkcs11/src/object.c:230 (discriminator 3)
     a42:	f003 fd3f 	bl	44c4 <get_object_handle_db>
     a46:	4621      	mov	r1, r4
     a48:	f012 fbc0 	bl	131cc <handle_get>
/home/lubuntu/Dokument/GitHub/STM32-Computer/Firmware/STM32-Computer-Firmware/CA7/optee-os-3.19.0-r2/optee-os-stm32mp-3.19.0-stm32mp-r2/ta/pkcs11/src/object.c:231 (discriminator 3)
     a4c:	4607      	mov	r7, r0
     a4e:	2800      	cmp	r0, #0
     a50:	d061      	beq.n	b16 <create_object+0x10e>
/home/lubuntu/Dokument/GitHub/STM32-Computer/Firmware/STM32-Computer-Firmware/CA7/optee-os-3.19.0-r2/optee-os-stm32mp-3.19.0-stm32mp-r2/ta/pkcs11/src/object.c:236
     a52:	68a0      	ldr	r0, [r4, #8]
     a54:	2101      	movs	r1, #1
     a56:	f7ff fc22 	bl	29e <get_bool>
     a5a:	2800      	cmp	r0, #0
     a5c:	d04e      	beq.n	afc <create_object+0xf4>
/home/lubuntu/Dokument/GitHub/STM32-Computer/Firmware/STM32-Computer-Firmware/CA7/optee-os-3.19.0-r2/optee-os-stm32mp-3.19.0-stm32mp-r2/ta/pkcs11/src/object.c:246
     a5e:	68a3      	ldr	r3, [r4, #8]
/home/lubuntu/Dokument/GitHub/STM32-Computer/Firmware/STM32-Computer-Firmware/CA7/optee-os-3.19.0-r2/optee-os-stm32mp-3.19.0-stm32mp-r2/ta/pkcs11/src/object.c:251
     a60:	4621      	mov	r1, r4
     a62:	68e8      	ldr	r0, [r5, #12]
/home/lubuntu/Dokument/GitHub/STM32-Computer/Firmware/STM32-Computer-Firmware/CA7/optee-os-3.19.0-r2/optee-os-stm32mp-3.19.0-stm32mp-r2/ta/pkcs11/src/object.c:246
     a64:	f8d3 a000 	ldr.w	sl, [r3]
/home/lubuntu/Dokument/GitHub/STM32-Computer/Firmware/STM32-Computer-Firmware/CA7/optee-os-3.19.0-r2/optee-os-stm32mp-3.19.0-stm32mp-r2/ta/pkcs11/src/object.c:251
     a68:	f000 ffa7 	bl	19ba <create_object_uuid>
/home/lubuntu/Dokument/GitHub/STM32-Computer/Firmware/STM32-Computer-Firmware/CA7/optee-os-3.19.0-r2/optee-os-stm32mp-3.19.0-stm32mp-r2/ta/pkcs11/src/object.c:252
     a6c:	4606      	mov	r6, r0
     a6e:	b990      	cbnz	r0, a96 <create_object+0x8e>
/home/lubuntu/Dokument/GitHub/STM32-Computer/Firmware/STM32-Computer-Firmware/CA7/optee-os-3.19.0-r2/optee-os-stm32mp-3.19.0-stm32mp-r2/ta/pkcs11/src/object.c:255
     a70:	f104 031c 	add.w	r3, r4, #28
     a74:	2210      	movs	r2, #16
     a76:	9303      	str	r3, [sp, #12]
/home/lubuntu/Dokument/GitHub/STM32-Computer/Firmware/STM32-Computer-Firmware/CA7/optee-os-3.19.0-r2/optee-os-stm32mp-3.19.0-stm32mp-r2/ta/pkcs11/src/object.c:245
     a78:	f10a 0308 	add.w	r3, sl, #8
/home/lubuntu/Dokument/GitHub/STM32-Computer/Firmware/STM32-Computer-Firmware/CA7/optee-os-3.19.0-r2/optee-os-stm32mp-3.19.0-stm32mp-r2/ta/pkcs11/src/object.c:255
     a7c:	9302      	str	r3, [sp, #8]
     a7e:	68a3      	ldr	r3, [r4, #8]
     a80:	9000      	str	r0, [sp, #0]
     a82:	2001      	movs	r0, #1
     a84:	9301      	str	r3, [sp, #4]
     a86:	2307      	movs	r3, #7
     a88:	69a1      	ldr	r1, [r4, #24]
     a8a:	f00a fc7f 	bl	b38c <TEE_CreatePersistentObject>
/home/lubuntu/Dokument/GitHub/STM32-Computer/Firmware/STM32-Computer-Firmware/CA7/optee-os-3.19.0-r2/optee-os-stm32mp-3.19.0-stm32mp-r2/ta/pkcs11/src/object.c:261
     a8e:	b1a8      	cbz	r0, abc <create_object+0xb4>
/home/lubuntu/Dokument/GitHub/STM32-Computer/Firmware/STM32-Computer-Firmware/CA7/optee-os-3.19.0-r2/optee-os-stm32mp-3.19.0-stm32mp-r2/ta/pkcs11/src/object.c:262
     a90:	f003 f8ca 	bl	3c28 <tee2pkcs_error>
     a94:	4606      	mov	r6, r0
/home/lubuntu/Dokument/GitHub/STM32-Computer/Firmware/STM32-Computer-Firmware/CA7/optee-os-3.19.0-r2/optee-os-stm32mp-3.19.0-stm32mp-r2/ta/pkcs11/src/object.c:288
     a96:	2300      	movs	r3, #0
/home/lubuntu/Dokument/GitHub/STM32-Computer/Firmware/STM32-Computer-Firmware/CA7/optee-os-3.19.0-r2/optee-os-stm32mp-3.19.0-stm32mp-r2/ta/pkcs11/src/object.c:289
     a98:	4628      	mov	r0, r5
/home/lubuntu/Dokument/GitHub/STM32-Computer/Firmware/STM32-Computer-Firmware/CA7/optee-os-3.19.0-r2/optee-os-stm32mp-3.19.0-stm32mp-r2/ta/pkcs11/src/object.c:288
     a9a:	60a3      	str	r3, [r4, #8]
/home/lubuntu/Dokument/GitHub/STM32-Computer/Firmware/STM32-Computer-Firmware/CA7/optee-os-3.19.0-r2/optee-os-stm32mp-3.19.0-stm32mp-r2/ta/pkcs11/src/object.c:289
     a9c:	f003 fd12 	bl	44c4 <get_object_handle_db>
     aa0:	4639      	mov	r1, r7
     aa2:	f012 fbc0 	bl	13226 <handle_put>
/home/lubuntu/Dokument/GitHub/STM32-Computer/Firmware/STM32-Computer-Firmware/CA7/optee-os-3.19.0-r2/optee-os-stm32mp-3.19.0-stm32mp-r2/ta/pkcs11/src/object.c:290
     aa6:	2101      	movs	r1, #1
     aa8:	4640      	mov	r0, r8
     aaa:	f7ff fbf8 	bl	29e <get_bool>
     aae:	2800      	cmp	r0, #0
     ab0:	d033      	beq.n	b1a <create_object+0x112>
/home/lubuntu/Dokument/GitHub/STM32-Computer/Firmware/STM32-Computer-Firmware/CA7/optee-os-3.19.0-r2/optee-os-stm32mp-3.19.0-stm32mp-r2/ta/pkcs11/src/object.c:291
     ab2:	68e9      	ldr	r1, [r5, #12]
     ab4:	4620      	mov	r0, r4
     ab6:	f7ff ff29 	bl	90c <cleanup_persistent_object>
     aba:	e01b      	b.n	af4 <create_object+0xec>
/home/lubuntu/Dokument/GitHub/STM32-Computer/Firmware/STM32-Computer-Firmware/CA7/optee-os-3.19.0-r2/optee-os-stm32mp-3.19.0-stm32mp-r2/ta/pkcs11/src/object.c:266
     abc:	69a1      	ldr	r1, [r4, #24]
     abe:	68e8      	ldr	r0, [r5, #12]
     ac0:	f001 f839 	bl	1b36 <register_persistent_object>
/home/lubuntu/Dokument/GitHub/STM32-Computer/Firmware/STM32-Computer-Firmware/CA7/optee-os-3.19.0-r2/optee-os-stm32mp-3.19.0-stm32mp-r2/ta/pkcs11/src/object.c:268
     ac4:	4606      	mov	r6, r0
     ac6:	2800      	cmp	r0, #0
     ac8:	d1e5      	bne.n	a96 <create_object+0x8e>
/home/lubuntu/Dokument/GitHub/STM32-Computer/Firmware/STM32-Computer-Firmware/CA7/optee-os-3.19.0-r2/optee-os-stm32mp-3.19.0-stm32mp-r2/ta/pkcs11/src/object.c:271
     aca:	69e0      	ldr	r0, [r4, #28]
     acc:	f00a faf8 	bl	b0c0 <TEE_CloseObject>
/home/lubuntu/Dokument/GitHub/STM32-Computer/Firmware/STM32-Computer-Firmware/CA7/optee-os-3.19.0-r2/optee-os-stm32mp-3.19.0-stm32mp-r2/ta/pkcs11/src/object.c:275
     ad0:	6823      	ldr	r3, [r4, #0]
/home/lubuntu/Dokument/GitHub/STM32-Computer/Firmware/STM32-Computer-Firmware/CA7/optee-os-3.19.0-r2/optee-os-stm32mp-3.19.0-stm32mp-r2/ta/pkcs11/src/object.c:272
     ad2:	61e6      	str	r6, [r4, #28]
/home/lubuntu/Dokument/GitHub/STM32-Computer/Firmware/STM32-Computer-Firmware/CA7/optee-os-3.19.0-r2/optee-os-stm32mp-3.19.0-stm32mp-r2/ta/pkcs11/src/object.c:275
     ad4:	b10b      	cbz	r3, ada <create_object+0xd2>
/home/lubuntu/Dokument/GitHub/STM32-Computer/Firmware/STM32-Computer-Firmware/CA7/optee-os-3.19.0-r2/optee-os-stm32mp-3.19.0-stm32mp-r2/ta/pkcs11/src/object.c:275 (discriminator 1)
     ad6:	6862      	ldr	r2, [r4, #4]
     ad8:	605a      	str	r2, [r3, #4]
/home/lubuntu/Dokument/GitHub/STM32-Computer/Firmware/STM32-Computer-Firmware/CA7/optee-os-3.19.0-r2/optee-os-stm32mp-3.19.0-stm32mp-r2/ta/pkcs11/src/object.c:276 (discriminator 3)
     ada:	68ed      	ldr	r5, [r5, #12]
/home/lubuntu/Dokument/GitHub/STM32-Computer/Firmware/STM32-Computer-Firmware/CA7/optee-os-3.19.0-r2/optee-os-stm32mp-3.19.0-stm32mp-r2/ta/pkcs11/src/object.c:275 (discriminator 3)
     adc:	6862      	ldr	r2, [r4, #4]
     ade:	6013      	str	r3, [r2, #0]
/home/lubuntu/Dokument/GitHub/STM32-Computer/Firmware/STM32-Computer-Firmware/CA7/optee-os-3.19.0-r2/optee-os-stm32mp-3.19.0-stm32mp-r2/ta/pkcs11/src/object.c:276 (discriminator 3)
     ae0:	68eb      	ldr	r3, [r5, #12]
     ae2:	6023      	str	r3, [r4, #0]
     ae4:	b103      	cbz	r3, ae8 <create_object+0xe0>
/home/lubuntu/Dokument/GitHub/STM32-Computer/Firmware/STM32-Computer-Firmware/CA7/optee-os-3.19.0-r2/optee-os-stm32mp-3.19.0-stm32mp-r2/ta/pkcs11/src/object.c:276 (discriminator 1)
     ae6:	605c      	str	r4, [r3, #4]
/home/lubuntu/Dokument/GitHub/STM32-Computer/Firmware/STM32-Computer-Firmware/CA7/optee-os-3.19.0-r2/optee-os-stm32mp-3.19.0-stm32mp-r2/ta/pkcs11/src/object.c:276 (discriminator 3)
     ae8:	f845 4f0c 	str.w	r4, [r5, #12]!
/home/lubuntu/Dokument/GitHub/STM32-Computer/Firmware/STM32-Computer-Firmware/CA7/optee-os-3.19.0-r2/optee-os-stm32mp-3.19.0-stm32mp-r2/ta/pkcs11/src/object.c:276 (discriminator 4)
     aec:	6065      	str	r5, [r4, #4]
/home/lubuntu/Dokument/GitHub/STM32-Computer/Firmware/STM32-Computer-Firmware/CA7/optee-os-3.19.0-r2/optee-os-stm32mp-3.19.0-stm32mp-r2/ta/pkcs11/src/object.c:285 (discriminator 4)
     aee:	2600      	movs	r6, #0
/home/lubuntu/Dokument/GitHub/STM32-Computer/Firmware/STM32-Computer-Firmware/CA7/optee-os-3.19.0-r2/optee-os-stm32mp-3.19.0-stm32mp-r2/ta/pkcs11/src/object.c:283 (discriminator 4)
     af0:	f8c9 7000 	str.w	r7, [r9]
/home/lubuntu/Dokument/GitHub/STM32-Computer/Firmware/STM32-Computer-Firmware/CA7/optee-os-3.19.0-r2/optee-os-stm32mp-3.19.0-stm32mp-r2/ta/pkcs11/src/object.c:296
     af4:	4630      	mov	r0, r6
     af6:	b004      	add	sp, #16
     af8:	e8bd 87f0 	ldmia.w	sp!, {r4, r5, r6, r7, r8, r9, sl, pc}
/home/lubuntu/Dokument/GitHub/STM32-Computer/Firmware/STM32-Computer-Firmware/CA7/optee-os-3.19.0-r2/optee-os-stm32mp-3.19.0-stm32mp-r2/ta/pkcs11/src/object.c:279
     afc:	6823      	ldr	r3, [r4, #0]
     afe:	b10b      	cbz	r3, b04 <create_object+0xfc>
/home/lubuntu/Dokument/GitHub/STM32-Computer/Firmware/STM32-Computer-Firmware/CA7/optee-os-3.19.0-r2/optee-os-stm32mp-3.19.0-stm32mp-r2/ta/pkcs11/src/object.c:279 (discriminator 1)
     b00:	6862      	ldr	r2, [r4, #4]
     b02:	605a      	str	r2, [r3, #4]
/home/lubuntu/Dokument/GitHub/STM32-Computer/Firmware/STM32-Computer-Firmware/CA7/optee-os-3.19.0-r2/optee-os-stm32mp-3.19.0-stm32mp-r2/ta/pkcs11/src/object.c:279 (discriminator 3)
     b04:	6862      	ldr	r2, [r4, #4]
     b06:	6013      	str	r3, [r2, #0]
/home/lubuntu/Dokument/GitHub/STM32-Computer/Firmware/STM32-Computer-Firmware/CA7/optee-os-3.19.0-r2/optee-os-stm32mp-3.19.0-stm32mp-r2/ta/pkcs11/src/object.c:280 (discriminator 3)
     b08:	696b      	ldr	r3, [r5, #20]
     b0a:	6023      	str	r3, [r4, #0]
     b0c:	b103      	cbz	r3, b10 <create_object+0x108>
/home/lubuntu/Dokument/GitHub/STM32-Computer/Firmware/STM32-Computer-Firmware/CA7/optee-os-3.19.0-r2/optee-os-stm32mp-3.19.0-stm32mp-r2/ta/pkcs11/src/object.c:280
     b0e:	605c      	str	r4, [r3, #4]
/home/lubuntu/Dokument/GitHub/STM32-Computer/Firmware/STM32-Computer-Firmware/CA7/optee-os-3.19.0-r2/optee-os-stm32mp-3.19.0-stm32mp-r2/ta/pkcs11/src/object.c:280 (discriminator 3)
     b10:	f845 4f14 	str.w	r4, [r5, #20]!
     b14:	e7ea      	b.n	aec <create_object+0xe4>
/home/lubuntu/Dokument/GitHub/STM32-Computer/Firmware/STM32-Computer-Firmware/CA7/optee-os-3.19.0-r2/optee-os-stm32mp-3.19.0-stm32mp-r2/ta/pkcs11/src/object.c:232
     b16:	2631      	movs	r6, #49	@ 0x31
     b18:	e7bd      	b.n	a96 <create_object+0x8e>
/home/lubuntu/Dokument/GitHub/STM32-Computer/Firmware/STM32-Computer-Firmware/CA7/optee-os-3.19.0-r2/optee-os-stm32mp-3.19.0-stm32mp-r2/ta/pkcs11/src/object.c:293
     b1a:	4620      	mov	r0, r4
     b1c:	f7ff fe98 	bl	850 <cleanup_volatile_obj_ref>
     b20:	e7e8      	b.n	af4 <create_object+0xec>
/home/lubuntu/Dokument/GitHub/STM32-Computer/Firmware/STM32-Computer-Firmware/CA7/optee-os-3.19.0-r2/optee-os-stm32mp-3.19.0-stm32mp-r2/ta/pkcs11/src/object.c:225
     b22:	2631      	movs	r6, #49	@ 0x31
     b24:	e7e6      	b.n	af4 <create_object+0xec>
     b26:	bf00      	nop
     b28:	0001966e 	.word	0x0001966e
     b2c:	00000028 	.word	0x00000028

00000b30 <entry_create_object>:
entry_create_object():
/home/lubuntu/Dokument/GitHub/STM32-Computer/Firmware/STM32-Computer-Firmware/CA7/optee-os-3.19.0-r2/optee-os-stm32mp-3.19.0-stm32mp-r2/ta/pkcs11/src/object.c:308
     b30:	efc0 0010 	vmov.i32	d16, #0	@ 0x00000000
/home/lubuntu/Dokument/GitHub/STM32-Computer/Firmware/STM32-Computer-Firmware/CA7/optee-os-3.19.0-r2/optee-os-stm32mp-3.19.0-stm32mp-r2/ta/pkcs11/src/object.c:300
     b34:	b5f0      	push	{r4, r5, r6, r7, lr}
     b36:	b08d      	sub	sp, #52	@ 0x34
/home/lubuntu/Dokument/GitHub/STM32-Computer/Firmware/STM32-Computer-Firmware/CA7/optee-os-3.19.0-r2/optee-os-stm32mp-3.19.0-stm32mp-r2/ta/pkcs11/src/object.c:309
     b38:	2300      	movs	r3, #0
/home/lubuntu/Dokument/GitHub/STM32-Computer/Firmware/STM32-Computer-Firmware/CA7/optee-os-3.19.0-r2/optee-os-stm32mp-3.19.0-stm32mp-r2/ta/pkcs11/src/object.c:300
     b3a:	4615      	mov	r5, r2
/home/lubuntu/Dokument/GitHub/STM32-Computer/Firmware/STM32-Computer-Firmware/CA7/optee-os-3.19.0-r2/optee-os-stm32mp-3.19.0-stm32mp-r2/ta/pkcs11/src/object.c:308
     b3c:	edcd 0b09 	vstr	d16, [sp, #36]	@ 0x24
/home/lubuntu/Dokument/GitHub/STM32-Computer/Firmware/STM32-Computer-Firmware/CA7/optee-os-3.19.0-r2/optee-os-stm32mp-3.19.0-stm32mp-r2/ta/pkcs11/src/object.c:309
     b40:	9305      	str	r3, [sp, #20]
/home/lubuntu/Dokument/GitHub/STM32-Computer/Firmware/STM32-Computer-Firmware/CA7/optee-os-3.19.0-r2/optee-os-stm32mp-3.19.0-stm32mp-r2/ta/pkcs11/src/object.c:308
     b42:	ae09      	add	r6, sp, #36	@ 0x24
     b44:	edcd 0b0a 	vstr	d16, [sp, #40]	@ 0x28
/home/lubuntu/Dokument/GitHub/STM32-Computer/Firmware/STM32-Computer-Firmware/CA7/optee-os-3.19.0-r2/optee-os-stm32mp-3.19.0-stm32mp-r2/ta/pkcs11/src/object.c:313
     b48:	9308      	str	r3, [sp, #32]
/home/lubuntu/Dokument/GitHub/STM32-Computer/Firmware/STM32-Computer-Firmware/CA7/optee-os-3.19.0-r2/optee-os-stm32mp-3.19.0-stm32mp-r2/ta/pkcs11/src/object.c:319
     b4a:	4604      	mov	r4, r0
/home/lubuntu/Dokument/GitHub/STM32-Computer/Firmware/STM32-Computer-Firmware/CA7/optee-os-3.19.0-r2/optee-os-stm32mp-3.19.0-stm32mp-r2/ta/pkcs11/src/object.c:311
     b4c:	e9cd 3306 	strd	r3, r3, [sp, #24]
/home/lubuntu/Dokument/GitHub/STM32-Computer/Firmware/STM32-Computer-Firmware/CA7/optee-os-3.19.0-r2/optee-os-stm32mp-3.19.0-stm32mp-r2/ta/pkcs11/src/object.c:319
     b50:	2800      	cmp	r0, #0
     b52:	d062      	beq.n	c1a <entry_create_object+0xea>
/home/lubuntu/Dokument/GitHub/STM32-Computer/Firmware/STM32-Computer-Firmware/CA7/optee-os-3.19.0-r2/optee-os-stm32mp-3.19.0-stm32mp-r2/ta/pkcs11/src/object.c:319 (discriminator 1)
     b54:	f240 6307 	movw	r3, #1543	@ 0x607
     b58:	4299      	cmp	r1, r3
     b5a:	d15e      	bne.n	c1a <entry_create_object+0xea>
/home/lubuntu/Dokument/GitHub/STM32-Computer/Firmware/STM32-Computer-Firmware/CA7/optee-os-3.19.0-r2/optee-os-stm32mp-3.19.0-stm32mp-r2/ta/pkcs11/src/object.c:319 (discriminator 2)
     b5c:	6953      	ldr	r3, [r2, #20]
     b5e:	2b04      	cmp	r3, #4
     b60:	d15b      	bne.n	c1a <entry_create_object+0xea>
/home/lubuntu/Dokument/GitHub/STM32-Computer/Firmware/STM32-Computer-Firmware/CA7/optee-os-3.19.0-r2/optee-os-stm32mp-3.19.0-stm32mp-r2/ta/pkcs11/src/object.c:323
     b62:	e9d2 1200 	ldrd	r1, r2, [r2]
     b66:	4630      	mov	r0, r6
     b68:	f008 fef4 	bl	9954 <serialargs_init>
/home/lubuntu/Dokument/GitHub/STM32-Computer/Firmware/STM32-Computer-Firmware/CA7/optee-os-3.19.0-r2/optee-os-stm32mp-3.19.0-stm32mp-r2/ta/pkcs11/src/object.c:325
     b6c:	4621      	mov	r1, r4
     b6e:	aa05      	add	r2, sp, #20
     b70:	4630      	mov	r0, r6
     b72:	f008 ffb1 	bl	9ad8 <serialargs_get_session_from_handle>
/home/lubuntu/Dokument/GitHub/STM32-Computer/Firmware/STM32-Computer-Firmware/CA7/optee-os-3.19.0-r2/optee-os-stm32mp-3.19.0-stm32mp-r2/ta/pkcs11/src/object.c:326
     b76:	4604      	mov	r4, r0
     b78:	2800      	cmp	r0, #0
     b7a:	d149      	bne.n	c10 <entry_create_object+0xe0>
/home/lubuntu/Dokument/GitHub/STM32-Computer/Firmware/STM32-Computer-Firmware/CA7/optee-os-3.19.0-r2/optee-os-stm32mp-3.19.0-stm32mp-r2/ta/pkcs11/src/object.c:329
     b7c:	a907      	add	r1, sp, #28
     b7e:	4630      	mov	r0, r6
     b80:	f008 ff81 	bl	9a86 <serialargs_alloc_get_attributes>
/home/lubuntu/Dokument/GitHub/STM32-Computer/Firmware/STM32-Computer-Firmware/CA7/optee-os-3.19.0-r2/optee-os-stm32mp-3.19.0-stm32mp-r2/ta/pkcs11/src/object.c:330
     b84:	4604      	mov	r4, r0
     b86:	2800      	cmp	r0, #0
     b88:	d142      	bne.n	c10 <entry_create_object+0xe0>
/home/lubuntu/Dokument/GitHub/STM32-Computer/Firmware/STM32-Computer-Firmware/CA7/optee-os-3.19.0-r2/optee-os-stm32mp-3.19.0-stm32mp-r2/ta/pkcs11/src/object.c:333
     b8a:	4630      	mov	r0, r6
     b8c:	f008 ff9b 	bl	9ac6 <serialargs_remaining_bytes>
     b90:	4606      	mov	r6, r0
     b92:	2800      	cmp	r0, #0
     b94:	d13f      	bne.n	c16 <entry_create_object+0xe6>
/home/lubuntu/Dokument/GitHub/STM32-Computer/Firmware/STM32-Computer-Firmware/CA7/optee-os-3.19.0-r2/optee-os-stm32mp-3.19.0-stm32mp-r2/ta/pkcs11/src/object.c:338
     b96:	9907      	ldr	r1, [sp, #28]
/home/lubuntu/Dokument/GitHub/STM32-Computer/Firmware/STM32-Computer-Firmware/CA7/optee-os-3.19.0-r2/optee-os-stm32mp-3.19.0-stm32mp-r2/ta/pkcs11/src/object.c:344
     b98:	f04f 33ff 	mov.w	r3, #4294967295	@ 0xffffffff
     b9c:	f04f 4700 	mov.w	r7, #2147483648	@ 0x80000000
     ba0:	a806      	add	r0, sp, #24
/home/lubuntu/Dokument/GitHub/STM32-Computer/Firmware/STM32-Computer-Firmware/CA7/optee-os-3.19.0-r2/optee-os-stm32mp-3.19.0-stm32mp-r2/ta/pkcs11/src/object.c:338
     ba2:	680a      	ldr	r2, [r1, #0]
/home/lubuntu/Dokument/GitHub/STM32-Computer/Firmware/STM32-Computer-Firmware/CA7/optee-os-3.19.0-r2/optee-os-stm32mp-3.19.0-stm32mp-r2/ta/pkcs11/src/object.c:344
     ba4:	9302      	str	r3, [sp, #8]
     ba6:	230c      	movs	r3, #12
     ba8:	9300      	str	r3, [sp, #0]
     baa:	3208      	adds	r2, #8
     bac:	9701      	str	r7, [sp, #4]
     bae:	4623      	mov	r3, r4
     bb0:	f001 fca4 	bl	24fc <create_attributes_from_template>
     bb4:	4604      	mov	r4, r0
/home/lubuntu/Dokument/GitHub/STM32-Computer/Firmware/STM32-Computer-Firmware/CA7/optee-os-3.19.0-r2/optee-os-stm32mp-3.19.0-stm32mp-r2/ta/pkcs11/src/object.c:348
     bb6:	9807      	ldr	r0, [sp, #28]
     bb8:	f00a f970 	bl	ae9c <TEE_Free>
/home/lubuntu/Dokument/GitHub/STM32-Computer/Firmware/STM32-Computer-Firmware/CA7/optee-os-3.19.0-r2/optee-os-stm32mp-3.19.0-stm32mp-r2/ta/pkcs11/src/object.c:349
     bbc:	9607      	str	r6, [sp, #28]
/home/lubuntu/Dokument/GitHub/STM32-Computer/Firmware/STM32-Computer-Firmware/CA7/optee-os-3.19.0-r2/optee-os-stm32mp-3.19.0-stm32mp-r2/ta/pkcs11/src/object.c:350
     bbe:	bb0c      	cbnz	r4, c04 <entry_create_object+0xd4>
/home/lubuntu/Dokument/GitHub/STM32-Computer/Firmware/STM32-Computer-Firmware/CA7/optee-os-3.19.0-r2/optee-os-stm32mp-3.19.0-stm32mp-r2/ta/pkcs11/src/object.c:357
     bc0:	9906      	ldr	r1, [sp, #24]
     bc2:	4638      	mov	r0, r7
     bc4:	f002 fa37 	bl	3036 <check_created_attrs_against_processing>
/home/lubuntu/Dokument/GitHub/STM32-Computer/Firmware/STM32-Computer-Firmware/CA7/optee-os-3.19.0-r2/optee-os-stm32mp-3.19.0-stm32mp-r2/ta/pkcs11/src/object.c:359
     bc8:	4604      	mov	r4, r0
     bca:	b9d8      	cbnz	r0, c04 <entry_create_object+0xd4>
/home/lubuntu/Dokument/GitHub/STM32-Computer/Firmware/STM32-Computer-Firmware/CA7/optee-os-3.19.0-r2/optee-os-stm32mp-3.19.0-stm32mp-r2/ta/pkcs11/src/object.c:362
     bcc:	9906      	ldr	r1, [sp, #24]
     bce:	9805      	ldr	r0, [sp, #20]
     bd0:	f002 f9fd 	bl	2fce <check_created_attrs_against_token>
/home/lubuntu/Dokument/GitHub/STM32-Computer/Firmware/STM32-Computer-Firmware/CA7/optee-os-3.19.0-r2/optee-os-stm32mp-3.19.0-stm32mp-r2/ta/pkcs11/src/object.c:363
     bd4:	4604      	mov	r4, r0
     bd6:	b9a8      	cbnz	r0, c04 <entry_create_object+0xd4>
/home/lubuntu/Dokument/GitHub/STM32-Computer/Firmware/STM32-Computer-Firmware/CA7/optee-os-3.19.0-r2/optee-os-stm32mp-3.19.0-stm32mp-r2/ta/pkcs11/src/object.c:366
     bd8:	9906      	ldr	r1, [sp, #24]
     bda:	9805      	ldr	r0, [sp, #20]
     bdc:	f002 f9dc 	bl	2f98 <check_access_attrs_against_token>
/home/lubuntu/Dokument/GitHub/STM32-Computer/Firmware/STM32-Computer-Firmware/CA7/optee-os-3.19.0-r2/optee-os-stm32mp-3.19.0-stm32mp-r2/ta/pkcs11/src/object.c:367
     be0:	4604      	mov	r4, r0
     be2:	b978      	cbnz	r0, c04 <entry_create_object+0xd4>
/home/lubuntu/Dokument/GitHub/STM32-Computer/Firmware/STM32-Computer-Firmware/CA7/optee-os-3.19.0-r2/optee-os-stm32mp-3.19.0-stm32mp-r2/ta/pkcs11/src/object.c:375
     be4:	9906      	ldr	r1, [sp, #24]
     be6:	ae08      	add	r6, sp, #32
     be8:	9805      	ldr	r0, [sp, #20]
     bea:	4632      	mov	r2, r6
     bec:	f7ff ff0c 	bl	a08 <create_object>
/home/lubuntu/Dokument/GitHub/STM32-Computer/Firmware/STM32-Computer-Firmware/CA7/optee-os-3.19.0-r2/optee-os-stm32mp-3.19.0-stm32mp-r2/ta/pkcs11/src/object.c:376
     bf0:	4604      	mov	r4, r0
     bf2:	b938      	cbnz	r0, c04 <entry_create_object+0xd4>
/home/lubuntu/Dokument/GitHub/STM32-Computer/Firmware/STM32-Computer-Firmware/CA7/optee-os-3.19.0-r2/optee-os-stm32mp-3.19.0-stm32mp-r2/ta/pkcs11/src/object.c:386
     bf4:	9006      	str	r0, [sp, #24]
/home/lubuntu/Dokument/GitHub/STM32-Computer/Firmware/STM32-Computer-Firmware/CA7/optee-os-3.19.0-r2/optee-os-stm32mp-3.19.0-stm32mp-r2/ta/pkcs11/src/object.c:388
     bf6:	2204      	movs	r2, #4
     bf8:	6928      	ldr	r0, [r5, #16]
     bfa:	4631      	mov	r1, r6
     bfc:	f00a f8c8 	bl	ad90 <TEE_MemMove>
/home/lubuntu/Dokument/GitHub/STM32-Computer/Firmware/STM32-Computer-Firmware/CA7/optee-os-3.19.0-r2/optee-os-stm32mp-3.19.0-stm32mp-r2/ta/pkcs11/src/object.c:389
     c00:	2304      	movs	r3, #4
     c02:	616b      	str	r3, [r5, #20]
/home/lubuntu/Dokument/GitHub/STM32-Computer/Firmware/STM32-Computer-Firmware/CA7/optee-os-3.19.0-r2/optee-os-stm32mp-3.19.0-stm32mp-r2/ta/pkcs11/src/object.c:395
     c04:	9807      	ldr	r0, [sp, #28]
     c06:	f00a f949 	bl	ae9c <TEE_Free>
/home/lubuntu/Dokument/GitHub/STM32-Computer/Firmware/STM32-Computer-Firmware/CA7/optee-os-3.19.0-r2/optee-os-stm32mp-3.19.0-stm32mp-r2/ta/pkcs11/src/object.c:396
     c0a:	9806      	ldr	r0, [sp, #24]
     c0c:	f00a f946 	bl	ae9c <TEE_Free>
/home/lubuntu/Dokument/GitHub/STM32-Computer/Firmware/STM32-Computer-Firmware/CA7/optee-os-3.19.0-r2/optee-os-stm32mp-3.19.0-stm32mp-r2/ta/pkcs11/src/object.c:399
     c10:	4620      	mov	r0, r4
     c12:	b00d      	add	sp, #52	@ 0x34
     c14:	bdf0      	pop	{r4, r5, r6, r7, pc}
/home/lubuntu/Dokument/GitHub/STM32-Computer/Firmware/STM32-Computer-Firmware/CA7/optee-os-3.19.0-r2/optee-os-stm32mp-3.19.0-stm32mp-r2/ta/pkcs11/src/object.c:334
     c16:	2407      	movs	r4, #7
     c18:	e7f4      	b.n	c04 <entry_create_object+0xd4>
/home/lubuntu/Dokument/GitHub/STM32-Computer/Firmware/STM32-Computer-Firmware/CA7/optee-os-3.19.0-r2/optee-os-stm32mp-3.19.0-stm32mp-r2/ta/pkcs11/src/object.c:321
     c1a:	2407      	movs	r4, #7
     c1c:	e7f8      	b.n	c10 <entry_create_object+0xe0>

00000c1e <entry_destroy_object>:
entry_destroy_object():
/home/lubuntu/Dokument/GitHub/STM32-Computer/Firmware/STM32-Computer-Firmware/CA7/optee-os-3.19.0-r2/optee-os-stm32mp-3.19.0-stm32mp-r2/ta/pkcs11/src/object.c:410
     c1e:	efc0 0010 	vmov.i32	d16, #0	@ 0x00000000
/home/lubuntu/Dokument/GitHub/STM32-Computer/Firmware/STM32-Computer-Firmware/CA7/optee-os-3.19.0-r2/optee-os-stm32mp-3.19.0-stm32mp-r2/ta/pkcs11/src/object.c:403
     c22:	b530      	push	{r4, r5, lr}
     c24:	b087      	sub	sp, #28
     c26:	4613      	mov	r3, r2
/home/lubuntu/Dokument/GitHub/STM32-Computer/Firmware/STM32-Computer-Firmware/CA7/optee-os-3.19.0-r2/optee-os-stm32mp-3.19.0-stm32mp-r2/ta/pkcs11/src/object.c:411
     c28:	2200      	movs	r2, #0
/home/lubuntu/Dokument/GitHub/STM32-Computer/Firmware/STM32-Computer-Firmware/CA7/optee-os-3.19.0-r2/optee-os-stm32mp-3.19.0-stm32mp-r2/ta/pkcs11/src/object.c:410
     c2a:	edcd 0b03 	vstr	d16, [sp, #12]
/home/lubuntu/Dokument/GitHub/STM32-Computer/Firmware/STM32-Computer-Firmware/CA7/optee-os-3.19.0-r2/optee-os-stm32mp-3.19.0-stm32mp-r2/ta/pkcs11/src/object.c:411
     c2e:	9201      	str	r2, [sp, #4]
/home/lubuntu/Dokument/GitHub/STM32-Computer/Firmware/STM32-Computer-Firmware/CA7/optee-os-3.19.0-r2/optee-os-stm32mp-3.19.0-stm32mp-r2/ta/pkcs11/src/object.c:410
     c30:	ad03      	add	r5, sp, #12
     c32:	edcd 0b04 	vstr	d16, [sp, #16]
/home/lubuntu/Dokument/GitHub/STM32-Computer/Firmware/STM32-Computer-Firmware/CA7/optee-os-3.19.0-r2/optee-os-stm32mp-3.19.0-stm32mp-r2/ta/pkcs11/src/object.c:412
     c36:	9202      	str	r2, [sp, #8]
/home/lubuntu/Dokument/GitHub/STM32-Computer/Firmware/STM32-Computer-Firmware/CA7/optee-os-3.19.0-r2/optee-os-stm32mp-3.19.0-stm32mp-r2/ta/pkcs11/src/object.c:415
     c38:	4604      	mov	r4, r0
     c3a:	b918      	cbnz	r0, c44 <entry_destroy_object+0x26>
/home/lubuntu/Dokument/GitHub/STM32-Computer/Firmware/STM32-Computer-Firmware/CA7/optee-os-3.19.0-r2/optee-os-stm32mp-3.19.0-stm32mp-r2/ta/pkcs11/src/object.c:416
     c3c:	2407      	movs	r4, #7
/home/lubuntu/Dokument/GitHub/STM32-Computer/Firmware/STM32-Computer-Firmware/CA7/optee-os-3.19.0-r2/optee-os-stm32mp-3.19.0-stm32mp-r2/ta/pkcs11/src/object.c:459
     c3e:	4620      	mov	r0, r4
     c40:	b007      	add	sp, #28
     c42:	bd30      	pop	{r4, r5, pc}
/home/lubuntu/Dokument/GitHub/STM32-Computer/Firmware/STM32-Computer-Firmware/CA7/optee-os-3.19.0-r2/optee-os-stm32mp-3.19.0-stm32mp-r2/ta/pkcs11/src/object.c:415 (discriminator 1)
     c44:	2907      	cmp	r1, #7
     c46:	d1f9      	bne.n	c3c <entry_destroy_object+0x1e>
/home/lubuntu/Dokument/GitHub/STM32-Computer/Firmware/STM32-Computer-Firmware/CA7/optee-os-3.19.0-r2/optee-os-stm32mp-3.19.0-stm32mp-r2/ta/pkcs11/src/object.c:418
     c48:	e9d3 1200 	ldrd	r1, r2, [r3]
     c4c:	4628      	mov	r0, r5
     c4e:	f008 fe81 	bl	9954 <serialargs_init>
/home/lubuntu/Dokument/GitHub/STM32-Computer/Firmware/STM32-Computer-Firmware/CA7/optee-os-3.19.0-r2/optee-os-stm32mp-3.19.0-stm32mp-r2/ta/pkcs11/src/object.c:420
     c52:	4621      	mov	r1, r4
     c54:	aa02      	add	r2, sp, #8
     c56:	4628      	mov	r0, r5
     c58:	f008 ff3e 	bl	9ad8 <serialargs_get_session_from_handle>
/home/lubuntu/Dokument/GitHub/STM32-Computer/Firmware/STM32-Computer-Firmware/CA7/optee-os-3.19.0-r2/optee-os-stm32mp-3.19.0-stm32mp-r2/ta/pkcs11/src/object.c:421
     c5c:	4604      	mov	r4, r0
     c5e:	2800      	cmp	r0, #0
     c60:	d1ed      	bne.n	c3e <entry_destroy_object+0x20>
serialargs_get_u32():
/home/lubuntu/Dokument/GitHub/STM32-Computer/Firmware/STM32-Computer-Firmware/CA7/optee-os-3.19.0-r2/optee-os-stm32mp-3.19.0-stm32mp-r2/ta/pkcs11/src/serializer.h:56
     c62:	2204      	movs	r2, #4
     c64:	4628      	mov	r0, r5
     c66:	eb0d 0102 	add.w	r1, sp, r2
     c6a:	f008 fea3 	bl	99b4 <serialargs_get>
entry_destroy_object():
/home/lubuntu/Dokument/GitHub/STM32-Computer/Firmware/STM32-Computer-Firmware/CA7/optee-os-3.19.0-r2/optee-os-stm32mp-3.19.0-stm32mp-r2/ta/pkcs11/src/object.c:425
     c6e:	4604      	mov	r4, r0
     c70:	2800      	cmp	r0, #0
     c72:	d1e4      	bne.n	c3e <entry_destroy_object+0x20>
/home/lubuntu/Dokument/GitHub/STM32-Computer/Firmware/STM32-Computer-Firmware/CA7/optee-os-3.19.0-r2/optee-os-stm32mp-3.19.0-stm32mp-r2/ta/pkcs11/src/object.c:428
     c74:	4628      	mov	r0, r5
     c76:	f008 ff26 	bl	9ac6 <serialargs_remaining_bytes>
     c7a:	2800      	cmp	r0, #0
     c7c:	d1de      	bne.n	c3c <entry_destroy_object+0x1e>
/home/lubuntu/Dokument/GitHub/STM32-Computer/Firmware/STM32-Computer-Firmware/CA7/optee-os-3.19.0-r2/optee-os-stm32mp-3.19.0-stm32mp-r2/ta/pkcs11/src/object.c:431
     c7e:	9902      	ldr	r1, [sp, #8]
     c80:	9801      	ldr	r0, [sp, #4]
     c82:	f7ff fe28 	bl	8d6 <pkcs11_handle2object>
/home/lubuntu/Dokument/GitHub/STM32-Computer/Firmware/STM32-Computer-Firmware/CA7/optee-os-3.19.0-r2/optee-os-stm32mp-3.19.0-stm32mp-r2/ta/pkcs11/src/object.c:432
     c86:	4605      	mov	r5, r0
     c88:	b1d8      	cbz	r0, cc2 <entry_destroy_object+0xa4>
/home/lubuntu/Dokument/GitHub/STM32-Computer/Firmware/STM32-Computer-Firmware/CA7/optee-os-3.19.0-r2/optee-os-stm32mp-3.19.0-stm32mp-r2/ta/pkcs11/src/object.c:436
     c8a:	6880      	ldr	r0, [r0, #8]
     c8c:	2101      	movs	r1, #1
     c8e:	f7ff fb06 	bl	29e <get_bool>
     c92:	b120      	cbz	r0, c9e <entry_destroy_object+0x80>
pkcs11_session_is_read_write():
/home/lubuntu/Dokument/GitHub/STM32-Computer/Firmware/STM32-Computer-Firmware/CA7/optee-os-3.19.0-r2/optee-os-stm32mp-3.19.0-stm32mp-r2/ta/pkcs11/src/pkcs11_token.h:291 (discriminator 1)
     c94:	9b02      	ldr	r3, [sp, #8]
/home/lubuntu/Dokument/GitHub/STM32-Computer/Firmware/STM32-Computer-Firmware/CA7/optee-os-3.19.0-r2/optee-os-stm32mp-3.19.0-stm32mp-r2/ta/pkcs11/src/pkcs11_token.h:292 (discriminator 1)
     c96:	699b      	ldr	r3, [r3, #24]
     c98:	3b02      	subs	r3, #2
entry_destroy_object():
/home/lubuntu/Dokument/GitHub/STM32-Computer/Firmware/STM32-Computer-Firmware/CA7/optee-os-3.19.0-r2/optee-os-stm32mp-3.19.0-stm32mp-r2/ta/pkcs11/src/object.c:436 (discriminator 1)
     c9a:	2b02      	cmp	r3, #2
     c9c:	d813      	bhi.n	cc6 <entry_destroy_object+0xa8>
/home/lubuntu/Dokument/GitHub/STM32-Computer/Firmware/STM32-Computer-Firmware/CA7/optee-os-3.19.0-r2/optee-os-stm32mp-3.19.0-stm32mp-r2/ta/pkcs11/src/object.c:445
     c9e:	68a9      	ldr	r1, [r5, #8]
     ca0:	9802      	ldr	r0, [sp, #8]
     ca2:	f002 f979 	bl	2f98 <check_access_attrs_against_token>
/home/lubuntu/Dokument/GitHub/STM32-Computer/Firmware/STM32-Computer-Firmware/CA7/optee-os-3.19.0-r2/optee-os-stm32mp-3.19.0-stm32mp-r2/ta/pkcs11/src/object.c:446
     ca6:	4604      	mov	r4, r0
     ca8:	b978      	cbnz	r0, cca <entry_destroy_object+0xac>
/home/lubuntu/Dokument/GitHub/STM32-Computer/Firmware/STM32-Computer-Firmware/CA7/optee-os-3.19.0-r2/optee-os-stm32mp-3.19.0-stm32mp-r2/ta/pkcs11/src/object.c:450
     caa:	68a8      	ldr	r0, [r5, #8]
     cac:	f44f 71b9 	mov.w	r1, #370	@ 0x172
     cb0:	f7ff faf5 	bl	29e <get_bool>
     cb4:	b160      	cbz	r0, cd0 <entry_destroy_object+0xb2>
/home/lubuntu/Dokument/GitHub/STM32-Computer/Firmware/STM32-Computer-Firmware/CA7/optee-os-3.19.0-r2/optee-os-stm32mp-3.19.0-stm32mp-r2/ta/pkcs11/src/object.c:453
     cb6:	9802      	ldr	r0, [sp, #8]
     cb8:	4622      	mov	r2, r4
     cba:	4629      	mov	r1, r5
     cbc:	f7ff fe48 	bl	950 <destroy_object>
/home/lubuntu/Dokument/GitHub/STM32-Computer/Firmware/STM32-Computer-Firmware/CA7/optee-os-3.19.0-r2/optee-os-stm32mp-3.19.0-stm32mp-r2/ta/pkcs11/src/object.c:458
     cc0:	e7bd      	b.n	c3e <entry_destroy_object+0x20>
/home/lubuntu/Dokument/GitHub/STM32-Computer/Firmware/STM32-Computer-Firmware/CA7/optee-os-3.19.0-r2/optee-os-stm32mp-3.19.0-stm32mp-r2/ta/pkcs11/src/object.c:433
     cc2:	2482      	movs	r4, #130	@ 0x82
     cc4:	e7bb      	b.n	c3e <entry_destroy_object+0x20>
/home/lubuntu/Dokument/GitHub/STM32-Computer/Firmware/STM32-Computer-Firmware/CA7/optee-os-3.19.0-r2/optee-os-stm32mp-3.19.0-stm32mp-r2/ta/pkcs11/src/object.c:439
     cc6:	24b5      	movs	r4, #181	@ 0xb5
     cc8:	e7b9      	b.n	c3e <entry_destroy_object+0x20>
/home/lubuntu/Dokument/GitHub/STM32-Computer/Firmware/STM32-Computer-Firmware/CA7/optee-os-3.19.0-r2/optee-os-stm32mp-3.19.0-stm32mp-r2/ta/pkcs11/src/object.c:447
     cca:	f240 1401 	movw	r4, #257	@ 0x101
     cce:	e7b6      	b.n	c3e <entry_destroy_object+0x20>
/home/lubuntu/Dokument/GitHub/STM32-Computer/Firmware/STM32-Computer-Firmware/CA7/optee-os-3.19.0-r2/optee-os-stm32mp-3.19.0-stm32mp-r2/ta/pkcs11/src/object.c:451
     cd0:	241b      	movs	r4, #27
     cd2:	e7b4      	b.n	c3e <entry_destroy_object+0x20>

00000cd4 <entry_find_objects_init>:
entry_find_objects_init():
/home/lubuntu/Dokument/GitHub/STM32-Computer/Firmware/STM32-Computer-Firmware/CA7/optee-os-3.19.0-r2/optee-os-stm32mp-3.19.0-stm32mp-r2/ta/pkcs11/src/object.c:497
     cd4:	efc0 0010 	vmov.i32	d16, #0	@ 0x00000000
/home/lubuntu/Dokument/GitHub/STM32-Computer/Firmware/STM32-Computer-Firmware/CA7/optee-os-3.19.0-r2/optee-os-stm32mp-3.19.0-stm32mp-r2/ta/pkcs11/src/object.c:490
     cd8:	e92d 41f0 	stmdb	sp!, {r4, r5, r6, r7, r8, lr}
     cdc:	b08a      	sub	sp, #40	@ 0x28
     cde:	4613      	mov	r3, r2
/home/lubuntu/Dokument/GitHub/STM32-Computer/Firmware/STM32-Computer-Firmware/CA7/optee-os-3.19.0-r2/optee-os-stm32mp-3.19.0-stm32mp-r2/ta/pkcs11/src/object.c:498
     ce0:	2200      	movs	r2, #0
/home/lubuntu/Dokument/GitHub/STM32-Computer/Firmware/STM32-Computer-Firmware/CA7/optee-os-3.19.0-r2/optee-os-stm32mp-3.19.0-stm32mp-r2/ta/pkcs11/src/object.c:497
     ce2:	edcd 0b07 	vstr	d16, [sp, #28]
/home/lubuntu/Dokument/GitHub/STM32-Computer/Firmware/STM32-Computer-Firmware/CA7/optee-os-3.19.0-r2/optee-os-stm32mp-3.19.0-stm32mp-r2/ta/pkcs11/src/object.c:501
     ce6:	9206      	str	r2, [sp, #24]
/home/lubuntu/Dokument/GitHub/STM32-Computer/Firmware/STM32-Computer-Firmware/CA7/optee-os-3.19.0-r2/optee-os-stm32mp-3.19.0-stm32mp-r2/ta/pkcs11/src/object.c:490
     ce8:	460d      	mov	r5, r1
/home/lubuntu/Dokument/GitHub/STM32-Computer/Firmware/STM32-Computer-Firmware/CA7/optee-os-3.19.0-r2/optee-os-stm32mp-3.19.0-stm32mp-r2/ta/pkcs11/src/object.c:497
     cea:	edcd 0b08 	vstr	d16, [sp, #32]
     cee:	ae07      	add	r6, sp, #28
/home/lubuntu/Dokument/GitHub/STM32-Computer/Firmware/STM32-Computer-Firmware/CA7/optee-os-3.19.0-r2/optee-os-stm32mp-3.19.0-stm32mp-r2/ta/pkcs11/src/object.c:506
     cf0:	4604      	mov	r4, r0
/home/lubuntu/Dokument/GitHub/STM32-Computer/Firmware/STM32-Computer-Firmware/CA7/optee-os-3.19.0-r2/optee-os-stm32mp-3.19.0-stm32mp-r2/ta/pkcs11/src/object.c:500
     cf2:	e9cd 2204 	strd	r2, r2, [sp, #16]
/home/lubuntu/Dokument/GitHub/STM32-Computer/Firmware/STM32-Computer-Firmware/CA7/optee-os-3.19.0-r2/optee-os-stm32mp-3.19.0-stm32mp-r2/ta/pkcs11/src/object.c:506
     cf6:	b108      	cbz	r0, cfc <entry_find_objects_init+0x28>
/home/lubuntu/Dokument/GitHub/STM32-Computer/Firmware/STM32-Computer-Firmware/CA7/optee-os-3.19.0-r2/optee-os-stm32mp-3.19.0-stm32mp-r2/ta/pkcs11/src/object.c:506 (discriminator 1)
     cf8:	2907      	cmp	r1, #7
     cfa:	d004      	beq.n	d06 <entry_find_objects_init+0x32>
/home/lubuntu/Dokument/GitHub/STM32-Computer/Firmware/STM32-Computer-Firmware/CA7/optee-os-3.19.0-r2/optee-os-stm32mp-3.19.0-stm32mp-r2/ta/pkcs11/src/object.c:507
     cfc:	2407      	movs	r4, #7
/home/lubuntu/Dokument/GitHub/STM32-Computer/Firmware/STM32-Computer-Firmware/CA7/optee-os-3.19.0-r2/optee-os-stm32mp-3.19.0-stm32mp-r2/ta/pkcs11/src/object.c:650
     cfe:	4620      	mov	r0, r4
     d00:	b00a      	add	sp, #40	@ 0x28
     d02:	e8bd 81f0 	ldmia.w	sp!, {r4, r5, r6, r7, r8, pc}
/home/lubuntu/Dokument/GitHub/STM32-Computer/Firmware/STM32-Computer-Firmware/CA7/optee-os-3.19.0-r2/optee-os-stm32mp-3.19.0-stm32mp-r2/ta/pkcs11/src/object.c:509
     d06:	e9d3 1200 	ldrd	r1, r2, [r3]
     d0a:	4630      	mov	r0, r6
     d0c:	f008 fe22 	bl	9954 <serialargs_init>
/home/lubuntu/Dokument/GitHub/STM32-Computer/Firmware/STM32-Computer-Firmware/CA7/optee-os-3.19.0-r2/optee-os-stm32mp-3.19.0-stm32mp-r2/ta/pkcs11/src/object.c:511
     d10:	4621      	mov	r1, r4
     d12:	aa04      	add	r2, sp, #16
     d14:	4630      	mov	r0, r6
     d16:	f008 fedf 	bl	9ad8 <serialargs_get_session_from_handle>
/home/lubuntu/Dokument/GitHub/STM32-Computer/Firmware/STM32-Computer-Firmware/CA7/optee-os-3.19.0-r2/optee-os-stm32mp-3.19.0-stm32mp-r2/ta/pkcs11/src/object.c:512
     d1a:	4604      	mov	r4, r0
     d1c:	2800      	cmp	r0, #0
     d1e:	d1ee      	bne.n	cfe <entry_find_objects_init+0x2a>
/home/lubuntu/Dokument/GitHub/STM32-Computer/Firmware/STM32-Computer-Firmware/CA7/optee-os-3.19.0-r2/optee-os-stm32mp-3.19.0-stm32mp-r2/ta/pkcs11/src/object.c:515
     d20:	a905      	add	r1, sp, #20
     d22:	4630      	mov	r0, r6
     d24:	f008 feaf 	bl	9a86 <serialargs_alloc_get_attributes>
/home/lubuntu/Dokument/GitHub/STM32-Computer/Firmware/STM32-Computer-Firmware/CA7/optee-os-3.19.0-r2/optee-os-stm32mp-3.19.0-stm32mp-r2/ta/pkcs11/src/object.c:516
     d28:	4604      	mov	r4, r0
     d2a:	2800      	cmp	r0, #0
     d2c:	d1e7      	bne.n	cfe <entry_find_objects_init+0x2a>
/home/lubuntu/Dokument/GitHub/STM32-Computer/Firmware/STM32-Computer-Firmware/CA7/optee-os-3.19.0-r2/optee-os-stm32mp-3.19.0-stm32mp-r2/ta/pkcs11/src/object.c:519
     d2e:	4630      	mov	r0, r6
     d30:	f008 fec9 	bl	9ac6 <serialargs_remaining_bytes>
     d34:	2800      	cmp	r0, #0
     d36:	f040 80dd 	bne.w	ef4 <entry_find_objects_init+0x220>
/home/lubuntu/Dokument/GitHub/STM32-Computer/Firmware/STM32-Computer-Firmware/CA7/optee-os-3.19.0-r2/optee-os-stm32mp-3.19.0-stm32mp-r2/ta/pkcs11/src/object.c:525
     d3a:	9b04      	ldr	r3, [sp, #16]
     d3c:	69da      	ldr	r2, [r3, #28]
     d3e:	2a00      	cmp	r2, #0
     d40:	f040 80d0 	bne.w	ee4 <entry_find_objects_init+0x210>
/home/lubuntu/Dokument/GitHub/STM32-Computer/Firmware/STM32-Computer-Firmware/CA7/optee-os-3.19.0-r2/optee-os-stm32mp-3.19.0-stm32mp-r2/ta/pkcs11/src/object.c:530
     d44:	6a1b      	ldr	r3, [r3, #32]
     d46:	b19b      	cbz	r3, d70 <entry_find_objects_init+0x9c>
/home/lubuntu/Dokument/GitHub/STM32-Computer/Firmware/STM32-Computer-Firmware/CA7/optee-os-3.19.0-r2/optee-os-stm32mp-3.19.0-stm32mp-r2/ta/pkcs11/src/object.c:531
     d48:	4b70      	ldr	r3, [pc, #448]	@ (f0c <entry_find_objects_init+0x238>)
     d4a:	f240 2113 	movw	r1, #531	@ 0x213
     d4e:	4870      	ldr	r0, [pc, #448]	@ (f10 <entry_find_objects_init+0x23c>)
/home/lubuntu/Dokument/GitHub/STM32-Computer/Firmware/STM32-Computer-Firmware/CA7/optee-os-3.19.0-r2/optee-os-stm32mp-3.19.0-stm32mp-r2/ta/pkcs11/src/object.c:532
     d50:	2406      	movs	r4, #6
/home/lubuntu/Dokument/GitHub/STM32-Computer/Firmware/STM32-Computer-Firmware/CA7/optee-os-3.19.0-r2/optee-os-stm32mp-3.19.0-stm32mp-r2/ta/pkcs11/src/object.c:531
     d52:	447b      	add	r3, pc
     d54:	9300      	str	r3, [sp, #0]
     d56:	2301      	movs	r3, #1
     d58:	4478      	add	r0, pc
     d5a:	461a      	mov	r2, r3
     d5c:	300f      	adds	r0, #15
     d5e:	f009 fd4d 	bl	a7fc <trace_printf>
/home/lubuntu/Dokument/GitHub/STM32-Computer/Firmware/STM32-Computer-Firmware/CA7/optee-os-3.19.0-r2/optee-os-stm32mp-3.19.0-stm32mp-r2/ta/pkcs11/src/object.c:645
     d62:	9806      	ldr	r0, [sp, #24]
     d64:	f00a f89a 	bl	ae9c <TEE_Free>
/home/lubuntu/Dokument/GitHub/STM32-Computer/Firmware/STM32-Computer-Firmware/CA7/optee-os-3.19.0-r2/optee-os-stm32mp-3.19.0-stm32mp-r2/ta/pkcs11/src/object.c:646
     d68:	9805      	ldr	r0, [sp, #20]
     d6a:	f00a f897 	bl	ae9c <TEE_Free>
release_find_obj_context():
/home/lubuntu/Dokument/GitHub/STM32-Computer/Firmware/STM32-Computer-Firmware/CA7/optee-os-3.19.0-r2/optee-os-stm32mp-3.19.0-stm32mp-r2/ta/pkcs11/src/object.c:463
     d6e:	e7c6      	b.n	cfe <entry_find_objects_init+0x2a>
entry_find_objects_init():
/home/lubuntu/Dokument/GitHub/STM32-Computer/Firmware/STM32-Computer-Firmware/CA7/optee-os-3.19.0-r2/optee-os-stm32mp-3.19.0-stm32mp-r2/ta/pkcs11/src/object.c:536
     d70:	9905      	ldr	r1, [sp, #20]
     d72:	f04f 33ff 	mov.w	r3, #4294967295	@ 0xffffffff
     d76:	a806      	add	r0, sp, #24
     d78:	680a      	ldr	r2, [r1, #0]
     d7a:	9300      	str	r3, [sp, #0]
     d7c:	3208      	adds	r2, #8
     d7e:	f008 fc41 	bl	9604 <sanitize_client_object>
/home/lubuntu/Dokument/GitHub/STM32-Computer/Firmware/STM32-Computer-Firmware/CA7/optee-os-3.19.0-r2/optee-os-stm32mp-3.19.0-stm32mp-r2/ta/pkcs11/src/object.c:539
     d82:	4604      	mov	r4, r0
     d84:	2800      	cmp	r0, #0
     d86:	f040 80ab 	bne.w	ee0 <entry_find_objects_init+0x20c>
/home/lubuntu/Dokument/GitHub/STM32-Computer/Firmware/STM32-Computer-Firmware/CA7/optee-os-3.19.0-r2/optee-os-stm32mp-3.19.0-stm32mp-r2/ta/pkcs11/src/object.c:543
     d8a:	4601      	mov	r1, r0
     d8c:	2010      	movs	r0, #16
     d8e:	f00a f85c 	bl	ae4a <TEE_Malloc>
/home/lubuntu/Dokument/GitHub/STM32-Computer/Firmware/STM32-Computer-Firmware/CA7/optee-os-3.19.0-r2/optee-os-stm32mp-3.19.0-stm32mp-r2/ta/pkcs11/src/object.c:544
     d92:	4607      	mov	r7, r0
     d94:	2800      	cmp	r0, #0
     d96:	f000 809b 	beq.w	ed0 <entry_find_objects_init+0x1fc>
/home/lubuntu/Dokument/GitHub/STM32-Computer/Firmware/STM32-Computer-Firmware/CA7/optee-os-3.19.0-r2/optee-os-stm32mp-3.19.0-stm32mp-r2/ta/pkcs11/src/object.c:549
     d9a:	9805      	ldr	r0, [sp, #20]
     d9c:	f00a f87e 	bl	ae9c <TEE_Free>
/home/lubuntu/Dokument/GitHub/STM32-Computer/Firmware/STM32-Computer-Firmware/CA7/optee-os-3.19.0-r2/optee-os-stm32mp-3.19.0-stm32mp-r2/ta/pkcs11/src/object.c:552
     da0:	9806      	ldr	r0, [sp, #24]
/home/lubuntu/Dokument/GitHub/STM32-Computer/Firmware/STM32-Computer-Firmware/CA7/optee-os-3.19.0-r2/optee-os-stm32mp-3.19.0-stm32mp-r2/ta/pkcs11/src/object.c:550
     da2:	9405      	str	r4, [sp, #20]
/home/lubuntu/Dokument/GitHub/STM32-Computer/Firmware/STM32-Computer-Firmware/CA7/optee-os-3.19.0-r2/optee-os-stm32mp-3.19.0-stm32mp-r2/ta/pkcs11/src/object.c:552
     da4:	f7ff fd71 	bl	88a <get_class>
     da8:	3805      	subs	r0, #5
     daa:	3007      	adds	r0, #7
     dac:	d827      	bhi.n	dfe <entry_find_objects_init+0x12a>
/home/lubuntu/Dokument/GitHub/STM32-Computer/Firmware/STM32-Computer-Firmware/CA7/optee-os-3.19.0-r2/optee-os-stm32mp-3.19.0-stm32mp-r2/ta/pkcs11/src/object.c:562
     dae:	9806      	ldr	r0, [sp, #24]
     db0:	f7ff fd6b 	bl	88a <get_class>
     db4:	f003 f982 	bl	40bc <id2str_class>
     db8:	4604      	mov	r4, r0
     dba:	9806      	ldr	r0, [sp, #24]
     dbc:	f7ff fd65 	bl	88a <get_class>
     dc0:	4b54      	ldr	r3, [pc, #336]	@ (f14 <entry_find_objects_init+0x240>)
     dc2:	f240 2132 	movw	r1, #562	@ 0x232
     dc6:	9002      	str	r0, [sp, #8]
     dc8:	4853      	ldr	r0, [pc, #332]	@ (f18 <entry_find_objects_init+0x244>)
     dca:	447b      	add	r3, pc
     dcc:	4478      	add	r0, pc
     dce:	9300      	str	r3, [sp, #0]
     dd0:	2301      	movs	r3, #1
     dd2:	9401      	str	r4, [sp, #4]
     dd4:	461a      	mov	r2, r3
     dd6:	300f      	adds	r0, #15
     dd8:	f009 fd10 	bl	a7fc <trace_printf>
/home/lubuntu/Dokument/GitHub/STM32-Computer/Firmware/STM32-Computer-Firmware/CA7/optee-os-3.19.0-r2/optee-os-stm32mp-3.19.0-stm32mp-r2/ta/pkcs11/src/object.c:645
     ddc:	9806      	ldr	r0, [sp, #24]
release_find_obj_context():
/home/lubuntu/Dokument/GitHub/STM32-Computer/Firmware/STM32-Computer-Firmware/CA7/optee-os-3.19.0-r2/optee-os-stm32mp-3.19.0-stm32mp-r2/ta/pkcs11/src/object.c:468
     dde:	462c      	mov	r4, r5
entry_find_objects_init():
/home/lubuntu/Dokument/GitHub/STM32-Computer/Firmware/STM32-Computer-Firmware/CA7/optee-os-3.19.0-r2/optee-os-stm32mp-3.19.0-stm32mp-r2/ta/pkcs11/src/object.c:645
     de0:	f00a f85c 	bl	ae9c <TEE_Free>
/home/lubuntu/Dokument/GitHub/STM32-Computer/Firmware/STM32-Computer-Firmware/CA7/optee-os-3.19.0-r2/optee-os-stm32mp-3.19.0-stm32mp-r2/ta/pkcs11/src/object.c:646
     de4:	9805      	ldr	r0, [sp, #20]
     de6:	f00a f859 	bl	ae9c <TEE_Free>
release_find_obj_context():
/home/lubuntu/Dokument/GitHub/STM32-Computer/Firmware/STM32-Computer-Firmware/CA7/optee-os-3.19.0-r2/optee-os-stm32mp-3.19.0-stm32mp-r2/ta/pkcs11/src/object.c:466
     dea:	6838      	ldr	r0, [r7, #0]
     dec:	f00a f856 	bl	ae9c <TEE_Free>
/home/lubuntu/Dokument/GitHub/STM32-Computer/Firmware/STM32-Computer-Firmware/CA7/optee-os-3.19.0-r2/optee-os-stm32mp-3.19.0-stm32mp-r2/ta/pkcs11/src/object.c:467
     df0:	68b8      	ldr	r0, [r7, #8]
     df2:	f00a f853 	bl	ae9c <TEE_Free>
/home/lubuntu/Dokument/GitHub/STM32-Computer/Firmware/STM32-Computer-Firmware/CA7/optee-os-3.19.0-r2/optee-os-stm32mp-3.19.0-stm32mp-r2/ta/pkcs11/src/object.c:468
     df6:	4638      	mov	r0, r7
     df8:	f00a f850 	bl	ae9c <TEE_Free>
     dfc:	e77f      	b.n	cfe <entry_find_objects_init+0x2a>
entry_find_objects_init():
/home/lubuntu/Dokument/GitHub/STM32-Computer/Firmware/STM32-Computer-Firmware/CA7/optee-os-3.19.0-r2/optee-os-stm32mp-3.19.0-stm32mp-r2/ta/pkcs11/src/object.c:575
     dfe:	9804      	ldr	r0, [sp, #16]
     e00:	f003 fb63 	bl	44ca <get_session_list>
     e04:	f8d0 8000 	ldr.w	r8, [r0]
/home/lubuntu/Dokument/GitHub/STM32-Computer/Firmware/STM32-Computer-Firmware/CA7/optee-os-3.19.0-r2/optee-os-stm32mp-3.19.0-stm32mp-r2/ta/pkcs11/src/object.c:575 (discriminator 1)
     e08:	f1b8 0f00 	cmp.w	r8, #0
     e0c:	d113      	bne.n	e36 <entry_find_objects_init+0x162>
/home/lubuntu/Dokument/GitHub/STM32-Computer/Firmware/STM32-Computer-Firmware/CA7/optee-os-3.19.0-r2/optee-os-stm32mp-3.19.0-stm32mp-r2/ta/pkcs11/src/object.c:596
     e0e:	9804      	ldr	r0, [sp, #16]
     e10:	f003 fb58 	bl	44c4 <get_object_handle_db>
/home/lubuntu/Dokument/GitHub/STM32-Computer/Firmware/STM32-Computer-Firmware/CA7/optee-os-3.19.0-r2/optee-os-stm32mp-3.19.0-stm32mp-r2/ta/pkcs11/src/object.c:599
     e14:	9b04      	ldr	r3, [sp, #16]
/home/lubuntu/Dokument/GitHub/STM32-Computer/Firmware/STM32-Computer-Firmware/CA7/optee-os-3.19.0-r2/optee-os-stm32mp-3.19.0-stm32mp-r2/ta/pkcs11/src/object.c:596
     e16:	4680      	mov	r8, r0
/home/lubuntu/Dokument/GitHub/STM32-Computer/Firmware/STM32-Computer-Firmware/CA7/optee-os-3.19.0-r2/optee-os-stm32mp-3.19.0-stm32mp-r2/ta/pkcs11/src/object.c:599
     e18:	68db      	ldr	r3, [r3, #12]
     e1a:	68de      	ldr	r6, [r3, #12]
/home/lubuntu/Dokument/GitHub/STM32-Computer/Firmware/STM32-Computer-Firmware/CA7/optee-os-3.19.0-r2/optee-os-stm32mp-3.19.0-stm32mp-r2/ta/pkcs11/src/object.c:599 (discriminator 1)
     e1c:	bb3e      	cbnz	r6, e6e <entry_find_objects_init+0x19a>
/home/lubuntu/Dokument/GitHub/STM32-Computer/Firmware/STM32-Computer-Firmware/CA7/optee-os-3.19.0-r2/optee-os-stm32mp-3.19.0-stm32mp-r2/ta/pkcs11/src/object.c:638
     e1e:	9b06      	ldr	r3, [sp, #24]
/home/lubuntu/Dokument/GitHub/STM32-Computer/Firmware/STM32-Computer-Firmware/CA7/optee-os-3.19.0-r2/optee-os-stm32mp-3.19.0-stm32mp-r2/ta/pkcs11/src/object.c:645
     e20:	4630      	mov	r0, r6
/home/lubuntu/Dokument/GitHub/STM32-Computer/Firmware/STM32-Computer-Firmware/CA7/optee-os-3.19.0-r2/optee-os-stm32mp-3.19.0-stm32mp-r2/ta/pkcs11/src/object.c:638
     e22:	603b      	str	r3, [r7, #0]
/home/lubuntu/Dokument/GitHub/STM32-Computer/Firmware/STM32-Computer-Firmware/CA7/optee-os-3.19.0-r2/optee-os-stm32mp-3.19.0-stm32mp-r2/ta/pkcs11/src/object.c:640
     e24:	9b04      	ldr	r3, [sp, #16]
/home/lubuntu/Dokument/GitHub/STM32-Computer/Firmware/STM32-Computer-Firmware/CA7/optee-os-3.19.0-r2/optee-os-stm32mp-3.19.0-stm32mp-r2/ta/pkcs11/src/object.c:639
     e26:	9606      	str	r6, [sp, #24]
/home/lubuntu/Dokument/GitHub/STM32-Computer/Firmware/STM32-Computer-Firmware/CA7/optee-os-3.19.0-r2/optee-os-stm32mp-3.19.0-stm32mp-r2/ta/pkcs11/src/object.c:640
     e28:	621f      	str	r7, [r3, #32]
/home/lubuntu/Dokument/GitHub/STM32-Computer/Firmware/STM32-Computer-Firmware/CA7/optee-os-3.19.0-r2/optee-os-stm32mp-3.19.0-stm32mp-r2/ta/pkcs11/src/object.c:645
     e2a:	f00a f837 	bl	ae9c <TEE_Free>
/home/lubuntu/Dokument/GitHub/STM32-Computer/Firmware/STM32-Computer-Firmware/CA7/optee-os-3.19.0-r2/optee-os-stm32mp-3.19.0-stm32mp-r2/ta/pkcs11/src/object.c:646
     e2e:	9805      	ldr	r0, [sp, #20]
     e30:	f00a f834 	bl	ae9c <TEE_Free>
release_find_obj_context():
/home/lubuntu/Dokument/GitHub/STM32-Computer/Firmware/STM32-Computer-Firmware/CA7/optee-os-3.19.0-r2/optee-os-stm32mp-3.19.0-stm32mp-r2/ta/pkcs11/src/object.c:463
     e34:	e763      	b.n	cfe <entry_find_objects_init+0x2a>
entry_find_objects_init():
/home/lubuntu/Dokument/GitHub/STM32-Computer/Firmware/STM32-Computer-Firmware/CA7/optee-os-3.19.0-r2/optee-os-stm32mp-3.19.0-stm32mp-r2/ta/pkcs11/src/object.c:576
     e36:	f8d8 6014 	ldr.w	r6, [r8, #20]
/home/lubuntu/Dokument/GitHub/STM32-Computer/Firmware/STM32-Computer-Firmware/CA7/optee-os-3.19.0-r2/optee-os-stm32mp-3.19.0-stm32mp-r2/ta/pkcs11/src/object.c:576 (discriminator 1)
     e3a:	b916      	cbnz	r6, e42 <entry_find_objects_init+0x16e>
/home/lubuntu/Dokument/GitHub/STM32-Computer/Firmware/STM32-Computer-Firmware/CA7/optee-os-3.19.0-r2/optee-os-stm32mp-3.19.0-stm32mp-r2/ta/pkcs11/src/object.c:575 (discriminator 2)
     e3c:	f8d8 8000 	ldr.w	r8, [r8]
     e40:	e7e2      	b.n	e08 <entry_find_objects_init+0x134>
/home/lubuntu/Dokument/GitHub/STM32-Computer/Firmware/STM32-Computer-Firmware/CA7/optee-os-3.19.0-r2/optee-os-stm32mp-3.19.0-stm32mp-r2/ta/pkcs11/src/object.c:582
     e42:	6973      	ldr	r3, [r6, #20]
     e44:	b10b      	cbz	r3, e4a <entry_find_objects_init+0x176>
/home/lubuntu/Dokument/GitHub/STM32-Computer/Firmware/STM32-Computer-Firmware/CA7/optee-os-3.19.0-r2/optee-os-stm32mp-3.19.0-stm32mp-r2/ta/pkcs11/src/object.c:576
     e46:	6836      	ldr	r6, [r6, #0]
     e48:	e7f7      	b.n	e3a <entry_find_objects_init+0x166>
/home/lubuntu/Dokument/GitHub/STM32-Computer/Firmware/STM32-Computer-Firmware/CA7/optee-os-3.19.0-r2/optee-os-stm32mp-3.19.0-stm32mp-r2/ta/pkcs11/src/object.c:585
     e4a:	9906      	ldr	r1, [sp, #24]
     e4c:	68b0      	ldr	r0, [r6, #8]
     e4e:	f7ff fa4f 	bl	2f0 <attributes_match_reference>
     e52:	2800      	cmp	r0, #0
     e54:	d0f7      	beq.n	e46 <entry_find_objects_init+0x172>
/home/lubuntu/Dokument/GitHub/STM32-Computer/Firmware/STM32-Computer-Firmware/CA7/optee-os-3.19.0-r2/optee-os-stm32mp-3.19.0-stm32mp-r2/ta/pkcs11/src/object.c:589
     e56:	9904      	ldr	r1, [sp, #16]
     e58:	4630      	mov	r0, r6
     e5a:	f7ff fd4d 	bl	8f8 <pkcs11_object2handle>
     e5e:	4601      	mov	r1, r0
     e60:	4638      	mov	r0, r7
     e62:	f7ff fd23 	bl	8ac <find_ctx_add>
/home/lubuntu/Dokument/GitHub/STM32-Computer/Firmware/STM32-Computer-Firmware/CA7/optee-os-3.19.0-r2/optee-os-stm32mp-3.19.0-stm32mp-r2/ta/pkcs11/src/object.c:591
     e66:	4605      	mov	r5, r0
     e68:	2800      	cmp	r0, #0
     e6a:	d0ec      	beq.n	e46 <entry_find_objects_init+0x172>
     e6c:	e7b6      	b.n	ddc <entry_find_objects_init+0x108>
/home/lubuntu/Dokument/GitHub/STM32-Computer/Firmware/STM32-Computer-Firmware/CA7/optee-os-3.19.0-r2/optee-os-stm32mp-3.19.0-stm32mp-r2/ta/pkcs11/src/object.c:603
     e6e:	68b1      	ldr	r1, [r6, #8]
     e70:	b959      	cbnz	r1, e8a <entry_find_objects_init+0x1b6>
/home/lubuntu/Dokument/GitHub/STM32-Computer/Firmware/STM32-Computer-Firmware/CA7/optee-os-3.19.0-r2/optee-os-stm32mp-3.19.0-stm32mp-r2/ta/pkcs11/src/object.c:604
     e72:	4630      	mov	r0, r6
     e74:	f000 fea9 	bl	1bca <load_persistent_object_attributes>
/home/lubuntu/Dokument/GitHub/STM32-Computer/Firmware/STM32-Computer-Firmware/CA7/optee-os-3.19.0-r2/optee-os-stm32mp-3.19.0-stm32mp-r2/ta/pkcs11/src/object.c:605
     e78:	2800      	cmp	r0, #0
     e7a:	d142      	bne.n	f02 <entry_find_objects_init+0x22e>
/home/lubuntu/Dokument/GitHub/STM32-Computer/Firmware/STM32-Computer-Firmware/CA7/optee-os-3.19.0-r2/optee-os-stm32mp-3.19.0-stm32mp-r2/ta/pkcs11/src/object.c:613
     e7c:	68b1      	ldr	r1, [r6, #8]
     e7e:	b961      	cbnz	r1, e9a <entry_find_objects_init+0x1c6>
/home/lubuntu/Dokument/GitHub/STM32-Computer/Firmware/STM32-Computer-Firmware/CA7/optee-os-3.19.0-r2/optee-os-stm32mp-3.19.0-stm32mp-r2/ta/pkcs11/src/object.c:618
     e80:	4630      	mov	r0, r6
     e82:	f000 ff5b 	bl	1d3c <release_persistent_object_attributes>
/home/lubuntu/Dokument/GitHub/STM32-Computer/Firmware/STM32-Computer-Firmware/CA7/optee-os-3.19.0-r2/optee-os-stm32mp-3.19.0-stm32mp-r2/ta/pkcs11/src/object.c:599 (discriminator 2)
     e86:	6836      	ldr	r6, [r6, #0]
     e88:	e7c8      	b.n	e1c <entry_find_objects_init+0x148>
/home/lubuntu/Dokument/GitHub/STM32-Computer/Firmware/STM32-Computer-Firmware/CA7/optee-os-3.19.0-r2/optee-os-stm32mp-3.19.0-stm32mp-r2/ta/pkcs11/src/object.c:601
     e8a:	2500      	movs	r5, #0
/home/lubuntu/Dokument/GitHub/STM32-Computer/Firmware/STM32-Computer-Firmware/CA7/optee-os-3.19.0-r2/optee-os-stm32mp-3.19.0-stm32mp-r2/ta/pkcs11/src/object.c:614 (discriminator 1)
     e8c:	9804      	ldr	r0, [sp, #16]
     e8e:	f002 f883 	bl	2f98 <check_access_attrs_against_token>
/home/lubuntu/Dokument/GitHub/STM32-Computer/Firmware/STM32-Computer-Firmware/CA7/optee-os-3.19.0-r2/optee-os-stm32mp-3.19.0-stm32mp-r2/ta/pkcs11/src/object.c:613 (discriminator 1)
     e92:	b120      	cbz	r0, e9e <entry_find_objects_init+0x1ca>
/home/lubuntu/Dokument/GitHub/STM32-Computer/Firmware/STM32-Computer-Firmware/CA7/optee-os-3.19.0-r2/optee-os-stm32mp-3.19.0-stm32mp-r2/ta/pkcs11/src/object.c:617
     e94:	2d00      	cmp	r5, #0
     e96:	d1f3      	bne.n	e80 <entry_find_objects_init+0x1ac>
     e98:	e7f5      	b.n	e86 <entry_find_objects_init+0x1b2>
/home/lubuntu/Dokument/GitHub/STM32-Computer/Firmware/STM32-Computer-Firmware/CA7/optee-os-3.19.0-r2/optee-os-stm32mp-3.19.0-stm32mp-r2/ta/pkcs11/src/object.c:610
     e9a:	2501      	movs	r5, #1
     e9c:	e7f6      	b.n	e8c <entry_find_objects_init+0x1b8>
/home/lubuntu/Dokument/GitHub/STM32-Computer/Firmware/STM32-Computer-Firmware/CA7/optee-os-3.19.0-r2/optee-os-stm32mp-3.19.0-stm32mp-r2/ta/pkcs11/src/object.c:616
     e9e:	9906      	ldr	r1, [sp, #24]
     ea0:	68b0      	ldr	r0, [r6, #8]
     ea2:	f7ff fa25 	bl	2f0 <attributes_match_reference>
/home/lubuntu/Dokument/GitHub/STM32-Computer/Firmware/STM32-Computer-Firmware/CA7/optee-os-3.19.0-r2/optee-os-stm32mp-3.19.0-stm32mp-r2/ta/pkcs11/src/object.c:615
     ea6:	2800      	cmp	r0, #0
     ea8:	d0f4      	beq.n	e94 <entry_find_objects_init+0x1c0>
/home/lubuntu/Dokument/GitHub/STM32-Computer/Firmware/STM32-Computer-Firmware/CA7/optee-os-3.19.0-r2/optee-os-stm32mp-3.19.0-stm32mp-r2/ta/pkcs11/src/object.c:624
     eaa:	9904      	ldr	r1, [sp, #16]
     eac:	4630      	mov	r0, r6
     eae:	f7ff fd23 	bl	8f8 <pkcs11_object2handle>
/home/lubuntu/Dokument/GitHub/STM32-Computer/Firmware/STM32-Computer-Firmware/CA7/optee-os-3.19.0-r2/optee-os-stm32mp-3.19.0-stm32mp-r2/ta/pkcs11/src/object.c:625
     eb2:	4601      	mov	r1, r0
     eb4:	b928      	cbnz	r0, ec2 <entry_find_objects_init+0x1ee>
/home/lubuntu/Dokument/GitHub/STM32-Computer/Firmware/STM32-Computer-Firmware/CA7/optee-os-3.19.0-r2/optee-os-stm32mp-3.19.0-stm32mp-r2/ta/pkcs11/src/object.c:626
     eb6:	4631      	mov	r1, r6
     eb8:	4640      	mov	r0, r8
     eba:	f012 f987 	bl	131cc <handle_get>
/home/lubuntu/Dokument/GitHub/STM32-Computer/Firmware/STM32-Computer-Firmware/CA7/optee-os-3.19.0-r2/optee-os-stm32mp-3.19.0-stm32mp-r2/ta/pkcs11/src/object.c:627
     ebe:	4601      	mov	r1, r0
     ec0:	b308      	cbz	r0, f06 <entry_find_objects_init+0x232>
/home/lubuntu/Dokument/GitHub/STM32-Computer/Firmware/STM32-Computer-Firmware/CA7/optee-os-3.19.0-r2/optee-os-stm32mp-3.19.0-stm32mp-r2/ta/pkcs11/src/object.c:633
     ec2:	4638      	mov	r0, r7
     ec4:	f7ff fcf2 	bl	8ac <find_ctx_add>
/home/lubuntu/Dokument/GitHub/STM32-Computer/Firmware/STM32-Computer-Firmware/CA7/optee-os-3.19.0-r2/optee-os-stm32mp-3.19.0-stm32mp-r2/ta/pkcs11/src/object.c:634
     ec8:	4605      	mov	r5, r0
     eca:	2800      	cmp	r0, #0
     ecc:	d0db      	beq.n	e86 <entry_find_objects_init+0x1b2>
     ece:	e785      	b.n	ddc <entry_find_objects_init+0x108>
/home/lubuntu/Dokument/GitHub/STM32-Computer/Firmware/STM32-Computer-Firmware/CA7/optee-os-3.19.0-r2/optee-os-stm32mp-3.19.0-stm32mp-r2/ta/pkcs11/src/object.c:645
     ed0:	9806      	ldr	r0, [sp, #24]
/home/lubuntu/Dokument/GitHub/STM32-Computer/Firmware/STM32-Computer-Firmware/CA7/optee-os-3.19.0-r2/optee-os-stm32mp-3.19.0-stm32mp-r2/ta/pkcs11/src/object.c:545
     ed2:	2431      	movs	r4, #49	@ 0x31
/home/lubuntu/Dokument/GitHub/STM32-Computer/Firmware/STM32-Computer-Firmware/CA7/optee-os-3.19.0-r2/optee-os-stm32mp-3.19.0-stm32mp-r2/ta/pkcs11/src/object.c:645
     ed4:	f009 ffe2 	bl	ae9c <TEE_Free>
/home/lubuntu/Dokument/GitHub/STM32-Computer/Firmware/STM32-Computer-Firmware/CA7/optee-os-3.19.0-r2/optee-os-stm32mp-3.19.0-stm32mp-r2/ta/pkcs11/src/object.c:646
     ed8:	9805      	ldr	r0, [sp, #20]
     eda:	f009 ffdf 	bl	ae9c <TEE_Free>
release_find_obj_context():
/home/lubuntu/Dokument/GitHub/STM32-Computer/Firmware/STM32-Computer-Firmware/CA7/optee-os-3.19.0-r2/optee-os-stm32mp-3.19.0-stm32mp-r2/ta/pkcs11/src/object.c:463
     ede:	e70e      	b.n	cfe <entry_find_objects_init+0x2a>
entry_find_objects_init():
/home/lubuntu/Dokument/GitHub/STM32-Computer/Firmware/STM32-Computer-Firmware/CA7/optee-os-3.19.0-r2/optee-os-stm32mp-3.19.0-stm32mp-r2/ta/pkcs11/src/object.c:645
     ee0:	9806      	ldr	r0, [sp, #24]
     ee2:	e7a2      	b.n	e2a <entry_find_objects_init+0x156>
     ee4:	9806      	ldr	r0, [sp, #24]
/home/lubuntu/Dokument/GitHub/STM32-Computer/Firmware/STM32-Computer-Firmware/CA7/optee-os-3.19.0-r2/optee-os-stm32mp-3.19.0-stm32mp-r2/ta/pkcs11/src/object.c:526
     ee6:	2490      	movs	r4, #144	@ 0x90
/home/lubuntu/Dokument/GitHub/STM32-Computer/Firmware/STM32-Computer-Firmware/CA7/optee-os-3.19.0-r2/optee-os-stm32mp-3.19.0-stm32mp-r2/ta/pkcs11/src/object.c:645
     ee8:	f009 ffd8 	bl	ae9c <TEE_Free>
/home/lubuntu/Dokument/GitHub/STM32-Computer/Firmware/STM32-Computer-Firmware/CA7/optee-os-3.19.0-r2/optee-os-stm32mp-3.19.0-stm32mp-r2/ta/pkcs11/src/object.c:646
     eec:	9805      	ldr	r0, [sp, #20]
     eee:	f009 ffd5 	bl	ae9c <TEE_Free>
release_find_obj_context():
/home/lubuntu/Dokument/GitHub/STM32-Computer/Firmware/STM32-Computer-Firmware/CA7/optee-os-3.19.0-r2/optee-os-stm32mp-3.19.0-stm32mp-r2/ta/pkcs11/src/object.c:463
     ef2:	e704      	b.n	cfe <entry_find_objects_init+0x2a>
entry_find_objects_init():
/home/lubuntu/Dokument/GitHub/STM32-Computer/Firmware/STM32-Computer-Firmware/CA7/optee-os-3.19.0-r2/optee-os-stm32mp-3.19.0-stm32mp-r2/ta/pkcs11/src/object.c:645
     ef4:	9806      	ldr	r0, [sp, #24]
     ef6:	f009 ffd1 	bl	ae9c <TEE_Free>
/home/lubuntu/Dokument/GitHub/STM32-Computer/Firmware/STM32-Computer-Firmware/CA7/optee-os-3.19.0-r2/optee-os-stm32mp-3.19.0-stm32mp-r2/ta/pkcs11/src/object.c:646
     efa:	9805      	ldr	r0, [sp, #20]
     efc:	f009 ffce 	bl	ae9c <TEE_Free>
release_find_obj_context():
/home/lubuntu/Dokument/GitHub/STM32-Computer/Firmware/STM32-Computer-Firmware/CA7/optee-os-3.19.0-r2/optee-os-stm32mp-3.19.0-stm32mp-r2/ta/pkcs11/src/object.c:463
     f00:	e6fc      	b.n	cfc <entry_find_objects_init+0x28>
entry_find_objects_init():
/home/lubuntu/Dokument/GitHub/STM32-Computer/Firmware/STM32-Computer-Firmware/CA7/optee-os-3.19.0-r2/optee-os-stm32mp-3.19.0-stm32mp-r2/ta/pkcs11/src/object.c:606
     f02:	2505      	movs	r5, #5
     f04:	e76a      	b.n	ddc <entry_find_objects_init+0x108>
/home/lubuntu/Dokument/GitHub/STM32-Computer/Firmware/STM32-Computer-Firmware/CA7/optee-os-3.19.0-r2/optee-os-stm32mp-3.19.0-stm32mp-r2/ta/pkcs11/src/object.c:628
     f06:	2531      	movs	r5, #49	@ 0x31
     f08:	e768      	b.n	ddc <entry_find_objects_init+0x108>
     f0a:	bf00      	nop
     f0c:	00013a72 	.word	0x00013a72
     f10:	00013ac3 	.word	0x00013ac3
     f14:	00013a23 	.word	0x00013a23
     f18:	00013a4f 	.word	0x00013a4f

00000f1c <entry_find_objects>:
entry_find_objects():
/home/lubuntu/Dokument/GitHub/STM32-Computer/Firmware/STM32-Computer-Firmware/CA7/optee-os-3.19.0-r2/optee-os-stm32mp-3.19.0-stm32mp-r2/ta/pkcs11/src/object.c:662
     f1c:	efc0 0010 	vmov.i32	d16, #0	@ 0x00000000
/home/lubuntu/Dokument/GitHub/STM32-Computer/Firmware/STM32-Computer-Firmware/CA7/optee-os-3.19.0-r2/optee-os-stm32mp-3.19.0-stm32mp-r2/ta/pkcs11/src/object.c:654
     f20:	e92d 43f0 	stmdb	sp!, {r4, r5, r6, r7, r8, r9, lr}
     f24:	b085      	sub	sp, #20
/home/lubuntu/Dokument/GitHub/STM32-Computer/Firmware/STM32-Computer-Firmware/CA7/optee-os-3.19.0-r2/optee-os-stm32mp-3.19.0-stm32mp-r2/ta/pkcs11/src/object.c:663
     f26:	2300      	movs	r3, #0
/home/lubuntu/Dokument/GitHub/STM32-Computer/Firmware/STM32-Computer-Firmware/CA7/optee-os-3.19.0-r2/optee-os-stm32mp-3.19.0-stm32mp-r2/ta/pkcs11/src/object.c:654
     f28:	4615      	mov	r5, r2
/home/lubuntu/Dokument/GitHub/STM32-Computer/Firmware/STM32-Computer-Firmware/CA7/optee-os-3.19.0-r2/optee-os-stm32mp-3.19.0-stm32mp-r2/ta/pkcs11/src/object.c:662
     f2a:	edcd 0b01 	vstr	d16, [sp, #4]
/home/lubuntu/Dokument/GitHub/STM32-Computer/Firmware/STM32-Computer-Firmware/CA7/optee-os-3.19.0-r2/optee-os-stm32mp-3.19.0-stm32mp-r2/ta/pkcs11/src/object.c:663
     f2e:	9300      	str	r3, [sp, #0]
/home/lubuntu/Dokument/GitHub/STM32-Computer/Firmware/STM32-Computer-Firmware/CA7/optee-os-3.19.0-r2/optee-os-stm32mp-3.19.0-stm32mp-r2/ta/pkcs11/src/object.c:662
     f30:	ae01      	add	r6, sp, #4
     f32:	edcd 0b02 	vstr	d16, [sp, #8]
/home/lubuntu/Dokument/GitHub/STM32-Computer/Firmware/STM32-Computer-Firmware/CA7/optee-os-3.19.0-r2/optee-os-stm32mp-3.19.0-stm32mp-r2/ta/pkcs11/src/object.c:669
     f36:	4604      	mov	r4, r0
     f38:	b920      	cbnz	r0, f44 <entry_find_objects+0x28>
/home/lubuntu/Dokument/GitHub/STM32-Computer/Firmware/STM32-Computer-Firmware/CA7/optee-os-3.19.0-r2/optee-os-stm32mp-3.19.0-stm32mp-r2/ta/pkcs11/src/object.c:670
     f3a:	2407      	movs	r4, #7
/home/lubuntu/Dokument/GitHub/STM32-Computer/Firmware/STM32-Computer-Firmware/CA7/optee-os-3.19.0-r2/optee-os-stm32mp-3.19.0-stm32mp-r2/ta/pkcs11/src/object.c:700
     f3c:	4620      	mov	r0, r4
     f3e:	b005      	add	sp, #20
     f40:	e8bd 83f0 	ldmia.w	sp!, {r4, r5, r6, r7, r8, r9, pc}
/home/lubuntu/Dokument/GitHub/STM32-Computer/Firmware/STM32-Computer-Firmware/CA7/optee-os-3.19.0-r2/optee-os-stm32mp-3.19.0-stm32mp-r2/ta/pkcs11/src/object.c:669 (discriminator 1)
     f44:	f240 6307 	movw	r3, #1543	@ 0x607
     f48:	4299      	cmp	r1, r3
     f4a:	d1f6      	bne.n	f3a <entry_find_objects+0x1e>
/home/lubuntu/Dokument/GitHub/STM32-Computer/Firmware/STM32-Computer-Firmware/CA7/optee-os-3.19.0-r2/optee-os-stm32mp-3.19.0-stm32mp-r2/ta/pkcs11/src/object.c:672
     f4c:	6957      	ldr	r7, [r2, #20]
/home/lubuntu/Dokument/GitHub/STM32-Computer/Firmware/STM32-Computer-Firmware/CA7/optee-os-3.19.0-r2/optee-os-stm32mp-3.19.0-stm32mp-r2/ta/pkcs11/src/object.c:675
     f4e:	4630      	mov	r0, r6
/home/lubuntu/Dokument/GitHub/STM32-Computer/Firmware/STM32-Computer-Firmware/CA7/optee-os-3.19.0-r2/optee-os-stm32mp-3.19.0-stm32mp-r2/ta/pkcs11/src/object.c:673
     f50:	f8d2 9010 	ldr.w	r9, [r2, #16]
/home/lubuntu/Dokument/GitHub/STM32-Computer/Firmware/STM32-Computer-Firmware/CA7/optee-os-3.19.0-r2/optee-os-stm32mp-3.19.0-stm32mp-r2/ta/pkcs11/src/object.c:675
     f54:	e9d2 1200 	ldrd	r1, r2, [r2]
     f58:	f008 fcfc 	bl	9954 <serialargs_init>
/home/lubuntu/Dokument/GitHub/STM32-Computer/Firmware/STM32-Computer-Firmware/CA7/optee-os-3.19.0-r2/optee-os-stm32mp-3.19.0-stm32mp-r2/ta/pkcs11/src/object.c:677
     f5c:	4621      	mov	r1, r4
     f5e:	466a      	mov	r2, sp
     f60:	4630      	mov	r0, r6
     f62:	f008 fdb9 	bl	9ad8 <serialargs_get_session_from_handle>
/home/lubuntu/Dokument/GitHub/STM32-Computer/Firmware/STM32-Computer-Firmware/CA7/optee-os-3.19.0-r2/optee-os-stm32mp-3.19.0-stm32mp-r2/ta/pkcs11/src/object.c:678
     f66:	4604      	mov	r4, r0
     f68:	2800      	cmp	r0, #0
     f6a:	d1e7      	bne.n	f3c <entry_find_objects+0x20>
/home/lubuntu/Dokument/GitHub/STM32-Computer/Firmware/STM32-Computer-Firmware/CA7/optee-os-3.19.0-r2/optee-os-stm32mp-3.19.0-stm32mp-r2/ta/pkcs11/src/object.c:681
     f6c:	4630      	mov	r0, r6
     f6e:	f008 fdaa 	bl	9ac6 <serialargs_remaining_bytes>
     f72:	2800      	cmp	r0, #0
     f74:	d1e1      	bne.n	f3a <entry_find_objects+0x1e>
/home/lubuntu/Dokument/GitHub/STM32-Computer/Firmware/STM32-Computer-Firmware/CA7/optee-os-3.19.0-r2/optee-os-stm32mp-3.19.0-stm32mp-r2/ta/pkcs11/src/object.c:684
     f76:	9b00      	ldr	r3, [sp, #0]
     f78:	6a1e      	ldr	r6, [r3, #32]
/home/lubuntu/Dokument/GitHub/STM32-Computer/Firmware/STM32-Computer-Firmware/CA7/optee-os-3.19.0-r2/optee-os-stm32mp-3.19.0-stm32mp-r2/ta/pkcs11/src/object.c:686
     f7a:	b1be      	cbz	r6, fac <entry_find_objects+0x90>
     f7c:	f027 0803 	bic.w	r8, r7, #3
/home/lubuntu/Dokument/GitHub/STM32-Computer/Firmware/STM32-Computer-Firmware/CA7/optee-os-3.19.0-r2/optee-os-stm32mp-3.19.0-stm32mp-r2/ta/pkcs11/src/object.c:672
     f80:	4627      	mov	r7, r4
/home/lubuntu/Dokument/GitHub/STM32-Computer/Firmware/STM32-Computer-Firmware/CA7/optee-os-3.19.0-r2/optee-os-stm32mp-3.19.0-stm32mp-r2/ta/pkcs11/src/object.c:689 (discriminator 1)
     f82:	68f3      	ldr	r3, [r6, #12]
     f84:	6872      	ldr	r2, [r6, #4]
     f86:	4293      	cmp	r3, r2
     f88:	d201      	bcs.n	f8e <entry_find_objects+0x72>
/home/lubuntu/Dokument/GitHub/STM32-Computer/Firmware/STM32-Computer-Firmware/CA7/optee-os-3.19.0-r2/optee-os-stm32mp-3.19.0-stm32mp-r2/ta/pkcs11/src/object.c:689 (discriminator 2)
     f8a:	4547      	cmp	r7, r8
     f8c:	d101      	bne.n	f92 <entry_find_objects+0x76>
/home/lubuntu/Dokument/GitHub/STM32-Computer/Firmware/STM32-Computer-Firmware/CA7/optee-os-3.19.0-r2/optee-os-stm32mp-3.19.0-stm32mp-r2/ta/pkcs11/src/object.c:695
     f8e:	616f      	str	r7, [r5, #20]
/home/lubuntu/Dokument/GitHub/STM32-Computer/Firmware/STM32-Computer-Firmware/CA7/optee-os-3.19.0-r2/optee-os-stm32mp-3.19.0-stm32mp-r2/ta/pkcs11/src/object.c:699
     f90:	e7d4      	b.n	f3c <entry_find_objects+0x20>
/home/lubuntu/Dokument/GitHub/STM32-Computer/Firmware/STM32-Computer-Firmware/CA7/optee-os-3.19.0-r2/optee-os-stm32mp-3.19.0-stm32mp-r2/ta/pkcs11/src/object.c:692
     f92:	68b1      	ldr	r1, [r6, #8]
/home/lubuntu/Dokument/GitHub/STM32-Computer/Firmware/STM32-Computer-Firmware/CA7/optee-os-3.19.0-r2/optee-os-stm32mp-3.19.0-stm32mp-r2/ta/pkcs11/src/object.c:691
     f94:	2204      	movs	r2, #4
     f96:	eb09 0007 	add.w	r0, r9, r7
     f9a:	3704      	adds	r7, #4
     f9c:	eb01 0183 	add.w	r1, r1, r3, lsl #2
     fa0:	f009 fef6 	bl	ad90 <TEE_MemMove>
/home/lubuntu/Dokument/GitHub/STM32-Computer/Firmware/STM32-Computer-Firmware/CA7/optee-os-3.19.0-r2/optee-os-stm32mp-3.19.0-stm32mp-r2/ta/pkcs11/src/object.c:690
     fa4:	68f3      	ldr	r3, [r6, #12]
     fa6:	3301      	adds	r3, #1
     fa8:	60f3      	str	r3, [r6, #12]
     faa:	e7ea      	b.n	f82 <entry_find_objects+0x66>
/home/lubuntu/Dokument/GitHub/STM32-Computer/Firmware/STM32-Computer-Firmware/CA7/optee-os-3.19.0-r2/optee-os-stm32mp-3.19.0-stm32mp-r2/ta/pkcs11/src/object.c:687
     fac:	2491      	movs	r4, #145	@ 0x91
     fae:	e7c5      	b.n	f3c <entry_find_objects+0x20>

00000fb0 <release_session_find_obj_context>:
release_session_find_obj_context():
/home/lubuntu/Dokument/GitHub/STM32-Computer/Firmware/STM32-Computer-Firmware/CA7/optee-os-3.19.0-r2/optee-os-stm32mp-3.19.0-stm32mp-r2/ta/pkcs11/src/object.c:703
     fb0:	b538      	push	{r3, r4, r5, lr}
     fb2:	4604      	mov	r4, r0
/home/lubuntu/Dokument/GitHub/STM32-Computer/Firmware/STM32-Computer-Firmware/CA7/optee-os-3.19.0-r2/optee-os-stm32mp-3.19.0-stm32mp-r2/ta/pkcs11/src/object.c:704
     fb4:	6a05      	ldr	r5, [r0, #32]
release_find_obj_context():
/home/lubuntu/Dokument/GitHub/STM32-Computer/Firmware/STM32-Computer-Firmware/CA7/optee-os-3.19.0-r2/optee-os-stm32mp-3.19.0-stm32mp-r2/ta/pkcs11/src/object.c:463
     fb6:	b145      	cbz	r5, fca <release_session_find_obj_context+0x1a>
/home/lubuntu/Dokument/GitHub/STM32-Computer/Firmware/STM32-Computer-Firmware/CA7/optee-os-3.19.0-r2/optee-os-stm32mp-3.19.0-stm32mp-r2/ta/pkcs11/src/object.c:466
     fb8:	6828      	ldr	r0, [r5, #0]
     fba:	f009 ff6f 	bl	ae9c <TEE_Free>
/home/lubuntu/Dokument/GitHub/STM32-Computer/Firmware/STM32-Computer-Firmware/CA7/optee-os-3.19.0-r2/optee-os-stm32mp-3.19.0-stm32mp-r2/ta/pkcs11/src/object.c:467
     fbe:	68a8      	ldr	r0, [r5, #8]
     fc0:	f009 ff6c 	bl	ae9c <TEE_Free>
/home/lubuntu/Dokument/GitHub/STM32-Computer/Firmware/STM32-Computer-Firmware/CA7/optee-os-3.19.0-r2/optee-os-stm32mp-3.19.0-stm32mp-r2/ta/pkcs11/src/object.c:468
     fc4:	4628      	mov	r0, r5
     fc6:	f009 ff69 	bl	ae9c <TEE_Free>
release_session_find_obj_context():
/home/lubuntu/Dokument/GitHub/STM32-Computer/Firmware/STM32-Computer-Firmware/CA7/optee-os-3.19.0-r2/optee-os-stm32mp-3.19.0-stm32mp-r2/ta/pkcs11/src/object.c:705
     fca:	2300      	movs	r3, #0
     fcc:	6223      	str	r3, [r4, #32]
/home/lubuntu/Dokument/GitHub/STM32-Computer/Firmware/STM32-Computer-Firmware/CA7/optee-os-3.19.0-r2/optee-os-stm32mp-3.19.0-stm32mp-r2/ta/pkcs11/src/object.c:706
     fce:	bd38      	pop	{r3, r4, r5, pc}

00000fd0 <entry_find_objects_final>:
entry_find_objects_final():
/home/lubuntu/Dokument/GitHub/STM32-Computer/Firmware/STM32-Computer-Firmware/CA7/optee-os-3.19.0-r2/optee-os-stm32mp-3.19.0-stm32mp-r2/ta/pkcs11/src/object.c:717
     fd0:	efc0 0010 	vmov.i32	d16, #0	@ 0x00000000
/home/lubuntu/Dokument/GitHub/STM32-Computer/Firmware/STM32-Computer-Firmware/CA7/optee-os-3.19.0-r2/optee-os-stm32mp-3.19.0-stm32mp-r2/ta/pkcs11/src/object.c:710
     fd4:	b530      	push	{r4, r5, lr}
     fd6:	b085      	sub	sp, #20
     fd8:	4613      	mov	r3, r2
/home/lubuntu/Dokument/GitHub/STM32-Computer/Firmware/STM32-Computer-Firmware/CA7/optee-os-3.19.0-r2/optee-os-stm32mp-3.19.0-stm32mp-r2/ta/pkcs11/src/object.c:718
     fda:	2200      	movs	r2, #0
/home/lubuntu/Dokument/GitHub/STM32-Computer/Firmware/STM32-Computer-Firmware/CA7/optee-os-3.19.0-r2/optee-os-stm32mp-3.19.0-stm32mp-r2/ta/pkcs11/src/object.c:717
     fdc:	edcd 0b01 	vstr	d16, [sp, #4]
/home/lubuntu/Dokument/GitHub/STM32-Computer/Firmware/STM32-Computer-Firmware/CA7/optee-os-3.19.0-r2/optee-os-stm32mp-3.19.0-stm32mp-r2/ta/pkcs11/src/object.c:718
     fe0:	9200      	str	r2, [sp, #0]
/home/lubuntu/Dokument/GitHub/STM32-Computer/Firmware/STM32-Computer-Firmware/CA7/optee-os-3.19.0-r2/optee-os-stm32mp-3.19.0-stm32mp-r2/ta/pkcs11/src/object.c:717
     fe2:	ad01      	add	r5, sp, #4
     fe4:	edcd 0b02 	vstr	d16, [sp, #8]
/home/lubuntu/Dokument/GitHub/STM32-Computer/Firmware/STM32-Computer-Firmware/CA7/optee-os-3.19.0-r2/optee-os-stm32mp-3.19.0-stm32mp-r2/ta/pkcs11/src/object.c:720
     fe8:	4604      	mov	r4, r0
     fea:	b918      	cbnz	r0, ff4 <entry_find_objects_final+0x24>
/home/lubuntu/Dokument/GitHub/STM32-Computer/Firmware/STM32-Computer-Firmware/CA7/optee-os-3.19.0-r2/optee-os-stm32mp-3.19.0-stm32mp-r2/ta/pkcs11/src/object.c:721
     fec:	2407      	movs	r4, #7
/home/lubuntu/Dokument/GitHub/STM32-Computer/Firmware/STM32-Computer-Firmware/CA7/optee-os-3.19.0-r2/optee-os-stm32mp-3.19.0-stm32mp-r2/ta/pkcs11/src/object.c:738
     fee:	4620      	mov	r0, r4
     ff0:	b005      	add	sp, #20
     ff2:	bd30      	pop	{r4, r5, pc}
/home/lubuntu/Dokument/GitHub/STM32-Computer/Firmware/STM32-Computer-Firmware/CA7/optee-os-3.19.0-r2/optee-os-stm32mp-3.19.0-stm32mp-r2/ta/pkcs11/src/object.c:720 (discriminator 1)
     ff4:	2907      	cmp	r1, #7
     ff6:	d1f9      	bne.n	fec <entry_find_objects_final+0x1c>
/home/lubuntu/Dokument/GitHub/STM32-Computer/Firmware/STM32-Computer-Firmware/CA7/optee-os-3.19.0-r2/optee-os-stm32mp-3.19.0-stm32mp-r2/ta/pkcs11/src/object.c:723
     ff8:	e9d3 1200 	ldrd	r1, r2, [r3]
     ffc:	4628      	mov	r0, r5
     ffe:	f008 fca9 	bl	9954 <serialargs_init>
/home/lubuntu/Dokument/GitHub/STM32-Computer/Firmware/STM32-Computer-Firmware/CA7/optee-os-3.19.0-r2/optee-os-stm32mp-3.19.0-stm32mp-r2/ta/pkcs11/src/object.c:725
    1002:	4621      	mov	r1, r4
    1004:	466a      	mov	r2, sp
    1006:	4628      	mov	r0, r5
    1008:	f008 fd66 	bl	9ad8 <serialargs_get_session_from_handle>
/home/lubuntu/Dokument/GitHub/STM32-Computer/Firmware/STM32-Computer-Firmware/CA7/optee-os-3.19.0-r2/optee-os-stm32mp-3.19.0-stm32mp-r2/ta/pkcs11/src/object.c:726
    100c:	4604      	mov	r4, r0
    100e:	2800      	cmp	r0, #0
    1010:	d1ed      	bne.n	fee <entry_find_objects_final+0x1e>
/home/lubuntu/Dokument/GitHub/STM32-Computer/Firmware/STM32-Computer-Firmware/CA7/optee-os-3.19.0-r2/optee-os-stm32mp-3.19.0-stm32mp-r2/ta/pkcs11/src/object.c:729
    1012:	4628      	mov	r0, r5
    1014:	f008 fd57 	bl	9ac6 <serialargs_remaining_bytes>
    1018:	2800      	cmp	r0, #0
    101a:	d1e7      	bne.n	fec <entry_find_objects_final+0x1c>
/home/lubuntu/Dokument/GitHub/STM32-Computer/Firmware/STM32-Computer-Firmware/CA7/optee-os-3.19.0-r2/optee-os-stm32mp-3.19.0-stm32mp-r2/ta/pkcs11/src/object.c:732
    101c:	9800      	ldr	r0, [sp, #0]
    101e:	6a03      	ldr	r3, [r0, #32]
    1020:	b113      	cbz	r3, 1028 <entry_find_objects_final+0x58>
/home/lubuntu/Dokument/GitHub/STM32-Computer/Firmware/STM32-Computer-Firmware/CA7/optee-os-3.19.0-r2/optee-os-stm32mp-3.19.0-stm32mp-r2/ta/pkcs11/src/object.c:735
    1022:	f7ff ffc5 	bl	fb0 <release_session_find_obj_context>
/home/lubuntu/Dokument/GitHub/STM32-Computer/Firmware/STM32-Computer-Firmware/CA7/optee-os-3.19.0-r2/optee-os-stm32mp-3.19.0-stm32mp-r2/ta/pkcs11/src/object.c:737
    1026:	e7e2      	b.n	fee <entry_find_objects_final+0x1e>
/home/lubuntu/Dokument/GitHub/STM32-Computer/Firmware/STM32-Computer-Firmware/CA7/optee-os-3.19.0-r2/optee-os-stm32mp-3.19.0-stm32mp-r2/ta/pkcs11/src/object.c:733
    1028:	2491      	movs	r4, #145	@ 0x91
    102a:	e7e0      	b.n	fee <entry_find_objects_final+0x1e>

0000102c <entry_get_attribute_value>:
entry_get_attribute_value():
/home/lubuntu/Dokument/GitHub/STM32-Computer/Firmware/STM32-Computer-Firmware/CA7/optee-os-3.19.0-r2/optee-os-stm32mp-3.19.0-stm32mp-r2/ta/pkcs11/src/object.c:742
