
/home/lubuntu/Dokument/GitHub/STM32-Computer/Firmware/STM32-Computer-Firmware/CA7/optee-os-3.19.0-r2/optee-os-stm32mp-3.19.0-stm32mp-r2/../build/stm32mp135f-dk/ta/avb/023f8f1a-292a-432b-8fc4-de8471358067.elf:     file format elf32-littlearm
/home/lubuntu/Dokument/GitHub/STM32-Computer/Firmware/STM32-Computer-Firmware/CA7/optee-os-3.19.0-r2/optee-os-stm32mp-3.19.0-stm32mp-r2/../build/stm32mp135f-dk/ta/avb/023f8f1a-292a-432b-8fc4-de8471358067.elf
architecture: armv7, flags 0x00000150:
HAS_SYMS, DYNAMIC, D_PAGED
start address 0x00000400

Program Header:
0x70000001 off    0x0000c454 vaddr 0x0000b454 paddr 0x0000b454 align 2**2
         filesz 0x00000a50 memsz 0x00000a50 flags r--
    LOAD off    0x00001000 vaddr 0x00000000 paddr 0x00000000 align 2**12
         filesz 0x0000bf60 memsz 0x0000bf60 flags r-x
    LOAD off    0x0000d000 vaddr 0x0000c000 paddr 0x0000c000 align 2**12
         filesz 0x00000388 memsz 0x000073d8 flags rw-
 DYNAMIC off    0x0000d000 vaddr 0x0000c000 paddr 0x0000c000 align 2**2
         filesz 0x00000088 memsz 0x00000088 flags rw-
   STACK off    0x00000000 vaddr 0x00000000 paddr 0x00000000 align 2**4
         filesz 0x00000000 memsz 0x00000000 flags rw-

Dynamic Section:
  HASH                 0x0000bf34
  GNU_HASH             0x0000b01c
  STRTAB               0x0000bf04
  SYMTAB               0x0000bea4
  STRSZ                0x0000002e
  SYMENT               0x00000010
  DEBUG                0x00000000
  REL                  0x0000c0dc
  RELSZ                0x00000188
  RELENT               0x00000008
  FLAGS_1              0x08000000
  RELCOUNT             0x0000001f
private flags = 0x5000400: [Version5 EABI] [hard-float ABI]

Sections:
Idx Name          Size      VMA       LMA       File off  Algn
  0 .ta_head      00000020  00000000  00000000  00001000  2**3
                  CONTENTS, ALLOC, LOAD, READONLY, DATA
  1 .text         00009d18  00000020  00000020  00001020  2**3
                  CONTENTS, ALLOC, LOAD, READONLY, CODE
  2 .rodata       000012e4  00009d38  00009d38  0000ad38  2**2
                  CONTENTS, ALLOC, LOAD, READONLY, DATA
  3 .gnu.hash     0000002c  0000b01c  0000b01c  0000c01c  2**2
                  CONTENTS, ALLOC, LOAD, READONLY, DATA
  4 .ARM.extab    0000040c  0000b048  0000b048  0000c048  2**2
                  CONTENTS, ALLOC, LOAD, READONLY, DATA
  5 .ARM.exidx    00000a50  0000b454  0000b454  0000c454  2**2
                  CONTENTS, ALLOC, LOAD, READONLY, DATA
  6 .dynsym       00000060  0000bea4  0000bea4  0000cea4  2**2
                  CONTENTS, ALLOC, LOAD, READONLY, DATA
  7 .dynstr       0000002e  0000bf04  0000bf04  0000cf04  2**0
                  CONTENTS, ALLOC, LOAD, READONLY, DATA
  8 .hash         0000002c  0000bf34  0000bf34  0000cf34  2**2
                  CONTENTS, ALLOC, LOAD, READONLY, DATA
  9 .dynamic      00000088  0000c000  0000c000  0000d000  2**2
                  CONTENTS, ALLOC, LOAD, DATA
 10 .got          00000054  0000c088  0000c088  0000d088  2**2
                  CONTENTS, ALLOC, LOAD, DATA
 11 .rel.got      00000090  0000c1d4  0000c1d4  0000d1d4  2**2
                  CONTENTS, ALLOC, LOAD, READONLY, DATA
 12 .data         00000124  0000c264  0000c264  0000d264  2**2
                  CONTENTS, ALLOC, LOAD, DATA
 13 .bss          00007050  0000c388  0000c388  0000d388  2**2
                  ALLOC
 14 .debug_info   0001a7dd  00000000  00000000  0000d388  2**0
                  CONTENTS, READONLY, DEBUGGING, OCTETS
 15 .debug_abbrev 00004afc  00000000  00000000  00027b65  2**0
                  CONTENTS, READONLY, DEBUGGING, OCTETS
 16 .debug_loclists 0000ffb4  00000000  00000000  0002c661  2**0
                  CONTENTS, READONLY, DEBUGGING, OCTETS
 17 .debug_aranges 00000648  00000000  00000000  0003c618  2**3
                  CONTENTS, READONLY, DEBUGGING, OCTETS
 18 .debug_rnglists 0000083e  00000000  00000000  0003cc60  2**0
                  CONTENTS, READONLY, DEBUGGING, OCTETS
 19 .debug_macro  0001d29a  00000000  00000000  0003d49e  2**0
                  CONTENTS, READONLY, DEBUGGING, OCTETS
 20 .debug_line   00012ffd  00000000  00000000  0005a738  2**0
                  CONTENTS, READONLY, DEBUGGING, OCTETS
 21 .debug_str    0001b380  00000000  00000000  0006d735  2**0
                  CONTENTS, READONLY, DEBUGGING, OCTETS
 22 .comment      00000012  00000000  00000000  00088ab5  2**0
                  CONTENTS, READONLY
 23 .ARM.attributes 00000033  00000000  00000000  00088ac7  2**0
                  CONTENTS, READONLY
 24 .debug_frame  0000297c  00000000  00000000  00088afc  2**2
                  CONTENTS, READONLY, DEBUGGING, OCTETS
 25 .rel.dyn      000000f8  0000c0dc  0000c0dc  0000d0dc  2**2
                  CONTENTS, ALLOC, LOAD, READONLY, DATA
 26 .debug_line_str 000001bd  00000000  00000000  0008b478  2**0
                  CONTENTS, READONLY, DEBUGGING, OCTETS
SYMBOL TABLE:
00000000 l    d  .ta_head	00000000 .ta_head
00000020 l    d  .text	00000000 .text
00009d38 l    d  .rodata	00000000 .rodata
0000b01c l    d  .gnu.hash	00000000 .gnu.hash
0000b048 l    d  .ARM.extab	00000000 .ARM.extab
0000b454 l    d  .ARM.exidx	00000000 .ARM.exidx
0000bea4 l    d  .dynsym	00000000 .dynsym
0000bf04 l    d  .dynstr	00000000 .dynstr
0000bf34 l    d  .hash	00000000 .hash
0000c000 l    d  .dynamic	00000000 .dynamic
0000c088 l    d  .got	00000000 .got
0000c1d4 l    d  .rel.got	00000000 .rel.got
0000c264 l    d  .data	00000000 .data
0000c388 l    d  .bss	00000000 .bss
00000000 l    d  .debug_info	00000000 .debug_info
00000000 l    d  .debug_abbrev	00000000 .debug_abbrev
00000000 l    d  .debug_loclists	00000000 .debug_loclists
00000000 l    d  .debug_aranges	00000000 .debug_aranges
00000000 l    d  .debug_rnglists	00000000 .debug_rnglists
00000000 l    d  .debug_macro	00000000 .debug_macro
00000000 l    d  .debug_line	00000000 .debug_line
00000000 l    d  .debug_str	00000000 .debug_str
00000000 l    d  .comment	00000000 .comment
00000000 l    d  .ARM.attributes	00000000 .ARM.attributes
00000000 l    d  .debug_frame	00000000 .debug_frame
0000c0dc l    d  .rel.dyn	00000000 .rel.dyn
00000000 l    d  .debug_line_str	00000000 .debug_line_str
00000000 l    df *ABS*	00000000 user_ta_header.c
00009d3c l     O .rodata	00000004 __compound_literal.4
00009d40 l     O .rodata	00000004 __compound_literal.3
00009d44 l     O .rodata	00000001 __compound_literal.2
00009d45 l     O .rodata	00000001 __compound_literal.1
00009d46 l     O .rodata	00000001 __compound_literal.0
00000000 l    df *ABS*	00000000 entry.c
00000020 l     F .text	00000048 open_rb_state
00000068 l     F .text	00000044 get_named_object_name.constprop.0
0000a106 l     O .rodata	00000009 rb_obj_name
0000a10f l     O .rodata	00000013 __func__.1
0000a122 l     O .rodata	00000014 __func__.0
0000a136 l     O .rodata	0000001b __func__.2
00000000 l    df *ABS*	00000000 ta_entry_a32.o
00000000 l    df *ABS*	00000000 trace.c
0000a219 l     O .rodata	00000005 lvl_strs.0
00000000 l    df *ABS*	00000000 snprintk.c
000005e0 l     F .text	000006e0 kprintf.constprop.0
0000a256 l     O .rodata	00000011 hexdigits
0000a267 l     O .rodata	00000011 HEXDIGITS
00000000 l    df *ABS*	00000000 arm32_aeabi_ldivmod_a32.o
00000000 l    df *ABS*	00000000 trace_ext.c
00000000 l    df *ABS*	00000000 tee_api.c
00000da4 l     F .text	00000066 update_out_param
00000e7c l     F .text	00000124 copy_param
0000a289 l     O .rodata	0000000b __func__.0
0000c388 l     O .bss	00000004 tee_api_instance_data
00000000 l    df *ABS*	00000000 tee_api_objects.c
00000000 l    df *ABS*	00000000 tee_api_panic.c
00001a48 l     F .text	00000020 check_access
00001a6c l     F .text	00000006 check_res.part.0
00001a72 l     F .text	0000002e __utee_check_outbuf_annotation.localalias
00000000 l    df *ABS*	00000000 tee_system_pta.c
00001b04 l     F .text	00000050 invoke_system_pta
00009d50 l     O .rodata	00000010 uuid.2
00009d60 l     O .rodata	0000000a __func__.1
00009d6a l     O .rodata	00000017 __func__.0
0000c38c l     O .bss	00000004 sess.3
00000000 l    df *ABS*	00000000 utee_syscalls_a32.o
00000000 l    df *ABS*	00000000 user_ta_entry.c
00002110 l     F .text	0000006a _get_fn_array
0000217a l     F .text	00000032 _fini_iterate_phdr_cb
000021ac l     F .text	0000001c ta_header_get_session
000021c8 l     F .text	0000005a to_utee_params
00002222 l     F .text	0000003c from_utee_params
0000225e l     F .text	00000062 _init_iterate_phdr_cb
00002390 l     F .text	0000006c ta_header_remove_session
0000a338 l     O .rodata	00000016 __func__.0
0000c390 l     O .bss	00000004 _num_mod_init
0000c394 l     O .bss	00000001 init_done
0000c2bc l     O .data	00000008 ta_sessions
0000c2c4 l     O .data	00000008 __phdr_info_head
00000000 l    df *ABS*	00000000 abort.c
00000000 l    df *ABS*	00000000 tee_api_arith_mpi.c
000025cc l     F .text	00000020 api_panic
000025ec l     F .text	00000020 mpi_panic
0000260c l     F .text	00000050 get_mpi
0000265c l     F .text	00000040 copy_mpi_to_bigint
0000269c l     F .text	000000a8 bigint_binary
00002744 l     F .text	00000010 mpi_is_odd
00002754 l     F .text	00000016 rng_read
0000276a l     F .text	0000045e mpi_egcd
0000c3c8 l     O .bss	00003000 data.17
00002e00 l     F .text	00000110 bigint_binary_mod
0000a40c l     O .rodata	00000008 __func__.14
0000a414 l     O .rodata	0000000e __func__.10
0000a422 l     O .rodata	00000009 __func__.2
0000a42b l     O .rodata	00000012 __func__.16
0000a43d l     O .rodata	0000000f __func__.15
0000a44c l     O .rodata	0000001f __func__.13
0000a46b l     O .rodata	00000019 __func__.12
0000a484 l     O .rodata	00000012 __func__.6
0000a496 l     O .rodata	00000015 __func__.11
0000a4ab l     O .rodata	0000000e __func__.9
0000a4b9 l     O .rodata	0000000e __func__.8
0000a4c7 l     O .rodata	0000000e __func__.7
0000a4d5 l     O .rodata	00000011 __func__.5
0000a4e6 l     O .rodata	00000018 __func__.4
0000a4fe l     O .rodata	0000001d __func__.3
0000a51b l     O .rodata	00000019 __func__.1
0000a534 l     O .rodata	00000015 __func__.0
00000000 l    df *ABS*	00000000 tee_api_property.c
000037b8 l     F .text	00000050 propset_get
00003808 l     F .text	00000014 is_propset_pseudo_handle
0000381c l     F .text	00000088 propget_get_ext_prop
000038a4 l     F .text	000000f0 propget_get_property
00009d84 l     O .rodata	00000004 __compound_literal.3
00009d88 l     O .rodata	00000004 __compound_literal.2
00009d8c l     O .rodata	00000004 __compound_literal.1
00009d90 l     O .rodata	00000004 __compound_literal.0
00000000 l    df *ABS*	00000000 tcb.c
0000a676 l     O .rodata	00000010 __func__.1
0000a686 l     O .rodata	00000010 __func__.0
0000f3c8 l     O .bss	00000004 _tls_size
0000f3cc l     O .bss	00000004 _tcb
00000000 l    df *ABS*	00000000 assert.c
00000000 l    df *ABS*	00000000 base64.c
0000a6bd l     O .rodata	00000041 base64_table
00000000 l    df *ABS*	00000000 bignum.c
0000422c l     F .text	00000036 mpi_get_digit
00004262 l     F .text	00000364 mpi_mul_hlp
000045c6 l     F .text	000000e6 mpi_montmul
000046ac l     F .text	00000022 mpi_montred
000046ce l     F .text	00000026 mpi_montg_init.isra.0
000046f4 l     F .text	00000052 mpi_bigendian_to_host.part.0
00004746 l     F .text	00000064 mpi_fill_random_internal
000048bc l     F .text	00000036 mbedtls_mpi_resize_clear
00005988 l     F .text	00000050 mpi_check_small_factors
00005f64 l     F .text	00000192 mpi_miller_rabin
00009d94 l     O .rodata	000002a0 small_prime
0000a034 l     O .rodata	00000024 gcd_pairs
00000000 l    df *ABS*	00000000 platform_util.c
0000c308 l     O .data	00000004 memset_func
00000000 l    df *ABS*	00000000 bget_malloc.c
00006a94 l     F .text	00000020 myrand
00006ab4 l     F .text	0000000a _assert_trap
00006abe l     F .text	00000022 bget_buf_size.part.0
000070d4 l     F .text	00000044 stats.constprop.0
0000751c l     F .text	00000080 gen_malloc_add_pool
0000aefd l     O .rodata	0000000e __func__.2
0000af0b l     O .rodata	00000005 __func__.9
0000af10 l     O .rodata	00000006 __func__.8
0000af16 l     O .rodata	00000005 __func__.6
0000af1b l     O .rodata	00000006 __func__.7
0000af21 l     O .rodata	00000006 __func__.5
0000af27 l     O .rodata	00000007 __func__.4
0000af2e l     O .rodata	0000000f __func__.3
0000af3d l     O .rodata	00000003 CSWTCH.113
0000af40 l     O .rodata	00000014 __func__.1
0000af54 l     O .rodata	00000013 __func__.0
0000c30c l     O .data	00000004 next
0000f3d4 l     O .bss	00000004 bchain
0000c310 l     O .data	0000001c mypoolset
0000c32c l     O .data	0000005c malloc_ctx
00000000 l    df *ABS*	00000000 memcpy.c
00000000 l    df *ABS*	00000000 mempool.c
0000aff0 l     O .rodata	00000013 __func__.2
0000b003 l     O .rodata	0000000b __func__.1
0000b00e l     O .rodata	0000000e __func__.0
00000000 l    df *ABS*	00000000 tee_api_operations.c
00007950 l     F .text	00000040 __tee_alg_get_main_alg
00007990 l     F .text	00000158 tee_buffer_update
00000000 l    df *ABS*	00000000 memset.c
00000000 l    df *ABS*	00000000 aeabi_unwind.c
00000000 l    df *ABS*	00000000 memchr.c
00000000 l    df *ABS*	00000000 strlen.c
00000000 l    df *ABS*	00000000 arm32_aeabi_ldivmod.c
00009688 l     F .text	0000008a ul_div_qr
00000000 l    df *ABS*	00000000 constant_time.c
000097bc l     F .text	00000010 mbedtls_ct_uchar_mask_of_range
00000000 l    df *ABS*	00000000 snprintf.c
00000000 l    df *ABS*	00000000 memmove.c
00000000 l    df *ABS*	00000000 strcmp.c
00000000 l    df *ABS*	00000000 strlcpy.c
00000000 l    df *ABS*	00000000 consttime_memcmp.c
00000000 l    df *ABS*	00000000 
0000c000 l     O *ABS*	00000000 _DYNAMIC
0000c088 l     O *ABS*	00000000 _GLOBAL_OFFSET_TABLE_
00009cf8 l     F .text	00000010 ___utee_panic_from_thumb
00009d08 l     F .text	00000010 ___utee_check_access_rights_from_thumb
00009d18 l     F .text	00000010 ___utee_cache_operation_from_thumb
00009d28 l     F .text	00000010 ___utee_log_from_thumb
00000d80 g     F .text	00000022 putchar
000014e8 g     F .text	00000078 TEE_PopulateTransientObject
0000368e g     F .text	00000004 TEE_BigIntConvertToFMM
0000336c g     F .text	00000008 TEE_BigIntSquareMod
00002f10 g     F .text	00000110 TEE_BigIntShiftRight
0000765a g     F .text	00000002 raw_malloc_add_pool
00001bd8 g     F .text	00000088 tee_invoke_supp_plugin
00004820 g     F .text	0000009c mbedtls_mpi_grow
0000974c g     F .text	00000070 __l_divmod
000086b0 g     F .text	00000030 TEE_DigestUpdate
0000121a g     F .text	00000020 TEE_Realloc
00008508 g     F .text	000000f4 TEE_SetOperationKey2
00001aec g     F .text	00000016 __utee_check_inout_annotation
00007400 g     F .text	00000008 raw_free
00000d22 g     F .text	0000003a printf
00001560 g     F .text	00000022 TEE_InitRefAttribute
00001c88 g     F .text	00000014 _utee_log
00001030 g     F .text	000000bc TEE_InvokeTACommand
00001a72 g     F .text	0000002e __utee_check_outbuf_annotation
000047b6 g     F .text	00000026 mbedtls_mpi_init_mempool
00001f24 g     F .text	00000014 _utee_cryp_random_number_generate
00004c56 g     F .text	0000006a mbedtls_mpi_write_binary
00008d60 g     F .text	00000114 TEE_AEEncryptFinal
000005b8 g     F .text	0000000e vsnprintk
0000514c g     F .text	0000002e mbedtls_mpi_sub_int
00009c38 g     F .text	00000034 memmove
00009c0c g     F .text	0000001e snprintf
00002dda g     F .text	00000026 TEE_BigIntCmpS32
00009a86 g     F .text	00000186 mbedtls_ct_rsaes_pkcs1_v15_unpadding
00001582 g     F .text	00000022 TEE_InitValueAttribute
000048f2 g     F .text	000000b6 mbedtls_mpi_shrink
00009656 g     F .text	00000002 __aeabi_unwind_cpp_pr0
0000306c g     F .text	00000020 TEE_BigIntAdd
00001e84 g     F .text	00000014 _utee_cryp_obj_restrict_usage
00009d48 g     O .rodata	00000004 ta_heap_size
000014b8 g     F .text	00000030 TEE_ResetTransientObject
00001fac g     F .text	00000018 _utee_asymm_operate
00004090 g     F .text	0000000e _base64_enc_len
000052c0 g     F .text	0000011c mbedtls_mpi_read_string
00008768 g     F .text	00000074 TEE_CipherInit
000030ac g     F .text	00000074 TEE_BigIntNeg
00002048 g     F .text	00000014 _utee_storage_free_enum
00000020 g       .text	00000000 __text_start
00003db4 g     F .text	00000068 TEE_GetNextProperty
00001858 g     F .text	0000002c TEE_StartPersistentObjectEnumerator
00004d64 g     F .text	0000007a mbedtls_mpi_shift_r
00007730 g     F .text	00000054 malloc_buffer_overlaps_heap
00001dec g     F .text	00000014 _utee_hash_init
00003334 g     F .text	0000001c TEE_BigIntSubMod
00006532 g     F .text	00000212 mbedtls_mpi_gen_prime
00003bb0 g     F .text	00000068 TEE_GetPropertyAsBinaryBlock
00004a78 g     F .text	00000020 mbedtls_mpi_get_bit
00004ba8 g     F .text	00000042 mbedtls_mpi_read_binary
00008bc8 g     F .text	00000070 TEE_AEInit
0000056c g     F .text	00000018 trace_printf
000059de g     F .text	00000004 mbedtls_mpi_montmul
000020fc g     F .text	00000014 _utee_cache_operation
00007784 g     F .text	000000dc memcpy
00003692 g     F .text	00000066 TEE_BigIntConvertFromFMM
00001a68 g     F .text	00000004 TEE_Panic
00000cf0 g     F .text	00000018 __aeabi_uldivmod
000085fc g     F .text	000000b4 TEE_CopyOperation
00000d5c g     F .text	00000024 puts
000036f8 g     F .text	000000c0 TEE_BigIntComputeFMM
0000737c g     F .text	0000001c malloc_get_stats
000011a8 g     F .text	00000016 TEE_GetREETime
0000765c g     F .text	00000018 raw_malloc_get_stats
000017fc g     F .text	00000034 TEE_AllocatePersistentObjectEnumerator
0000c268 g     O .data	00000054 ta_props
00008f74 g     F .text	000000c0 TEE_AsymmetricEncrypt
00001aa0 g     F .text	0000001c __utee_check_instring_annotation
0000759c g     F .text	00000014 malloc
00009638 g     F .text	0000000a __ta_entry_c
00003d10 g     F .text	00000004 TEE_FreePropertyEnumerator
000097fc g     F .text	00000008 mbedtls_ct_mpi_uint_mask
0000163c g     F .text	00000054 TEE_GenerateKey
00009c2a g     F .text	0000000e vsnprintf
0000c264 g     O .data	00000004 trace_level
00002da4 g     F .text	00000036 TEE_BigIntCmp
00009d38 g     O .rodata	00000004 ta_num_props
00006f5c g     F .text	00000080 bgetr
00001fdc g     F .text	00000018 _utee_storage_obj_open
00007942 g     F .text	0000000c mempool_free
000087dc g     F .text	000000ec TEE_CipherUpdate
00001e00 g     F .text	00000014 _utee_hash_update
00002ca0 g     F .text	00000058 TEE_BigIntConvertToOctetString
0000835c g     F .text	000000d4 TEE_GetOperationInfoMultiple
00004b1e g     F .text	0000003a mbedtls_mpi_bitlen
00003020 g     F .text	0000002a TEE_BigIntGetBit
00009d4c g     O .rodata	00000003 trace_ext_prefix
00002084 g     F .text	00000014 _utee_storage_next_enum
000073ee g     F .text	00000012 raw_malloc
00006cfc g     F .text	0000005c bgetz
00009804 g     F .text	0000000c mbedtls_ct_size_bool_eq
000010f8 g     F .text	0000000c TEE_GetInstanceData
00001126 g     F .text	0000001e TEE_Wait
0000517a g     F .text	000000ea mbedtls_mpi_mul_mpi
0000965a g     F .text	00000002 __aeabi_unwind_cpp_pr2
00001240 g     F .text	00000006 TEE_CacheFlush
00000434 g     F .text	00000138 trace_vprintf
000000b0 g     F .text	00000002 TA_DestroyEntryPoint
000047aa g     F .text	0000000c mbedtls_mpi_init
0000200c g     F .text	00000014 _utee_storage_obj_del
00004ae6 g     F .text	00000038 mbedtls_mpi_lsb
00004058 g     F .text	00000028 _assert_log
00001dc4 g     F .text	00000014 _utee_cryp_state_copy
0000368a g     F .text	00000004 TEE_BigIntFMMContextSizeInU32
00001b8a g     F .text	0000004e tee_unmap
00008b44 g     F .text	00000084 TEE_MACCompareFinal
0000981e g     F .text	00000012 mbedtls_ct_uint_if
000017c2 g     F .text	0000003a TEE_RenamePersistentObject
000086e0 g     F .text	00000088 TEE_DigestDoFinal
00002bc8 g     F .text	00000044 _TEE_MathAPI_Init
00003e1c g     F .text	0000017c __utee_tcb_init
00005084 g     F .text	0000004c mbedtls_mpi_add_mpi
000025b4 g     F .text	00000018 abort
000060f6 g     F .text	000000e6 mbedtls_mpi_random
00001abe g     F .text	00000016 __utee_check_out_annotation
0000f3d8 g     O .bss	00004000 ta_heap
00003374 g     F .text	000000c0 TEE_BigIntInvMod
000022c0 g     F .text	000000c0 __utee_call_elf_init_fn
000000b6 g     F .text	00000002 TA_CloseSessionEntryPoint
00001cf4 g     F .text	00000014 _utee_close_ta_session
00009034 g     F .text	000000c0 TEE_AsymmetricDecrypt
00001690 g     F .text	00000070 TEE_OpenPersistentObject
000050d0 g     F .text	0000004e mbedtls_mpi_sub_mpi
00009cac g     F .text	00000048 consttime_memcmp
00001c74 g     F .text	00000014 _utee_return
00001c9c g     F .text	00000014 __utee_panic
000097cc g     F .text	00000028 mbedtls_ct_memcmp
00003f98 g     F .text	00000018 __tls_get_addr
000000b8 g     F .text	00000348 TA_InvokeCommandEntryPoint
00002380 g     F .text	00000010 __utee_call_elf_fini_fn
00007634 g     F .text	00000010 free_wipe
000078e4 g     F .text	0000003c mempool_alloc
00001c60 g     F .text	00000014 _utee_panic
00007648 g     F .text	00000012 raw_malloc_init_ctx
00007920 g     F .text	00000022 mempool_calloc
000020e8 g     F .text	00000014 _utee_cryp_obj_generate_key
000020c0 g     F .text	00000014 _utee_storage_obj_trunc
0000160c g     F .text	00000030 TEE_CopyObjectAttributes
0000c2cc g     O .data	0000003c tee_props
00001d48 g     F .text	00000014 _utee_unmask_cancellation
00003ce0 g     F .text	00000008 TEE_ResetPropertyEnumerator
000075b0 g     F .text	00000020 calloc
000011be g     F .text	00000052 TEE_Malloc
00000e72 g     F .text	0000000a TEE_CheckMemoryAccessRights
00003c18 g     F .text	00000064 TEE_GetPropertyAsUUID
00009712 g     F .text	0000003a __ul_divmod
00001cb0 g     F .text	00000018 _utee_get_property
00004a40 g     F .text	00000038 mbedtls_mpi_lset
00001900 g     F .text	00000054 TEE_ReadObjectData
0000130c g     F .text	00000078 TEE_GetObjectBufferAttribute
000000b2 g     F .text	00000004 TA_OpenSessionEntryPoint
00007ae8 g     F .text	00000026 TEE_FreeOperation
00003fb0 g     F .text	000000a8 dl_iterate_phdr
000133d8 g       .bss	00000000 __ftrace_buf_end
0000c3c4 g     O .bss	00000004 ta_param_types
0000572c g     F .text	0000002e mbedtls_mpi_div_int
0000124c g     F .text	0000002a __utee_from_attr
000064c2 g     F .text	00000066 mbedtls_mpi_is_prime_ext
0000364c g     F .text	00000030 TEE_BigIntIsProbablePrime
00005264 g     F .text	0000005c mbedtls_mpi_mul_int
00001788 g     F .text	00000024 TEE_CloseAndDeletePersistentObject1
000059e6 g     F .text	0000044a mbedtls_mpi_exp_mod
0000990a g     F .text	00000062 mbedtls_mpi_safe_cond_assign
00003994 g     F .text	00000158 TEE_GetPropertyAsString
000099f4 g     F .text	00000092 mbedtls_mpi_lt_mpi_ct
00008e74 g     F .text	00000100 TEE_AEDecryptFinal
00002c0c g     F .text	00000038 TEE_BigIntInit
00001abc g     F .text	00000002 __utee_check_outstring_annotation
00001104 g     F .text	00000004 TEE_MemMove
00006a80 g     F .text	00000014 mbedtls_platform_zeroize
00002c44 g     F .text	0000005c TEE_BigIntConvertFromOctetString
00001f94 g     F .text	00000018 _utee_authenc_dec_final
00004dde g     F .text	00000062 mbedtls_mpi_cmp_abs
00002098 g     F .text	00000014 _utee_storage_obj_read
00008a24 g     F .text	00000056 TEE_MACInit
000090f4 g     F .text	000000bc TEE_AsymmetricSignDigest
0000965c g     F .text	0000001c memchr
00000e3a g     F .text	0000001c TEE_UnmaskCancellation
00001276 g     F .text	0000002a TEE_GetObjectInfo
00006744 g     F .text	0000033c mbedtls_mpi_self_test
000020d4 g     F .text	00000014 _utee_storage_obj_seek
00008c7e g     F .text	000000e2 TEE_AEUpdate
00001488 g     F .text	00000030 TEE_FreeTransientObject
00001d34 g     F .text	00000014 _utee_check_access_rights
00004ec6 g     F .text	0000002e mbedtls_mpi_cmp_int
00004160 g     F .text	000000cc _base64_dec
0000205c g     F .text	00000014 _utee_storage_reset_enum
000098ac g     F .text	0000005e mbedtls_ct_base64_dec_value
00007118 g     F .text	00000250 bget_main_test
0000934a g     F .text	00000018 rand
00001ad4 g     F .text	00000018 __utee_check_attr_in_annotation
00001f64 g     F .text	00000018 _utee_authenc_update_payload
0000832c g     F .text	00000030 TEE_GetOperationInfo
000032c8 g     F .text	00000050 TEE_BigIntMod
000057be g     F .text	0000006c mbedtls_mpi_mod_int
00004b64 g     F .text	00000044 mbedtls_mpi_read_binary_le
000031ce g     F .text	000000fa TEE_BigIntDiv
00001eac g     F .text	00000014 _utee_cryp_obj_alloc
000133d8 g       .bss	00000000 __ftrace_buf_start
00009c82 g     F .text	0000002a strlcpy
00009854 g     F .text	00000058 mbedtls_ct_base64_enc_char
000049a8 g     F .text	0000006a mbedtls_mpi_copy
00009362 g     F .text	000002d6 TEE_IsAlgorithmSupported
00007368 g     F .text	00000014 malloc_reset_stats
00003c7c g     F .text	00000064 TEE_GetPropertyAsIdentity
00000cc0 g     F .text	00000016 __vsprintf
00001d98 g     F .text	00000014 _utee_set_ta_time
00001d08 g     F .text	00000018 _utee_invoke_ta_command
000012c0 g     F .text	00000020 TEE_RestrictObjectUsage1
000075d0 g     F .text	00000020 realloc
00004a12 g     F .text	0000002e mbedtls_mpi_swap
00007860 g     F .text	00000084 mempool_alloc_pool
00003120 g     F .text	000000a8 TEE_BigIntMul
00008430 g     F .text	00000040 TEE_ResetOperation
00007644 g     F .text	00000004 raw_malloc_get_ctx_size
00004cc0 g     F .text	000000a4 mbedtls_mpi_shift_l
00004e40 g     F .text	00000086 mbedtls_mpi_cmp_mpi
0000110c g     F .text	00000004 TEE_MemFill
00007674 g     F .text	00000010 malloc_add_pool
00008a7a g     F .text	0000004e TEE_MACUpdate
00000420 g     F .text	00000014 trace_get_level
00004ef4 g     F .text	000000ae mbedtls_mpi_add_abs
000012e0 g     F .text	0000002c TEE_RestrictObjectUsage
00003682 g     F .text	00000008 TEE_BigIntFMMSizeInU32
00003aec g     F .text	00000060 TEE_GetPropertyAsBool
00007466 g     F .text	000000b6 raw_realloc
0000367c g     F .text	00000004 TEE_BigIntInitFMM
00001434 g     F .text	00000014 TEE_CloseObject
00001e2c g     F .text	00000014 _utee_cipher_init
000023fc g     F .text	000001b8 __utee_entry
00003b4c g     F .text	00000064 TEE_GetPropertyAsU32
00009d38 g       .text	00000000 __text_end
00003434 g     F .text	0000007c TEE_BigIntRelativePrime
0000575a g     F .text	00000064 mbedtls_mpi_mod_mpi
00001e70 g     F .text	00000014 _utee_cryp_obj_get_info
00006fdc g     F .text	00000098 bpool
00003ce8 g     F .text	00000028 TEE_AllocatePropertyEnumerator
00001dac g     F .text	00000018 _utee_cryp_state_alloc
00000e1e g     F .text	0000001c TEE_GetCancellationFlag
00005e30 g     F .text	00000100 mbedtls_mpi_gcd
00001180 g     F .text	00000028 TEE_SetTAPersistentTime
00004bea g     F .text	0000006c mbedtls_mpi_write_binary_le
00009646 g     F .text	00000010 memset
00007398 g     F .text	00000056 raw_memalign
00001144 g     F .text	0000003c TEE_GetTAPersistentTime
00000584 g     F .text	00000002 dhex_dump
00001700 g     F .text	00000088 TEE_CreatePersistentObject
00000e56 g     F .text	0000001c TEE_MaskCancellation
00008c38 g     F .text	00000046 TEE_AEUpdateAAD
00001994 g     F .text	00000038 TEE_TruncateObjectData
00001e98 g     F .text	00000014 _utee_cryp_obj_get_attr
000012a0 g     F .text	00000020 TEE_GetObjectInfo1
00001e58 g     F .text	00000018 _utee_cipher_final
00000404 g     F .text	0000001c trace_set_level
00001384 g     F .text	000000b0 TEE_GetObjectValueAttribute
00008470 g     F .text	00000098 TEE_SetOperationKey
00009810 g     F .text	0000000e mbedtls_ct_mpi_uint_lt
00001dd8 g     F .text	00000014 _utee_cryp_state_free
00009c6c g     F .text	00000016 strcmp
00001cdc g     F .text	00000018 _utee_open_ta_session
00002d48 g     F .text	0000005c TEE_BigIntConvertToS32
0000308c g     F .text	00000020 TEE_BigIntSub
00009642 g     F .text	00000004 tahead_get_trace_level
00002070 g     F .text	00000014 _utee_storage_start_enum
000019cc g     F .text	0000007c TEE_SeekObjectData
00001b54 g     F .text	00000036 tee_map_zi
000059e2 g     F .text	00000004 mbedtls_mpi_montred
000075f0 g     F .text	00000020 memalign
000097f4 g     F .text	00000008 mbedtls_ct_uint_mask
000088c8 g     F .text	0000015c TEE_CipherDoFinal
00002cf8 g     F .text	00000050 TEE_BigIntConvertFromS32
0000511e g     F .text	0000002e mbedtls_mpi_add_int
00001f7c g     F .text	00000018 _utee_authenc_enc_final
00007684 g     F .text	000000ac malloc_buffer_is_within_alloced
00001ec0 g     F .text	00000014 _utee_cryp_obj_close
00003680 g     F .text	00000002 TEE_BigIntInitFMMContext
00001d5c g     F .text	00000014 _utee_mask_cancellation
00002020 g     F .text	00000014 _utee_storage_obj_rename
00001844 g     F .text	00000014 TEE_ResetPersistentObjectEnumerator
00001954 g     F .text	00000040 TEE_WriteObjectData
000031c8 g     F .text	00000006 TEE_BigIntSquare
000020ac g     F .text	00000014 _utee_storage_obj_write
000000ac g     F .text	00000004 TA_CreateEntryPoint
00000400 g     F .text	00000004 __ta_entry
00001f50 g     F .text	00000014 _utee_authenc_update_aad
000059d8 g     F .text	00000006 mbedtls_mpi_montg_init
000005c6 g     F .text	0000001a snprintk
0000304a g     F .text	00000022 TEE_BigIntGetBitCount
00001efc g     F .text	00000014 _utee_cryp_obj_copy
00003350 g     F .text	0000001c TEE_BigIntMulMod
000061dc g     F .text	000002e6 mbedtls_mpi_inv_mod
00009258 g     F .text	000000e0 TEE_DeriveKey
0000c3a4 g     O .bss	00000020 ta_params
000053dc g     F .text	00000350 mbedtls_mpi_div_mpi
00004b58 g     F .text	0000000c mbedtls_mpi_size
00006ae0 g     F .text	0000021c bget
00001448 g     F .text	00000040 TEE_AllocateTransientObject
00003d14 g     F .text	0000000a TEE_StartPropertyEnumerator
00001d70 g     F .text	00000014 _utee_wait
00004a98 g     F .text	0000004e mbedtls_mpi_set_bit
00001210 g     F .text	0000000a TEE_Free
00006528 g     F .text	0000000a mbedtls_mpi_is_prime
00001246 g     F .text	00000006 TEE_CacheInvalidate
00004080 g     F .text	00000010 _assert_break
00003318 g     F .text	0000001c TEE_BigIntAddMod
00009830 g     F .text	00000024 mbedtls_ct_mpi_uint_cond_assign
00001d84 g     F .text	00000014 _utee_get_time
00003d1e g     F .text	00000096 TEE_GetPropertyName
00007b0e g     F .text	0000081e TEE_AllocateOperation
00001ee8 g     F .text	00000014 _utee_cryp_obj_populate
00009338 g     F .text	00000012 TEE_GenerateRandom
00001108 g     F .text	00000004 TEE_MemCompare
00001e40 g     F .text	00000018 _utee_cipher_update
00000588 g     F .text	00000030 __vsnprintf
0000c398 g     O .bss	0000000c __elf_phdr_info
00001830 g     F .text	00000014 TEE_FreePersistentObjectEnumerator
00000fa0 g     F .text	00000090 TEE_OpenTASession
00000d08 g     F .text	00000014 trace_ext_puts
00000d1c g     F .text	00000006 trace_ext_get_thread_id
000017ac g     F .text	00000016 TEE_CloseAndDeletePersistentObject
00001f10 g     F .text	00000014 _utee_cryp_derive_key
000047dc g     F .text	00000044 mbedtls_mpi_free
00001ed4 g     F .text	00000014 _utee_cryp_obj_reset
0000123a g     F .text	00000006 TEE_CacheClean
00001cc8 g     F .text	00000014 _utee_get_property_name_to_index
00007408 g     F .text	0000005e raw_calloc
0000409e g     F .text	000000c2 _base64_enc
0000996c g     F .text	00000088 mbedtls_mpi_safe_cond_swap
00001f38 g     F .text	00000018 _utee_authenc_init
000015a4 g     F .text	00000068 TEE_CopyObjectAttributes1
00009678 g     F .text	00000010 strlen
000034b0 g     F .text	0000019c TEE_BigIntComputeExtendedGcd
00009658 g     F .text	00000002 __aeabi_unwind_cpp_pr1
00002034 g     F .text	00000014 _utee_storage_alloc_enum
00001110 g     F .text	00000016 TEE_GetSystemTime
00001fc4 g     F .text	00000018 _utee_asymm_verify
00000000 g     O .ta_head	00000020 ta_head
00006d58 g     F .text	00000204 brel
00004fa2 g     F .text	000000e2 mbedtls_mpi_sub_abs
00005f30 g     F .text	00000034 mbedtls_mpi_fill_random
000010ec g     F .text	0000000c TEE_SetInstanceData
00001d20 g     F .text	00000014 _utee_get_cancellation_flag
00000cd8 g     F .text	00000018 __aeabi_ldivmod
0000582a g     F .text	0000015e mbedtls_mpi_write_string
00007610 g     F .text	00000012 aligned_alloc
00001884 g     F .text	0000007c TEE_GetNextPersistentObject
00000e0a g     F .text	00000014 TEE_CloseTASession
000091b0 g     F .text	000000a8 TEE_AsymmetricVerifyDigest
00001ff4 g     F .text	00000018 _utee_storage_obj_create
00007622 g     F .text	00000012 free
00007074 g     F .text	00000060 bstats
00008ac8 g     F .text	0000007c TEE_MACComputeFinal
0000f3d0 g     O .bss	00000004 mbedtls_mpi_mempool
00001e14 g     F .text	00000018 _utee_hash_final



Disassembly of section .text:

00000020 <open_rb_state>:
open_rb_state():
/home/lubuntu/Dokument/GitHub/STM32-Computer/Firmware/STM32-Computer-Firmware/CA7/optee-os-3.19.0-r2/optee-os-stm32mp-3.19.0-stm32mp-r2/ta/avb/entry.c:39
      20:	b570      	push	{r4, r5, r6, lr}
      22:	b086      	sub	sp, #24
/home/lubuntu/Dokument/GitHub/STM32-Computer/Firmware/STM32-Computer-Firmware/CA7/optee-os-3.19.0-r2/optee-os-stm32mp-3.19.0-stm32mp-r2/ta/avb/entry.c:44
      24:	4e0f      	ldr	r6, [pc, #60]	@ (64 <open_rb_state+0x44>)
/home/lubuntu/Dokument/GitHub/STM32-Computer/Firmware/STM32-Computer-Firmware/CA7/optee-os-3.19.0-r2/optee-os-stm32mp-3.19.0-stm32mp-r2/ta/avb/entry.c:39
      26:	4605      	mov	r5, r0
/home/lubuntu/Dokument/GitHub/STM32-Computer/Firmware/STM32-Computer-Firmware/CA7/optee-os-3.19.0-r2/optee-os-stm32mp-3.19.0-stm32mp-r2/ta/avb/entry.c:44
      28:	9100      	str	r1, [sp, #0]
/home/lubuntu/Dokument/GitHub/STM32-Computer/Firmware/STM32-Computer-Firmware/CA7/optee-os-3.19.0-r2/optee-os-stm32mp-3.19.0-stm32mp-r2/ta/avb/entry.c:39
      2a:	460c      	mov	r4, r1
/home/lubuntu/Dokument/GitHub/STM32-Computer/Firmware/STM32-Computer-Firmware/CA7/optee-os-3.19.0-r2/optee-os-stm32mp-3.19.0-stm32mp-r2/ta/avb/entry.c:44
      2c:	447e      	add	r6, pc
      2e:	2303      	movs	r3, #3
      30:	480b      	ldr	r0, [pc, #44]	@ (60 <open_rb_state+0x40>)
      32:	2209      	movs	r2, #9
      34:	4631      	mov	r1, r6
      36:	f001 fb2b 	bl	1690 <TEE_OpenPersistentObject>
/home/lubuntu/Dokument/GitHub/STM32-Computer/Firmware/STM32-Computer-Firmware/CA7/optee-os-3.19.0-r2/optee-os-stm32mp-3.19.0-stm32mp-r2/ta/avb/entry.c:46
      3a:	b170      	cbz	r0, 5a <open_rb_state+0x3a>
create_rb_state():
/home/lubuntu/Dokument/GitHub/STM32-Computer/Firmware/STM32-Computer-Firmware/CA7/optee-os-3.19.0-r2/optee-os-stm32mp-3.19.0-stm32mp-r2/ta/avb/entry.c:32
      3c:	4808      	ldr	r0, [pc, #32]	@ (60 <open_rb_state+0x40>)
      3e:	2304      	movs	r3, #4
      40:	9302      	str	r3, [sp, #8]
      42:	ab05      	add	r3, sp, #20
      44:	9301      	str	r3, [sp, #4]
      46:	2300      	movs	r3, #0
      48:	9300      	str	r3, [sp, #0]
      4a:	2209      	movs	r2, #9
      4c:	9403      	str	r4, [sp, #12]
      4e:	f240 4303 	movw	r3, #1027	@ 0x403
      52:	9505      	str	r5, [sp, #20]
      54:	4631      	mov	r1, r6
      56:	f001 fb53 	bl	1700 <TEE_CreatePersistentObject>
open_rb_state():
/home/lubuntu/Dokument/GitHub/STM32-Computer/Firmware/STM32-Computer-Firmware/CA7/optee-os-3.19.0-r2/optee-os-stm32mp-3.19.0-stm32mp-r2/ta/avb/entry.c:50
      5a:	b006      	add	sp, #24
      5c:	bd70      	pop	{r4, r5, r6, pc}
      5e:	bf00      	nop
      60:	80000100 	.word	0x80000100
      64:	0000a0d6 	.word	0x0000a0d6

00000068 <get_named_object_name.constprop.0>:
get_named_object_name():
/home/lubuntu/Dokument/GitHub/STM32-Computer/Firmware/STM32-Computer-Firmware/CA7/optee-os-3.19.0-r2/optee-os-stm32mp-3.19.0-stm32mp-r2/ta/avb/entry.c:52
      68:	e92d 41f0 	stmdb	sp!, {r4, r5, r6, r7, r8, lr}
/home/lubuntu/Dokument/GitHub/STM32-Computer/Firmware/STM32-Computer-Firmware/CA7/optee-os-3.19.0-r2/optee-os-stm32mp-3.19.0-stm32mp-r2/ta/avb/entry.c:58
      6c:	f101 080c 	add.w	r8, r1, #12
      70:	f1b8 0f40 	cmp.w	r8, #64	@ 0x40
/home/lubuntu/Dokument/GitHub/STM32-Computer/Firmware/STM32-Computer-Firmware/CA7/optee-os-3.19.0-r2/optee-os-stm32mp-3.19.0-stm32mp-r2/ta/avb/entry.c:52
      74:	4607      	mov	r7, r0
      76:	460d      	mov	r5, r1
      78:	4614      	mov	r4, r2
      7a:	461e      	mov	r6, r3
/home/lubuntu/Dokument/GitHub/STM32-Computer/Firmware/STM32-Computer-Firmware/CA7/optee-os-3.19.0-r2/optee-os-stm32mp-3.19.0-stm32mp-r2/ta/avb/entry.c:58
      7c:	d810      	bhi.n	a0 <get_named_object_name.constprop.0+0x38>
/home/lubuntu/Dokument/GitHub/STM32-Computer/Firmware/STM32-Computer-Firmware/CA7/optee-os-3.19.0-r2/optee-os-stm32mp-3.19.0-stm32mp-r2/ta/avb/entry.c:63
      7e:	490a      	ldr	r1, [pc, #40]	@ (a8 <get_named_object_name.constprop.0+0x40>)
      80:	220c      	movs	r2, #12
      82:	4620      	mov	r0, r4
      84:	4479      	add	r1, pc
      86:	f001 f83d 	bl	1104 <TEE_MemMove>
/home/lubuntu/Dokument/GitHub/STM32-Computer/Firmware/STM32-Computer-Firmware/CA7/optee-os-3.19.0-r2/optee-os-stm32mp-3.19.0-stm32mp-r2/ta/avb/entry.c:66
      8a:	462a      	mov	r2, r5
      8c:	4639      	mov	r1, r7
      8e:	f104 000c 	add.w	r0, r4, #12
      92:	f001 f837 	bl	1104 <TEE_MemMove>
/home/lubuntu/Dokument/GitHub/STM32-Computer/Firmware/STM32-Computer-Firmware/CA7/optee-os-3.19.0-r2/optee-os-stm32mp-3.19.0-stm32mp-r2/ta/avb/entry.c:68
      96:	f8c6 8000 	str.w	r8, [r6]
/home/lubuntu/Dokument/GitHub/STM32-Computer/Firmware/STM32-Computer-Firmware/CA7/optee-os-3.19.0-r2/optee-os-stm32mp-3.19.0-stm32mp-r2/ta/avb/entry.c:70
      9a:	2000      	movs	r0, #0
/home/lubuntu/Dokument/GitHub/STM32-Computer/Firmware/STM32-Computer-Firmware/CA7/optee-os-3.19.0-r2/optee-os-stm32mp-3.19.0-stm32mp-r2/ta/avb/entry.c:71
      9c:	e8bd 81f0 	ldmia.w	sp!, {r4, r5, r6, r7, r8, pc}
/home/lubuntu/Dokument/GitHub/STM32-Computer/Firmware/STM32-Computer-Firmware/CA7/optee-os-3.19.0-r2/optee-os-stm32mp-3.19.0-stm32mp-r2/ta/avb/entry.c:60
      a0:	4800      	ldr	r0, [pc, #0]	@ (a4 <get_named_object_name.constprop.0+0x3c>)
      a2:	e7fb      	b.n	9c <get_named_object_name.constprop.0+0x34>
      a4:	ffff0006 	.word	0xffff0006
      a8:	00009fd0 	.word	0x00009fd0

000000ac <TA_CreateEntryPoint>:
TA_CreateEntryPoint():
/home/lubuntu/Dokument/GitHub/STM32-Computer/Firmware/STM32-Computer-Firmware/CA7/optee-os-3.19.0-r2/optee-os-stm32mp-3.19.0-stm32mp-r2/ta/avb/entry.c:360
      ac:	2000      	movs	r0, #0
      ae:	4770      	bx	lr

000000b0 <TA_DestroyEntryPoint>:
TA_DestroyEntryPoint():
/home/lubuntu/Dokument/GitHub/STM32-Computer/Firmware/STM32-Computer-Firmware/CA7/optee-os-3.19.0-r2/optee-os-stm32mp-3.19.0-stm32mp-r2/ta/avb/entry.c:364
      b0:	4770      	bx	lr

000000b2 <TA_OpenSessionEntryPoint>:
TA_OpenSessionEntryPoint():
/home/lubuntu/Dokument/GitHub/STM32-Computer/Firmware/STM32-Computer-Firmware/CA7/optee-os-3.19.0-r2/optee-os-stm32mp-3.19.0-stm32mp-r2/ta/avb/entry.c:371
      b2:	2000      	movs	r0, #0
      b4:	4770      	bx	lr

000000b6 <TA_CloseSessionEntryPoint>:
TA_CloseSessionEntryPoint():
/home/lubuntu/Dokument/GitHub/STM32-Computer/Firmware/STM32-Computer-Firmware/CA7/optee-os-3.19.0-r2/optee-os-stm32mp-3.19.0-stm32mp-r2/ta/avb/entry.c:375
      b6:	4770      	bx	lr

000000b8 <TA_InvokeCommandEntryPoint>:
TA_InvokeCommandEntryPoint():
/home/lubuntu/Dokument/GitHub/STM32-Computer/Firmware/STM32-Computer-Firmware/CA7/optee-os-3.19.0-r2/optee-os-stm32mp-3.19.0-stm32mp-r2/ta/avb/entry.c:380
      b8:	e92d 43f0 	stmdb	sp!, {r4, r5, r6, r7, r8, r9, lr}
      bc:	4614      	mov	r4, r2
      be:	b099      	sub	sp, #100	@ 0x64
      c0:	461d      	mov	r5, r3
/home/lubuntu/Dokument/GitHub/STM32-Computer/Firmware/STM32-Computer-Firmware/CA7/optee-os-3.19.0-r2/optee-os-stm32mp-3.19.0-stm32mp-r2/ta/avb/entry.c:381
      c2:	2905      	cmp	r1, #5
      c4:	f200 816e 	bhi.w	3a4 <TA_InvokeCommandEntryPoint+0x2ec>
      c8:	e8df f011 	tbh	[pc, r1, lsl #1]
      cc:	00440006 	.word	0x00440006
      d0:	00a4008a 	.word	0x00a4008a
      d4:	012a00d2 	.word	0x012a00d2
read_rb_idx():
/home/lubuntu/Dokument/GitHub/STM32-Computer/Firmware/STM32-Computer-Firmware/CA7/optee-os-3.19.0-r2/optee-os-stm32mp-3.19.0-stm32mp-r2/ta/avb/entry.c:85
      d8:	2c21      	cmp	r4, #33	@ 0x21
      da:	f040 815f 	bne.w	39c <TA_InvokeCommandEntryPoint+0x2e4>
/home/lubuntu/Dokument/GitHub/STM32-Computer/Firmware/STM32-Computer-Firmware/CA7/optee-os-3.19.0-r2/optee-os-stm32mp-3.19.0-stm32mp-r2/ta/avb/entry.c:88
      de:	682e      	ldr	r6, [r5, #0]
get_slot_offset():
/home/lubuntu/Dokument/GitHub/STM32-Computer/Firmware/STM32-Computer-Firmware/CA7/optee-os-3.19.0-r2/optee-os-stm32mp-3.19.0-stm32mp-r2/ta/avb/entry.c:19
      e0:	2eff      	cmp	r6, #255	@ 0xff
      e2:	f200 815b 	bhi.w	39c <TA_InvokeCommandEntryPoint+0x2e4>
read_rb_idx():
/home/lubuntu/Dokument/GitHub/STM32-Computer/Firmware/STM32-Computer-Firmware/CA7/optee-os-3.19.0-r2/optee-os-stm32mp-3.19.0-stm32mp-r2/ta/avb/entry.c:92
      e6:	a906      	add	r1, sp, #24
      e8:	2000      	movs	r0, #0
      ea:	f7ff ff99 	bl	20 <open_rb_state>
/home/lubuntu/Dokument/GitHub/STM32-Computer/Firmware/STM32-Computer-Firmware/CA7/optee-os-3.19.0-r2/optee-os-stm32mp-3.19.0-stm32mp-r2/ta/avb/entry.c:93
      ee:	4604      	mov	r4, r0
      f0:	2800      	cmp	r0, #0
      f2:	d168      	bne.n	1c6 <TA_InvokeCommandEntryPoint+0x10e>
get_slot_offset():
/home/lubuntu/Dokument/GitHub/STM32-Computer/Firmware/STM32-Computer-Firmware/CA7/optee-os-3.19.0-r2/optee-os-stm32mp-3.19.0-stm32mp-r2/ta/avb/entry.c:22
      f4:	00f6      	lsls	r6, r6, #3
read_rb_idx():
/home/lubuntu/Dokument/GitHub/STM32-Computer/Firmware/STM32-Computer-Firmware/CA7/optee-os-3.19.0-r2/optee-os-stm32mp-3.19.0-stm32mp-r2/ta/avb/entry.c:96
      f6:	4602      	mov	r2, r0
      f8:	9806      	ldr	r0, [sp, #24]
get_slot_offset():
/home/lubuntu/Dokument/GitHub/STM32-Computer/Firmware/STM32-Computer-Firmware/CA7/optee-os-3.19.0-r2/optee-os-stm32mp-3.19.0-stm32mp-r2/ta/avb/entry.c:22
      fa:	3604      	adds	r6, #4
read_rb_idx():
/home/lubuntu/Dokument/GitHub/STM32-Computer/Firmware/STM32-Computer-Firmware/CA7/optee-os-3.19.0-r2/optee-os-stm32mp-3.19.0-stm32mp-r2/ta/avb/entry.c:96
      fc:	4631      	mov	r1, r6
      fe:	f001 fc65 	bl	19cc <TEE_SeekObjectData>
/home/lubuntu/Dokument/GitHub/STM32-Computer/Firmware/STM32-Computer-Firmware/CA7/optee-os-3.19.0-r2/optee-os-stm32mp-3.19.0-stm32mp-r2/ta/avb/entry.c:97
     102:	4604      	mov	r4, r0
     104:	b980      	cbnz	r0, 128 <TA_InvokeCommandEntryPoint+0x70>
/home/lubuntu/Dokument/GitHub/STM32-Computer/Firmware/STM32-Computer-Firmware/CA7/optee-os-3.19.0-r2/optee-os-stm32mp-3.19.0-stm32mp-r2/ta/avb/entry.c:100
     106:	9806      	ldr	r0, [sp, #24]
     108:	af08      	add	r7, sp, #32
     10a:	ab05      	add	r3, sp, #20
     10c:	2208      	movs	r2, #8
     10e:	4639      	mov	r1, r7
     110:	f001 fbf6 	bl	1900 <TEE_ReadObjectData>
/home/lubuntu/Dokument/GitHub/STM32-Computer/Firmware/STM32-Computer-Firmware/CA7/optee-os-3.19.0-r2/optee-os-stm32mp-3.19.0-stm32mp-r2/ta/avb/entry.c:101
     114:	4604      	mov	r4, r0
     116:	b938      	cbnz	r0, 128 <TA_InvokeCommandEntryPoint+0x70>
/home/lubuntu/Dokument/GitHub/STM32-Computer/Firmware/STM32-Computer-Firmware/CA7/optee-os-3.19.0-r2/optee-os-stm32mp-3.19.0-stm32mp-r2/ta/avb/entry.c:103
     118:	9b05      	ldr	r3, [sp, #20]
/home/lubuntu/Dokument/GitHub/STM32-Computer/Firmware/STM32-Computer-Firmware/CA7/optee-os-3.19.0-r2/optee-os-stm32mp-3.19.0-stm32mp-r2/ta/avb/entry.c:111
     11a:	9806      	ldr	r0, [sp, #24]
/home/lubuntu/Dokument/GitHub/STM32-Computer/Firmware/STM32-Computer-Firmware/CA7/optee-os-3.19.0-r2/optee-os-stm32mp-3.19.0-stm32mp-r2/ta/avb/entry.c:103
     11c:	2b08      	cmp	r3, #8
     11e:	d105      	bne.n	12c <TA_InvokeCommandEntryPoint+0x74>
/home/lubuntu/Dokument/GitHub/STM32-Computer/Firmware/STM32-Computer-Firmware/CA7/optee-os-3.19.0-r2/optee-os-stm32mp-3.19.0-stm32mp-r2/ta/avb/entry.c:121
     120:	9b09      	ldr	r3, [sp, #36]	@ 0x24
     122:	60ab      	str	r3, [r5, #8]
/home/lubuntu/Dokument/GitHub/STM32-Computer/Firmware/STM32-Computer-Firmware/CA7/optee-os-3.19.0-r2/optee-os-stm32mp-3.19.0-stm32mp-r2/ta/avb/entry.c:122
     124:	9b08      	ldr	r3, [sp, #32]
     126:	60eb      	str	r3, [r5, #12]
write_lock_state():
/home/lubuntu/Dokument/GitHub/STM32-Computer/Firmware/STM32-Computer-Firmware/CA7/optee-os-3.19.0-r2/optee-os-stm32mp-3.19.0-stm32mp-r2/ta/avb/entry.c:244
     128:	9806      	ldr	r0, [sp, #24]
     12a:	e04a      	b.n	1c2 <TA_InvokeCommandEntryPoint+0x10a>
read_rb_idx():
/home/lubuntu/Dokument/GitHub/STM32-Computer/Firmware/STM32-Computer-Firmware/CA7/optee-os-3.19.0-r2/optee-os-stm32mp-3.19.0-stm32mp-r2/ta/avb/entry.c:104
     12c:	efc0 0010 	vmov.i32	d16, #0	@ 0x00000000
     130:	edcd 0b08 	vstr	d16, [sp, #32]
/home/lubuntu/Dokument/GitHub/STM32-Computer/Firmware/STM32-Computer-Firmware/CA7/optee-os-3.19.0-r2/optee-os-stm32mp-3.19.0-stm32mp-r2/ta/avb/entry.c:106
     134:	2b00      	cmp	r3, #0
     136:	d0f3      	beq.n	120 <TA_InvokeCommandEntryPoint+0x68>
/home/lubuntu/Dokument/GitHub/STM32-Computer/Firmware/STM32-Computer-Firmware/CA7/optee-os-3.19.0-r2/optee-os-stm32mp-3.19.0-stm32mp-r2/ta/avb/entry.c:111
     138:	4622      	mov	r2, r4
     13a:	4631      	mov	r1, r6
     13c:	f001 fc46 	bl	19cc <TEE_SeekObjectData>
/home/lubuntu/Dokument/GitHub/STM32-Computer/Firmware/STM32-Computer-Firmware/CA7/optee-os-3.19.0-r2/optee-os-stm32mp-3.19.0-stm32mp-r2/ta/avb/entry.c:113
     140:	b930      	cbnz	r0, 150 <TA_InvokeCommandEntryPoint+0x98>
/home/lubuntu/Dokument/GitHub/STM32-Computer/Firmware/STM32-Computer-Firmware/CA7/optee-os-3.19.0-r2/optee-os-stm32mp-3.19.0-stm32mp-r2/ta/avb/entry.c:115
     142:	9806      	ldr	r0, [sp, #24]
     144:	2208      	movs	r2, #8
     146:	4639      	mov	r1, r7
     148:	f001 fc04 	bl	1954 <TEE_WriteObjectData>
/home/lubuntu/Dokument/GitHub/STM32-Computer/Firmware/STM32-Computer-Firmware/CA7/optee-os-3.19.0-r2/optee-os-stm32mp-3.19.0-stm32mp-r2/ta/avb/entry.c:116
     14c:	2800      	cmp	r0, #0
     14e:	d0e7      	beq.n	120 <TA_InvokeCommandEntryPoint+0x68>
create_rb_state():
/home/lubuntu/Dokument/GitHub/STM32-Computer/Firmware/STM32-Computer-Firmware/CA7/optee-os-3.19.0-r2/optee-os-stm32mp-3.19.0-stm32mp-r2/ta/avb/entry.c:32
     150:	4604      	mov	r4, r0
     152:	e7e9      	b.n	128 <TA_InvokeCommandEntryPoint+0x70>
write_rb_idx():
/home/lubuntu/Dokument/GitHub/STM32-Computer/Firmware/STM32-Computer-Firmware/CA7/optee-os-3.19.0-r2/optee-os-stm32mp-3.19.0-stm32mp-r2/ta/avb/entry.c:141
     154:	2c11      	cmp	r4, #17
     156:	f040 8121 	bne.w	39c <TA_InvokeCommandEntryPoint+0x2e4>
/home/lubuntu/Dokument/GitHub/STM32-Computer/Firmware/STM32-Computer-Firmware/CA7/optee-os-3.19.0-r2/optee-os-stm32mp-3.19.0-stm32mp-r2/ta/avb/entry.c:144
     15a:	682e      	ldr	r6, [r5, #0]
get_slot_offset():
/home/lubuntu/Dokument/GitHub/STM32-Computer/Firmware/STM32-Computer-Firmware/CA7/optee-os-3.19.0-r2/optee-os-stm32mp-3.19.0-stm32mp-r2/ta/avb/entry.c:19
     15c:	2eff      	cmp	r6, #255	@ 0xff
     15e:	f200 811d 	bhi.w	39c <TA_InvokeCommandEntryPoint+0x2e4>
write_rb_idx():
/home/lubuntu/Dokument/GitHub/STM32-Computer/Firmware/STM32-Computer-Firmware/CA7/optee-os-3.19.0-r2/optee-os-stm32mp-3.19.0-stm32mp-r2/ta/avb/entry.c:147
     162:	68ab      	ldr	r3, [r5, #8]
/home/lubuntu/Dokument/GitHub/STM32-Computer/Firmware/STM32-Computer-Firmware/CA7/optee-os-3.19.0-r2/optee-os-stm32mp-3.19.0-stm32mp-r2/ta/avb/entry.c:149
     164:	a905      	add	r1, sp, #20
/home/lubuntu/Dokument/GitHub/STM32-Computer/Firmware/STM32-Computer-Firmware/CA7/optee-os-3.19.0-r2/optee-os-stm32mp-3.19.0-stm32mp-r2/ta/avb/entry.c:147
     166:	68ea      	ldr	r2, [r5, #12]
/home/lubuntu/Dokument/GitHub/STM32-Computer/Firmware/STM32-Computer-Firmware/CA7/optee-os-3.19.0-r2/optee-os-stm32mp-3.19.0-stm32mp-r2/ta/avb/entry.c:149
     168:	2000      	movs	r0, #0
/home/lubuntu/Dokument/GitHub/STM32-Computer/Firmware/STM32-Computer-Firmware/CA7/optee-os-3.19.0-r2/optee-os-stm32mp-3.19.0-stm32mp-r2/ta/avb/entry.c:147
     16a:	e9cd 2306 	strd	r2, r3, [sp, #24]
/home/lubuntu/Dokument/GitHub/STM32-Computer/Firmware/STM32-Computer-Firmware/CA7/optee-os-3.19.0-r2/optee-os-stm32mp-3.19.0-stm32mp-r2/ta/avb/entry.c:149
     16e:	f7ff ff57 	bl	20 <open_rb_state>
/home/lubuntu/Dokument/GitHub/STM32-Computer/Firmware/STM32-Computer-Firmware/CA7/optee-os-3.19.0-r2/optee-os-stm32mp-3.19.0-stm32mp-r2/ta/avb/entry.c:150
     172:	4604      	mov	r4, r0
     174:	bb38      	cbnz	r0, 1c6 <TA_InvokeCommandEntryPoint+0x10e>
get_slot_offset():
/home/lubuntu/Dokument/GitHub/STM32-Computer/Firmware/STM32-Computer-Firmware/CA7/optee-os-3.19.0-r2/optee-os-stm32mp-3.19.0-stm32mp-r2/ta/avb/entry.c:22
     176:	00f5      	lsls	r5, r6, #3
write_rb_idx():
/home/lubuntu/Dokument/GitHub/STM32-Computer/Firmware/STM32-Computer-Firmware/CA7/optee-os-3.19.0-r2/optee-os-stm32mp-3.19.0-stm32mp-r2/ta/avb/entry.c:153
     178:	4602      	mov	r2, r0
     17a:	9805      	ldr	r0, [sp, #20]
get_slot_offset():
/home/lubuntu/Dokument/GitHub/STM32-Computer/Firmware/STM32-Computer-Firmware/CA7/optee-os-3.19.0-r2/optee-os-stm32mp-3.19.0-stm32mp-r2/ta/avb/entry.c:22
     17c:	3504      	adds	r5, #4
write_rb_idx():
/home/lubuntu/Dokument/GitHub/STM32-Computer/Firmware/STM32-Computer-Firmware/CA7/optee-os-3.19.0-r2/optee-os-stm32mp-3.19.0-stm32mp-r2/ta/avb/entry.c:153
     17e:	4629      	mov	r1, r5
     180:	f001 fc24 	bl	19cc <TEE_SeekObjectData>
/home/lubuntu/Dokument/GitHub/STM32-Computer/Firmware/STM32-Computer-Firmware/CA7/optee-os-3.19.0-r2/optee-os-stm32mp-3.19.0-stm32mp-r2/ta/avb/entry.c:154
     184:	4604      	mov	r4, r0
     186:	b9d8      	cbnz	r0, 1c0 <TA_InvokeCommandEntryPoint+0x108>
/home/lubuntu/Dokument/GitHub/STM32-Computer/Firmware/STM32-Computer-Firmware/CA7/optee-os-3.19.0-r2/optee-os-stm32mp-3.19.0-stm32mp-r2/ta/avb/entry.c:157
     188:	9805      	ldr	r0, [sp, #20]
     18a:	ab04      	add	r3, sp, #16
     18c:	2208      	movs	r2, #8
     18e:	a908      	add	r1, sp, #32
     190:	f001 fbb6 	bl	1900 <TEE_ReadObjectData>
/home/lubuntu/Dokument/GitHub/STM32-Computer/Firmware/STM32-Computer-Firmware/CA7/optee-os-3.19.0-r2/optee-os-stm32mp-3.19.0-stm32mp-r2/ta/avb/entry.c:158
     194:	4604      	mov	r4, r0
     196:	b998      	cbnz	r0, 1c0 <TA_InvokeCommandEntryPoint+0x108>
/home/lubuntu/Dokument/GitHub/STM32-Computer/Firmware/STM32-Computer-Firmware/CA7/optee-os-3.19.0-r2/optee-os-stm32mp-3.19.0-stm32mp-r2/ta/avb/entry.c:160
     198:	9b04      	ldr	r3, [sp, #16]
     19a:	2b08      	cmp	r3, #8
     19c:	d017      	beq.n	1ce <TA_InvokeCommandEntryPoint+0x116>
/home/lubuntu/Dokument/GitHub/STM32-Computer/Firmware/STM32-Computer-Firmware/CA7/optee-os-3.19.0-r2/optee-os-stm32mp-3.19.0-stm32mp-r2/ta/avb/entry.c:161
     19e:	efc0 0010 	vmov.i32	d16, #0	@ 0x00000000
     1a2:	edcd 0b08 	vstr	d16, [sp, #32]
/home/lubuntu/Dokument/GitHub/STM32-Computer/Firmware/STM32-Computer-Firmware/CA7/optee-os-3.19.0-r2/optee-os-stm32mp-3.19.0-stm32mp-r2/ta/avb/entry.c:168
     1a6:	9805      	ldr	r0, [sp, #20]
     1a8:	2200      	movs	r2, #0
     1aa:	4629      	mov	r1, r5
     1ac:	f001 fc0e 	bl	19cc <TEE_SeekObjectData>
/home/lubuntu/Dokument/GitHub/STM32-Computer/Firmware/STM32-Computer-Firmware/CA7/optee-os-3.19.0-r2/optee-os-stm32mp-3.19.0-stm32mp-r2/ta/avb/entry.c:169
     1b0:	4604      	mov	r4, r0
     1b2:	b928      	cbnz	r0, 1c0 <TA_InvokeCommandEntryPoint+0x108>
/home/lubuntu/Dokument/GitHub/STM32-Computer/Firmware/STM32-Computer-Firmware/CA7/optee-os-3.19.0-r2/optee-os-stm32mp-3.19.0-stm32mp-r2/ta/avb/entry.c:172
     1b4:	9805      	ldr	r0, [sp, #20]
     1b6:	2208      	movs	r2, #8
     1b8:	a906      	add	r1, sp, #24
     1ba:	f001 fbcb 	bl	1954 <TEE_WriteObjectData>
     1be:	4604      	mov	r4, r0
/home/lubuntu/Dokument/GitHub/STM32-Computer/Firmware/STM32-Computer-Firmware/CA7/optee-os-3.19.0-r2/optee-os-stm32mp-3.19.0-stm32mp-r2/ta/avb/entry.c:174
     1c0:	9805      	ldr	r0, [sp, #20]
     1c2:	f001 f937 	bl	1434 <TEE_CloseObject>
TA_InvokeCommandEntryPoint():
/home/lubuntu/Dokument/GitHub/STM32-Computer/Firmware/STM32-Computer-Firmware/CA7/optee-os-3.19.0-r2/optee-os-stm32mp-3.19.0-stm32mp-r2/ta/avb/entry.c:398
     1c6:	4620      	mov	r0, r4
     1c8:	b019      	add	sp, #100	@ 0x64
     1ca:	e8bd 83f0 	ldmia.w	sp!, {r4, r5, r6, r7, r8, r9, pc}
write_rb_idx():
/home/lubuntu/Dokument/GitHub/STM32-Computer/Firmware/STM32-Computer-Firmware/CA7/optee-os-3.19.0-r2/optee-os-stm32mp-3.19.0-stm32mp-r2/ta/avb/entry.c:163
     1ce:	9a06      	ldr	r2, [sp, #24]
     1d0:	9b08      	ldr	r3, [sp, #32]
     1d2:	429a      	cmp	r2, r3
     1d4:	9b07      	ldr	r3, [sp, #28]
     1d6:	9a09      	ldr	r2, [sp, #36]	@ 0x24
     1d8:	4193      	sbcs	r3, r2
     1da:	d2e4      	bcs.n	1a6 <TA_InvokeCommandEntryPoint+0xee>
/home/lubuntu/Dokument/GitHub/STM32-Computer/Firmware/STM32-Computer-Firmware/CA7/optee-os-3.19.0-r2/optee-os-stm32mp-3.19.0-stm32mp-r2/ta/avb/entry.c:164
     1dc:	4c79      	ldr	r4, [pc, #484]	@ (3c4 <TA_InvokeCommandEntryPoint+0x30c>)
     1de:	e7ef      	b.n	1c0 <TA_InvokeCommandEntryPoint+0x108>
read_lock_state():
/home/lubuntu/Dokument/GitHub/STM32-Computer/Firmware/STM32-Computer-Firmware/CA7/optee-os-3.19.0-r2/optee-os-stm32mp-3.19.0-stm32mp-r2/ta/avb/entry.c:189
     1e0:	2c02      	cmp	r4, #2
     1e2:	f040 80db 	bne.w	39c <TA_InvokeCommandEntryPoint+0x2e4>
/home/lubuntu/Dokument/GitHub/STM32-Computer/Firmware/STM32-Computer-Firmware/CA7/optee-os-3.19.0-r2/optee-os-stm32mp-3.19.0-stm32mp-r2/ta/avb/entry.c:192
     1e6:	a908      	add	r1, sp, #32
     1e8:	2000      	movs	r0, #0
     1ea:	f7ff ff19 	bl	20 <open_rb_state>
/home/lubuntu/Dokument/GitHub/STM32-Computer/Firmware/STM32-Computer-Firmware/CA7/optee-os-3.19.0-r2/optee-os-stm32mp-3.19.0-stm32mp-r2/ta/avb/entry.c:193
     1ee:	4604      	mov	r4, r0
     1f0:	2800      	cmp	r0, #0
     1f2:	d1e8      	bne.n	1c6 <TA_InvokeCommandEntryPoint+0x10e>
/home/lubuntu/Dokument/GitHub/STM32-Computer/Firmware/STM32-Computer-Firmware/CA7/optee-os-3.19.0-r2/optee-os-stm32mp-3.19.0-stm32mp-r2/ta/avb/entry.c:196
     1f4:	9808      	ldr	r0, [sp, #32]
     1f6:	ab06      	add	r3, sp, #24
     1f8:	2204      	movs	r2, #4
     1fa:	a905      	add	r1, sp, #20
     1fc:	f001 fb80 	bl	1900 <TEE_ReadObjectData>
/home/lubuntu/Dokument/GitHub/STM32-Computer/Firmware/STM32-Computer-Firmware/CA7/optee-os-3.19.0-r2/optee-os-stm32mp-3.19.0-stm32mp-r2/ta/avb/entry.c:197
     200:	4604      	mov	r4, r0
     202:	b928      	cbnz	r0, 210 <TA_InvokeCommandEntryPoint+0x158>
/home/lubuntu/Dokument/GitHub/STM32-Computer/Firmware/STM32-Computer-Firmware/CA7/optee-os-3.19.0-r2/optee-os-stm32mp-3.19.0-stm32mp-r2/ta/avb/entry.c:199
     204:	9b06      	ldr	r3, [sp, #24]
     206:	2b04      	cmp	r3, #4
/home/lubuntu/Dokument/GitHub/STM32-Computer/Firmware/STM32-Computer-Firmware/CA7/optee-os-3.19.0-r2/optee-os-stm32mp-3.19.0-stm32mp-r2/ta/avb/entry.c:208
     208:	bf0a      	itet	eq
     20a:	9b05      	ldreq	r3, [sp, #20]
/home/lubuntu/Dokument/GitHub/STM32-Computer/Firmware/STM32-Computer-Firmware/CA7/optee-os-3.19.0-r2/optee-os-stm32mp-3.19.0-stm32mp-r2/ta/avb/entry.c:204
     20c:	4c6e      	ldrne	r4, [pc, #440]	@ (3c8 <TA_InvokeCommandEntryPoint+0x310>)
/home/lubuntu/Dokument/GitHub/STM32-Computer/Firmware/STM32-Computer-Firmware/CA7/optee-os-3.19.0-r2/optee-os-stm32mp-3.19.0-stm32mp-r2/ta/avb/entry.c:208
     20e:	602b      	streq	r3, [r5, #0]
/home/lubuntu/Dokument/GitHub/STM32-Computer/Firmware/STM32-Computer-Firmware/CA7/optee-os-3.19.0-r2/optee-os-stm32mp-3.19.0-stm32mp-r2/ta/avb/entry.c:210
     210:	9808      	ldr	r0, [sp, #32]
     212:	e7d6      	b.n	1c2 <TA_InvokeCommandEntryPoint+0x10a>
write_lock_state():
/home/lubuntu/Dokument/GitHub/STM32-Computer/Firmware/STM32-Computer-Firmware/CA7/optee-os-3.19.0-r2/optee-os-stm32mp-3.19.0-stm32mp-r2/ta/avb/entry.c:227
     214:	2c01      	cmp	r4, #1
     216:	f040 80c1 	bne.w	39c <TA_InvokeCommandEntryPoint+0x2e4>
/home/lubuntu/Dokument/GitHub/STM32-Computer/Firmware/STM32-Computer-Firmware/CA7/optee-os-3.19.0-r2/optee-os-stm32mp-3.19.0-stm32mp-r2/ta/avb/entry.c:230
     21a:	682d      	ldr	r5, [r5, #0]
/home/lubuntu/Dokument/GitHub/STM32-Computer/Firmware/STM32-Computer-Firmware/CA7/optee-os-3.19.0-r2/optee-os-stm32mp-3.19.0-stm32mp-r2/ta/avb/entry.c:232
     21c:	ae06      	add	r6, sp, #24
     21e:	4631      	mov	r1, r6
     220:	4628      	mov	r0, r5
     222:	f7ff fefd 	bl	20 <open_rb_state>
/home/lubuntu/Dokument/GitHub/STM32-Computer/Firmware/STM32-Computer-Firmware/CA7/optee-os-3.19.0-r2/optee-os-stm32mp-3.19.0-stm32mp-r2/ta/avb/entry.c:233
     226:	4604      	mov	r4, r0
     228:	2800      	cmp	r0, #0
     22a:	d1cc      	bne.n	1c6 <TA_InvokeCommandEntryPoint+0x10e>
/home/lubuntu/Dokument/GitHub/STM32-Computer/Firmware/STM32-Computer-Firmware/CA7/optee-os-3.19.0-r2/optee-os-stm32mp-3.19.0-stm32mp-r2/ta/avb/entry.c:236
     22c:	9806      	ldr	r0, [sp, #24]
     22e:	ab05      	add	r3, sp, #20
     230:	2204      	movs	r2, #4
     232:	a904      	add	r1, sp, #16
     234:	f001 fb64 	bl	1900 <TEE_ReadObjectData>
/home/lubuntu/Dokument/GitHub/STM32-Computer/Firmware/STM32-Computer-Firmware/CA7/optee-os-3.19.0-r2/optee-os-stm32mp-3.19.0-stm32mp-r2/ta/avb/entry.c:237
     238:	4604      	mov	r4, r0
     23a:	2800      	cmp	r0, #0
     23c:	f47f af74 	bne.w	128 <TA_InvokeCommandEntryPoint+0x70>
/home/lubuntu/Dokument/GitHub/STM32-Computer/Firmware/STM32-Computer-Firmware/CA7/optee-os-3.19.0-r2/optee-os-stm32mp-3.19.0-stm32mp-r2/ta/avb/entry.c:239
     240:	9b05      	ldr	r3, [sp, #20]
     242:	2b04      	cmp	r3, #4
     244:	d103      	bne.n	24e <TA_InvokeCommandEntryPoint+0x196>
     246:	9b04      	ldr	r3, [sp, #16]
     248:	429d      	cmp	r5, r3
     24a:	f43f af6d 	beq.w	128 <TA_InvokeCommandEntryPoint+0x70>
create_rb_state():
/home/lubuntu/Dokument/GitHub/STM32-Computer/Firmware/STM32-Computer-Firmware/CA7/optee-os-3.19.0-r2/optee-os-stm32mp-3.19.0-stm32mp-r2/ta/avb/entry.c:32
     24e:	4963      	ldr	r1, [pc, #396]	@ (3dc <TA_InvokeCommandEntryPoint+0x324>)
     250:	2304      	movs	r3, #4
     252:	9302      	str	r3, [sp, #8]
     254:	ab08      	add	r3, sp, #32
     256:	9301      	str	r3, [sp, #4]
     258:	2300      	movs	r3, #0
     25a:	9300      	str	r3, [sp, #0]
     25c:	2209      	movs	r2, #9
     25e:	4479      	add	r1, pc
     260:	f240 4303 	movw	r3, #1027	@ 0x403
     264:	9603      	str	r6, [sp, #12]
     266:	4859      	ldr	r0, [pc, #356]	@ (3cc <TA_InvokeCommandEntryPoint+0x314>)
     268:	9508      	str	r5, [sp, #32]
     26a:	f001 fa49 	bl	1700 <TEE_CreatePersistentObject>
     26e:	e76f      	b.n	150 <TA_InvokeCommandEntryPoint+0x98>
read_persist_value():
/home/lubuntu/Dokument/GitHub/STM32-Computer/Firmware/STM32-Computer-Firmware/CA7/optee-os-3.19.0-r2/optee-os-stm32mp-3.19.0-stm32mp-r2/ta/avb/entry.c:317
     270:	2c75      	cmp	r4, #117	@ 0x75
/home/lubuntu/Dokument/GitHub/STM32-Computer/Firmware/STM32-Computer-Firmware/CA7/optee-os-3.19.0-r2/optee-os-stm32mp-3.19.0-stm32mp-r2/ta/avb/entry.c:308
     272:	f04f 0100 	mov.w	r1, #0
/home/lubuntu/Dokument/GitHub/STM32-Computer/Firmware/STM32-Computer-Firmware/CA7/optee-os-3.19.0-r2/optee-os-stm32mp-3.19.0-stm32mp-r2/ta/avb/entry.c:310
     276:	e9cd 1104 	strd	r1, r1, [sp, #16]
/home/lubuntu/Dokument/GitHub/STM32-Computer/Firmware/STM32-Computer-Firmware/CA7/optee-os-3.19.0-r2/optee-os-stm32mp-3.19.0-stm32mp-r2/ta/avb/entry.c:315
     27a:	9106      	str	r1, [sp, #24]
/home/lubuntu/Dokument/GitHub/STM32-Computer/Firmware/STM32-Computer-Firmware/CA7/optee-os-3.19.0-r2/optee-os-stm32mp-3.19.0-stm32mp-r2/ta/avb/entry.c:317
     27c:	f040 808e 	bne.w	39c <TA_InvokeCommandEntryPoint+0x2e4>
/home/lubuntu/Dokument/GitHub/STM32-Computer/Firmware/STM32-Computer-Firmware/CA7/optee-os-3.19.0-r2/optee-os-stm32mp-3.19.0-stm32mp-r2/ta/avb/entry.c:322
     280:	68ef      	ldr	r7, [r5, #12]
/home/lubuntu/Dokument/GitHub/STM32-Computer/Firmware/STM32-Computer-Firmware/CA7/optee-os-3.19.0-r2/optee-os-stm32mp-3.19.0-stm32mp-r2/ta/avb/entry.c:321
     282:	e9d5 4900 	ldrd	r4, r9, [r5]
/home/lubuntu/Dokument/GitHub/STM32-Computer/Firmware/STM32-Computer-Firmware/CA7/optee-os-3.19.0-r2/optee-os-stm32mp-3.19.0-stm32mp-r2/ta/avb/entry.c:323
     286:	4638      	mov	r0, r7
     288:	f000 ff99 	bl	11be <TEE_Malloc>
/home/lubuntu/Dokument/GitHub/STM32-Computer/Firmware/STM32-Computer-Firmware/CA7/optee-os-3.19.0-r2/optee-os-stm32mp-3.19.0-stm32mp-r2/ta/avb/entry.c:324
     28c:	4606      	mov	r6, r0
     28e:	2800      	cmp	r0, #0
     290:	f000 8086 	beq.w	3a0 <TA_InvokeCommandEntryPoint+0x2e8>
/home/lubuntu/Dokument/GitHub/STM32-Computer/Firmware/STM32-Computer-Firmware/CA7/optee-os-3.19.0-r2/optee-os-stm32mp-3.19.0-stm32mp-r2/ta/avb/entry.c:327
     294:	f10d 0820 	add.w	r8, sp, #32
     298:	4620      	mov	r0, r4
     29a:	ab05      	add	r3, sp, #20
     29c:	4642      	mov	r2, r8
     29e:	4649      	mov	r1, r9
     2a0:	f7ff fee2 	bl	68 <get_named_object_name.constprop.0>
/home/lubuntu/Dokument/GitHub/STM32-Computer/Firmware/STM32-Computer-Firmware/CA7/optee-os-3.19.0-r2/optee-os-stm32mp-3.19.0-stm32mp-r2/ta/avb/entry.c:329
     2a4:	4604      	mov	r4, r0
     2a6:	b9b0      	cbnz	r0, 2d6 <TA_InvokeCommandEntryPoint+0x21e>
/home/lubuntu/Dokument/GitHub/STM32-Computer/Firmware/STM32-Computer-Firmware/CA7/optee-os-3.19.0-r2/optee-os-stm32mp-3.19.0-stm32mp-r2/ta/avb/entry.c:332
     2a8:	9a05      	ldr	r2, [sp, #20]
     2aa:	ab04      	add	r3, sp, #16
     2ac:	9300      	str	r3, [sp, #0]
     2ae:	4641      	mov	r1, r8
     2b0:	4846      	ldr	r0, [pc, #280]	@ (3cc <TA_InvokeCommandEntryPoint+0x314>)
     2b2:	2303      	movs	r3, #3
     2b4:	f001 f9ec 	bl	1690 <TEE_OpenPersistentObject>
/home/lubuntu/Dokument/GitHub/STM32-Computer/Firmware/STM32-Computer-Firmware/CA7/optee-os-3.19.0-r2/optee-os-stm32mp-3.19.0-stm32mp-r2/ta/avb/entry.c:334
     2b8:	4604      	mov	r4, r0
     2ba:	b180      	cbz	r0, 2de <TA_InvokeCommandEntryPoint+0x226>
/home/lubuntu/Dokument/GitHub/STM32-Computer/Firmware/STM32-Computer-Firmware/CA7/optee-os-3.19.0-r2/optee-os-stm32mp-3.19.0-stm32mp-r2/ta/avb/entry.c:335
     2bc:	4b48      	ldr	r3, [pc, #288]	@ (3e0 <TA_InvokeCommandEntryPoint+0x328>)
     2be:	f240 114f 	movw	r1, #335	@ 0x14f
     2c2:	9001      	str	r0, [sp, #4]
     2c4:	4847      	ldr	r0, [pc, #284]	@ (3e4 <TA_InvokeCommandEntryPoint+0x32c>)
     2c6:	447b      	add	r3, pc
     2c8:	4478      	add	r0, pc
     2ca:	9300      	str	r3, [sp, #0]
     2cc:	2301      	movs	r3, #1
     2ce:	461a      	mov	r2, r3
     2d0:	3009      	adds	r0, #9
     2d2:	f000 f94b 	bl	56c <trace_printf>
write_persist_value():
/home/lubuntu/Dokument/GitHub/STM32-Computer/Firmware/STM32-Computer-Firmware/CA7/optee-os-3.19.0-r2/optee-os-stm32mp-3.19.0-stm32mp-r2/ta/avb/entry.c:293
     2d6:	4630      	mov	r0, r6
     2d8:	f000 ff9a 	bl	1210 <TEE_Free>
/home/lubuntu/Dokument/GitHub/STM32-Computer/Firmware/STM32-Computer-Firmware/CA7/optee-os-3.19.0-r2/optee-os-stm32mp-3.19.0-stm32mp-r2/ta/avb/entry.c:295
     2dc:	e773      	b.n	1c6 <TA_InvokeCommandEntryPoint+0x10e>
read_persist_value():
/home/lubuntu/Dokument/GitHub/STM32-Computer/Firmware/STM32-Computer-Firmware/CA7/optee-os-3.19.0-r2/optee-os-stm32mp-3.19.0-stm32mp-r2/ta/avb/entry.c:339
     2de:	9804      	ldr	r0, [sp, #16]
     2e0:	ab06      	add	r3, sp, #24
     2e2:	463a      	mov	r2, r7
     2e4:	4631      	mov	r1, r6
     2e6:	f001 fb0b 	bl	1900 <TEE_ReadObjectData>
/home/lubuntu/Dokument/GitHub/STM32-Computer/Firmware/STM32-Computer-Firmware/CA7/optee-os-3.19.0-r2/optee-os-stm32mp-3.19.0-stm32mp-r2/ta/avb/entry.c:340
     2ea:	4604      	mov	r4, r0
     2ec:	b180      	cbz	r0, 310 <TA_InvokeCommandEntryPoint+0x258>
/home/lubuntu/Dokument/GitHub/STM32-Computer/Firmware/STM32-Computer-Firmware/CA7/optee-os-3.19.0-r2/optee-os-stm32mp-3.19.0-stm32mp-r2/ta/avb/entry.c:341
     2ee:	4b3e      	ldr	r3, [pc, #248]	@ (3e8 <TA_InvokeCommandEntryPoint+0x330>)
     2f0:	f240 1155 	movw	r1, #341	@ 0x155
     2f4:	9001      	str	r0, [sp, #4]
     2f6:	483d      	ldr	r0, [pc, #244]	@ (3ec <TA_InvokeCommandEntryPoint+0x334>)
     2f8:	447b      	add	r3, pc
     2fa:	4478      	add	r0, pc
     2fc:	9300      	str	r3, [sp, #0]
     2fe:	2301      	movs	r3, #1
     300:	461a      	mov	r2, r3
     302:	3009      	adds	r0, #9
     304:	f000 f932 	bl	56c <trace_printf>
/home/lubuntu/Dokument/GitHub/STM32-Computer/Firmware/STM32-Computer-Firmware/CA7/optee-os-3.19.0-r2/optee-os-stm32mp-3.19.0-stm32mp-r2/ta/avb/entry.c:350
     308:	9804      	ldr	r0, [sp, #16]
write_persist_value():
/home/lubuntu/Dokument/GitHub/STM32-Computer/Firmware/STM32-Computer-Firmware/CA7/optee-os-3.19.0-r2/optee-os-stm32mp-3.19.0-stm32mp-r2/ta/avb/entry.c:291
     30a:	f001 f893 	bl	1434 <TEE_CloseObject>
     30e:	e7e2      	b.n	2d6 <TA_InvokeCommandEntryPoint+0x21e>
read_persist_value():
/home/lubuntu/Dokument/GitHub/STM32-Computer/Firmware/STM32-Computer-Firmware/CA7/optee-os-3.19.0-r2/optee-os-stm32mp-3.19.0-stm32mp-r2/ta/avb/entry.c:345
     310:	68a8      	ldr	r0, [r5, #8]
     312:	463a      	mov	r2, r7
     314:	4631      	mov	r1, r6
     316:	f000 fef5 	bl	1104 <TEE_MemMove>
/home/lubuntu/Dokument/GitHub/STM32-Computer/Firmware/STM32-Computer-Firmware/CA7/optee-os-3.19.0-r2/optee-os-stm32mp-3.19.0-stm32mp-r2/ta/avb/entry.c:348
     31a:	9b06      	ldr	r3, [sp, #24]
     31c:	60eb      	str	r3, [r5, #12]
     31e:	e7f3      	b.n	308 <TA_InvokeCommandEntryPoint+0x250>
write_persist_value():
/home/lubuntu/Dokument/GitHub/STM32-Computer/Firmware/STM32-Computer-Firmware/CA7/optee-os-3.19.0-r2/optee-os-stm32mp-3.19.0-stm32mp-r2/ta/avb/entry.c:258
     320:	2600      	movs	r6, #0
     322:	223c      	movs	r2, #60	@ 0x3c
     324:	9608      	str	r6, [sp, #32]
     326:	4631      	mov	r1, r6
     328:	a809      	add	r0, sp, #36	@ 0x24
     32a:	f009 f98c 	bl	9646 <memset>
/home/lubuntu/Dokument/GitHub/STM32-Computer/Firmware/STM32-Computer-Firmware/CA7/optee-os-3.19.0-r2/optee-os-stm32mp-3.19.0-stm32mp-r2/ta/avb/entry.c:259
     32e:	9605      	str	r6, [sp, #20]
/home/lubuntu/Dokument/GitHub/STM32-Computer/Firmware/STM32-Computer-Firmware/CA7/optee-os-3.19.0-r2/optee-os-stm32mp-3.19.0-stm32mp-r2/ta/avb/entry.c:267
     330:	2c55      	cmp	r4, #85	@ 0x55
/home/lubuntu/Dokument/GitHub/STM32-Computer/Firmware/STM32-Computer-Firmware/CA7/optee-os-3.19.0-r2/optee-os-stm32mp-3.19.0-stm32mp-r2/ta/avb/entry.c:261
     332:	9606      	str	r6, [sp, #24]
/home/lubuntu/Dokument/GitHub/STM32-Computer/Firmware/STM32-Computer-Firmware/CA7/optee-os-3.19.0-r2/optee-os-stm32mp-3.19.0-stm32mp-r2/ta/avb/entry.c:267
     334:	d132      	bne.n	39c <TA_InvokeCommandEntryPoint+0x2e4>
/home/lubuntu/Dokument/GitHub/STM32-Computer/Firmware/STM32-Computer-Firmware/CA7/optee-os-3.19.0-r2/optee-os-stm32mp-3.19.0-stm32mp-r2/ta/avb/entry.c:272
     336:	68ef      	ldr	r7, [r5, #12]
/home/lubuntu/Dokument/GitHub/STM32-Computer/Firmware/STM32-Computer-Firmware/CA7/optee-os-3.19.0-r2/optee-os-stm32mp-3.19.0-stm32mp-r2/ta/avb/entry.c:273
     338:	4631      	mov	r1, r6
/home/lubuntu/Dokument/GitHub/STM32-Computer/Firmware/STM32-Computer-Firmware/CA7/optee-os-3.19.0-r2/optee-os-stm32mp-3.19.0-stm32mp-r2/ta/avb/entry.c:271
     33a:	e9d5 4800 	ldrd	r4, r8, [r5]
/home/lubuntu/Dokument/GitHub/STM32-Computer/Firmware/STM32-Computer-Firmware/CA7/optee-os-3.19.0-r2/optee-os-stm32mp-3.19.0-stm32mp-r2/ta/avb/entry.c:273
     33e:	4638      	mov	r0, r7
     340:	f000 ff3d 	bl	11be <TEE_Malloc>
/home/lubuntu/Dokument/GitHub/STM32-Computer/Firmware/STM32-Computer-Firmware/CA7/optee-os-3.19.0-r2/optee-os-stm32mp-3.19.0-stm32mp-r2/ta/avb/entry.c:274
     344:	4606      	mov	r6, r0
     346:	b358      	cbz	r0, 3a0 <TA_InvokeCommandEntryPoint+0x2e8>
/home/lubuntu/Dokument/GitHub/STM32-Computer/Firmware/STM32-Computer-Firmware/CA7/optee-os-3.19.0-r2/optee-os-stm32mp-3.19.0-stm32mp-r2/ta/avb/entry.c:277
     348:	68a9      	ldr	r1, [r5, #8]
     34a:	463a      	mov	r2, r7
/home/lubuntu/Dokument/GitHub/STM32-Computer/Firmware/STM32-Computer-Firmware/CA7/optee-os-3.19.0-r2/optee-os-stm32mp-3.19.0-stm32mp-r2/ta/avb/entry.c:279
     34c:	ad08      	add	r5, sp, #32
/home/lubuntu/Dokument/GitHub/STM32-Computer/Firmware/STM32-Computer-Firmware/CA7/optee-os-3.19.0-r2/optee-os-stm32mp-3.19.0-stm32mp-r2/ta/avb/entry.c:277
     34e:	f000 fed9 	bl	1104 <TEE_MemMove>
/home/lubuntu/Dokument/GitHub/STM32-Computer/Firmware/STM32-Computer-Firmware/CA7/optee-os-3.19.0-r2/optee-os-stm32mp-3.19.0-stm32mp-r2/ta/avb/entry.c:279
     352:	4620      	mov	r0, r4
     354:	ab06      	add	r3, sp, #24
     356:	462a      	mov	r2, r5
     358:	4641      	mov	r1, r8
     35a:	f7ff fe85 	bl	68 <get_named_object_name.constprop.0>
/home/lubuntu/Dokument/GitHub/STM32-Computer/Firmware/STM32-Computer-Firmware/CA7/optee-os-3.19.0-r2/optee-os-stm32mp-3.19.0-stm32mp-r2/ta/avb/entry.c:281
     35e:	4604      	mov	r4, r0
     360:	2800      	cmp	r0, #0
     362:	d1b8      	bne.n	2d6 <TA_InvokeCommandEntryPoint+0x21e>
/home/lubuntu/Dokument/GitHub/STM32-Computer/Firmware/STM32-Computer-Firmware/CA7/optee-os-3.19.0-r2/optee-os-stm32mp-3.19.0-stm32mp-r2/ta/avb/entry.c:284
     364:	9a06      	ldr	r2, [sp, #24]
     366:	ab05      	add	r3, sp, #20
     368:	9303      	str	r3, [sp, #12]
     36a:	4629      	mov	r1, r5
     36c:	e88d 00d0 	stmia.w	sp, {r4, r6, r7}
     370:	4816      	ldr	r0, [pc, #88]	@ (3cc <TA_InvokeCommandEntryPoint+0x314>)
     372:	f240 4303 	movw	r3, #1027	@ 0x403
     376:	f001 f9c3 	bl	1700 <TEE_CreatePersistentObject>
/home/lubuntu/Dokument/GitHub/STM32-Computer/Firmware/STM32-Computer-Firmware/CA7/optee-os-3.19.0-r2/optee-os-stm32mp-3.19.0-stm32mp-r2/ta/avb/entry.c:288
     37a:	4604      	mov	r4, r0
     37c:	b160      	cbz	r0, 398 <TA_InvokeCommandEntryPoint+0x2e0>
/home/lubuntu/Dokument/GitHub/STM32-Computer/Firmware/STM32-Computer-Firmware/CA7/optee-os-3.19.0-r2/optee-os-stm32mp-3.19.0-stm32mp-r2/ta/avb/entry.c:289
     37e:	4b1c      	ldr	r3, [pc, #112]	@ (3f0 <TA_InvokeCommandEntryPoint+0x338>)
     380:	f240 1121 	movw	r1, #289	@ 0x121
     384:	9001      	str	r0, [sp, #4]
     386:	481b      	ldr	r0, [pc, #108]	@ (3f4 <TA_InvokeCommandEntryPoint+0x33c>)
     388:	447b      	add	r3, pc
     38a:	4478      	add	r0, pc
     38c:	9300      	str	r3, [sp, #0]
     38e:	2301      	movs	r3, #1
     390:	461a      	mov	r2, r3
     392:	301c      	adds	r0, #28
     394:	f000 f8ea 	bl	56c <trace_printf>
/home/lubuntu/Dokument/GitHub/STM32-Computer/Firmware/STM32-Computer-Firmware/CA7/optee-os-3.19.0-r2/optee-os-stm32mp-3.19.0-stm32mp-r2/ta/avb/entry.c:291
     398:	9805      	ldr	r0, [sp, #20]
     39a:	e7b6      	b.n	30a <TA_InvokeCommandEntryPoint+0x252>
/home/lubuntu/Dokument/GitHub/STM32-Computer/Firmware/STM32-Computer-Firmware/CA7/optee-os-3.19.0-r2/optee-os-stm32mp-3.19.0-stm32mp-r2/ta/avb/entry.c:268
     39c:	4c0c      	ldr	r4, [pc, #48]	@ (3d0 <TA_InvokeCommandEntryPoint+0x318>)
     39e:	e712      	b.n	1c6 <TA_InvokeCommandEntryPoint+0x10e>
/home/lubuntu/Dokument/GitHub/STM32-Computer/Firmware/STM32-Computer-Firmware/CA7/optee-os-3.19.0-r2/optee-os-stm32mp-3.19.0-stm32mp-r2/ta/avb/entry.c:275
     3a0:	4c0c      	ldr	r4, [pc, #48]	@ (3d4 <TA_InvokeCommandEntryPoint+0x31c>)
TA_InvokeCommandEntryPoint():
/home/lubuntu/Dokument/GitHub/STM32-Computer/Firmware/STM32-Computer-Firmware/CA7/optee-os-3.19.0-r2/optee-os-stm32mp-3.19.0-stm32mp-r2/ta/avb/entry.c:393
     3a2:	e710      	b.n	1c6 <TA_InvokeCommandEntryPoint+0x10e>
/home/lubuntu/Dokument/GitHub/STM32-Computer/Firmware/STM32-Computer-Firmware/CA7/optee-os-3.19.0-r2/optee-os-stm32mp-3.19.0-stm32mp-r2/ta/avb/entry.c:395
     3a4:	4b14      	ldr	r3, [pc, #80]	@ (3f8 <TA_InvokeCommandEntryPoint+0x340>)
     3a6:	4815      	ldr	r0, [pc, #84]	@ (3fc <TA_InvokeCommandEntryPoint+0x344>)
     3a8:	447b      	add	r3, pc
     3aa:	9300      	str	r3, [sp, #0]
     3ac:	2301      	movs	r3, #1
     3ae:	4478      	add	r0, pc
     3b0:	461a      	mov	r2, r3
     3b2:	9101      	str	r1, [sp, #4]
     3b4:	3030      	adds	r0, #48	@ 0x30
/home/lubuntu/Dokument/GitHub/STM32-Computer/Firmware/STM32-Computer-Firmware/CA7/optee-os-3.19.0-r2/optee-os-stm32mp-3.19.0-stm32mp-r2/ta/avb/entry.c:396
     3b6:	4c08      	ldr	r4, [pc, #32]	@ (3d8 <TA_InvokeCommandEntryPoint+0x320>)
/home/lubuntu/Dokument/GitHub/STM32-Computer/Firmware/STM32-Computer-Firmware/CA7/optee-os-3.19.0-r2/optee-os-stm32mp-3.19.0-stm32mp-r2/ta/avb/entry.c:395
     3b8:	f240 118b 	movw	r1, #395	@ 0x18b
     3bc:	f000 f8d6 	bl	56c <trace_printf>
/home/lubuntu/Dokument/GitHub/STM32-Computer/Firmware/STM32-Computer-Firmware/CA7/optee-os-3.19.0-r2/optee-os-stm32mp-3.19.0-stm32mp-r2/ta/avb/entry.c:396
     3c0:	e701      	b.n	1c6 <TA_InvokeCommandEntryPoint+0x10e>
     3c2:	bf00      	nop
     3c4:	ffff000f 	.word	0xffff000f
     3c8:	f0100001 	.word	0xf0100001
     3cc:	80000100 	.word	0x80000100
     3d0:	ffff0006 	.word	0xffff0006
     3d4:	ffff000c 	.word	0xffff000c
     3d8:	ffff000a 	.word	0xffff000a
     3dc:	00009ea4 	.word	0x00009ea4
     3e0:	00009d9b 	.word	0x00009d9b
     3e4:	00009e3a 	.word	0x00009e3a
     3e8:	00009d93 	.word	0x00009d93
     3ec:	00009e08 	.word	0x00009e08
     3f0:	00009d2d 	.word	0x00009d2d
     3f4:	00009d78 	.word	0x00009d78
     3f8:	00009d39 	.word	0x00009d39
     3fc:	00009d54 	.word	0x00009d54

00000400 <__ta_entry>:
__ta_entry():
/home/lubuntu/Dokument/GitHub/STM32-Computer/Firmware/STM32-Computer-Firmware/CA7/optee-os-3.19.0-r2/optee-os-stm32mp-3.19.0-stm32mp-r2/../build/stm32mp135f-dk/export-ta_arm32/src/ta_entry_a32.S:22
     400:	fa00248c 	blx	9638 <__ta_entry_c>

00000404 <trace_set_level>:
trace_set_level():
/home/lubuntu/Dokument/GitHub/STM32-Computer/Firmware/STM32-Computer-Firmware/CA7/optee-os-3.19.0-r2/optee-os-stm32mp-3.19.0-stm32mp-r2/lib/libutils/ext/trace.c:24
     404:	4b04      	ldr	r3, [pc, #16]	@ (418 <trace_set_level+0x14>)
/home/lubuntu/Dokument/GitHub/STM32-Computer/Firmware/STM32-Computer-Firmware/CA7/optee-os-3.19.0-r2/optee-os-stm32mp-3.19.0-stm32mp-r2/lib/libutils/ext/trace.c:28
     406:	2805      	cmp	r0, #5
     408:	4a04      	ldr	r2, [pc, #16]	@ (41c <trace_set_level+0x18>)
     40a:	bf28      	it	cs
     40c:	2004      	movcs	r0, #4
/home/lubuntu/Dokument/GitHub/STM32-Computer/Firmware/STM32-Computer-Firmware/CA7/optee-os-3.19.0-r2/optee-os-stm32mp-3.19.0-stm32mp-r2/lib/libutils/ext/trace.c:24
     40e:	447b      	add	r3, pc
     410:	589b      	ldr	r3, [r3, r2]
     412:	6018      	str	r0, [r3, #0]
/home/lubuntu/Dokument/GitHub/STM32-Computer/Firmware/STM32-Computer-Firmware/CA7/optee-os-3.19.0-r2/optee-os-stm32mp-3.19.0-stm32mp-r2/lib/libutils/ext/trace.c:29
     414:	4770      	bx	lr
     416:	bf00      	nop
     418:	0000bc76 	.word	0x0000bc76
     41c:	00000014 	.word	0x00000014

00000420 <trace_get_level>:
trace_get_level():
/home/lubuntu/Dokument/GitHub/STM32-Computer/Firmware/STM32-Computer-Firmware/CA7/optee-os-3.19.0-r2/optee-os-stm32mp-3.19.0-stm32mp-r2/lib/libutils/ext/trace.c:32
     420:	4b02      	ldr	r3, [pc, #8]	@ (42c <trace_get_level+0xc>)
/home/lubuntu/Dokument/GitHub/STM32-Computer/Firmware/STM32-Computer-Firmware/CA7/optee-os-3.19.0-r2/optee-os-stm32mp-3.19.0-stm32mp-r2/lib/libutils/ext/trace.c:33
     422:	4a03      	ldr	r2, [pc, #12]	@ (430 <trace_get_level+0x10>)
/home/lubuntu/Dokument/GitHub/STM32-Computer/Firmware/STM32-Computer-Firmware/CA7/optee-os-3.19.0-r2/optee-os-stm32mp-3.19.0-stm32mp-r2/lib/libutils/ext/trace.c:32
     424:	447b      	add	r3, pc
/home/lubuntu/Dokument/GitHub/STM32-Computer/Firmware/STM32-Computer-Firmware/CA7/optee-os-3.19.0-r2/optee-os-stm32mp-3.19.0-stm32mp-r2/lib/libutils/ext/trace.c:33
     426:	589b      	ldr	r3, [r3, r2]
/home/lubuntu/Dokument/GitHub/STM32-Computer/Firmware/STM32-Computer-Firmware/CA7/optee-os-3.19.0-r2/optee-os-stm32mp-3.19.0-stm32mp-r2/lib/libutils/ext/trace.c:34
     428:	6818      	ldr	r0, [r3, #0]
     42a:	4770      	bx	lr
     42c:	0000bc60 	.word	0x0000bc60
     430:	00000014 	.word	0x00000014

00000434 <trace_vprintf>:
trace_vprintf():
/home/lubuntu/Dokument/GitHub/STM32-Computer/Firmware/STM32-Computer-Firmware/CA7/optee-os-3.19.0-r2/optee-os-stm32mp-3.19.0-stm32mp-r2/lib/libutils/ext/trace.c:113
     434:	e92d 47f0 	stmdb	sp!, {r4, r5, r6, r7, r8, r9, sl, lr}
     438:	4607      	mov	r7, r0
     43a:	4e42      	ldr	r6, [pc, #264]	@ (544 <trace_vprintf+0x110>)
     43c:	b0c4      	sub	sp, #272	@ 0x110
     43e:	4688      	mov	r8, r1
     440:	4614      	mov	r4, r2
     442:	447e      	add	r6, pc
/home/lubuntu/Dokument/GitHub/STM32-Computer/Firmware/STM32-Computer-Firmware/CA7/optee-os-3.19.0-r2/optee-os-stm32mp-3.19.0-stm32mp-r2/lib/libutils/ext/trace.c:118
     444:	469a      	mov	sl, r3
     446:	2b00      	cmp	r3, #0
     448:	d069      	beq.n	51e <trace_vprintf+0xea>
/home/lubuntu/Dokument/GitHub/STM32-Computer/Firmware/STM32-Computer-Firmware/CA7/optee-os-3.19.0-r2/optee-os-stm32mp-3.19.0-stm32mp-r2/lib/libutils/ext/trace.c:118 (discriminator 1)
     44a:	4b3f      	ldr	r3, [pc, #252]	@ (548 <trace_vprintf+0x114>)
     44c:	58f3      	ldr	r3, [r6, r3]
     44e:	681b      	ldr	r3, [r3, #0]
     450:	4293      	cmp	r3, r2
     452:	db61      	blt.n	518 <trace_vprintf+0xe4>
trace_level_to_string():
/home/lubuntu/Dokument/GitHub/STM32-Computer/Firmware/STM32-Computer-Firmware/CA7/optee-os-3.19.0-r2/optee-os-stm32mp-3.19.0-stm32mp-r2/lib/libutils/ext/trace.c:51
     454:	2a04      	cmp	r2, #4
     456:	bf94      	ite	ls
     458:	4613      	movls	r3, r2
     45a:	2300      	movhi	r3, #0
/home/lubuntu/Dokument/GitHub/STM32-Computer/Firmware/STM32-Computer-Firmware/CA7/optee-os-3.19.0-r2/optee-os-stm32mp-3.19.0-stm32mp-r2/lib/libutils/ext/trace.c:54
     45c:	4a3b      	ldr	r2, [pc, #236]	@ (54c <trace_vprintf+0x118>)
     45e:	447a      	add	r2, pc
     460:	5cd3      	ldrb	r3, [r2, r3]
trace_vprintf():
/home/lubuntu/Dokument/GitHub/STM32-Computer/Firmware/STM32-Computer-Firmware/CA7/optee-os-3.19.0-r2/optee-os-stm32mp-3.19.0-stm32mp-r2/lib/libutils/ext/trace.c:122
     462:	4a3b      	ldr	r2, [pc, #236]	@ (550 <trace_vprintf+0x11c>)
     464:	ad04      	add	r5, sp, #16
     466:	f44f 7180 	mov.w	r1, #256	@ 0x100
     46a:	4628      	mov	r0, r5
     46c:	447a      	add	r2, pc
     46e:	f000 f8aa 	bl	5c6 <snprintk>
/home/lubuntu/Dokument/GitHub/STM32-Computer/Firmware/STM32-Computer-Firmware/CA7/optee-os-3.19.0-r2/optee-os-stm32mp-3.19.0-stm32mp-r2/lib/libutils/ext/trace.c:124
     472:	f1b0 0900 	subs.w	r9, r0, #0
     476:	db4f      	blt.n	518 <trace_vprintf+0xe4>
/home/lubuntu/Dokument/GitHub/STM32-Computer/Firmware/STM32-Computer-Firmware/CA7/optee-os-3.19.0-r2/optee-os-stm32mp-3.19.0-stm32mp-r2/lib/libutils/ext/trace.c:129
     478:	4b36      	ldr	r3, [pc, #216]	@ (554 <trace_vprintf+0x120>)
     47a:	f5c9 7180 	rsb	r1, r9, #256	@ 0x100
     47e:	4a36      	ldr	r2, [pc, #216]	@ (558 <trace_vprintf+0x124>)
     480:	58f3      	ldr	r3, [r6, r3]
     482:	447a      	add	r2, pc
     484:	eb05 0009 	add.w	r0, r5, r9
     488:	9303      	str	r3, [sp, #12]
     48a:	f000 f89c 	bl	5c6 <snprintk>
/home/lubuntu/Dokument/GitHub/STM32-Computer/Firmware/STM32-Computer-Firmware/CA7/optee-os-3.19.0-r2/optee-os-stm32mp-3.19.0-stm32mp-r2/lib/libutils/ext/trace.c:131
     48e:	2800      	cmp	r0, #0
     490:	db42      	blt.n	518 <trace_vprintf+0xe4>
/home/lubuntu/Dokument/GitHub/STM32-Computer/Firmware/STM32-Computer-Firmware/CA7/optee-os-3.19.0-r2/optee-os-stm32mp-3.19.0-stm32mp-r2/lib/libutils/ext/trace.c:133
     492:	eb00 0609 	add.w	r6, r0, r9
/home/lubuntu/Dokument/GitHub/STM32-Computer/Firmware/STM32-Computer-Firmware/CA7/optee-os-3.19.0-r2/optee-os-stm32mp-3.19.0-stm32mp-r2/lib/libutils/ext/trace.c:135
     496:	f1ba 0f00 	cmp.w	sl, #0
     49a:	d049      	beq.n	530 <trace_vprintf+0xfc>
/home/lubuntu/Dokument/GitHub/STM32-Computer/Firmware/STM32-Computer-Firmware/CA7/optee-os-3.19.0-r2/optee-os-stm32mp-3.19.0-stm32mp-r2/lib/libutils/ext/trace.c:135 (discriminator 1)
     49c:	231a      	movs	r3, #26
     49e:	40e3      	lsrs	r3, r4
     4a0:	07db      	lsls	r3, r3, #31
     4a2:	d545      	bpl.n	530 <trace_vprintf+0xfc>
/home/lubuntu/Dokument/GitHub/STM32-Computer/Firmware/STM32-Computer-Firmware/CA7/optee-os-3.19.0-r2/optee-os-stm32mp-3.19.0-stm32mp-r2/lib/libutils/ext/trace.c:137
     4a4:	19ac      	adds	r4, r5, r6
print_thread_id():
/home/lubuntu/Dokument/GitHub/STM32-Computer/Firmware/STM32-Computer-Firmware/CA7/optee-os-3.19.0-r2/optee-os-stm32mp-3.19.0-stm32mp-r2/lib/libutils/ext/trace.c:66
     4a6:	f000 fc39 	bl	d1c <trace_ext_get_thread_id>
/home/lubuntu/Dokument/GitHub/STM32-Computer/Firmware/STM32-Computer-Firmware/CA7/optee-os-3.19.0-r2/optee-os-stm32mp-3.19.0-stm32mp-r2/lib/libutils/ext/trace.c:68
     4aa:	2800      	cmp	r0, #0
trace_vprintf():
/home/lubuntu/Dokument/GitHub/STM32-Computer/Firmware/STM32-Computer-Firmware/CA7/optee-os-3.19.0-r2/optee-os-stm32mp-3.19.0-stm32mp-r2/lib/libutils/ext/trace.c:137
     4ac:	f5c6 7980 	rsb	r9, r6, #256	@ 0x100
print_thread_id():
/home/lubuntu/Dokument/GitHub/STM32-Computer/Firmware/STM32-Computer-Firmware/CA7/optee-os-3.19.0-r2/optee-os-stm32mp-3.19.0-stm32mp-r2/lib/libutils/ext/trace.c:68
     4b0:	db37      	blt.n	522 <trace_vprintf+0xee>
/home/lubuntu/Dokument/GitHub/STM32-Computer/Firmware/STM32-Computer-Firmware/CA7/optee-os-3.19.0-r2/optee-os-stm32mp-3.19.0-stm32mp-r2/lib/libutils/ext/trace.c:69
     4b2:	4a2a      	ldr	r2, [pc, #168]	@ (55c <trace_vprintf+0x128>)
     4b4:	2301      	movs	r3, #1
     4b6:	9000      	str	r0, [sp, #0]
     4b8:	447a      	add	r2, pc
/home/lubuntu/Dokument/GitHub/STM32-Computer/Firmware/STM32-Computer-Firmware/CA7/optee-os-3.19.0-r2/optee-os-stm32mp-3.19.0-stm32mp-r2/lib/libutils/ext/trace.c:71
     4ba:	4649      	mov	r1, r9
     4bc:	4620      	mov	r0, r4
     4be:	f000 f882 	bl	5c6 <snprintk>
trace_vprintf():
/home/lubuntu/Dokument/GitHub/STM32-Computer/Firmware/STM32-Computer-Firmware/CA7/optee-os-3.19.0-r2/optee-os-stm32mp-3.19.0-stm32mp-r2/lib/libutils/ext/trace.c:144
     4c2:	2800      	cmp	r0, #0
     4c4:	db28      	blt.n	518 <trace_vprintf+0xe4>
/home/lubuntu/Dokument/GitHub/STM32-Computer/Firmware/STM32-Computer-Firmware/CA7/optee-os-3.19.0-r2/optee-os-stm32mp-3.19.0-stm32mp-r2/lib/libutils/ext/trace.c:146
     4c6:	1984      	adds	r4, r0, r6
/home/lubuntu/Dokument/GitHub/STM32-Computer/Firmware/STM32-Computer-Firmware/CA7/optee-os-3.19.0-r2/optee-os-stm32mp-3.19.0-stm32mp-r2/lib/libutils/ext/trace.c:148
     4c8:	b167      	cbz	r7, 4e4 <trace_vprintf+0xb0>
/home/lubuntu/Dokument/GitHub/STM32-Computer/Firmware/STM32-Computer-Firmware/CA7/optee-os-3.19.0-r2/optee-os-stm32mp-3.19.0-stm32mp-r2/lib/libutils/ext/trace.c:149
     4ca:	4a25      	ldr	r2, [pc, #148]	@ (560 <trace_vprintf+0x12c>)
     4cc:	463b      	mov	r3, r7
     4ce:	1928      	adds	r0, r5, r4
     4d0:	f5c4 7180 	rsb	r1, r4, #256	@ 0x100
     4d4:	447a      	add	r2, pc
     4d6:	f8cd 8000 	str.w	r8, [sp]
     4da:	f000 f874 	bl	5c6 <snprintk>
/home/lubuntu/Dokument/GitHub/STM32-Computer/Firmware/STM32-Computer-Firmware/CA7/optee-os-3.19.0-r2/optee-os-stm32mp-3.19.0-stm32mp-r2/lib/libutils/ext/trace.c:151
     4de:	2800      	cmp	r0, #0
     4e0:	db1a      	blt.n	518 <trace_vprintf+0xe4>
/home/lubuntu/Dokument/GitHub/STM32-Computer/Firmware/STM32-Computer-Firmware/CA7/optee-os-3.19.0-r2/optee-os-stm32mp-3.19.0-stm32mp-r2/lib/libutils/ext/trace.c:153
     4e2:	4404      	add	r4, r0
/home/lubuntu/Dokument/GitHub/STM32-Computer/Firmware/STM32-Computer-Firmware/CA7/optee-os-3.19.0-r2/optee-os-stm32mp-3.19.0-stm32mp-r2/lib/libutils/ext/trace.c:163
     4e4:	1928      	adds	r0, r5, r4
     4e6:	f5c4 7180 	rsb	r1, r4, #256	@ 0x100
     4ea:	e9dd 234c 	ldrd	r2, r3, [sp, #304]	@ 0x130
     4ee:	f000 f863 	bl	5b8 <vsnprintk>
/home/lubuntu/Dokument/GitHub/STM32-Computer/Firmware/STM32-Computer-Firmware/CA7/optee-os-3.19.0-r2/optee-os-stm32mp-3.19.0-stm32mp-r2/lib/libutils/ext/trace.c:164
     4f2:	2800      	cmp	r0, #0
/home/lubuntu/Dokument/GitHub/STM32-Computer/Firmware/STM32-Computer-Firmware/CA7/optee-os-3.19.0-r2/optee-os-stm32mp-3.19.0-stm32mp-r2/lib/libutils/ext/trace.c:170
     4f4:	f04f 030a 	mov.w	r3, #10
/home/lubuntu/Dokument/GitHub/STM32-Computer/Firmware/STM32-Computer-Firmware/CA7/optee-os-3.19.0-r2/optee-os-stm32mp-3.19.0-stm32mp-r2/lib/libutils/ext/trace.c:165
     4f8:	bfc8      	it	gt
     4fa:	1824      	addgt	r4, r4, r0
/home/lubuntu/Dokument/GitHub/STM32-Computer/Firmware/STM32-Computer-Firmware/CA7/optee-os-3.19.0-r2/optee-os-stm32mp-3.19.0-stm32mp-r2/lib/libutils/ext/trace.c:167
     4fc:	2cfe      	cmp	r4, #254	@ 0xfe
     4fe:	bf28      	it	cs
     500:	24fe      	movcs	r4, #254	@ 0xfe
/home/lubuntu/Dokument/GitHub/STM32-Computer/Firmware/STM32-Computer-Firmware/CA7/optee-os-3.19.0-r2/optee-os-stm32mp-3.19.0-stm32mp-r2/lib/libutils/ext/trace.c:170
     502:	552b      	strb	r3, [r5, r4]
/home/lubuntu/Dokument/GitHub/STM32-Computer/Firmware/STM32-Computer-Firmware/CA7/optee-os-3.19.0-r2/optee-os-stm32mp-3.19.0-stm32mp-r2/lib/libutils/ext/trace.c:171
     504:	b114      	cbz	r4, 50c <trace_vprintf+0xd8>
/home/lubuntu/Dokument/GitHub/STM32-Computer/Firmware/STM32-Computer-Firmware/CA7/optee-os-3.19.0-r2/optee-os-stm32mp-3.19.0-stm32mp-r2/lib/libutils/ext/trace.c:171 (discriminator 1)
     506:	5d2b      	ldrb	r3, [r5, r4]
     508:	2b0a      	cmp	r3, #10
     50a:	d019      	beq.n	540 <trace_vprintf+0x10c>
/home/lubuntu/Dokument/GitHub/STM32-Computer/Firmware/STM32-Computer-Firmware/CA7/optee-os-3.19.0-r2/optee-os-stm32mp-3.19.0-stm32mp-r2/lib/libutils/ext/trace.c:174
     50c:	442c      	add	r4, r5
     50e:	2300      	movs	r3, #0
/home/lubuntu/Dokument/GitHub/STM32-Computer/Firmware/STM32-Computer-Firmware/CA7/optee-os-3.19.0-r2/optee-os-stm32mp-3.19.0-stm32mp-r2/lib/libutils/ext/trace.c:176
     510:	4628      	mov	r0, r5
/home/lubuntu/Dokument/GitHub/STM32-Computer/Firmware/STM32-Computer-Firmware/CA7/optee-os-3.19.0-r2/optee-os-stm32mp-3.19.0-stm32mp-r2/lib/libutils/ext/trace.c:174
     512:	70a3      	strb	r3, [r4, #2]
/home/lubuntu/Dokument/GitHub/STM32-Computer/Firmware/STM32-Computer-Firmware/CA7/optee-os-3.19.0-r2/optee-os-stm32mp-3.19.0-stm32mp-r2/lib/libutils/ext/trace.c:176
     514:	f000 fbf8 	bl	d08 <trace_ext_puts>
/home/lubuntu/Dokument/GitHub/STM32-Computer/Firmware/STM32-Computer-Firmware/CA7/optee-os-3.19.0-r2/optee-os-stm32mp-3.19.0-stm32mp-r2/lib/libutils/ext/trace.c:177
     518:	b044      	add	sp, #272	@ 0x110
     51a:	e8bd 87f0 	ldmia.w	sp!, {r4, r5, r6, r7, r8, r9, sl, pc}
trace_level_to_string():
/home/lubuntu/Dokument/GitHub/STM32-Computer/Firmware/STM32-Computer-Firmware/CA7/optee-os-3.19.0-r2/optee-os-stm32mp-3.19.0-stm32mp-r2/lib/libutils/ext/trace.c:49
     51e:	234d      	movs	r3, #77	@ 0x4d
     520:	e79f      	b.n	462 <trace_vprintf+0x2e>
print_thread_id():
/home/lubuntu/Dokument/GitHub/STM32-Computer/Firmware/STM32-Computer-Firmware/CA7/optee-os-3.19.0-r2/optee-os-stm32mp-3.19.0-stm32mp-r2/lib/libutils/ext/trace.c:71
     522:	4b10      	ldr	r3, [pc, #64]	@ (564 <trace_vprintf+0x130>)
     524:	4a10      	ldr	r2, [pc, #64]	@ (568 <trace_vprintf+0x134>)
     526:	447b      	add	r3, pc
     528:	9300      	str	r3, [sp, #0]
     52a:	2301      	movs	r3, #1
     52c:	447a      	add	r2, pc
     52e:	e7c4      	b.n	4ba <trace_vprintf+0x86>
trace_vprintf():
/home/lubuntu/Dokument/GitHub/STM32-Computer/Firmware/STM32-Computer-Firmware/CA7/optee-os-3.19.0-r2/optee-os-stm32mp-3.19.0-stm32mp-r2/lib/libutils/ext/trace.c:157
     530:	2efe      	cmp	r6, #254	@ 0xfe
     532:	d8f1      	bhi.n	518 <trace_vprintf+0xe4>
/home/lubuntu/Dokument/GitHub/STM32-Computer/Firmware/STM32-Computer-Firmware/CA7/optee-os-3.19.0-r2/optee-os-stm32mp-3.19.0-stm32mp-r2/lib/libutils/ext/trace.c:159
     534:	2320      	movs	r3, #32
     536:	1c74      	adds	r4, r6, #1
     538:	55ab      	strb	r3, [r5, r6]
/home/lubuntu/Dokument/GitHub/STM32-Computer/Firmware/STM32-Computer-Firmware/CA7/optee-os-3.19.0-r2/optee-os-stm32mp-3.19.0-stm32mp-r2/lib/libutils/ext/trace.c:160
     53a:	2300      	movs	r3, #0
     53c:	552b      	strb	r3, [r5, r4]
     53e:	e7d1      	b.n	4e4 <trace_vprintf+0xb0>
/home/lubuntu/Dokument/GitHub/STM32-Computer/Firmware/STM32-Computer-Firmware/CA7/optee-os-3.19.0-r2/optee-os-stm32mp-3.19.0-stm32mp-r2/lib/libutils/ext/trace.c:172
     540:	3c01      	subs	r4, #1
     542:	e7df      	b.n	504 <trace_vprintf+0xd0>
     544:	0000bc42 	.word	0x0000bc42
     548:	00000014 	.word	0x00000014
     54c:	00009db7 	.word	0x00009db7
     550:	00009d8f 	.word	0x00009d8f
     554:	0000001c 	.word	0x0000001c
     558:	00009d7d 	.word	0x00009d7d
     55c:	00009d4b 	.word	0x00009d4b
     560:	00009d3a 	.word	0x00009d3a
     564:	0000a629 	.word	0x0000a629
     568:	00009cdd 	.word	0x00009cdd

0000056c <trace_printf>:
trace_printf():
/home/lubuntu/Dokument/GitHub/STM32-Computer/Firmware/STM32-Computer-Firmware/CA7/optee-os-3.19.0-r2/optee-os-stm32mp-3.19.0-stm32mp-r2/lib/libutils/ext/trace.c:104
     56c:	b530      	push	{r4, r5, lr}
     56e:	b085      	sub	sp, #20
     570:	ac08      	add	r4, sp, #32
     572:	f854 5b04 	ldr.w	r5, [r4], #4
/home/lubuntu/Dokument/GitHub/STM32-Computer/Firmware/STM32-Computer-Firmware/CA7/optee-os-3.19.0-r2/optee-os-stm32mp-3.19.0-stm32mp-r2/lib/libutils/ext/trace.c:108
     576:	9401      	str	r4, [sp, #4]
     578:	9500      	str	r5, [sp, #0]
/home/lubuntu/Dokument/GitHub/STM32-Computer/Firmware/STM32-Computer-Firmware/CA7/optee-os-3.19.0-r2/optee-os-stm32mp-3.19.0-stm32mp-r2/lib/libutils/ext/trace.c:107
     57a:	9403      	str	r4, [sp, #12]
/home/lubuntu/Dokument/GitHub/STM32-Computer/Firmware/STM32-Computer-Firmware/CA7/optee-os-3.19.0-r2/optee-os-stm32mp-3.19.0-stm32mp-r2/lib/libutils/ext/trace.c:108
     57c:	f7ff ff5a 	bl	434 <trace_vprintf>
/home/lubuntu/Dokument/GitHub/STM32-Computer/Firmware/STM32-Computer-Firmware/CA7/optee-os-3.19.0-r2/optee-os-stm32mp-3.19.0-stm32mp-r2/lib/libutils/ext/trace.c:110
     580:	b005      	add	sp, #20
     582:	bd30      	pop	{r4, r5, pc}

00000584 <dhex_dump>:
dhex_dump():
/home/lubuntu/Dokument/GitHub/STM32-Computer/Firmware/STM32-Computer-Firmware/CA7/optee-os-3.19.0-r2/optee-os-stm32mp-3.19.0-stm32mp-r2/lib/libutils/ext/trace.c:287
     584:	4770      	bx	lr
     586:	bf00      	nop

00000588 <__vsnprintf>:
__vsnprintf():
/home/lubuntu/Dokument/GitHub/STM32-Computer/Firmware/STM32-Computer-Firmware/CA7/optee-os-3.19.0-r2/optee-os-stm32mp-3.19.0-stm32mp-r2/lib/libutils/ext/snprintk.c:138
     588:	b57f      	push	{r0, r1, r2, r3, r4, r5, r6, lr}
     58a:	4604      	mov	r4, r0
/home/lubuntu/Dokument/GitHub/STM32-Computer/Firmware/STM32-Computer-Firmware/CA7/optee-os-3.19.0-r2/optee-os-stm32mp-3.19.0-stm32mp-r2/lib/libutils/ext/snprintk.c:142
     58c:	1866      	adds	r6, r4, r1
/home/lubuntu/Dokument/GitHub/STM32-Computer/Firmware/STM32-Computer-Firmware/CA7/optee-os-3.19.0-r2/optee-os-stm32mp-3.19.0-stm32mp-r2/lib/libutils/ext/snprintk.c:138
     58e:	4610      	mov	r0, r2
/home/lubuntu/Dokument/GitHub/STM32-Computer/Firmware/STM32-Computer-Firmware/CA7/optee-os-3.19.0-r2/optee-os-stm32mp-3.19.0-stm32mp-r2/lib/libutils/ext/snprintk.c:143
     590:	f89d 2020 	ldrb.w	r2, [sp, #32]
/home/lubuntu/Dokument/GitHub/STM32-Computer/Firmware/STM32-Computer-Firmware/CA7/optee-os-3.19.0-r2/optee-os-stm32mp-3.19.0-stm32mp-r2/lib/libutils/ext/snprintk.c:138
     594:	460d      	mov	r5, r1
/home/lubuntu/Dokument/GitHub/STM32-Computer/Firmware/STM32-Computer-Firmware/CA7/optee-os-3.19.0-r2/optee-os-stm32mp-3.19.0-stm32mp-r2/lib/libutils/ext/snprintk.c:142
     596:	9603      	str	r6, [sp, #12]
/home/lubuntu/Dokument/GitHub/STM32-Computer/Firmware/STM32-Computer-Firmware/CA7/optee-os-3.19.0-r2/optee-os-stm32mp-3.19.0-stm32mp-r2/lib/libutils/ext/snprintk.c:143
     598:	a903      	add	r1, sp, #12
     59a:	9200      	str	r2, [sp, #0]
     59c:	4622      	mov	r2, r4
     59e:	f000 f81f 	bl	5e0 <kprintf.constprop.0>
/home/lubuntu/Dokument/GitHub/STM32-Computer/Firmware/STM32-Computer-Firmware/CA7/optee-os-3.19.0-r2/optee-os-stm32mp-3.19.0-stm32mp-r2/lib/libutils/ext/snprintk.c:144
     5a2:	b13c      	cbz	r4, 5b4 <__vsnprintf+0x2c>
/home/lubuntu/Dokument/GitHub/STM32-Computer/Firmware/STM32-Computer-Firmware/CA7/optee-os-3.19.0-r2/optee-os-stm32mp-3.19.0-stm32mp-r2/lib/libutils/ext/snprintk.c:144 (discriminator 1)
     5a4:	b135      	cbz	r5, 5b4 <__vsnprintf+0x2c>
/home/lubuntu/Dokument/GitHub/STM32-Computer/Firmware/STM32-Computer-Firmware/CA7/optee-os-3.19.0-r2/optee-os-stm32mp-3.19.0-stm32mp-r2/lib/libutils/ext/snprintk.c:146
     5a6:	42a8      	cmp	r0, r5
     5a8:	f04f 0300 	mov.w	r3, #0
/home/lubuntu/Dokument/GitHub/STM32-Computer/Firmware/STM32-Computer-Firmware/CA7/optee-os-3.19.0-r2/optee-os-stm32mp-3.19.0-stm32mp-r2/lib/libutils/ext/snprintk.c:147
     5ac:	bf2c      	ite	cs
     5ae:	f806 3c01 	strbcs.w	r3, [r6, #-1]
/home/lubuntu/Dokument/GitHub/STM32-Computer/Firmware/STM32-Computer-Firmware/CA7/optee-os-3.19.0-r2/optee-os-stm32mp-3.19.0-stm32mp-r2/lib/libutils/ext/snprintk.c:149
     5b2:	5423      	strbcc	r3, [r4, r0]
/home/lubuntu/Dokument/GitHub/STM32-Computer/Firmware/STM32-Computer-Firmware/CA7/optee-os-3.19.0-r2/optee-os-stm32mp-3.19.0-stm32mp-r2/lib/libutils/ext/snprintk.c:152
     5b4:	b004      	add	sp, #16
     5b6:	bd70      	pop	{r4, r5, r6, pc}

000005b8 <vsnprintk>:
vsnprintk():
/home/lubuntu/Dokument/GitHub/STM32-Computer/Firmware/STM32-Computer-Firmware/CA7/optee-os-3.19.0-r2/optee-os-stm32mp-3.19.0-stm32mp-r2/lib/libutils/ext/snprintk.c:130
     5b8:	b513      	push	{r0, r1, r4, lr}
/home/lubuntu/Dokument/GitHub/STM32-Computer/Firmware/STM32-Computer-Firmware/CA7/optee-os-3.19.0-r2/optee-os-stm32mp-3.19.0-stm32mp-r2/lib/libutils/ext/snprintk.c:131
     5ba:	2401      	movs	r4, #1
     5bc:	9400      	str	r4, [sp, #0]
     5be:	f7ff ffe3 	bl	588 <__vsnprintf>
/home/lubuntu/Dokument/GitHub/STM32-Computer/Firmware/STM32-Computer-Firmware/CA7/optee-os-3.19.0-r2/optee-os-stm32mp-3.19.0-stm32mp-r2/lib/libutils/ext/snprintk.c:132
     5c2:	b002      	add	sp, #8
     5c4:	bd10      	pop	{r4, pc}

000005c6 <snprintk>:
snprintk():
/home/lubuntu/Dokument/GitHub/STM32-Computer/Firmware/STM32-Computer-Firmware/CA7/optee-os-3.19.0-r2/optee-os-stm32mp-3.19.0-stm32mp-r2/lib/libutils/ext/snprintk.c:113
     5c6:	b40c      	push	{r2, r3}
     5c8:	b507      	push	{r0, r1, r2, lr}
     5ca:	ab04      	add	r3, sp, #16
     5cc:	f853 2b04 	ldr.w	r2, [r3], #4
/home/lubuntu/Dokument/GitHub/STM32-Computer/Firmware/STM32-Computer-Firmware/CA7/optee-os-3.19.0-r2/optee-os-stm32mp-3.19.0-stm32mp-r2/lib/libutils/ext/snprintk.c:117
     5d0:	9301      	str	r3, [sp, #4]
/home/lubuntu/Dokument/GitHub/STM32-Computer/Firmware/STM32-Computer-Firmware/CA7/optee-os-3.19.0-r2/optee-os-stm32mp-3.19.0-stm32mp-r2/lib/libutils/ext/snprintk.c:118
     5d2:	f7ff fff1 	bl	5b8 <vsnprintk>
/home/lubuntu/Dokument/GitHub/STM32-Computer/Firmware/STM32-Computer-Firmware/CA7/optee-os-3.19.0-r2/optee-os-stm32mp-3.19.0-stm32mp-r2/lib/libutils/ext/snprintk.c:122
     5d6:	b003      	add	sp, #12
     5d8:	f85d eb04 	ldr.w	lr, [sp], #4
     5dc:	b002      	add	sp, #8
     5de:	4770      	bx	lr

000005e0 <kprintf.constprop.0>:
kprintf():
/home/lubuntu/Dokument/GitHub/STM32-Computer/Firmware/STM32-Computer-Firmware/CA7/optee-os-3.19.0-r2/optee-os-stm32mp-3.19.0-stm32mp-r2/lib/libutils/ext/snprintk.c:242
     5e0:	e92d 4ff0 	stmdb	sp!, {r4, r5, r6, r7, r8, r9, sl, fp, lr}
     5e4:	b09d      	sub	sp, #116	@ 0x74
     5e6:	4614      	mov	r4, r2
     5e8:	4680      	mov	r8, r0
     5ea:	f89d 2098 	ldrb.w	r2, [sp, #152]	@ 0x98
     5ee:	461e      	mov	r6, r3
/home/lubuntu/Dokument/GitHub/STM32-Computer/Firmware/STM32-Computer-Firmware/CA7/optee-os-3.19.0-r2/optee-os-stm32mp-3.19.0-stm32mp-r2/lib/libutils/ext/snprintk.c:264
     5f0:	910d      	str	r1, [sp, #52]	@ 0x34
/home/lubuntu/Dokument/GitHub/STM32-Computer/Firmware/STM32-Computer-Firmware/CA7/optee-os-3.19.0-r2/optee-os-stm32mp-3.19.0-stm32mp-r2/lib/libutils/ext/snprintk.c:242
     5f2:	9211      	str	r2, [sp, #68]	@ 0x44
/home/lubuntu/Dokument/GitHub/STM32-Computer/Firmware/STM32-Computer-Firmware/CA7/optee-os-3.19.0-r2/optee-os-stm32mp-3.19.0-stm32mp-r2/lib/libutils/ext/snprintk.c:264
     5f4:	b181      	cbz	r1, 618 <kprintf.constprop.0+0x38>
/home/lubuntu/Dokument/GitHub/STM32-Computer/Firmware/STM32-Computer-Firmware/CA7/optee-os-3.19.0-r2/optee-os-stm32mp-3.19.0-stm32mp-r2/lib/libutils/ext/snprintk.c:265
     5f6:	680b      	ldr	r3, [r1, #0]
/home/lubuntu/Dokument/GitHub/STM32-Computer/Firmware/STM32-Computer-Firmware/CA7/optee-os-3.19.0-r2/optee-os-stm32mp-3.19.0-stm32mp-r2/lib/libutils/ext/snprintk.c:267
     5f8:	930e      	str	r3, [sp, #56]	@ 0x38
/home/lubuntu/Dokument/GitHub/STM32-Computer/Firmware/STM32-Computer-Firmware/CA7/optee-os-3.19.0-r2/optee-os-stm32mp-3.19.0-stm32mp-r2/lib/libutils/ext/snprintk.c:275
     5fa:	2300      	movs	r3, #0
     5fc:	930f      	str	r3, [sp, #60]	@ 0x3c
/home/lubuntu/Dokument/GitHub/STM32-Computer/Firmware/STM32-Computer-Firmware/CA7/optee-os-3.19.0-r2/optee-os-stm32mp-3.19.0-stm32mp-r2/lib/libutils/ext/snprintk.c:273
     5fe:	469b      	mov	fp, r3
/home/lubuntu/Dokument/GitHub/STM32-Computer/Firmware/STM32-Computer-Firmware/CA7/optee-os-3.19.0-r2/optee-os-stm32mp-3.19.0-stm32mp-r2/lib/libutils/ext/snprintk.c:281
     600:	f898 3000 	ldrb.w	r3, [r8]
     604:	2b25      	cmp	r3, #37	@ 0x25
     606:	d016      	beq.n	636 <kprintf.constprop.0+0x56>
     608:	b943      	cbnz	r3, 61c <kprintf.constprop.0+0x3c>
/home/lubuntu/Dokument/GitHub/STM32-Computer/Firmware/STM32-Computer-Firmware/CA7/optee-os-3.19.0-r2/optee-os-stm32mp-3.19.0-stm32mp-r2/lib/libutils/ext/snprintk.c:619
     60a:	9b0d      	ldr	r3, [sp, #52]	@ 0x34
     60c:	b103      	cbz	r3, 610 <kprintf.constprop.0+0x30>
/home/lubuntu/Dokument/GitHub/STM32-Computer/Firmware/STM32-Computer-Firmware/CA7/optee-os-3.19.0-r2/optee-os-stm32mp-3.19.0-stm32mp-r2/lib/libutils/ext/snprintk.c:620
     60e:	601c      	str	r4, [r3, #0]
/home/lubuntu/Dokument/GitHub/STM32-Computer/Firmware/STM32-Computer-Firmware/CA7/optee-os-3.19.0-r2/optee-os-stm32mp-3.19.0-stm32mp-r2/lib/libutils/ext/snprintk.c:622
     610:	4658      	mov	r0, fp
     612:	b01d      	add	sp, #116	@ 0x74
     614:	e8bd 8ff0 	ldmia.w	sp!, {r4, r5, r6, r7, r8, r9, sl, fp, pc}
/home/lubuntu/Dokument/GitHub/STM32-Computer/Firmware/STM32-Computer-Firmware/CA7/optee-os-3.19.0-r2/optee-os-stm32mp-3.19.0-stm32mp-r2/lib/libutils/ext/snprintk.c:267
     618:	9b0d      	ldr	r3, [sp, #52]	@ 0x34
     61a:	e7ed      	b.n	5f8 <kprintf.constprop.0+0x18>
/home/lubuntu/Dokument/GitHub/STM32-Computer/Firmware/STM32-Computer-Firmware/CA7/optee-os-3.19.0-r2/optee-os-stm32mp-3.19.0-stm32mp-r2/lib/libutils/ext/snprintk.c:282
     61c:	f10b 0b01 	add.w	fp, fp, #1
/home/lubuntu/Dokument/GitHub/STM32-Computer/Firmware/STM32-Computer-Firmware/CA7/optee-os-3.19.0-r2/optee-os-stm32mp-3.19.0-stm32mp-r2/lib/libutils/ext/snprintk.c:283
     620:	b134      	cbz	r4, 630 <kprintf.constprop.0+0x50>
     622:	9a0d      	ldr	r2, [sp, #52]	@ 0x34
     624:	b112      	cbz	r2, 62c <kprintf.constprop.0+0x4c>
     626:	9a0e      	ldr	r2, [sp, #56]	@ 0x38
     628:	4294      	cmp	r4, r2
     62a:	d201      	bcs.n	630 <kprintf.constprop.0+0x50>
     62c:	f804 3b01 	strb.w	r3, [r4], #1
/home/lubuntu/Dokument/GitHub/STM32-Computer/Firmware/STM32-Computer-Firmware/CA7/optee-os-3.19.0-r2/optee-os-stm32mp-3.19.0-stm32mp-r2/lib/libutils/ext/snprintk.c:281
     630:	f108 0801 	add.w	r8, r8, #1
     634:	e7e4      	b.n	600 <kprintf.constprop.0+0x20>
/home/lubuntu/Dokument/GitHub/STM32-Computer/Firmware/STM32-Computer-Firmware/CA7/optee-os-3.19.0-r2/optee-os-stm32mp-3.19.0-stm32mp-r2/lib/libutils/ext/snprintk.c:294
     636:	2700      	movs	r7, #0
/home/lubuntu/Dokument/GitHub/STM32-Computer/Firmware/STM32-Computer-Firmware/CA7/optee-os-3.19.0-r2/optee-os-stm32mp-3.19.0-stm32mp-r2/lib/libutils/ext/snprintk.c:288
     638:	f108 0801 	add.w	r8, r8, #1
/home/lubuntu/Dokument/GitHub/STM32-Computer/Firmware/STM32-Computer-Firmware/CA7/optee-os-3.19.0-r2/optee-os-stm32mp-3.19.0-stm32mp-r2/lib/libutils/ext/snprintk.c:292
     63c:	970c      	str	r7, [sp, #48]	@ 0x30
/home/lubuntu/Dokument/GitHub/STM32-Computer/Firmware/STM32-Computer-Firmware/CA7/optee-os-3.19.0-r2/optee-os-stm32mp-3.19.0-stm32mp-r2/lib/libutils/ext/snprintk.c:288
     63e:	4633      	mov	r3, r6
/home/lubuntu/Dokument/GitHub/STM32-Computer/Firmware/STM32-Computer-Firmware/CA7/optee-os-3.19.0-r2/optee-os-stm32mp-3.19.0-stm32mp-r2/lib/libutils/ext/snprintk.c:293
     640:	f04f 3aff 	mov.w	sl, #4294967295	@ 0xffffffff
/home/lubuntu/Dokument/GitHub/STM32-Computer/Firmware/STM32-Computer-Firmware/CA7/optee-os-3.19.0-r2/optee-os-stm32mp-3.19.0-stm32mp-r2/lib/libutils/ext/snprintk.c:290
     644:	463d      	mov	r5, r7
/home/lubuntu/Dokument/GitHub/STM32-Computer/Firmware/STM32-Computer-Firmware/CA7/optee-os-3.19.0-r2/optee-os-stm32mp-3.19.0-stm32mp-r2/lib/libutils/ext/snprintk.c:296
     646:	f818 2b01 	ldrb.w	r2, [r8], #1
     64a:	920b      	str	r2, [sp, #44]	@ 0x2c
/home/lubuntu/Dokument/GitHub/STM32-Computer/Firmware/STM32-Computer-Firmware/CA7/optee-os-3.19.0-r2/optee-os-stm32mp-3.19.0-stm32mp-r2/lib/libutils/ext/snprintk.c:297
     64c:	9a0b      	ldr	r2, [sp, #44]	@ 0x2c
     64e:	2a39      	cmp	r2, #57	@ 0x39
     650:	dc71      	bgt.n	736 <kprintf.constprop.0+0x156>
     652:	2a1f      	cmp	r2, #31
     654:	f340 828d 	ble.w	b72 <kprintf.constprop.0+0x592>
     658:	9a0b      	ldr	r2, [sp, #44]	@ 0x2c
     65a:	3a20      	subs	r2, #32
     65c:	2a19      	cmp	r2, #25
     65e:	f200 8288 	bhi.w	b72 <kprintf.constprop.0+0x592>
     662:	e8df f012 	tbh	[pc, r2, lsl #1]
     666:	0071      	.short	0x0071
     668:	02860286 	.word	0x02860286
     66c:	02860075 	.word	0x02860075
     670:	02860286 	.word	0x02860286
     674:	02860286 	.word	0x02860286
     678:	00780286 	.word	0x00780286
     67c:	0286001a 	.word	0x0286001a
     680:	00830080 	.word	0x00830080
     684:	009b0286 	.word	0x009b0286
     688:	009e009e 	.word	0x009e009e
     68c:	009e009e 	.word	0x009e009e
     690:	009e009e 	.word	0x009e009e
     694:	009e009e 	.word	0x009e009e
     698:	009e      	.short	0x009e
     69a:	272b      	movs	r7, #43	@ 0x2b
     69c:	e7d3      	b.n	646 <kprintf.constprop.0+0x66>
     69e:	2a36      	cmp	r2, #54	@ 0x36
     6a0:	f200 8267 	bhi.w	b72 <kprintf.constprop.0+0x592>
     6a4:	e8df f012 	tbh	[pc, r2, lsl #1]
     6a8:	026500b1 	.word	0x026500b1
     6ac:	02650265 	.word	0x02650265
     6b0:	02650265 	.word	0x02650265
     6b4:	02650265 	.word	0x02650265
     6b8:	02650265 	.word	0x02650265
     6bc:	013d0265 	.word	0x013d0265
     6c0:	02650265 	.word	0x02650265
     6c4:	02650265 	.word	0x02650265
     6c8:	01d80265 	.word	0x01d80265
     6cc:	02650265 	.word	0x02650265
     6d0:	0265021d 	.word	0x0265021d
     6d4:	02650265 	.word	0x02650265
     6d8:	02650265 	.word	0x02650265
     6dc:	02650265 	.word	0x02650265
     6e0:	02650265 	.word	0x02650265
     6e4:	00a50265 	.word	0x00a50265
     6e8:	026500b3 	.word	0x026500b3
     6ec:	02650265 	.word	0x02650265
     6f0:	00b3008d 	.word	0x00b3008d
     6f4:	02650090 	.word	0x02650090
     6f8:	02650093 	.word	0x02650093
     6fc:	013f0122 	.word	0x013f0122
     700:	0099016e 	.word	0x0099016e
     704:	01ba0265 	.word	0x01ba0265
     708:	01da009f 	.word	0x01da009f
     70c:	02650265 	.word	0x02650265
     710:	02650037 	.word	0x02650037
     714:	00a2      	.short	0x00a2
/home/lubuntu/Dokument/GitHub/STM32-Computer/Firmware/STM32-Computer-Firmware/CA7/optee-os-3.19.0-r2/optee-os-stm32mp-3.19.0-stm32mp-r2/lib/libutils/ext/snprintk.c:480
     716:	f8df 2594 	ldr.w	r2, [pc, #1428]	@ cac <kprintf.constprop.0+0x6cc>
     71a:	447a      	add	r2, pc
/home/lubuntu/Dokument/GitHub/STM32-Computer/Firmware/STM32-Computer-Firmware/CA7/optee-os-3.19.0-r2/optee-os-stm32mp-3.19.0-stm32mp-r2/lib/libutils/ext/snprintk.c:297
     71c:	920f      	str	r2, [sp, #60]	@ 0x3c
/home/lubuntu/Dokument/GitHub/STM32-Computer/Firmware/STM32-Computer-Firmware/CA7/optee-os-3.19.0-r2/optee-os-stm32mp-3.19.0-stm32mp-r2/lib/libutils/ext/snprintk.c:481
     71e:	f015 0280 	ands.w	r2, r5, #128	@ 0x80
     722:	f000 81e2 	beq.w	aea <kprintf.constprop.0+0x50a>
     726:	3307      	adds	r3, #7
     728:	f023 0307 	bic.w	r3, r3, #7
     72c:	461e      	mov	r6, r3
     72e:	6859      	ldr	r1, [r3, #4]
     730:	f856 0b08 	ldr.w	r0, [r6], #8
     734:	e1e0      	b.n	af8 <kprintf.constprop.0+0x518>
/home/lubuntu/Dokument/GitHub/STM32-Computer/Firmware/STM32-Computer-Firmware/CA7/optee-os-3.19.0-r2/optee-os-stm32mp-3.19.0-stm32mp-r2/lib/libutils/ext/snprintk.c:297
     736:	9a0b      	ldr	r2, [sp, #44]	@ 0x2c
     738:	3a44      	subs	r2, #68	@ 0x44
     73a:	2a36      	cmp	r2, #54	@ 0x36
     73c:	d9af      	bls.n	69e <kprintf.constprop.0+0xbe>
/home/lubuntu/Dokument/GitHub/STM32-Computer/Firmware/STM32-Computer-Firmware/CA7/optee-os-3.19.0-r2/optee-os-stm32mp-3.19.0-stm32mp-r2/lib/libutils/ext/snprintk.c:551
     73e:	9a0b      	ldr	r2, [sp, #44]	@ 0x2c
/home/lubuntu/Dokument/GitHub/STM32-Computer/Firmware/STM32-Computer-Firmware/CA7/optee-os-3.19.0-r2/optee-os-stm32mp-3.19.0-stm32mp-r2/lib/libutils/ext/snprintk.c:554
     740:	461e      	mov	r6, r3
/home/lubuntu/Dokument/GitHub/STM32-Computer/Firmware/STM32-Computer-Firmware/CA7/optee-os-3.19.0-r2/optee-os-stm32mp-3.19.0-stm32mp-r2/lib/libutils/ext/snprintk.c:551
     742:	f88d 2048 	strb.w	r2, [sp, #72]	@ 0x48
/home/lubuntu/Dokument/GitHub/STM32-Computer/Firmware/STM32-Computer-Firmware/CA7/optee-os-3.19.0-r2/optee-os-stm32mp-3.19.0-stm32mp-r2/lib/libutils/ext/snprintk.c:554
     746:	e059      	b.n	7fc <kprintf.constprop.0+0x21c>
/home/lubuntu/Dokument/GitHub/STM32-Computer/Firmware/STM32-Computer-Firmware/CA7/optee-os-3.19.0-r2/optee-os-stm32mp-3.19.0-stm32mp-r2/lib/libutils/ext/snprintk.c:305
     748:	2f00      	cmp	r7, #0
     74a:	bf08      	it	eq
     74c:	2720      	moveq	r7, #32
     74e:	e77a      	b.n	646 <kprintf.constprop.0+0x66>
/home/lubuntu/Dokument/GitHub/STM32-Computer/Firmware/STM32-Computer-Firmware/CA7/optee-os-3.19.0-r2/optee-os-stm32mp-3.19.0-stm32mp-r2/lib/libutils/ext/snprintk.c:308
     750:	f045 0501 	orr.w	r5, r5, #1
/home/lubuntu/Dokument/GitHub/STM32-Computer/Firmware/STM32-Computer-Firmware/CA7/optee-os-3.19.0-r2/optee-os-stm32mp-3.19.0-stm32mp-r2/lib/libutils/ext/snprintk.c:309
     754:	e777      	b.n	646 <kprintf.constprop.0+0x66>
/home/lubuntu/Dokument/GitHub/STM32-Computer/Firmware/STM32-Computer-Firmware/CA7/optee-os-3.19.0-r2/optee-os-stm32mp-3.19.0-stm32mp-r2/lib/libutils/ext/snprintk.c:317
     756:	f853 2b04 	ldr.w	r2, [r3], #4
     75a:	920c      	str	r2, [sp, #48]	@ 0x30
     75c:	2a00      	cmp	r2, #0
     75e:	f6bf af72 	bge.w	646 <kprintf.constprop.0+0x66>
/home/lubuntu/Dokument/GitHub/STM32-Computer/Firmware/STM32-Computer-Firmware/CA7/optee-os-3.19.0-r2/optee-os-stm32mp-3.19.0-stm32mp-r2/lib/libutils/ext/snprintk.c:319
     762:	4252      	negs	r2, r2
     764:	920c      	str	r2, [sp, #48]	@ 0x30
/home/lubuntu/Dokument/GitHub/STM32-Computer/Firmware/STM32-Computer-Firmware/CA7/optee-os-3.19.0-r2/optee-os-stm32mp-3.19.0-stm32mp-r2/lib/libutils/ext/snprintk.c:322
     766:	f045 0504 	orr.w	r5, r5, #4
/home/lubuntu/Dokument/GitHub/STM32-Computer/Firmware/STM32-Computer-Firmware/CA7/optee-os-3.19.0-r2/optee-os-stm32mp-3.19.0-stm32mp-r2/lib/libutils/ext/snprintk.c:323
     76a:	e76c      	b.n	646 <kprintf.constprop.0+0x66>
/home/lubuntu/Dokument/GitHub/STM32-Computer/Firmware/STM32-Computer-Firmware/CA7/optee-os-3.19.0-r2/optee-os-stm32mp-3.19.0-stm32mp-r2/lib/libutils/ext/snprintk.c:328
     76c:	f818 2b01 	ldrb.w	r2, [r8], #1
     770:	920b      	str	r2, [sp, #44]	@ 0x2c
     772:	2a2a      	cmp	r2, #42	@ 0x2a
     774:	d10e      	bne.n	794 <kprintf.constprop.0+0x1b4>
/home/lubuntu/Dokument/GitHub/STM32-Computer/Firmware/STM32-Computer-Firmware/CA7/optee-os-3.19.0-r2/optee-os-stm32mp-3.19.0-stm32mp-r2/lib/libutils/ext/snprintk.c:330
     776:	f853 2b04 	ldr.w	r2, [r3], #4
     77a:	ea42 7ae2 	orr.w	sl, r2, r2, asr #31
/home/lubuntu/Dokument/GitHub/STM32-Computer/Firmware/STM32-Computer-Firmware/CA7/optee-os-3.19.0-r2/optee-os-stm32mp-3.19.0-stm32mp-r2/lib/libutils/ext/snprintk.c:331
     77e:	e762      	b.n	646 <kprintf.constprop.0+0x66>
/home/lubuntu/Dokument/GitHub/STM32-Computer/Firmware/STM32-Computer-Firmware/CA7/optee-os-3.19.0-r2/optee-os-stm32mp-3.19.0-stm32mp-r2/lib/libutils/ext/snprintk.c:335
     780:	fb01 2a0a 	mla	sl, r1, sl, r2
/home/lubuntu/Dokument/GitHub/STM32-Computer/Firmware/STM32-Computer-Firmware/CA7/optee-os-3.19.0-r2/optee-os-stm32mp-3.19.0-stm32mp-r2/lib/libutils/ext/snprintk.c:336
     784:	f818 2b01 	ldrb.w	r2, [r8], #1
     788:	920b      	str	r2, [sp, #44]	@ 0x2c
/home/lubuntu/Dokument/GitHub/STM32-Computer/Firmware/STM32-Computer-Firmware/CA7/optee-os-3.19.0-r2/optee-os-stm32mp-3.19.0-stm32mp-r2/lib/libutils/ext/snprintk.c:334
     78a:	9a0b      	ldr	r2, [sp, #44]	@ 0x2c
     78c:	3a30      	subs	r2, #48	@ 0x30
     78e:	2a09      	cmp	r2, #9
     790:	d9f6      	bls.n	780 <kprintf.constprop.0+0x1a0>
     792:	e75b      	b.n	64c <kprintf.constprop.0+0x6c>
/home/lubuntu/Dokument/GitHub/STM32-Computer/Firmware/STM32-Computer-Firmware/CA7/optee-os-3.19.0-r2/optee-os-stm32mp-3.19.0-stm32mp-r2/lib/libutils/ext/snprintk.c:333
     794:	f04f 0a00 	mov.w	sl, #0
/home/lubuntu/Dokument/GitHub/STM32-Computer/Firmware/STM32-Computer-Firmware/CA7/optee-os-3.19.0-r2/optee-os-stm32mp-3.19.0-stm32mp-r2/lib/libutils/ext/snprintk.c:335
     798:	210a      	movs	r1, #10
     79a:	e7f6      	b.n	78a <kprintf.constprop.0+0x1aa>
/home/lubuntu/Dokument/GitHub/STM32-Computer/Firmware/STM32-Computer-Firmware/CA7/optee-os-3.19.0-r2/optee-os-stm32mp-3.19.0-stm32mp-r2/lib/libutils/ext/snprintk.c:346
     79c:	f445 6580 	orr.w	r5, r5, #1024	@ 0x400
/home/lubuntu/Dokument/GitHub/STM32-Computer/Firmware/STM32-Computer-Firmware/CA7/optee-os-3.19.0-r2/optee-os-stm32mp-3.19.0-stm32mp-r2/lib/libutils/ext/snprintk.c:347
     7a0:	e751      	b.n	646 <kprintf.constprop.0+0x66>
/home/lubuntu/Dokument/GitHub/STM32-Computer/Firmware/STM32-Computer-Firmware/CA7/optee-os-3.19.0-r2/optee-os-stm32mp-3.19.0-stm32mp-r2/lib/libutils/ext/snprintk.c:352
     7a2:	210a      	movs	r1, #10
/home/lubuntu/Dokument/GitHub/STM32-Computer/Firmware/STM32-Computer-Firmware/CA7/optee-os-3.19.0-r2/optee-os-stm32mp-3.19.0-stm32mp-r2/lib/libutils/ext/snprintk.c:297
     7a4:	2200      	movs	r2, #0
     7a6:	920c      	str	r2, [sp, #48]	@ 0x30
/home/lubuntu/Dokument/GitHub/STM32-Computer/Firmware/STM32-Computer-Firmware/CA7/optee-os-3.19.0-r2/optee-os-stm32mp-3.19.0-stm32mp-r2/lib/libutils/ext/snprintk.c:352
     7a8:	9a0b      	ldr	r2, [sp, #44]	@ 0x2c
     7aa:	980c      	ldr	r0, [sp, #48]	@ 0x30
     7ac:	3a30      	subs	r2, #48	@ 0x30
     7ae:	fb01 2200 	mla	r2, r1, r0, r2
     7b2:	920c      	str	r2, [sp, #48]	@ 0x30
/home/lubuntu/Dokument/GitHub/STM32-Computer/Firmware/STM32-Computer-Firmware/CA7/optee-os-3.19.0-r2/optee-os-stm32mp-3.19.0-stm32mp-r2/lib/libutils/ext/snprintk.c:353
     7b4:	f818 2b01 	ldrb.w	r2, [r8], #1
     7b8:	920b      	str	r2, [sp, #44]	@ 0x2c
/home/lubuntu/Dokument/GitHub/STM32-Computer/Firmware/STM32-Computer-Firmware/CA7/optee-os-3.19.0-r2/optee-os-stm32mp-3.19.0-stm32mp-r2/lib/libutils/ext/snprintk.c:354
     7ba:	3a30      	subs	r2, #48	@ 0x30
     7bc:	2a09      	cmp	r2, #9
     7be:	d9f3      	bls.n	7a8 <kprintf.constprop.0+0x1c8>
     7c0:	e744      	b.n	64c <kprintf.constprop.0+0x6c>
/home/lubuntu/Dokument/GitHub/STM32-Computer/Firmware/STM32-Computer-Firmware/CA7/optee-os-3.19.0-r2/optee-os-stm32mp-3.19.0-stm32mp-r2/lib/libutils/ext/snprintk.c:358
     7c2:	f045 0540 	orr.w	r5, r5, #64	@ 0x40
/home/lubuntu/Dokument/GitHub/STM32-Computer/Firmware/STM32-Computer-Firmware/CA7/optee-os-3.19.0-r2/optee-os-stm32mp-3.19.0-stm32mp-r2/lib/libutils/ext/snprintk.c:359
     7c6:	e73e      	b.n	646 <kprintf.constprop.0+0x66>
/home/lubuntu/Dokument/GitHub/STM32-Computer/Firmware/STM32-Computer-Firmware/CA7/optee-os-3.19.0-r2/optee-os-stm32mp-3.19.0-stm32mp-r2/lib/libutils/ext/snprintk.c:361
     7c8:	f045 0580 	orr.w	r5, r5, #128	@ 0x80
/home/lubuntu/Dokument/GitHub/STM32-Computer/Firmware/STM32-Computer-Firmware/CA7/optee-os-3.19.0-r2/optee-os-stm32mp-3.19.0-stm32mp-r2/lib/libutils/ext/snprintk.c:362
     7cc:	e73b      	b.n	646 <kprintf.constprop.0+0x66>
/home/lubuntu/Dokument/GitHub/STM32-Computer/Firmware/STM32-Computer-Firmware/CA7/optee-os-3.19.0-r2/optee-os-stm32mp-3.19.0-stm32mp-r2/lib/libutils/ext/snprintk.c:364
     7ce:	f898 2000 	ldrb.w	r2, [r8]
     7d2:	2a6c      	cmp	r2, #108	@ 0x6c
     7d4:	d104      	bne.n	7e0 <kprintf.constprop.0+0x200>
/home/lubuntu/Dokument/GitHub/STM32-Computer/Firmware/STM32-Computer-Firmware/CA7/optee-os-3.19.0-r2/optee-os-stm32mp-3.19.0-stm32mp-r2/lib/libutils/ext/snprintk.c:328
     7d6:	f108 0801 	add.w	r8, r8, #1
/home/lubuntu/Dokument/GitHub/STM32-Computer/Firmware/STM32-Computer-Firmware/CA7/optee-os-3.19.0-r2/optee-os-stm32mp-3.19.0-stm32mp-r2/lib/libutils/ext/snprintk.c:372
     7da:	f045 0520 	orr.w	r5, r5, #32
/home/lubuntu/Dokument/GitHub/STM32-Computer/Firmware/STM32-Computer-Firmware/CA7/optee-os-3.19.0-r2/optee-os-stm32mp-3.19.0-stm32mp-r2/lib/libutils/ext/snprintk.c:373
     7de:	e732      	b.n	646 <kprintf.constprop.0+0x66>
/home/lubuntu/Dokument/GitHub/STM32-Computer/Firmware/STM32-Computer-Firmware/CA7/optee-os-3.19.0-r2/optee-os-stm32mp-3.19.0-stm32mp-r2/lib/libutils/ext/snprintk.c:368
     7e0:	f045 0510 	orr.w	r5, r5, #16
     7e4:	e72f      	b.n	646 <kprintf.constprop.0+0x66>
/home/lubuntu/Dokument/GitHub/STM32-Computer/Firmware/STM32-Computer-Firmware/CA7/optee-os-3.19.0-r2/optee-os-stm32mp-3.19.0-stm32mp-r2/lib/libutils/ext/snprintk.c:375
     7e6:	f445 7580 	orr.w	r5, r5, #256	@ 0x100
/home/lubuntu/Dokument/GitHub/STM32-Computer/Firmware/STM32-Computer-Firmware/CA7/optee-os-3.19.0-r2/optee-os-stm32mp-3.19.0-stm32mp-r2/lib/libutils/ext/snprintk.c:376
     7ea:	e72c      	b.n	646 <kprintf.constprop.0+0x66>
/home/lubuntu/Dokument/GitHub/STM32-Computer/Firmware/STM32-Computer-Firmware/CA7/optee-os-3.19.0-r2/optee-os-stm32mp-3.19.0-stm32mp-r2/lib/libutils/ext/snprintk.c:378
     7ec:	f445 7500 	orr.w	r5, r5, #512	@ 0x200
/home/lubuntu/Dokument/GitHub/STM32-Computer/Firmware/STM32-Computer-Firmware/CA7/optee-os-3.19.0-r2/optee-os-stm32mp-3.19.0-stm32mp-r2/lib/libutils/ext/snprintk.c:379
     7f0:	e729      	b.n	646 <kprintf.constprop.0+0x66>
/home/lubuntu/Dokument/GitHub/STM32-Computer/Firmware/STM32-Computer-Firmware/CA7/optee-os-3.19.0-r2/optee-os-stm32mp-3.19.0-stm32mp-r2/lib/libutils/ext/snprintk.c:381
     7f2:	461e      	mov	r6, r3
     7f4:	f856 3b04 	ldr.w	r3, [r6], #4
     7f8:	f88d 3048 	strb.w	r3, [sp, #72]	@ 0x48
/home/lubuntu/Dokument/GitHub/STM32-Computer/Firmware/STM32-Computer-Firmware/CA7/optee-os-3.19.0-r2/optee-os-stm32mp-3.19.0-stm32mp-r2/lib/libutils/ext/snprintk.c:291
     7fc:	2000      	movs	r0, #0
/home/lubuntu/Dokument/GitHub/STM32-Computer/Firmware/STM32-Computer-Firmware/CA7/optee-os-3.19.0-r2/optee-os-stm32mp-3.19.0-stm32mp-r2/lib/libutils/ext/snprintk.c:552
     7fe:	f04f 0a01 	mov.w	sl, #1
/home/lubuntu/Dokument/GitHub/STM32-Computer/Firmware/STM32-Computer-Firmware/CA7/optee-os-3.19.0-r2/optee-os-stm32mp-3.19.0-stm32mp-r2/lib/libutils/ext/snprintk.c:553
     802:	4607      	mov	r7, r0
/home/lubuntu/Dokument/GitHub/STM32-Computer/Firmware/STM32-Computer-Firmware/CA7/optee-os-3.19.0-r2/optee-os-stm32mp-3.19.0-stm32mp-r2/lib/libutils/ext/snprintk.c:550
     804:	f10d 0948 	add.w	r9, sp, #72	@ 0x48
/home/lubuntu/Dokument/GitHub/STM32-Computer/Firmware/STM32-Computer-Firmware/CA7/optee-os-3.19.0-r2/optee-os-stm32mp-3.19.0-stm32mp-r2/lib/libutils/ext/snprintk.c:554
     808:	e03a      	b.n	880 <kprintf.constprop.0+0x2a0>
/home/lubuntu/Dokument/GitHub/STM32-Computer/Firmware/STM32-Computer-Firmware/CA7/optee-os-3.19.0-r2/optee-os-stm32mp-3.19.0-stm32mp-r2/lib/libutils/ext/snprintk.c:386
     80a:	f045 0510 	orr.w	r5, r5, #16
/home/lubuntu/Dokument/GitHub/STM32-Computer/Firmware/STM32-Computer-Firmware/CA7/optee-os-3.19.0-r2/optee-os-stm32mp-3.19.0-stm32mp-r2/lib/libutils/ext/snprintk.c:390
     80e:	062a      	lsls	r2, r5, #24
     810:	d554      	bpl.n	8bc <kprintf.constprop.0+0x2dc>
     812:	3307      	adds	r3, #7
     814:	f023 0307 	bic.w	r3, r3, #7
     818:	461e      	mov	r6, r3
     81a:	6859      	ldr	r1, [r3, #4]
     81c:	f856 0b08 	ldr.w	r0, [r6], #8
/home/lubuntu/Dokument/GitHub/STM32-Computer/Firmware/STM32-Computer-Firmware/CA7/optee-os-3.19.0-r2/optee-os-stm32mp-3.19.0-stm32mp-r2/lib/libutils/ext/snprintk.c:391
     820:	2900      	cmp	r1, #0
     822:	f280 8126 	bge.w	a72 <kprintf.constprop.0+0x492>
/home/lubuntu/Dokument/GitHub/STM32-Computer/Firmware/STM32-Computer-Firmware/CA7/optee-os-3.19.0-r2/optee-os-stm32mp-3.19.0-stm32mp-r2/lib/libutils/ext/snprintk.c:392
     826:	4240      	negs	r0, r0
/home/lubuntu/Dokument/GitHub/STM32-Computer/Firmware/STM32-Computer-Firmware/CA7/optee-os-3.19.0-r2/optee-os-stm32mp-3.19.0-stm32mp-r2/lib/libutils/ext/snprintk.c:395
     828:	f04f 0301 	mov.w	r3, #1
/home/lubuntu/Dokument/GitHub/STM32-Computer/Firmware/STM32-Computer-Firmware/CA7/optee-os-3.19.0-r2/optee-os-stm32mp-3.19.0-stm32mp-r2/lib/libutils/ext/snprintk.c:392
     82c:	eb61 0141 	sbc.w	r1, r1, r1, lsl #1
/home/lubuntu/Dokument/GitHub/STM32-Computer/Firmware/STM32-Computer-Firmware/CA7/optee-os-3.19.0-r2/optee-os-stm32mp-3.19.0-stm32mp-r2/lib/libutils/ext/snprintk.c:393
     830:	272d      	movs	r7, #45	@ 0x2d
/home/lubuntu/Dokument/GitHub/STM32-Computer/Firmware/STM32-Computer-Firmware/CA7/optee-os-3.19.0-r2/optee-os-stm32mp-3.19.0-stm32mp-r2/lib/libutils/ext/snprintk.c:494
     832:	f1ba 3fff 	cmp.w	sl, #4294967295	@ 0xffffffff
     836:	f040 8182 	bne.w	b3e <kprintf.constprop.0+0x55e>
/home/lubuntu/Dokument/GitHub/STM32-Computer/Firmware/STM32-Computer-Firmware/CA7/optee-os-3.19.0-r2/optee-os-stm32mp-3.19.0-stm32mp-r2/lib/libutils/ext/snprintk.c:509
     83a:	2b01      	cmp	r3, #1
     83c:	f000 811c 	beq.w	a78 <kprintf.constprop.0+0x498>
     840:	2b02      	cmp	r3, #2
     842:	f000 80db 	beq.w	9fc <kprintf.constprop.0+0x41c>
/home/lubuntu/Dokument/GitHub/STM32-Computer/Firmware/STM32-Computer-Firmware/CA7/optee-os-3.19.0-r2/optee-os-stm32mp-3.19.0-stm32mp-r2/lib/libutils/ext/snprintk.c:502
     846:	f10d 096d 	add.w	r9, sp, #109	@ 0x6d
/home/lubuntu/Dokument/GitHub/STM32-Computer/Firmware/STM32-Computer-Firmware/CA7/optee-os-3.19.0-r2/optee-os-stm32mp-3.19.0-stm32mp-r2/lib/libutils/ext/snprintk.c:512
     84a:	f000 0307 	and.w	r3, r0, #7
     84e:	464a      	mov	r2, r9
/home/lubuntu/Dokument/GitHub/STM32-Computer/Firmware/STM32-Computer-Firmware/CA7/optee-os-3.19.0-r2/optee-os-stm32mp-3.19.0-stm32mp-r2/lib/libutils/ext/snprintk.c:513
     850:	08c0      	lsrs	r0, r0, #3
/home/lubuntu/Dokument/GitHub/STM32-Computer/Firmware/STM32-Computer-Firmware/CA7/optee-os-3.19.0-r2/optee-os-stm32mp-3.19.0-stm32mp-r2/lib/libutils/ext/snprintk.c:512
     852:	3330      	adds	r3, #48	@ 0x30
/home/lubuntu/Dokument/GitHub/STM32-Computer/Firmware/STM32-Computer-Firmware/CA7/optee-os-3.19.0-r2/optee-os-stm32mp-3.19.0-stm32mp-r2/lib/libutils/ext/snprintk.c:513
     854:	ea40 7041 	orr.w	r0, r0, r1, lsl #29
     858:	08c9      	lsrs	r1, r1, #3
/home/lubuntu/Dokument/GitHub/STM32-Computer/Firmware/STM32-Computer-Firmware/CA7/optee-os-3.19.0-r2/optee-os-stm32mp-3.19.0-stm32mp-r2/lib/libutils/ext/snprintk.c:514
     85a:	ea50 0c01 	orrs.w	ip, r0, r1
/home/lubuntu/Dokument/GitHub/STM32-Computer/Firmware/STM32-Computer-Firmware/CA7/optee-os-3.19.0-r2/optee-os-stm32mp-3.19.0-stm32mp-r2/lib/libutils/ext/snprintk.c:512
     85e:	f809 3d01 	strb.w	r3, [r9, #-1]!
/home/lubuntu/Dokument/GitHub/STM32-Computer/Firmware/STM32-Computer-Firmware/CA7/optee-os-3.19.0-r2/optee-os-stm32mp-3.19.0-stm32mp-r2/lib/libutils/ext/snprintk.c:514
     862:	d1f2      	bne.n	84a <kprintf.constprop.0+0x26a>
/home/lubuntu/Dokument/GitHub/STM32-Computer/Firmware/STM32-Computer-Firmware/CA7/optee-os-3.19.0-r2/optee-os-stm32mp-3.19.0-stm32mp-r2/lib/libutils/ext/snprintk.c:516
     864:	07e8      	lsls	r0, r5, #31
     866:	d506      	bpl.n	876 <kprintf.constprop.0+0x296>
     868:	2b30      	cmp	r3, #48	@ 0x30
     86a:	d004      	beq.n	876 <kprintf.constprop.0+0x296>
/home/lubuntu/Dokument/GitHub/STM32-Computer/Firmware/STM32-Computer-Firmware/CA7/optee-os-3.19.0-r2/optee-os-stm32mp-3.19.0-stm32mp-r2/lib/libutils/ext/snprintk.c:517
     86c:	2330      	movs	r3, #48	@ 0x30
     86e:	f809 3c01 	strb.w	r3, [r9, #-1]
     872:	f1a2 0902 	sub.w	r9, r2, #2
/home/lubuntu/Dokument/GitHub/STM32-Computer/Firmware/STM32-Computer-Firmware/CA7/optee-os-3.19.0-r2/optee-os-stm32mp-3.19.0-stm32mp-r2/lib/libutils/ext/snprintk.c:543
     876:	4650      	mov	r0, sl
     878:	f10d 0a6d 	add.w	sl, sp, #109	@ 0x6d
     87c:	ebaa 0a09 	sub.w	sl, sl, r9
/home/lubuntu/Dokument/GitHub/STM32-Computer/Firmware/STM32-Computer-Firmware/CA7/optee-os-3.19.0-r2/optee-os-stm32mp-3.19.0-stm32mp-r2/lib/libutils/ext/snprintk.c:571
     880:	4550      	cmp	r0, sl
/home/lubuntu/Dokument/GitHub/STM32-Computer/Firmware/STM32-Computer-Firmware/CA7/optee-os-3.19.0-r2/optee-os-stm32mp-3.19.0-stm32mp-r2/lib/libutils/ext/snprintk.c:581
     882:	f240 4304 	movw	r3, #1028	@ 0x404
     886:	ea05 0303 	and.w	r3, r5, r3
/home/lubuntu/Dokument/GitHub/STM32-Computer/Firmware/STM32-Computer-Firmware/CA7/optee-os-3.19.0-r2/optee-os-stm32mp-3.19.0-stm32mp-r2/lib/libutils/ext/snprintk.c:571
     88a:	4602      	mov	r2, r0
     88c:	bfb8      	it	lt
     88e:	4652      	movlt	r2, sl
/home/lubuntu/Dokument/GitHub/STM32-Computer/Firmware/STM32-Computer-Firmware/CA7/optee-os-3.19.0-r2/optee-os-stm32mp-3.19.0-stm32mp-r2/lib/libutils/ext/snprintk.c:572
     890:	2f00      	cmp	r7, #0
     892:	f000 8173 	beq.w	b7c <kprintf.constprop.0+0x59c>
/home/lubuntu/Dokument/GitHub/STM32-Computer/Firmware/STM32-Computer-Firmware/CA7/optee-os-3.19.0-r2/optee-os-stm32mp-3.19.0-stm32mp-r2/lib/libutils/ext/snprintk.c:578
     896:	990c      	ldr	r1, [sp, #48]	@ 0x30
/home/lubuntu/Dokument/GitHub/STM32-Computer/Firmware/STM32-Computer-Firmware/CA7/optee-os-3.19.0-r2/optee-os-stm32mp-3.19.0-stm32mp-r2/lib/libutils/ext/snprintk.c:573
     898:	3201      	adds	r2, #1
/home/lubuntu/Dokument/GitHub/STM32-Computer/Firmware/STM32-Computer-Firmware/CA7/optee-os-3.19.0-r2/optee-os-stm32mp-3.19.0-stm32mp-r2/lib/libutils/ext/snprintk.c:578
     89a:	428a      	cmp	r2, r1
     89c:	bfac      	ite	ge
     89e:	4493      	addge	fp, r2
     8a0:	448b      	addlt	fp, r1
/home/lubuntu/Dokument/GitHub/STM32-Computer/Firmware/STM32-Computer-Firmware/CA7/optee-os-3.19.0-r2/optee-os-stm32mp-3.19.0-stm32mp-r2/lib/libutils/ext/snprintk.c:581
     8a2:	2b00      	cmp	r3, #0
     8a4:	f040 81d3 	bne.w	c4e <kprintf.constprop.0+0x66e>
/home/lubuntu/Dokument/GitHub/STM32-Computer/Firmware/STM32-Computer-Firmware/CA7/optee-os-3.19.0-r2/optee-os-stm32mp-3.19.0-stm32mp-r2/lib/libutils/ext/snprintk.c:582
     8a8:	9b0c      	ldr	r3, [sp, #48]	@ 0x30
     8aa:	1a9b      	subs	r3, r3, r2
/home/lubuntu/Dokument/GitHub/STM32-Computer/Firmware/STM32-Computer-Firmware/CA7/optee-os-3.19.0-r2/optee-os-stm32mp-3.19.0-stm32mp-r2/lib/libutils/ext/snprintk.c:583
     8ac:	2b00      	cmp	r3, #0
     8ae:	f300 8184 	bgt.w	bba <kprintf.constprop.0+0x5da>
/home/lubuntu/Dokument/GitHub/STM32-Computer/Firmware/STM32-Computer-Firmware/CA7/optee-os-3.19.0-r2/optee-os-stm32mp-3.19.0-stm32mp-r2/lib/libutils/ext/snprintk.c:588
     8b2:	2f00      	cmp	r7, #0
     8b4:	f040 81ee 	bne.w	c94 <kprintf.constprop.0+0x6b4>
     8b8:	463b      	mov	r3, r7
     8ba:	e16a      	b.n	b92 <kprintf.constprop.0+0x5b2>
/home/lubuntu/Dokument/GitHub/STM32-Computer/Firmware/STM32-Computer-Firmware/CA7/optee-os-3.19.0-r2/optee-os-stm32mp-3.19.0-stm32mp-r2/lib/libutils/ext/snprintk.c:390
     8bc:	05ee      	lsls	r6, r5, #23
     8be:	d504      	bpl.n	8ca <kprintf.constprop.0+0x2ea>
     8c0:	461e      	mov	r6, r3
     8c2:	f856 0b04 	ldr.w	r0, [r6], #4
     8c6:	17c1      	asrs	r1, r0, #31
     8c8:	e7aa      	b.n	820 <kprintf.constprop.0+0x240>
     8ca:	05a8      	lsls	r0, r5, #22
     8cc:	d4f8      	bmi.n	8c0 <kprintf.constprop.0+0x2e0>
     8ce:	06a9      	lsls	r1, r5, #26
     8d0:	d49f      	bmi.n	812 <kprintf.constprop.0+0x232>
     8d2:	06ea      	lsls	r2, r5, #27
/home/lubuntu/Dokument/GitHub/STM32-Computer/Firmware/STM32-Computer-Firmware/CA7/optee-os-3.19.0-r2/optee-os-stm32mp-3.19.0-stm32mp-r2/lib/libutils/ext/snprintk.c:317
     8d4:	461e      	mov	r6, r3
     8d6:	f856 1b04 	ldr.w	r1, [r6], #4
/home/lubuntu/Dokument/GitHub/STM32-Computer/Firmware/STM32-Computer-Firmware/CA7/optee-os-3.19.0-r2/optee-os-stm32mp-3.19.0-stm32mp-r2/lib/libutils/ext/snprintk.c:390
     8da:	d501      	bpl.n	8e0 <kprintf.constprop.0+0x300>
     8dc:	4608      	mov	r0, r1
     8de:	e7f2      	b.n	8c6 <kprintf.constprop.0+0x2e6>
     8e0:	066b      	lsls	r3, r5, #25
     8e2:	d5fb      	bpl.n	8dc <kprintf.constprop.0+0x2fc>
     8e4:	b208      	sxth	r0, r1
     8e6:	f341 31c0 	sbfx	r1, r1, #15, #1
     8ea:	e799      	b.n	820 <kprintf.constprop.0+0x240>
/home/lubuntu/Dokument/GitHub/STM32-Computer/Firmware/STM32-Computer-Firmware/CA7/optee-os-3.19.0-r2/optee-os-stm32mp-3.19.0-stm32mp-r2/lib/libutils/ext/snprintk.c:398
     8ec:	0628      	lsls	r0, r5, #24
     8ee:	d505      	bpl.n	8fc <kprintf.constprop.0+0x31c>
/home/lubuntu/Dokument/GitHub/STM32-Computer/Firmware/STM32-Computer-Firmware/CA7/optee-os-3.19.0-r2/optee-os-stm32mp-3.19.0-stm32mp-r2/lib/libutils/ext/snprintk.c:405
     8f0:	681a      	ldr	r2, [r3, #0]
     8f2:	ea4f 71eb 	mov.w	r1, fp, asr #31
     8f6:	e9c2 b100 	strd	fp, r1, [r2]
     8fa:	e004      	b.n	906 <kprintf.constprop.0+0x326>
/home/lubuntu/Dokument/GitHub/STM32-Computer/Firmware/STM32-Computer-Firmware/CA7/optee-os-3.19.0-r2/optee-os-stm32mp-3.19.0-stm32mp-r2/lib/libutils/ext/snprintk.c:400
     8fc:	05e9      	lsls	r1, r5, #23
     8fe:	d504      	bpl.n	90a <kprintf.constprop.0+0x32a>
/home/lubuntu/Dokument/GitHub/STM32-Computer/Firmware/STM32-Computer-Firmware/CA7/optee-os-3.19.0-r2/optee-os-stm32mp-3.19.0-stm32mp-r2/lib/libutils/ext/snprintk.c:401
     900:	681a      	ldr	r2, [r3, #0]
     902:	f8c2 b000 	str.w	fp, [r2]
/home/lubuntu/Dokument/GitHub/STM32-Computer/Firmware/STM32-Computer-Firmware/CA7/optee-os-3.19.0-r2/optee-os-stm32mp-3.19.0-stm32mp-r2/lib/libutils/ext/snprintk.c:317
     906:	1d1e      	adds	r6, r3, #4
     908:	e67a      	b.n	600 <kprintf.constprop.0+0x20>
/home/lubuntu/Dokument/GitHub/STM32-Computer/Firmware/STM32-Computer-Firmware/CA7/optee-os-3.19.0-r2/optee-os-stm32mp-3.19.0-stm32mp-r2/lib/libutils/ext/snprintk.c:402
     90a:	05aa      	lsls	r2, r5, #22
     90c:	d4f8      	bmi.n	900 <kprintf.constprop.0+0x320>
/home/lubuntu/Dokument/GitHub/STM32-Computer/Firmware/STM32-Computer-Firmware/CA7/optee-os-3.19.0-r2/optee-os-stm32mp-3.19.0-stm32mp-r2/lib/libutils/ext/snprintk.c:404
     90e:	06af      	lsls	r7, r5, #26
     910:	d4ee      	bmi.n	8f0 <kprintf.constprop.0+0x310>
/home/lubuntu/Dokument/GitHub/STM32-Computer/Firmware/STM32-Computer-Firmware/CA7/optee-os-3.19.0-r2/optee-os-stm32mp-3.19.0-stm32mp-r2/lib/libutils/ext/snprintk.c:406
     912:	06ee      	lsls	r6, r5, #27
     914:	d4f4      	bmi.n	900 <kprintf.constprop.0+0x320>
/home/lubuntu/Dokument/GitHub/STM32-Computer/Firmware/STM32-Computer-Firmware/CA7/optee-os-3.19.0-r2/optee-os-stm32mp-3.19.0-stm32mp-r2/lib/libutils/ext/snprintk.c:408
     916:	066d      	lsls	r5, r5, #25
     918:	d5f2      	bpl.n	900 <kprintf.constprop.0+0x320>
/home/lubuntu/Dokument/GitHub/STM32-Computer/Firmware/STM32-Computer-Firmware/CA7/optee-os-3.19.0-r2/optee-os-stm32mp-3.19.0-stm32mp-r2/lib/libutils/ext/snprintk.c:409
     91a:	681a      	ldr	r2, [r3, #0]
     91c:	f8a2 b000 	strh.w	fp, [r2]
     920:	e7f1      	b.n	906 <kprintf.constprop.0+0x326>
/home/lubuntu/Dokument/GitHub/STM32-Computer/Firmware/STM32-Computer-Firmware/CA7/optee-os-3.19.0-r2/optee-os-stm32mp-3.19.0-stm32mp-r2/lib/libutils/ext/snprintk.c:414
     922:	f045 0510 	orr.w	r5, r5, #16
/home/lubuntu/Dokument/GitHub/STM32-Computer/Firmware/STM32-Computer-Firmware/CA7/optee-os-3.19.0-r2/optee-os-stm32mp-3.19.0-stm32mp-r2/lib/libutils/ext/snprintk.c:417
     926:	f015 0280 	ands.w	r2, r5, #128	@ 0x80
     92a:	d007      	beq.n	93c <kprintf.constprop.0+0x35c>
     92c:	3307      	adds	r3, #7
     92e:	f023 0307 	bic.w	r3, r3, #7
     932:	461e      	mov	r6, r3
     934:	6859      	ldr	r1, [r3, #4]
     936:	f856 0b08 	ldr.w	r0, [r6], #8
     93a:	e006      	b.n	94a <kprintf.constprop.0+0x36a>
     93c:	f415 7180 	ands.w	r1, r5, #256	@ 0x100
     940:	d00b      	beq.n	95a <kprintf.constprop.0+0x37a>
     942:	461e      	mov	r6, r3
     944:	4611      	mov	r1, r2
     946:	f856 0b04 	ldr.w	r0, [r6], #4
/home/lubuntu/Dokument/GitHub/STM32-Computer/Firmware/STM32-Computer-Firmware/CA7/optee-os-3.19.0-r2/optee-os-stm32mp-3.19.0-stm32mp-r2/lib/libutils/ext/snprintk.c:494
     94a:	f1ba 3fff 	cmp.w	sl, #4294967295	@ 0xffffffff
     94e:	f04f 0700 	mov.w	r7, #0
     952:	f43f af78 	beq.w	846 <kprintf.constprop.0+0x266>
     956:	463b      	mov	r3, r7
     958:	e0f1      	b.n	b3e <kprintf.constprop.0+0x55e>
/home/lubuntu/Dokument/GitHub/STM32-Computer/Firmware/STM32-Computer-Firmware/CA7/optee-os-3.19.0-r2/optee-os-stm32mp-3.19.0-stm32mp-r2/lib/libutils/ext/snprintk.c:417
     95a:	05a8      	lsls	r0, r5, #22
     95c:	d503      	bpl.n	966 <kprintf.constprop.0+0x386>
     95e:	461e      	mov	r6, r3
     960:	f856 0b04 	ldr.w	r0, [r6], #4
     964:	e7f1      	b.n	94a <kprintf.constprop.0+0x36a>
     966:	f015 0120 	ands.w	r1, r5, #32
     96a:	d1df      	bne.n	92c <kprintf.constprop.0+0x34c>
/home/lubuntu/Dokument/GitHub/STM32-Computer/Firmware/STM32-Computer-Firmware/CA7/optee-os-3.19.0-r2/optee-os-stm32mp-3.19.0-stm32mp-r2/lib/libutils/ext/snprintk.c:317
     96c:	461e      	mov	r6, r3
/home/lubuntu/Dokument/GitHub/STM32-Computer/Firmware/STM32-Computer-Firmware/CA7/optee-os-3.19.0-r2/optee-os-stm32mp-3.19.0-stm32mp-r2/lib/libutils/ext/snprintk.c:417
     96e:	f015 0310 	ands.w	r3, r5, #16
/home/lubuntu/Dokument/GitHub/STM32-Computer/Firmware/STM32-Computer-Firmware/CA7/optee-os-3.19.0-r2/optee-os-stm32mp-3.19.0-stm32mp-r2/lib/libutils/ext/snprintk.c:317
     972:	f856 0b04 	ldr.w	r0, [r6], #4
/home/lubuntu/Dokument/GitHub/STM32-Computer/Firmware/STM32-Computer-Firmware/CA7/optee-os-3.19.0-r2/optee-os-stm32mp-3.19.0-stm32mp-r2/lib/libutils/ext/snprintk.c:417
     976:	d1e8      	bne.n	94a <kprintf.constprop.0+0x36a>
     978:	f015 0140 	ands.w	r1, r5, #64	@ 0x40
     97c:	d0e5      	beq.n	94a <kprintf.constprop.0+0x36a>
     97e:	b280      	uxth	r0, r0
     980:	4619      	mov	r1, r3
     982:	e7e2      	b.n	94a <kprintf.constprop.0+0x36a>
/home/lubuntu/Dokument/GitHub/STM32-Computer/Firmware/STM32-Computer-Firmware/CA7/optee-os-3.19.0-r2/optee-os-stm32mp-3.19.0-stm32mp-r2/lib/libutils/ext/snprintk.c:317
     984:	461e      	mov	r6, r3
/home/lubuntu/Dokument/GitHub/STM32-Computer/Firmware/STM32-Computer-Firmware/CA7/optee-os-3.19.0-r2/optee-os-stm32mp-3.19.0-stm32mp-r2/lib/libutils/ext/snprintk.c:421
     986:	9b11      	ldr	r3, [sp, #68]	@ 0x44
     988:	f856 0b04 	ldr.w	r0, [r6], #4
     98c:	b343      	cbz	r3, 9e0 <kprintf.constprop.0+0x400>
     98e:	f898 3000 	ldrb.w	r3, [r8]
     992:	2b55      	cmp	r3, #85	@ 0x55
     994:	d124      	bne.n	9e0 <kprintf.constprop.0+0x400>
     996:	f898 3001 	ldrb.w	r3, [r8, #1]
     99a:	2b6c      	cmp	r3, #108	@ 0x6c
     99c:	d120      	bne.n	9e0 <kprintf.constprop.0+0x400>
uuid2str():
/home/lubuntu/Dokument/GitHub/STM32-Computer/Firmware/STM32-Computer-Firmware/CA7/optee-os-3.19.0-r2/optee-os-stm32mp-3.19.0-stm32mp-r2/lib/libutils/ext/snprintk.c:229
     99e:	7bc3      	ldrb	r3, [r0, #15]
     9a0:	f10d 0948 	add.w	r9, sp, #72	@ 0x48
     9a4:	4ac2      	ldr	r2, [pc, #776]	@ (cb0 <kprintf.constprop.0+0x6d0>)
     9a6:	2125      	movs	r1, #37	@ 0x25
     9a8:	9309      	str	r3, [sp, #36]	@ 0x24
kprintf():
/home/lubuntu/Dokument/GitHub/STM32-Computer/Firmware/STM32-Computer-Firmware/CA7/optee-os-3.19.0-r2/optee-os-stm32mp-3.19.0-stm32mp-r2/lib/libutils/ext/snprintk.c:426
     9aa:	f108 0802 	add.w	r8, r8, #2
uuid2str():
/home/lubuntu/Dokument/GitHub/STM32-Computer/Firmware/STM32-Computer-Firmware/CA7/optee-os-3.19.0-r2/optee-os-stm32mp-3.19.0-stm32mp-r2/lib/libutils/ext/snprintk.c:229
     9ae:	7b83      	ldrb	r3, [r0, #14]
     9b0:	447a      	add	r2, pc
     9b2:	9308      	str	r3, [sp, #32]
     9b4:	7b43      	ldrb	r3, [r0, #13]
     9b6:	9307      	str	r3, [sp, #28]
     9b8:	7b03      	ldrb	r3, [r0, #12]
     9ba:	9306      	str	r3, [sp, #24]
     9bc:	7ac3      	ldrb	r3, [r0, #11]
     9be:	9305      	str	r3, [sp, #20]
     9c0:	7a83      	ldrb	r3, [r0, #10]
     9c2:	9304      	str	r3, [sp, #16]
     9c4:	7a43      	ldrb	r3, [r0, #9]
     9c6:	9303      	str	r3, [sp, #12]
     9c8:	7a03      	ldrb	r3, [r0, #8]
     9ca:	9302      	str	r3, [sp, #8]
     9cc:	88c3      	ldrh	r3, [r0, #6]
     9ce:	9301      	str	r3, [sp, #4]
     9d0:	8883      	ldrh	r3, [r0, #4]
     9d2:	9300      	str	r3, [sp, #0]
     9d4:	6803      	ldr	r3, [r0, #0]
     9d6:	4648      	mov	r0, r9
     9d8:	f7ff fdf5 	bl	5c6 <snprintk>
kprintf():
/home/lubuntu/Dokument/GitHub/STM32-Computer/Firmware/STM32-Computer-Firmware/CA7/optee-os-3.19.0-r2/optee-os-stm32mp-3.19.0-stm32mp-r2/lib/libutils/ext/snprintk.c:466
     9dc:	4682      	mov	sl, r0
     9de:	e034      	b.n	a4a <kprintf.constprop.0+0x46a>
/home/lubuntu/Dokument/GitHub/STM32-Computer/Firmware/STM32-Computer-Firmware/CA7/optee-os-3.19.0-r2/optee-os-stm32mp-3.19.0-stm32mp-r2/lib/libutils/ext/snprintk.c:443
     9e0:	4bb4      	ldr	r3, [pc, #720]	@ (cb4 <kprintf.constprop.0+0x6d4>)
/home/lubuntu/Dokument/GitHub/STM32-Computer/Firmware/STM32-Computer-Firmware/CA7/optee-os-3.19.0-r2/optee-os-stm32mp-3.19.0-stm32mp-r2/lib/libutils/ext/snprintk.c:441
     9e2:	2100      	movs	r1, #0
/home/lubuntu/Dokument/GitHub/STM32-Computer/Firmware/STM32-Computer-Firmware/CA7/optee-os-3.19.0-r2/optee-os-stm32mp-3.19.0-stm32mp-r2/lib/libutils/ext/snprintk.c:444
     9e4:	f045 0502 	orr.w	r5, r5, #2
/home/lubuntu/Dokument/GitHub/STM32-Computer/Firmware/STM32-Computer-Firmware/CA7/optee-os-3.19.0-r2/optee-os-stm32mp-3.19.0-stm32mp-r2/lib/libutils/ext/snprintk.c:443
     9e8:	447b      	add	r3, pc
     9ea:	930f      	str	r3, [sp, #60]	@ 0x3c
/home/lubuntu/Dokument/GitHub/STM32-Computer/Firmware/STM32-Computer-Firmware/CA7/optee-os-3.19.0-r2/optee-os-stm32mp-3.19.0-stm32mp-r2/lib/libutils/ext/snprintk.c:445
     9ec:	2378      	movs	r3, #120	@ 0x78
     9ee:	930b      	str	r3, [sp, #44]	@ 0x2c
/home/lubuntu/Dokument/GitHub/STM32-Computer/Firmware/STM32-Computer-Firmware/CA7/optee-os-3.19.0-r2/optee-os-stm32mp-3.19.0-stm32mp-r2/lib/libutils/ext/snprintk.c:494
     9f0:	f1ba 3fff 	cmp.w	sl, #4294967295	@ 0xffffffff
     9f4:	f04f 0700 	mov.w	r7, #0
     9f8:	f040 80a0 	bne.w	b3c <kprintf.constprop.0+0x55c>
/home/lubuntu/Dokument/GitHub/STM32-Computer/Firmware/STM32-Computer-Firmware/CA7/optee-os-3.19.0-r2/optee-os-stm32mp-3.19.0-stm32mp-r2/lib/libutils/ext/snprintk.c:502
     9fc:	f10d 096d 	add.w	r9, sp, #109	@ 0x6d
/home/lubuntu/Dokument/GitHub/STM32-Computer/Firmware/STM32-Computer-Firmware/CA7/optee-os-3.19.0-r2/optee-os-stm32mp-3.19.0-stm32mp-r2/lib/libutils/ext/snprintk.c:531
     a00:	9a0f      	ldr	r2, [sp, #60]	@ 0x3c
     a02:	f000 030f 	and.w	r3, r0, #15
/home/lubuntu/Dokument/GitHub/STM32-Computer/Firmware/STM32-Computer-Firmware/CA7/optee-os-3.19.0-r2/optee-os-stm32mp-3.19.0-stm32mp-r2/lib/libutils/ext/snprintk.c:532
     a06:	0900      	lsrs	r0, r0, #4
/home/lubuntu/Dokument/GitHub/STM32-Computer/Firmware/STM32-Computer-Firmware/CA7/optee-os-3.19.0-r2/optee-os-stm32mp-3.19.0-stm32mp-r2/lib/libutils/ext/snprintk.c:531
     a08:	5cd3      	ldrb	r3, [r2, r3]
/home/lubuntu/Dokument/GitHub/STM32-Computer/Firmware/STM32-Computer-Firmware/CA7/optee-os-3.19.0-r2/optee-os-stm32mp-3.19.0-stm32mp-r2/lib/libutils/ext/snprintk.c:532
     a0a:	ea40 7001 	orr.w	r0, r0, r1, lsl #28
     a0e:	0909      	lsrs	r1, r1, #4
/home/lubuntu/Dokument/GitHub/STM32-Computer/Firmware/STM32-Computer-Firmware/CA7/optee-os-3.19.0-r2/optee-os-stm32mp-3.19.0-stm32mp-r2/lib/libutils/ext/snprintk.c:531
     a10:	f809 3d01 	strb.w	r3, [r9, #-1]!
/home/lubuntu/Dokument/GitHub/STM32-Computer/Firmware/STM32-Computer-Firmware/CA7/optee-os-3.19.0-r2/optee-os-stm32mp-3.19.0-stm32mp-r2/lib/libutils/ext/snprintk.c:533
     a14:	ea50 0301 	orrs.w	r3, r0, r1
     a18:	d1f2      	bne.n	a00 <kprintf.constprop.0+0x420>
     a1a:	e72c      	b.n	876 <kprintf.constprop.0+0x296>
/home/lubuntu/Dokument/GitHub/STM32-Computer/Firmware/STM32-Computer-Firmware/CA7/optee-os-3.19.0-r2/optee-os-stm32mp-3.19.0-stm32mp-r2/lib/libutils/ext/snprintk.c:448
     a1c:	461e      	mov	r6, r3
     a1e:	f856 9b04 	ldr.w	r9, [r6], #4
     a22:	f1b9 0f00 	cmp.w	r9, #0
     a26:	d102      	bne.n	a2e <kprintf.constprop.0+0x44e>
/home/lubuntu/Dokument/GitHub/STM32-Computer/Firmware/STM32-Computer-Firmware/CA7/optee-os-3.19.0-r2/optee-os-stm32mp-3.19.0-stm32mp-r2/lib/libutils/ext/snprintk.c:450
     a28:	f8df 928c 	ldr.w	r9, [pc, #652]	@ cb8 <kprintf.constprop.0+0x6d8>
     a2c:	44f9      	add	r9, pc
/home/lubuntu/Dokument/GitHub/STM32-Computer/Firmware/STM32-Computer-Firmware/CA7/optee-os-3.19.0-r2/optee-os-stm32mp-3.19.0-stm32mp-r2/lib/libutils/ext/snprintk.c:451
     a2e:	f1ba 3fff 	cmp.w	sl, #4294967295	@ 0xffffffff
     a32:	d00d      	beq.n	a50 <kprintf.constprop.0+0x470>
/home/lubuntu/Dokument/GitHub/STM32-Computer/Firmware/STM32-Computer-Firmware/CA7/optee-os-3.19.0-r2/optee-os-stm32mp-3.19.0-stm32mp-r2/lib/libutils/ext/snprintk.c:457
     a34:	4652      	mov	r2, sl
     a36:	2100      	movs	r1, #0
     a38:	4648      	mov	r0, r9
     a3a:	f008 fe0f 	bl	965c <memchr>
/home/lubuntu/Dokument/GitHub/STM32-Computer/Firmware/STM32-Computer-Firmware/CA7/optee-os-3.19.0-r2/optee-os-stm32mp-3.19.0-stm32mp-r2/lib/libutils/ext/snprintk.c:459
     a3e:	b128      	cbz	r0, a4c <kprintf.constprop.0+0x46c>
/home/lubuntu/Dokument/GitHub/STM32-Computer/Firmware/STM32-Computer-Firmware/CA7/optee-os-3.19.0-r2/optee-os-stm32mp-3.19.0-stm32mp-r2/lib/libutils/ext/snprintk.c:460
     a40:	eba0 0009 	sub.w	r0, r0, r9
     a44:	4582      	cmp	sl, r0
     a46:	bfa8      	it	ge
     a48:	4682      	movge	sl, r0
/home/lubuntu/Dokument/GitHub/STM32-Computer/Firmware/STM32-Computer-Firmware/CA7/optee-os-3.19.0-r2/optee-os-stm32mp-3.19.0-stm32mp-r2/lib/libutils/ext/snprintk.c:291
     a4a:	2000      	movs	r0, #0
/home/lubuntu/Dokument/GitHub/STM32-Computer/Firmware/STM32-Computer-Firmware/CA7/optee-os-3.19.0-r2/optee-os-stm32mp-3.19.0-stm32mp-r2/lib/libutils/ext/snprintk.c:467
     a4c:	4607      	mov	r7, r0
     a4e:	e717      	b.n	880 <kprintf.constprop.0+0x2a0>
/home/lubuntu/Dokument/GitHub/STM32-Computer/Firmware/STM32-Computer-Firmware/CA7/optee-os-3.19.0-r2/optee-os-stm32mp-3.19.0-stm32mp-r2/lib/libutils/ext/snprintk.c:466
     a50:	4648      	mov	r0, r9
     a52:	f008 fe11 	bl	9678 <strlen>
     a56:	e7c1      	b.n	9dc <kprintf.constprop.0+0x3fc>
/home/lubuntu/Dokument/GitHub/STM32-Computer/Firmware/STM32-Computer-Firmware/CA7/optee-os-3.19.0-r2/optee-os-stm32mp-3.19.0-stm32mp-r2/lib/libutils/ext/snprintk.c:470
     a58:	f045 0510 	orr.w	r5, r5, #16
/home/lubuntu/Dokument/GitHub/STM32-Computer/Firmware/STM32-Computer-Firmware/CA7/optee-os-3.19.0-r2/optee-os-stm32mp-3.19.0-stm32mp-r2/lib/libutils/ext/snprintk.c:473
     a5c:	f015 0280 	ands.w	r2, r5, #128	@ 0x80
     a60:	d019      	beq.n	a96 <kprintf.constprop.0+0x4b6>
     a62:	3307      	adds	r3, #7
     a64:	f023 0307 	bic.w	r3, r3, #7
     a68:	461e      	mov	r6, r3
     a6a:	6859      	ldr	r1, [r3, #4]
     a6c:	f856 0b08 	ldr.w	r0, [r6], #8
/home/lubuntu/Dokument/GitHub/STM32-Computer/Firmware/STM32-Computer-Firmware/CA7/optee-os-3.19.0-r2/optee-os-stm32mp-3.19.0-stm32mp-r2/lib/libutils/ext/snprintk.c:488
     a70:	2700      	movs	r7, #0
/home/lubuntu/Dokument/GitHub/STM32-Computer/Firmware/STM32-Computer-Firmware/CA7/optee-os-3.19.0-r2/optee-os-stm32mp-3.19.0-stm32mp-r2/lib/libutils/ext/snprintk.c:494
     a72:	f1ba 3fff 	cmp.w	sl, #4294967295	@ 0xffffffff
     a76:	d16f      	bne.n	b58 <kprintf.constprop.0+0x578>
/home/lubuntu/Dokument/GitHub/STM32-Computer/Firmware/STM32-Computer-Firmware/CA7/optee-os-3.19.0-r2/optee-os-stm32mp-3.19.0-stm32mp-r2/lib/libutils/ext/snprintk.c:502
     a78:	f10d 036d 	add.w	r3, sp, #109	@ 0x6d
     a7c:	9310      	str	r3, [sp, #64]	@ 0x40
/home/lubuntu/Dokument/GitHub/STM32-Computer/Firmware/STM32-Computer-Firmware/CA7/optee-os-3.19.0-r2/optee-os-stm32mp-3.19.0-stm32mp-r2/lib/libutils/ext/snprintk.c:523
     a7e:	9b10      	ldr	r3, [sp, #64]	@ 0x40
/home/lubuntu/Dokument/GitHub/STM32-Computer/Firmware/STM32-Computer-Firmware/CA7/optee-os-3.19.0-r2/optee-os-stm32mp-3.19.0-stm32mp-r2/lib/libutils/ext/snprintk.c:522
     a80:	280a      	cmp	r0, #10
/home/lubuntu/Dokument/GitHub/STM32-Computer/Firmware/STM32-Computer-Firmware/CA7/optee-os-3.19.0-r2/optee-os-stm32mp-3.19.0-stm32mp-r2/lib/libutils/ext/snprintk.c:523
     a82:	f103 39ff 	add.w	r9, r3, #4294967295	@ 0xffffffff
/home/lubuntu/Dokument/GitHub/STM32-Computer/Firmware/STM32-Computer-Firmware/CA7/optee-os-3.19.0-r2/optee-os-stm32mp-3.19.0-stm32mp-r2/lib/libutils/ext/snprintk.c:522
     a86:	f171 0300 	sbcs.w	r3, r1, #0
     a8a:	d267      	bcs.n	b5c <kprintf.constprop.0+0x57c>
/home/lubuntu/Dokument/GitHub/STM32-Computer/Firmware/STM32-Computer-Firmware/CA7/optee-os-3.19.0-r2/optee-os-stm32mp-3.19.0-stm32mp-r2/lib/libutils/ext/snprintk.c:526
     a8c:	9b10      	ldr	r3, [sp, #64]	@ 0x40
     a8e:	3030      	adds	r0, #48	@ 0x30
     a90:	f803 0c01 	strb.w	r0, [r3, #-1]
/home/lubuntu/Dokument/GitHub/STM32-Computer/Firmware/STM32-Computer-Firmware/CA7/optee-os-3.19.0-r2/optee-os-stm32mp-3.19.0-stm32mp-r2/lib/libutils/ext/snprintk.c:527
     a94:	e6ef      	b.n	876 <kprintf.constprop.0+0x296>
/home/lubuntu/Dokument/GitHub/STM32-Computer/Firmware/STM32-Computer-Firmware/CA7/optee-os-3.19.0-r2/optee-os-stm32mp-3.19.0-stm32mp-r2/lib/libutils/ext/snprintk.c:473
     a96:	f415 7180 	ands.w	r1, r5, #256	@ 0x100
     a9a:	d004      	beq.n	aa6 <kprintf.constprop.0+0x4c6>
     a9c:	461e      	mov	r6, r3
     a9e:	4611      	mov	r1, r2
     aa0:	f856 0b04 	ldr.w	r0, [r6], #4
     aa4:	e7e4      	b.n	a70 <kprintf.constprop.0+0x490>
     aa6:	f415 7700 	ands.w	r7, r5, #512	@ 0x200
     aaa:	d003      	beq.n	ab4 <kprintf.constprop.0+0x4d4>
     aac:	461e      	mov	r6, r3
     aae:	f856 0b04 	ldr.w	r0, [r6], #4
     ab2:	e7dd      	b.n	a70 <kprintf.constprop.0+0x490>
     ab4:	f015 0120 	ands.w	r1, r5, #32
     ab8:	d007      	beq.n	aca <kprintf.constprop.0+0x4ea>
     aba:	3307      	adds	r3, #7
     abc:	f023 0307 	bic.w	r3, r3, #7
     ac0:	461e      	mov	r6, r3
     ac2:	6859      	ldr	r1, [r3, #4]
     ac4:	f856 0b08 	ldr.w	r0, [r6], #8
     ac8:	e7d3      	b.n	a72 <kprintf.constprop.0+0x492>
/home/lubuntu/Dokument/GitHub/STM32-Computer/Firmware/STM32-Computer-Firmware/CA7/optee-os-3.19.0-r2/optee-os-stm32mp-3.19.0-stm32mp-r2/lib/libutils/ext/snprintk.c:317
     aca:	461e      	mov	r6, r3
/home/lubuntu/Dokument/GitHub/STM32-Computer/Firmware/STM32-Computer-Firmware/CA7/optee-os-3.19.0-r2/optee-os-stm32mp-3.19.0-stm32mp-r2/lib/libutils/ext/snprintk.c:473
     acc:	f015 0310 	ands.w	r3, r5, #16
/home/lubuntu/Dokument/GitHub/STM32-Computer/Firmware/STM32-Computer-Firmware/CA7/optee-os-3.19.0-r2/optee-os-stm32mp-3.19.0-stm32mp-r2/lib/libutils/ext/snprintk.c:317
     ad0:	f856 0b04 	ldr.w	r0, [r6], #4
/home/lubuntu/Dokument/GitHub/STM32-Computer/Firmware/STM32-Computer-Firmware/CA7/optee-os-3.19.0-r2/optee-os-stm32mp-3.19.0-stm32mp-r2/lib/libutils/ext/snprintk.c:473
     ad4:	d1cc      	bne.n	a70 <kprintf.constprop.0+0x490>
     ad6:	f015 0140 	ands.w	r1, r5, #64	@ 0x40
     ada:	d0c9      	beq.n	a70 <kprintf.constprop.0+0x490>
     adc:	b280      	uxth	r0, r0
     ade:	4619      	mov	r1, r3
     ae0:	e7c6      	b.n	a70 <kprintf.constprop.0+0x490>
/home/lubuntu/Dokument/GitHub/STM32-Computer/Firmware/STM32-Computer-Firmware/CA7/optee-os-3.19.0-r2/optee-os-stm32mp-3.19.0-stm32mp-r2/lib/libutils/ext/snprintk.c:297
     ae2:	4a76      	ldr	r2, [pc, #472]	@ (cbc <kprintf.constprop.0+0x6dc>)
     ae4:	447a      	add	r2, pc
     ae6:	3211      	adds	r2, #17
     ae8:	e618      	b.n	71c <kprintf.constprop.0+0x13c>
/home/lubuntu/Dokument/GitHub/STM32-Computer/Firmware/STM32-Computer-Firmware/CA7/optee-os-3.19.0-r2/optee-os-stm32mp-3.19.0-stm32mp-r2/lib/libutils/ext/snprintk.c:481
     aea:	f415 7180 	ands.w	r1, r5, #256	@ 0x100
     aee:	d00f      	beq.n	b10 <kprintf.constprop.0+0x530>
     af0:	461e      	mov	r6, r3
     af2:	4611      	mov	r1, r2
     af4:	f856 0b04 	ldr.w	r0, [r6], #4
/home/lubuntu/Dokument/GitHub/STM32-Computer/Firmware/STM32-Computer-Firmware/CA7/optee-os-3.19.0-r2/optee-os-stm32mp-3.19.0-stm32mp-r2/lib/libutils/ext/snprintk.c:484
     af8:	07ef      	lsls	r7, r5, #31
     afa:	f57f af79 	bpl.w	9f0 <kprintf.constprop.0+0x410>
     afe:	ea50 0301 	orrs.w	r3, r0, r1
/home/lubuntu/Dokument/GitHub/STM32-Computer/Firmware/STM32-Computer-Firmware/CA7/optee-os-3.19.0-r2/optee-os-stm32mp-3.19.0-stm32mp-r2/lib/libutils/ext/snprintk.c:488
     b02:	f04f 0700 	mov.w	r7, #0
/home/lubuntu/Dokument/GitHub/STM32-Computer/Firmware/STM32-Computer-Firmware/CA7/optee-os-3.19.0-r2/optee-os-stm32mp-3.19.0-stm32mp-r2/lib/libutils/ext/snprintk.c:485
     b06:	bf18      	it	ne
     b08:	f045 0502 	orrne.w	r5, r5, #2
/home/lubuntu/Dokument/GitHub/STM32-Computer/Firmware/STM32-Computer-Firmware/CA7/optee-os-3.19.0-r2/optee-os-stm32mp-3.19.0-stm32mp-r2/lib/libutils/ext/snprintk.c:482
     b0c:	2302      	movs	r3, #2
     b0e:	e690      	b.n	832 <kprintf.constprop.0+0x252>
/home/lubuntu/Dokument/GitHub/STM32-Computer/Firmware/STM32-Computer-Firmware/CA7/optee-os-3.19.0-r2/optee-os-stm32mp-3.19.0-stm32mp-r2/lib/libutils/ext/snprintk.c:481
     b10:	05aa      	lsls	r2, r5, #22
     b12:	d503      	bpl.n	b1c <kprintf.constprop.0+0x53c>
     b14:	461e      	mov	r6, r3
     b16:	f856 0b04 	ldr.w	r0, [r6], #4
     b1a:	e7ed      	b.n	af8 <kprintf.constprop.0+0x518>
     b1c:	f015 0120 	ands.w	r1, r5, #32
     b20:	f47f ae01 	bne.w	726 <kprintf.constprop.0+0x146>
/home/lubuntu/Dokument/GitHub/STM32-Computer/Firmware/STM32-Computer-Firmware/CA7/optee-os-3.19.0-r2/optee-os-stm32mp-3.19.0-stm32mp-r2/lib/libutils/ext/snprintk.c:317
     b24:	461e      	mov	r6, r3
/home/lubuntu/Dokument/GitHub/STM32-Computer/Firmware/STM32-Computer-Firmware/CA7/optee-os-3.19.0-r2/optee-os-stm32mp-3.19.0-stm32mp-r2/lib/libutils/ext/snprintk.c:481
     b26:	f015 0310 	ands.w	r3, r5, #16
/home/lubuntu/Dokument/GitHub/STM32-Computer/Firmware/STM32-Computer-Firmware/CA7/optee-os-3.19.0-r2/optee-os-stm32mp-3.19.0-stm32mp-r2/lib/libutils/ext/snprintk.c:317
     b2a:	f856 0b04 	ldr.w	r0, [r6], #4
/home/lubuntu/Dokument/GitHub/STM32-Computer/Firmware/STM32-Computer-Firmware/CA7/optee-os-3.19.0-r2/optee-os-stm32mp-3.19.0-stm32mp-r2/lib/libutils/ext/snprintk.c:481
     b2e:	d1e3      	bne.n	af8 <kprintf.constprop.0+0x518>
     b30:	f015 0140 	ands.w	r1, r5, #64	@ 0x40
     b34:	bf1c      	itt	ne
     b36:	b280      	uxthne	r0, r0
     b38:	4619      	movne	r1, r3
     b3a:	e7dd      	b.n	af8 <kprintf.constprop.0+0x518>
/home/lubuntu/Dokument/GitHub/STM32-Computer/Firmware/STM32-Computer-Firmware/CA7/optee-os-3.19.0-r2/optee-os-stm32mp-3.19.0-stm32mp-r2/lib/libutils/ext/snprintk.c:494
     b3c:	2302      	movs	r3, #2
/home/lubuntu/Dokument/GitHub/STM32-Computer/Firmware/STM32-Computer-Firmware/CA7/optee-os-3.19.0-r2/optee-os-stm32mp-3.19.0-stm32mp-r2/lib/libutils/ext/snprintk.c:503
     b3e:	ea50 0201 	orrs.w	r2, r0, r1
/home/lubuntu/Dokument/GitHub/STM32-Computer/Firmware/STM32-Computer-Firmware/CA7/optee-os-3.19.0-r2/optee-os-stm32mp-3.19.0-stm32mp-r2/lib/libutils/ext/snprintk.c:495
     b42:	f425 6580 	bic.w	r5, r5, #1024	@ 0x400
/home/lubuntu/Dokument/GitHub/STM32-Computer/Firmware/STM32-Computer-Firmware/CA7/optee-os-3.19.0-r2/optee-os-stm32mp-3.19.0-stm32mp-r2/lib/libutils/ext/snprintk.c:503
     b46:	f47f ae78 	bne.w	83a <kprintf.constprop.0+0x25a>
     b4a:	f1ba 0f00 	cmp.w	sl, #0
     b4e:	f47f ae74 	bne.w	83a <kprintf.constprop.0+0x25a>
/home/lubuntu/Dokument/GitHub/STM32-Computer/Firmware/STM32-Computer-Firmware/CA7/optee-os-3.19.0-r2/optee-os-stm32mp-3.19.0-stm32mp-r2/lib/libutils/ext/snprintk.c:502
     b52:	f10d 096d 	add.w	r9, sp, #109	@ 0x6d
     b56:	e68e      	b.n	876 <kprintf.constprop.0+0x296>
/home/lubuntu/Dokument/GitHub/STM32-Computer/Firmware/STM32-Computer-Firmware/CA7/optee-os-3.19.0-r2/optee-os-stm32mp-3.19.0-stm32mp-r2/lib/libutils/ext/snprintk.c:494
     b58:	2301      	movs	r3, #1
     b5a:	e7f0      	b.n	b3e <kprintf.constprop.0+0x55e>
/home/lubuntu/Dokument/GitHub/STM32-Computer/Firmware/STM32-Computer-Firmware/CA7/optee-os-3.19.0-r2/optee-os-stm32mp-3.19.0-stm32mp-r2/lib/libutils/ext/snprintk.c:523
     b5c:	220a      	movs	r2, #10
     b5e:	2300      	movs	r3, #0
     b60:	f000 e8c6 	blx	cf0 <__aeabi_uldivmod>
     b64:	9b10      	ldr	r3, [sp, #64]	@ 0x40
     b66:	3230      	adds	r2, #48	@ 0x30
     b68:	f8cd 9040 	str.w	r9, [sp, #64]	@ 0x40
     b6c:	f803 2c01 	strb.w	r2, [r3, #-1]
/home/lubuntu/Dokument/GitHub/STM32-Computer/Firmware/STM32-Computer-Firmware/CA7/optee-os-3.19.0-r2/optee-os-stm32mp-3.19.0-stm32mp-r2/lib/libutils/ext/snprintk.c:524
     b70:	e785      	b.n	a7e <kprintf.constprop.0+0x49e>
/home/lubuntu/Dokument/GitHub/STM32-Computer/Firmware/STM32-Computer-Firmware/CA7/optee-os-3.19.0-r2/optee-os-stm32mp-3.19.0-stm32mp-r2/lib/libutils/ext/snprintk.c:547
     b72:	9a0b      	ldr	r2, [sp, #44]	@ 0x2c
     b74:	2a00      	cmp	r2, #0
     b76:	f47f ade2 	bne.w	73e <kprintf.constprop.0+0x15e>
     b7a:	e546      	b.n	60a <kprintf.constprop.0+0x2a>
/home/lubuntu/Dokument/GitHub/STM32-Computer/Firmware/STM32-Computer-Firmware/CA7/optee-os-3.19.0-r2/optee-os-stm32mp-3.19.0-stm32mp-r2/lib/libutils/ext/snprintk.c:574
     b7c:	07a9      	lsls	r1, r5, #30
/home/lubuntu/Dokument/GitHub/STM32-Computer/Firmware/STM32-Computer-Firmware/CA7/optee-os-3.19.0-r2/optee-os-stm32mp-3.19.0-stm32mp-r2/lib/libutils/ext/snprintk.c:578
     b7e:	990c      	ldr	r1, [sp, #48]	@ 0x30
/home/lubuntu/Dokument/GitHub/STM32-Computer/Firmware/STM32-Computer-Firmware/CA7/optee-os-3.19.0-r2/optee-os-stm32mp-3.19.0-stm32mp-r2/lib/libutils/ext/snprintk.c:575
     b80:	bf48      	it	mi
     b82:	3202      	addmi	r2, #2
/home/lubuntu/Dokument/GitHub/STM32-Computer/Firmware/STM32-Computer-Firmware/CA7/optee-os-3.19.0-r2/optee-os-stm32mp-3.19.0-stm32mp-r2/lib/libutils/ext/snprintk.c:578
     b84:	428a      	cmp	r2, r1
     b86:	bfac      	ite	ge
     b88:	4493      	addge	fp, r2
     b8a:	448b      	addlt	fp, r1
/home/lubuntu/Dokument/GitHub/STM32-Computer/Firmware/STM32-Computer-Firmware/CA7/optee-os-3.19.0-r2/optee-os-stm32mp-3.19.0-stm32mp-r2/lib/libutils/ext/snprintk.c:581
     b8c:	2b00      	cmp	r3, #0
     b8e:	f43f ae8b 	beq.w	8a8 <kprintf.constprop.0+0x2c8>
/home/lubuntu/Dokument/GitHub/STM32-Computer/Firmware/STM32-Computer-Firmware/CA7/optee-os-3.19.0-r2/optee-os-stm32mp-3.19.0-stm32mp-r2/lib/libutils/ext/snprintk.c:590
     b92:	07a9      	lsls	r1, r5, #30
     b94:	d55c      	bpl.n	c50 <kprintf.constprop.0+0x670>
/home/lubuntu/Dokument/GitHub/STM32-Computer/Firmware/STM32-Computer-Firmware/CA7/optee-os-3.19.0-r2/optee-os-stm32mp-3.19.0-stm32mp-r2/lib/libutils/ext/snprintk.c:591
     b96:	2c00      	cmp	r4, #0
     b98:	d05a      	beq.n	c50 <kprintf.constprop.0+0x670>
     b9a:	990d      	ldr	r1, [sp, #52]	@ 0x34
     b9c:	2900      	cmp	r1, #0
     b9e:	d06c      	beq.n	c7a <kprintf.constprop.0+0x69a>
     ba0:	990e      	ldr	r1, [sp, #56]	@ 0x38
     ba2:	42a1      	cmp	r1, r4
     ba4:	d954      	bls.n	c50 <kprintf.constprop.0+0x670>
     ba6:	2130      	movs	r1, #48	@ 0x30
     ba8:	f804 1b01 	strb.w	r1, [r4], #1
/home/lubuntu/Dokument/GitHub/STM32-Computer/Firmware/STM32-Computer-Firmware/CA7/optee-os-3.19.0-r2/optee-os-stm32mp-3.19.0-stm32mp-r2/lib/libutils/ext/snprintk.c:592
     bac:	990e      	ldr	r1, [sp, #56]	@ 0x38
     bae:	42a1      	cmp	r1, r4
     bb0:	d94e      	bls.n	c50 <kprintf.constprop.0+0x670>
     bb2:	990b      	ldr	r1, [sp, #44]	@ 0x2c
     bb4:	f804 1b01 	strb.w	r1, [r4], #1
     bb8:	e04a      	b.n	c50 <kprintf.constprop.0+0x670>
/home/lubuntu/Dokument/GitHub/STM32-Computer/Firmware/STM32-Computer-Firmware/CA7/optee-os-3.19.0-r2/optee-os-stm32mp-3.19.0-stm32mp-r2/lib/libutils/ext/snprintk.c:584
     bba:	2c00      	cmp	r4, #0
     bbc:	d045      	beq.n	c4a <kprintf.constprop.0+0x66a>
     bbe:	990d      	ldr	r1, [sp, #52]	@ 0x34
     bc0:	b111      	cbz	r1, bc8 <kprintf.constprop.0+0x5e8>
     bc2:	990e      	ldr	r1, [sp, #56]	@ 0x38
     bc4:	42a1      	cmp	r1, r4
     bc6:	d940      	bls.n	c4a <kprintf.constprop.0+0x66a>
/home/lubuntu/Dokument/GitHub/STM32-Computer/Firmware/STM32-Computer-Firmware/CA7/optee-os-3.19.0-r2/optee-os-stm32mp-3.19.0-stm32mp-r2/lib/libutils/ext/snprintk.c:583
     bc8:	3b01      	subs	r3, #1
/home/lubuntu/Dokument/GitHub/STM32-Computer/Firmware/STM32-Computer-Firmware/CA7/optee-os-3.19.0-r2/optee-os-stm32mp-3.19.0-stm32mp-r2/lib/libutils/ext/snprintk.c:584
     bca:	f04f 0120 	mov.w	r1, #32
     bce:	f804 1b01 	strb.w	r1, [r4], #1
/home/lubuntu/Dokument/GitHub/STM32-Computer/Firmware/STM32-Computer-Firmware/CA7/optee-os-3.19.0-r2/optee-os-stm32mp-3.19.0-stm32mp-r2/lib/libutils/ext/snprintk.c:583
     bd2:	d1f4      	bne.n	bbe <kprintf.constprop.0+0x5de>
/home/lubuntu/Dokument/GitHub/STM32-Computer/Firmware/STM32-Computer-Firmware/CA7/optee-os-3.19.0-r2/optee-os-stm32mp-3.19.0-stm32mp-r2/lib/libutils/ext/snprintk.c:588
     bd4:	2f00      	cmp	r7, #0
     bd6:	d160      	bne.n	c9a <kprintf.constprop.0+0x6ba>
/home/lubuntu/Dokument/GitHub/STM32-Computer/Firmware/STM32-Computer-Firmware/CA7/optee-os-3.19.0-r2/optee-os-stm32mp-3.19.0-stm32mp-r2/lib/libutils/ext/snprintk.c:590
     bd8:	07ab      	lsls	r3, r5, #30
     bda:	d44c      	bmi.n	c76 <kprintf.constprop.0+0x696>
/home/lubuntu/Dokument/GitHub/STM32-Computer/Firmware/STM32-Computer-Firmware/CA7/optee-os-3.19.0-r2/optee-os-stm32mp-3.19.0-stm32mp-r2/lib/libutils/ext/snprintk.c:603
     bdc:	eba0 000a 	sub.w	r0, r0, sl
/home/lubuntu/Dokument/GitHub/STM32-Computer/Firmware/STM32-Computer-Firmware/CA7/optee-os-3.19.0-r2/optee-os-stm32mp-3.19.0-stm32mp-r2/lib/libutils/ext/snprintk.c:604
     be0:	2800      	cmp	r0, #0
     be2:	dd0b      	ble.n	bfc <kprintf.constprop.0+0x61c>
/home/lubuntu/Dokument/GitHub/STM32-Computer/Firmware/STM32-Computer-Firmware/CA7/optee-os-3.19.0-r2/optee-os-stm32mp-3.19.0-stm32mp-r2/lib/libutils/ext/snprintk.c:605
     be4:	2c00      	cmp	r4, #0
     be6:	d04e      	beq.n	c86 <kprintf.constprop.0+0x6a6>
     be8:	2330      	movs	r3, #48	@ 0x30
     bea:	990d      	ldr	r1, [sp, #52]	@ 0x34
     bec:	b111      	cbz	r1, bf4 <kprintf.constprop.0+0x614>
     bee:	990e      	ldr	r1, [sp, #56]	@ 0x38
     bf0:	42a1      	cmp	r1, r4
     bf2:	d948      	bls.n	c86 <kprintf.constprop.0+0x6a6>
     bf4:	f804 3b01 	strb.w	r3, [r4], #1
/home/lubuntu/Dokument/GitHub/STM32-Computer/Firmware/STM32-Computer-Firmware/CA7/optee-os-3.19.0-r2/optee-os-stm32mp-3.19.0-stm32mp-r2/lib/libutils/ext/snprintk.c:604
     bf8:	3801      	subs	r0, #1
     bfa:	d1f6      	bne.n	bea <kprintf.constprop.0+0x60a>
     bfc:	44ca      	add	sl, r9
/home/lubuntu/Dokument/GitHub/STM32-Computer/Firmware/STM32-Computer-Firmware/CA7/optee-os-3.19.0-r2/optee-os-stm32mp-3.19.0-stm32mp-r2/lib/libutils/ext/snprintk.c:608
     bfe:	45d1      	cmp	r9, sl
     c00:	d00c      	beq.n	c1c <kprintf.constprop.0+0x63c>
/home/lubuntu/Dokument/GitHub/STM32-Computer/Firmware/STM32-Computer-Firmware/CA7/optee-os-3.19.0-r2/optee-os-stm32mp-3.19.0-stm32mp-r2/lib/libutils/ext/snprintk.c:609
     c02:	2c00      	cmp	r4, #0
     c04:	d041      	beq.n	c8a <kprintf.constprop.0+0x6aa>
     c06:	9b0d      	ldr	r3, [sp, #52]	@ 0x34
     c08:	b113      	cbz	r3, c10 <kprintf.constprop.0+0x630>
     c0a:	9b0e      	ldr	r3, [sp, #56]	@ 0x38
     c0c:	42a3      	cmp	r3, r4
     c0e:	d93c      	bls.n	c8a <kprintf.constprop.0+0x6aa>
     c10:	f819 3b01 	ldrb.w	r3, [r9], #1
/home/lubuntu/Dokument/GitHub/STM32-Computer/Firmware/STM32-Computer-Firmware/CA7/optee-os-3.19.0-r2/optee-os-stm32mp-3.19.0-stm32mp-r2/lib/libutils/ext/snprintk.c:608
     c14:	45d1      	cmp	r9, sl
/home/lubuntu/Dokument/GitHub/STM32-Computer/Firmware/STM32-Computer-Firmware/CA7/optee-os-3.19.0-r2/optee-os-stm32mp-3.19.0-stm32mp-r2/lib/libutils/ext/snprintk.c:609
     c16:	f804 3b01 	strb.w	r3, [r4], #1
/home/lubuntu/Dokument/GitHub/STM32-Computer/Firmware/STM32-Computer-Firmware/CA7/optee-os-3.19.0-r2/optee-os-stm32mp-3.19.0-stm32mp-r2/lib/libutils/ext/snprintk.c:608
     c1a:	d1f4      	bne.n	c06 <kprintf.constprop.0+0x626>
/home/lubuntu/Dokument/GitHub/STM32-Computer/Firmware/STM32-Computer-Firmware/CA7/optee-os-3.19.0-r2/optee-os-stm32mp-3.19.0-stm32mp-r2/lib/libutils/ext/snprintk.c:611
     c1c:	076b      	lsls	r3, r5, #29
     c1e:	f57f acef 	bpl.w	600 <kprintf.constprop.0+0x20>
/home/lubuntu/Dokument/GitHub/STM32-Computer/Firmware/STM32-Computer-Firmware/CA7/optee-os-3.19.0-r2/optee-os-stm32mp-3.19.0-stm32mp-r2/lib/libutils/ext/snprintk.c:612
     c22:	9b0c      	ldr	r3, [sp, #48]	@ 0x30
     c24:	1a9b      	subs	r3, r3, r2
/home/lubuntu/Dokument/GitHub/STM32-Computer/Firmware/STM32-Computer-Firmware/CA7/optee-os-3.19.0-r2/optee-os-stm32mp-3.19.0-stm32mp-r2/lib/libutils/ext/snprintk.c:613
     c26:	2b00      	cmp	r3, #0
     c28:	f77f acea 	ble.w	600 <kprintf.constprop.0+0x20>
/home/lubuntu/Dokument/GitHub/STM32-Computer/Firmware/STM32-Computer-Firmware/CA7/optee-os-3.19.0-r2/optee-os-stm32mp-3.19.0-stm32mp-r2/lib/libutils/ext/snprintk.c:614
     c2c:	b384      	cbz	r4, c90 <kprintf.constprop.0+0x6b0>
     c2e:	990d      	ldr	r1, [sp, #52]	@ 0x34
     c30:	4622      	mov	r2, r4
     c32:	b111      	cbz	r1, c3a <kprintf.constprop.0+0x65a>
     c34:	990e      	ldr	r1, [sp, #56]	@ 0x38
     c36:	42a1      	cmp	r1, r4
     c38:	d92a      	bls.n	c90 <kprintf.constprop.0+0x6b0>
/home/lubuntu/Dokument/GitHub/STM32-Computer/Firmware/STM32-Computer-Firmware/CA7/optee-os-3.19.0-r2/optee-os-stm32mp-3.19.0-stm32mp-r2/lib/libutils/ext/snprintk.c:613
     c3a:	3b01      	subs	r3, #1
/home/lubuntu/Dokument/GitHub/STM32-Computer/Firmware/STM32-Computer-Firmware/CA7/optee-os-3.19.0-r2/optee-os-stm32mp-3.19.0-stm32mp-r2/lib/libutils/ext/snprintk.c:614
     c3c:	f04f 0120 	mov.w	r1, #32
     c40:	7011      	strb	r1, [r2, #0]
     c42:	f104 0401 	add.w	r4, r4, #1
/home/lubuntu/Dokument/GitHub/STM32-Computer/Firmware/STM32-Computer-Firmware/CA7/optee-os-3.19.0-r2/optee-os-stm32mp-3.19.0-stm32mp-r2/lib/libutils/ext/snprintk.c:613
     c46:	d1f2      	bne.n	c2e <kprintf.constprop.0+0x64e>
     c48:	e4da      	b.n	600 <kprintf.constprop.0+0x20>
     c4a:	3b01      	subs	r3, #1
     c4c:	e62e      	b.n	8ac <kprintf.constprop.0+0x2cc>
/home/lubuntu/Dokument/GitHub/STM32-Computer/Firmware/STM32-Computer-Firmware/CA7/optee-os-3.19.0-r2/optee-os-stm32mp-3.19.0-stm32mp-r2/lib/libutils/ext/snprintk.c:589
     c4e:	bb24      	cbnz	r4, c9a <kprintf.constprop.0+0x6ba>
/home/lubuntu/Dokument/GitHub/STM32-Computer/Firmware/STM32-Computer-Firmware/CA7/optee-os-3.19.0-r2/optee-os-stm32mp-3.19.0-stm32mp-r2/lib/libutils/ext/snprintk.c:596
     c50:	f5b3 6f80 	cmp.w	r3, #1024	@ 0x400
     c54:	d1c2      	bne.n	bdc <kprintf.constprop.0+0x5fc>
/home/lubuntu/Dokument/GitHub/STM32-Computer/Firmware/STM32-Computer-Firmware/CA7/optee-os-3.19.0-r2/optee-os-stm32mp-3.19.0-stm32mp-r2/lib/libutils/ext/snprintk.c:597
     c56:	9b0c      	ldr	r3, [sp, #48]	@ 0x30
     c58:	1a9b      	subs	r3, r3, r2
/home/lubuntu/Dokument/GitHub/STM32-Computer/Firmware/STM32-Computer-Firmware/CA7/optee-os-3.19.0-r2/optee-os-stm32mp-3.19.0-stm32mp-r2/lib/libutils/ext/snprintk.c:598
     c5a:	2b00      	cmp	r3, #0
     c5c:	ddbe      	ble.n	bdc <kprintf.constprop.0+0x5fc>
/home/lubuntu/Dokument/GitHub/STM32-Computer/Firmware/STM32-Computer-Firmware/CA7/optee-os-3.19.0-r2/optee-os-stm32mp-3.19.0-stm32mp-r2/lib/libutils/ext/snprintk.c:599
     c5e:	b184      	cbz	r4, c82 <kprintf.constprop.0+0x6a2>
     c60:	2130      	movs	r1, #48	@ 0x30
     c62:	9f0d      	ldr	r7, [sp, #52]	@ 0x34
     c64:	b117      	cbz	r7, c6c <kprintf.constprop.0+0x68c>
     c66:	9f0e      	ldr	r7, [sp, #56]	@ 0x38
     c68:	42a7      	cmp	r7, r4
     c6a:	d90a      	bls.n	c82 <kprintf.constprop.0+0x6a2>
     c6c:	f804 1b01 	strb.w	r1, [r4], #1
/home/lubuntu/Dokument/GitHub/STM32-Computer/Firmware/STM32-Computer-Firmware/CA7/optee-os-3.19.0-r2/optee-os-stm32mp-3.19.0-stm32mp-r2/lib/libutils/ext/snprintk.c:598
     c70:	3b01      	subs	r3, #1
     c72:	d1f6      	bne.n	c62 <kprintf.constprop.0+0x682>
     c74:	e7b2      	b.n	bdc <kprintf.constprop.0+0x5fc>
/home/lubuntu/Dokument/GitHub/STM32-Computer/Firmware/STM32-Computer-Firmware/CA7/optee-os-3.19.0-r2/optee-os-stm32mp-3.19.0-stm32mp-r2/lib/libutils/ext/snprintk.c:590
     c76:	463b      	mov	r3, r7
     c78:	e78f      	b.n	b9a <kprintf.constprop.0+0x5ba>
/home/lubuntu/Dokument/GitHub/STM32-Computer/Firmware/STM32-Computer-Firmware/CA7/optee-os-3.19.0-r2/optee-os-stm32mp-3.19.0-stm32mp-r2/lib/libutils/ext/snprintk.c:591
     c7a:	2130      	movs	r1, #48	@ 0x30
     c7c:	f804 1b01 	strb.w	r1, [r4], #1
/home/lubuntu/Dokument/GitHub/STM32-Computer/Firmware/STM32-Computer-Firmware/CA7/optee-os-3.19.0-r2/optee-os-stm32mp-3.19.0-stm32mp-r2/lib/libutils/ext/snprintk.c:592
     c80:	e797      	b.n	bb2 <kprintf.constprop.0+0x5d2>
     c82:	3b01      	subs	r3, #1
     c84:	e7e9      	b.n	c5a <kprintf.constprop.0+0x67a>
     c86:	3801      	subs	r0, #1
     c88:	e7aa      	b.n	be0 <kprintf.constprop.0+0x600>
/home/lubuntu/Dokument/GitHub/STM32-Computer/Firmware/STM32-Computer-Firmware/CA7/optee-os-3.19.0-r2/optee-os-stm32mp-3.19.0-stm32mp-r2/lib/libutils/ext/snprintk.c:608
     c8a:	f109 0901 	add.w	r9, r9, #1
     c8e:	e7b6      	b.n	bfe <kprintf.constprop.0+0x61e>
     c90:	3b01      	subs	r3, #1
     c92:	e7c8      	b.n	c26 <kprintf.constprop.0+0x646>
/home/lubuntu/Dokument/GitHub/STM32-Computer/Firmware/STM32-Computer-Firmware/CA7/optee-os-3.19.0-r2/optee-os-stm32mp-3.19.0-stm32mp-r2/lib/libutils/ext/snprintk.c:589
     c94:	2c00      	cmp	r4, #0
     c96:	d0a1      	beq.n	bdc <kprintf.constprop.0+0x5fc>
     c98:	2300      	movs	r3, #0
     c9a:	990d      	ldr	r1, [sp, #52]	@ 0x34
     c9c:	b111      	cbz	r1, ca4 <kprintf.constprop.0+0x6c4>
     c9e:	990e      	ldr	r1, [sp, #56]	@ 0x38
     ca0:	42a1      	cmp	r1, r4
     ca2:	d9d5      	bls.n	c50 <kprintf.constprop.0+0x670>
     ca4:	f804 7b01 	strb.w	r7, [r4], #1
     ca8:	e7d2      	b.n	c50 <kprintf.constprop.0+0x670>
     caa:	bf00      	nop
     cac:	00009b38 	.word	0x00009b38
     cb0:	00009871 	.word	0x00009871
     cb4:	0000986a 	.word	0x0000986a
     cb8:	000097ee 	.word	0x000097ee
     cbc:	0000976e 	.word	0x0000976e

00000cc0 <__vsprintf>:
__vsprintf():
/home/lubuntu/Dokument/GitHub/STM32-Computer/Firmware/STM32-Computer-Firmware/CA7/optee-os-3.19.0-r2/optee-os-stm32mp-3.19.0-stm32mp-r2/lib/libutils/ext/snprintk.c:155
     cc0:	b513      	push	{r0, r1, r4, lr}
     cc2:	4604      	mov	r4, r0
     cc4:	4608      	mov	r0, r1
/home/lubuntu/Dokument/GitHub/STM32-Computer/Firmware/STM32-Computer-Firmware/CA7/optee-os-3.19.0-r2/optee-os-stm32mp-3.19.0-stm32mp-r2/lib/libutils/ext/snprintk.c:156
     cc6:	2100      	movs	r1, #0
     cc8:	9100      	str	r1, [sp, #0]
/home/lubuntu/Dokument/GitHub/STM32-Computer/Firmware/STM32-Computer-Firmware/CA7/optee-os-3.19.0-r2/optee-os-stm32mp-3.19.0-stm32mp-r2/lib/libutils/ext/snprintk.c:155
     cca:	4613      	mov	r3, r2
/home/lubuntu/Dokument/GitHub/STM32-Computer/Firmware/STM32-Computer-Firmware/CA7/optee-os-3.19.0-r2/optee-os-stm32mp-3.19.0-stm32mp-r2/lib/libutils/ext/snprintk.c:156
     ccc:	4622      	mov	r2, r4
     cce:	f7ff fc87 	bl	5e0 <kprintf.constprop.0>
/home/lubuntu/Dokument/GitHub/STM32-Computer/Firmware/STM32-Computer-Firmware/CA7/optee-os-3.19.0-r2/optee-os-stm32mp-3.19.0-stm32mp-r2/lib/libutils/ext/snprintk.c:157
     cd2:	b002      	add	sp, #8
     cd4:	bd10      	pop	{r4, pc}
     cd6:	bf00      	nop

00000cd8 <__aeabi_ldivmod>:
__aeabi_ldivmod():
/home/lubuntu/Dokument/GitHub/STM32-Computer/Firmware/STM32-Computer-Firmware/CA7/optee-os-3.19.0-r2/optee-os-stm32mp-3.19.0-stm32mp-r2/lib/libutils/isoc/arch/arm/arm32_aeabi_ldivmod_a32.S:14
     cd8:	e92d5000 	push	{ip, lr}
/home/lubuntu/Dokument/GitHub/STM32-Computer/Firmware/STM32-Computer-Firmware/CA7/optee-os-3.19.0-r2/optee-os-stm32mp-3.19.0-stm32mp-r2/lib/libutils/isoc/arch/arm/arm32_aeabi_ldivmod_a32.S:16
     cdc:	e92d000f 	push	{r0, r1, r2, r3}
/home/lubuntu/Dokument/GitHub/STM32-Computer/Firmware/STM32-Computer-Firmware/CA7/optee-os-3.19.0-r2/optee-os-stm32mp-3.19.0-stm32mp-r2/lib/libutils/isoc/arch/arm/arm32_aeabi_ldivmod_a32.S:18
     ce0:	e1a0000d 	mov	r0, sp
/home/lubuntu/Dokument/GitHub/STM32-Computer/Firmware/STM32-Computer-Firmware/CA7/optee-os-3.19.0-r2/optee-os-stm32mp-3.19.0-stm32mp-r2/lib/libutils/isoc/arch/arm/arm32_aeabi_ldivmod_a32.S:19
     ce4:	fa002298 	blx	974c <__l_divmod>
/home/lubuntu/Dokument/GitHub/STM32-Computer/Firmware/STM32-Computer-Firmware/CA7/optee-os-3.19.0-r2/optee-os-stm32mp-3.19.0-stm32mp-r2/lib/libutils/isoc/arch/arm/arm32_aeabi_ldivmod_a32.S:20
     ce8:	e8bd000f 	pop	{r0, r1, r2, r3}
/home/lubuntu/Dokument/GitHub/STM32-Computer/Firmware/STM32-Computer-Firmware/CA7/optee-os-3.19.0-r2/optee-os-stm32mp-3.19.0-stm32mp-r2/lib/libutils/isoc/arch/arm/arm32_aeabi_ldivmod_a32.S:21
     cec:	e8bd9000 	pop	{ip, pc}

00000cf0 <__aeabi_uldivmod>:
__aeabi_uldivmod():
/home/lubuntu/Dokument/GitHub/STM32-Computer/Firmware/STM32-Computer-Firmware/CA7/optee-os-3.19.0-r2/optee-os-stm32mp-3.19.0-stm32mp-r2/lib/libutils/isoc/arch/arm/arm32_aeabi_ldivmod_a32.S:29
     cf0:	e92d5000 	push	{ip, lr}
/home/lubuntu/Dokument/GitHub/STM32-Computer/Firmware/STM32-Computer-Firmware/CA7/optee-os-3.19.0-r2/optee-os-stm32mp-3.19.0-stm32mp-r2/lib/libutils/isoc/arch/arm/arm32_aeabi_ldivmod_a32.S:31
     cf4:	e92d000f 	push	{r0, r1, r2, r3}
/home/lubuntu/Dokument/GitHub/STM32-Computer/Firmware/STM32-Computer-Firmware/CA7/optee-os-3.19.0-r2/optee-os-stm32mp-3.19.0-stm32mp-r2/lib/libutils/isoc/arch/arm/arm32_aeabi_ldivmod_a32.S:33
     cf8:	e1a0000d 	mov	r0, sp
/home/lubuntu/Dokument/GitHub/STM32-Computer/Firmware/STM32-Computer-Firmware/CA7/optee-os-3.19.0-r2/optee-os-stm32mp-3.19.0-stm32mp-r2/lib/libutils/isoc/arch/arm/arm32_aeabi_ldivmod_a32.S:34
     cfc:	fb002283 	blx	9712 <__ul_divmod>
/home/lubuntu/Dokument/GitHub/STM32-Computer/Firmware/STM32-Computer-Firmware/CA7/optee-os-3.19.0-r2/optee-os-stm32mp-3.19.0-stm32mp-r2/lib/libutils/isoc/arch/arm/arm32_aeabi_ldivmod_a32.S:35
     d00:	e8bd000f 	pop	{r0, r1, r2, r3}
/home/lubuntu/Dokument/GitHub/STM32-Computer/Firmware/STM32-Computer-Firmware/CA7/optee-os-3.19.0-r2/optee-os-stm32mp-3.19.0-stm32mp-r2/lib/libutils/isoc/arch/arm/arm32_aeabi_ldivmod_a32.S:36
     d04:	e8bd9000 	pop	{ip, pc}

00000d08 <trace_ext_puts>:
trace_ext_puts():
/home/lubuntu/Dokument/GitHub/STM32-Computer/Firmware/STM32-Computer-Firmware/CA7/optee-os-3.19.0-r2/optee-os-stm32mp-3.19.0-stm32mp-r2/lib/libutee/trace_ext.c:22
     d08:	b510      	push	{r4, lr}
     d0a:	4604      	mov	r4, r0
/home/lubuntu/Dokument/GitHub/STM32-Computer/Firmware/STM32-Computer-Firmware/CA7/optee-os-3.19.0-r2/optee-os-stm32mp-3.19.0-stm32mp-r2/lib/libutee/trace_ext.c:26
     d0c:	f008 fcb4 	bl	9678 <strlen>
     d10:	4601      	mov	r1, r0
     d12:	4620      	mov	r0, r4
/home/lubuntu/Dokument/GitHub/STM32-Computer/Firmware/STM32-Computer-Firmware/CA7/optee-os-3.19.0-r2/optee-os-stm32mp-3.19.0-stm32mp-r2/lib/libutee/trace_ext.c:28
     d14:	e8bd 4010 	ldmia.w	sp!, {r4, lr}
/home/lubuntu/Dokument/GitHub/STM32-Computer/Firmware/STM32-Computer-Firmware/CA7/optee-os-3.19.0-r2/optee-os-stm32mp-3.19.0-stm32mp-r2/lib/libutee/trace_ext.c:26
     d18:	f009 b806 	b.w	9d28 <___utee_log_from_thumb>

00000d1c <trace_ext_get_thread_id>:
trace_ext_get_thread_id():
/home/lubuntu/Dokument/GitHub/STM32-Computer/Firmware/STM32-Computer-Firmware/CA7/optee-os-3.19.0-r2/optee-os-stm32mp-3.19.0-stm32mp-r2/lib/libutee/trace_ext.c:33
     d1c:	f04f 30ff 	mov.w	r0, #4294967295	@ 0xffffffff
     d20:	4770      	bx	lr

00000d22 <printf>:
printf():
/home/lubuntu/Dokument/GitHub/STM32-Computer/Firmware/STM32-Computer-Firmware/CA7/optee-os-3.19.0-r2/optee-os-stm32mp-3.19.0-stm32mp-r2/lib/libutee/trace_ext.c:41
     d22:	b40f      	push	{r0, r1, r2, r3}
     d24:	b530      	push	{r4, r5, lr}
     d26:	b0c3      	sub	sp, #268	@ 0x10c
/home/lubuntu/Dokument/GitHub/STM32-Computer/Firmware/STM32-Computer-Firmware/CA7/optee-os-3.19.0-r2/optee-os-stm32mp-3.19.0-stm32mp-r2/lib/libutee/trace_ext.c:46
     d28:	f7ff fb7a 	bl	420 <trace_get_level>
     d2c:	2800      	cmp	r0, #0
     d2e:	dd13      	ble.n	d58 <printf+0x36>
/home/lubuntu/Dokument/GitHub/STM32-Computer/Firmware/STM32-Computer-Firmware/CA7/optee-os-3.19.0-r2/optee-os-stm32mp-3.19.0-stm32mp-r2/lib/libutee/trace_ext.c:50
     d30:	9a46      	ldr	r2, [sp, #280]	@ 0x118
     d32:	ad02      	add	r5, sp, #8
/home/lubuntu/Dokument/GitHub/STM32-Computer/Firmware/STM32-Computer-Firmware/CA7/optee-os-3.19.0-r2/optee-os-stm32mp-3.19.0-stm32mp-r2/lib/libutee/trace_ext.c:49
     d34:	ab47      	add	r3, sp, #284	@ 0x11c
/home/lubuntu/Dokument/GitHub/STM32-Computer/Firmware/STM32-Computer-Firmware/CA7/optee-os-3.19.0-r2/optee-os-stm32mp-3.19.0-stm32mp-r2/lib/libutee/trace_ext.c:50
     d36:	f44f 7180 	mov.w	r1, #256	@ 0x100
/home/lubuntu/Dokument/GitHub/STM32-Computer/Firmware/STM32-Computer-Firmware/CA7/optee-os-3.19.0-r2/optee-os-stm32mp-3.19.0-stm32mp-r2/lib/libutee/trace_ext.c:49
     d3a:	9301      	str	r3, [sp, #4]
/home/lubuntu/Dokument/GitHub/STM32-Computer/Firmware/STM32-Computer-Firmware/CA7/optee-os-3.19.0-r2/optee-os-stm32mp-3.19.0-stm32mp-r2/lib/libutee/trace_ext.c:50
     d3c:	4628      	mov	r0, r5
     d3e:	f008 ff74 	bl	9c2a <vsnprintf>
/home/lubuntu/Dokument/GitHub/STM32-Computer/Firmware/STM32-Computer-Firmware/CA7/optee-os-3.19.0-r2/optee-os-stm32mp-3.19.0-stm32mp-r2/lib/libutee/trace_ext.c:53
     d42:	1e04      	subs	r4, r0, #0
     d44:	db02      	blt.n	d4c <printf+0x2a>
/home/lubuntu/Dokument/GitHub/STM32-Computer/Firmware/STM32-Computer-Firmware/CA7/optee-os-3.19.0-r2/optee-os-stm32mp-3.19.0-stm32mp-r2/lib/libutee/trace_ext.c:56
     d46:	4628      	mov	r0, r5
     d48:	f7ff ffde 	bl	d08 <trace_ext_puts>
/home/lubuntu/Dokument/GitHub/STM32-Computer/Firmware/STM32-Computer-Firmware/CA7/optee-os-3.19.0-r2/optee-os-stm32mp-3.19.0-stm32mp-r2/lib/libutee/trace_ext.c:59
     d4c:	4620      	mov	r0, r4
     d4e:	b043      	add	sp, #268	@ 0x10c
     d50:	e8bd 4030 	ldmia.w	sp!, {r4, r5, lr}
     d54:	b004      	add	sp, #16
     d56:	4770      	bx	lr
/home/lubuntu/Dokument/GitHub/STM32-Computer/Firmware/STM32-Computer-Firmware/CA7/optee-os-3.19.0-r2/optee-os-stm32mp-3.19.0-stm32mp-r2/lib/libutee/trace_ext.c:47
     d58:	2400      	movs	r4, #0
     d5a:	e7f7      	b.n	d4c <printf+0x2a>

00000d5c <puts>:
puts():
/home/lubuntu/Dokument/GitHub/STM32-Computer/Firmware/STM32-Computer-Firmware/CA7/optee-os-3.19.0-r2/optee-os-stm32mp-3.19.0-stm32mp-r2/lib/libutee/trace_ext.c:62
     d5c:	b510      	push	{r4, lr}
     d5e:	4604      	mov	r4, r0
/home/lubuntu/Dokument/GitHub/STM32-Computer/Firmware/STM32-Computer-Firmware/CA7/optee-os-3.19.0-r2/optee-os-stm32mp-3.19.0-stm32mp-r2/lib/libutee/trace_ext.c:63
     d60:	f7ff fb5e 	bl	420 <trace_get_level>
     d64:	2800      	cmp	r0, #0
     d66:	dd06      	ble.n	d76 <puts+0x1a>
/home/lubuntu/Dokument/GitHub/STM32-Computer/Firmware/STM32-Computer-Firmware/CA7/optee-os-3.19.0-r2/optee-os-stm32mp-3.19.0-stm32mp-r2/lib/libutee/trace_ext.c:64
     d68:	4620      	mov	r0, r4
     d6a:	f7ff ffcd 	bl	d08 <trace_ext_puts>
/home/lubuntu/Dokument/GitHub/STM32-Computer/Firmware/STM32-Computer-Firmware/CA7/optee-os-3.19.0-r2/optee-os-stm32mp-3.19.0-stm32mp-r2/lib/libutee/trace_ext.c:65
     d6e:	4803      	ldr	r0, [pc, #12]	@ (d7c <puts+0x20>)
     d70:	4478      	add	r0, pc
     d72:	f7ff ffc9 	bl	d08 <trace_ext_puts>
/home/lubuntu/Dokument/GitHub/STM32-Computer/Firmware/STM32-Computer-Firmware/CA7/optee-os-3.19.0-r2/optee-os-stm32mp-3.19.0-stm32mp-r2/lib/libutee/trace_ext.c:68
     d76:	2001      	movs	r0, #1
     d78:	bd10      	pop	{r4, pc}
     d7a:	bf00      	nop
     d7c:	00009dde 	.word	0x00009dde

00000d80 <putchar>:
putchar():
/home/lubuntu/Dokument/GitHub/STM32-Computer/Firmware/STM32-Computer-Firmware/CA7/optee-os-3.19.0-r2/optee-os-stm32mp-3.19.0-stm32mp-r2/lib/libutee/trace_ext.c:71
     d80:	b513      	push	{r0, r1, r4, lr}
/home/lubuntu/Dokument/GitHub/STM32-Computer/Firmware/STM32-Computer-Firmware/CA7/optee-os-3.19.0-r2/optee-os-stm32mp-3.19.0-stm32mp-r2/lib/libutee/trace_ext.c:72
     d82:	2300      	movs	r3, #0
     d84:	f88d 0004 	strb.w	r0, [sp, #4]
/home/lubuntu/Dokument/GitHub/STM32-Computer/Firmware/STM32-Computer-Firmware/CA7/optee-os-3.19.0-r2/optee-os-stm32mp-3.19.0-stm32mp-r2/lib/libutee/trace_ext.c:71
     d88:	4604      	mov	r4, r0
/home/lubuntu/Dokument/GitHub/STM32-Computer/Firmware/STM32-Computer-Firmware/CA7/optee-os-3.19.0-r2/optee-os-stm32mp-3.19.0-stm32mp-r2/lib/libutee/trace_ext.c:72
     d8a:	f88d 3005 	strb.w	r3, [sp, #5]
/home/lubuntu/Dokument/GitHub/STM32-Computer/Firmware/STM32-Computer-Firmware/CA7/optee-os-3.19.0-r2/optee-os-stm32mp-3.19.0-stm32mp-r2/lib/libutee/trace_ext.c:74
     d8e:	f7ff fb47 	bl	420 <trace_get_level>
     d92:	2800      	cmp	r0, #0
     d94:	dd02      	ble.n	d9c <putchar+0x1c>
/home/lubuntu/Dokument/GitHub/STM32-Computer/Firmware/STM32-Computer-Firmware/CA7/optee-os-3.19.0-r2/optee-os-stm32mp-3.19.0-stm32mp-r2/lib/libutee/trace_ext.c:75
     d96:	a801      	add	r0, sp, #4
     d98:	f7ff ffb6 	bl	d08 <trace_ext_puts>
/home/lubuntu/Dokument/GitHub/STM32-Computer/Firmware/STM32-Computer-Firmware/CA7/optee-os-3.19.0-r2/optee-os-stm32mp-3.19.0-stm32mp-r2/lib/libutee/trace_ext.c:82
     d9c:	b2e0      	uxtb	r0, r4
     d9e:	b002      	add	sp, #8
     da0:	bd10      	pop	{r4, pc}
     da2:	bf00      	nop

00000da4 <update_out_param>:
update_out_param():
/home/lubuntu/Dokument/GitHub/STM32-Computer/Firmware/STM32-Computer-Firmware/CA7/optee-os-3.19.0-r2/optee-os-stm32mp-3.19.0-stm32mp-r2/lib/libutee/tee_api.c:121
     da4:	e92d 47f0 	stmdb	sp!, {r4, r5, r6, r7, r8, r9, sl, lr}
     da8:	4607      	mov	r7, r0
/home/lubuntu/Dokument/GitHub/STM32-Computer/Firmware/STM32-Computer-Firmware/CA7/optee-os-3.19.0-r2/optee-os-stm32mp-3.19.0-stm32mp-r2/lib/libutee/tee_api.c:123
     daa:	f8d2 a000 	ldr.w	sl, [r2]
/home/lubuntu/Dokument/GitHub/STM32-Computer/Firmware/STM32-Computer-Firmware/CA7/optee-os-3.19.0-r2/optee-os-stm32mp-3.19.0-stm32mp-r2/lib/libutee/tee_api.c:121
     dae:	4688      	mov	r8, r1
     db0:	4614      	mov	r4, r2
     db2:	4606      	mov	r6, r0
/home/lubuntu/Dokument/GitHub/STM32-Computer/Firmware/STM32-Computer-Firmware/CA7/optee-os-3.19.0-r2/optee-os-stm32mp-3.19.0-stm32mp-r2/lib/libutee/tee_api.c:123
     db4:	2500      	movs	r5, #0
/home/lubuntu/Dokument/GitHub/STM32-Computer/Firmware/STM32-Computer-Firmware/CA7/optee-os-3.19.0-r2/optee-os-stm32mp-3.19.0-stm32mp-r2/lib/libutee/tee_api.c:129
     db6:	fa2a f205 	lsr.w	r2, sl, r5
/home/lubuntu/Dokument/GitHub/STM32-Computer/Firmware/STM32-Computer-Firmware/CA7/optee-os-3.19.0-r2/optee-os-stm32mp-3.19.0-stm32mp-r2/lib/libutee/tee_api.c:126
     dba:	68a1      	ldr	r1, [r4, #8]
/home/lubuntu/Dokument/GitHub/STM32-Computer/Firmware/STM32-Computer-Firmware/CA7/optee-os-3.19.0-r2/optee-os-stm32mp-3.19.0-stm32mp-r2/lib/libutee/tee_api.c:129
     dbc:	f012 0f0c 	tst.w	r2, #12
/home/lubuntu/Dokument/GitHub/STM32-Computer/Firmware/STM32-Computer-Firmware/CA7/optee-os-3.19.0-r2/optee-os-stm32mp-3.19.0-stm32mp-r2/lib/libutee/tee_api.c:127
     dc0:	f8d4 9010 	ldr.w	r9, [r4, #16]
/home/lubuntu/Dokument/GitHub/STM32-Computer/Firmware/STM32-Computer-Firmware/CA7/optee-os-3.19.0-r2/optee-os-stm32mp-3.19.0-stm32mp-r2/lib/libutee/tee_api.c:129
     dc4:	f002 030f 	and.w	r3, r2, #15
     dc8:	d107      	bne.n	dda <update_out_param+0x36>
     dca:	f012 0f0e 	tst.w	r2, #14
     dce:	d007      	beq.n	de0 <update_out_param+0x3c>
/home/lubuntu/Dokument/GitHub/STM32-Computer/Firmware/STM32-Computer-Firmware/CA7/optee-os-3.19.0-r2/optee-os-stm32mp-3.19.0-stm32mp-r2/lib/libutee/tee_api.c:126
     dd0:	f847 1015 	str.w	r1, [r7, r5, lsl #1]
/home/lubuntu/Dokument/GitHub/STM32-Computer/Firmware/STM32-Computer-Firmware/CA7/optee-os-3.19.0-r2/optee-os-stm32mp-3.19.0-stm32mp-r2/lib/libutee/tee_api.c:140
     dd4:	f8c6 9004 	str.w	r9, [r6, #4]
/home/lubuntu/Dokument/GitHub/STM32-Computer/Firmware/STM32-Computer-Firmware/CA7/optee-os-3.19.0-r2/optee-os-stm32mp-3.19.0-stm32mp-r2/lib/libutee/tee_api.c:141
     dd8:	e002      	b.n	de0 <update_out_param+0x3c>
/home/lubuntu/Dokument/GitHub/STM32-Computer/Firmware/STM32-Computer-Firmware/CA7/optee-os-3.19.0-r2/optee-os-stm32mp-3.19.0-stm32mp-r2/lib/libutee/tee_api.c:129
     dda:	3b06      	subs	r3, #6
     ddc:	2b01      	cmp	r3, #1
     dde:	d907      	bls.n	df0 <update_out_param+0x4c>
/home/lubuntu/Dokument/GitHub/STM32-Computer/Firmware/STM32-Computer-Firmware/CA7/optee-os-3.19.0-r2/optee-os-stm32mp-3.19.0-stm32mp-r2/lib/libutee/tee_api.c:125 (discriminator 2)
     de0:	3504      	adds	r5, #4
     de2:	3410      	adds	r4, #16
     de4:	2d10      	cmp	r5, #16
     de6:	f106 0608 	add.w	r6, r6, #8
     dea:	d1e4      	bne.n	db6 <update_out_param+0x12>
/home/lubuntu/Dokument/GitHub/STM32-Computer/Firmware/STM32-Computer-Firmware/CA7/optee-os-3.19.0-r2/optee-os-stm32mp-3.19.0-stm32mp-r2/lib/libutee/tee_api.c:146
     dec:	e8bd 87f0 	ldmia.w	sp!, {r4, r5, r6, r7, r8, r9, sl, pc}
/home/lubuntu/Dokument/GitHub/STM32-Computer/Firmware/STM32-Computer-Firmware/CA7/optee-os-3.19.0-r2/optee-os-stm32mp-3.19.0-stm32mp-r2/lib/libutee/tee_api.c:137
     df0:	f858 1005 	ldr.w	r1, [r8, r5]
     df4:	2900      	cmp	r1, #0
     df6:	d0ed      	beq.n	dd4 <update_out_param+0x30>
/home/lubuntu/Dokument/GitHub/STM32-Computer/Firmware/STM32-Computer-Firmware/CA7/optee-os-3.19.0-r2/optee-os-stm32mp-3.19.0-stm32mp-r2/lib/libutee/tee_api.c:139
     df8:	6872      	ldr	r2, [r6, #4]
/home/lubuntu/Dokument/GitHub/STM32-Computer/Firmware/STM32-Computer-Firmware/CA7/optee-os-3.19.0-r2/optee-os-stm32mp-3.19.0-stm32mp-r2/lib/libutee/tee_api.c:138
     dfa:	f857 0015 	ldr.w	r0, [r7, r5, lsl #1]
     dfe:	454a      	cmp	r2, r9
     e00:	bf28      	it	cs
     e02:	464a      	movcs	r2, r9
     e04:	f006 fcbe 	bl	7784 <memcpy>
     e08:	e7e4      	b.n	dd4 <update_out_param+0x30>

00000e0a <TEE_CloseTASession>:
TEE_CloseTASession():
/home/lubuntu/Dokument/GitHub/STM32-Computer/Firmware/STM32-Computer-Firmware/CA7/optee-os-3.19.0-r2/optee-os-stm32mp-3.19.0-stm32mp-r2/lib/libutee/tee_api.c:195
     e0a:	b508      	push	{r3, lr}
/home/lubuntu/Dokument/GitHub/STM32-Computer/Firmware/STM32-Computer-Firmware/CA7/optee-os-3.19.0-r2/optee-os-stm32mp-3.19.0-stm32mp-r2/lib/libutee/tee_api.c:196
     e0c:	b130      	cbz	r0, e1c <TEE_CloseTASession+0x12>
/home/lubuntu/Dokument/GitHub/STM32-Computer/Firmware/STM32-Computer-Firmware/CA7/optee-os-3.19.0-r2/optee-os-stm32mp-3.19.0-stm32mp-r2/lib/libutee/tee_api.c:197
     e0e:	f000 ef72 	blx	1cf4 <_utee_close_ta_session>
/home/lubuntu/Dokument/GitHub/STM32-Computer/Firmware/STM32-Computer-Firmware/CA7/optee-os-3.19.0-r2/optee-os-stm32mp-3.19.0-stm32mp-r2/lib/libutee/tee_api.c:199
     e12:	b118      	cbz	r0, e1c <TEE_CloseTASession+0x12>
/home/lubuntu/Dokument/GitHub/STM32-Computer/Firmware/STM32-Computer-Firmware/CA7/optee-os-3.19.0-r2/optee-os-stm32mp-3.19.0-stm32mp-r2/lib/libutee/tee_api.c:202
     e14:	e8bd 4008 	ldmia.w	sp!, {r3, lr}
/home/lubuntu/Dokument/GitHub/STM32-Computer/Firmware/STM32-Computer-Firmware/CA7/optee-os-3.19.0-r2/optee-os-stm32mp-3.19.0-stm32mp-r2/lib/libutee/tee_api.c:200
     e18:	f000 be26 	b.w	1a68 <TEE_Panic>
/home/lubuntu/Dokument/GitHub/STM32-Computer/Firmware/STM32-Computer-Firmware/CA7/optee-os-3.19.0-r2/optee-os-stm32mp-3.19.0-stm32mp-r2/lib/libutee/tee_api.c:202
     e1c:	bd08      	pop	{r3, pc}

00000e1e <TEE_GetCancellationFlag>:
TEE_GetCancellationFlag():
/home/lubuntu/Dokument/GitHub/STM32-Computer/Firmware/STM32-Computer-Firmware/CA7/optee-os-3.19.0-r2/optee-os-stm32mp-3.19.0-stm32mp-r2/lib/libutee/tee_api.c:257
     e1e:	b507      	push	{r0, r1, r2, lr}
/home/lubuntu/Dokument/GitHub/STM32-Computer/Firmware/STM32-Computer-Firmware/CA7/optee-os-3.19.0-r2/optee-os-stm32mp-3.19.0-stm32mp-r2/lib/libutee/tee_api.c:259
     e20:	a801      	add	r0, sp, #4
     e22:	f000 ef7e 	blx	1d20 <_utee_get_cancellation_flag>
/home/lubuntu/Dokument/GitHub/STM32-Computer/Firmware/STM32-Computer-Firmware/CA7/optee-os-3.19.0-r2/optee-os-stm32mp-3.19.0-stm32mp-r2/lib/libutee/tee_api.c:261
     e26:	b108      	cbz	r0, e2c <TEE_GetCancellationFlag+0xe>
/home/lubuntu/Dokument/GitHub/STM32-Computer/Firmware/STM32-Computer-Firmware/CA7/optee-os-3.19.0-r2/optee-os-stm32mp-3.19.0-stm32mp-r2/lib/libutee/tee_api.c:262
     e28:	2300      	movs	r3, #0
     e2a:	9301      	str	r3, [sp, #4]
/home/lubuntu/Dokument/GitHub/STM32-Computer/Firmware/STM32-Computer-Firmware/CA7/optee-os-3.19.0-r2/optee-os-stm32mp-3.19.0-stm32mp-r2/lib/libutee/tee_api.c:264
     e2c:	9801      	ldr	r0, [sp, #4]
     e2e:	3800      	subs	r0, #0
     e30:	bf18      	it	ne
     e32:	2001      	movne	r0, #1
     e34:	b003      	add	sp, #12
     e36:	f85d fb04 	ldr.w	pc, [sp], #4

00000e3a <TEE_UnmaskCancellation>:
TEE_UnmaskCancellation():
/home/lubuntu/Dokument/GitHub/STM32-Computer/Firmware/STM32-Computer-Firmware/CA7/optee-os-3.19.0-r2/optee-os-stm32mp-3.19.0-stm32mp-r2/lib/libutee/tee_api.c:267
     e3a:	b507      	push	{r0, r1, r2, lr}
/home/lubuntu/Dokument/GitHub/STM32-Computer/Firmware/STM32-Computer-Firmware/CA7/optee-os-3.19.0-r2/optee-os-stm32mp-3.19.0-stm32mp-r2/lib/libutee/tee_api.c:269
     e3c:	a801      	add	r0, sp, #4
     e3e:	f000 ef84 	blx	1d48 <_utee_unmask_cancellation>
/home/lubuntu/Dokument/GitHub/STM32-Computer/Firmware/STM32-Computer-Firmware/CA7/optee-os-3.19.0-r2/optee-os-stm32mp-3.19.0-stm32mp-r2/lib/libutee/tee_api.c:271
     e42:	b108      	cbz	r0, e48 <TEE_UnmaskCancellation+0xe>
/home/lubuntu/Dokument/GitHub/STM32-Computer/Firmware/STM32-Computer-Firmware/CA7/optee-os-3.19.0-r2/optee-os-stm32mp-3.19.0-stm32mp-r2/lib/libutee/tee_api.c:272
     e44:	f000 fe10 	bl	1a68 <TEE_Panic>
/home/lubuntu/Dokument/GitHub/STM32-Computer/Firmware/STM32-Computer-Firmware/CA7/optee-os-3.19.0-r2/optee-os-stm32mp-3.19.0-stm32mp-r2/lib/libutee/tee_api.c:274
     e48:	9801      	ldr	r0, [sp, #4]
     e4a:	3800      	subs	r0, #0
     e4c:	bf18      	it	ne
     e4e:	2001      	movne	r0, #1
     e50:	b003      	add	sp, #12
     e52:	f85d fb04 	ldr.w	pc, [sp], #4

00000e56 <TEE_MaskCancellation>:
TEE_MaskCancellation():
/home/lubuntu/Dokument/GitHub/STM32-Computer/Firmware/STM32-Computer-Firmware/CA7/optee-os-3.19.0-r2/optee-os-stm32mp-3.19.0-stm32mp-r2/lib/libutee/tee_api.c:277
     e56:	b507      	push	{r0, r1, r2, lr}
/home/lubuntu/Dokument/GitHub/STM32-Computer/Firmware/STM32-Computer-Firmware/CA7/optee-os-3.19.0-r2/optee-os-stm32mp-3.19.0-stm32mp-r2/lib/libutee/tee_api.c:279
     e58:	a801      	add	r0, sp, #4
     e5a:	f000 ef80 	blx	1d5c <_utee_mask_cancellation>
/home/lubuntu/Dokument/GitHub/STM32-Computer/Firmware/STM32-Computer-Firmware/CA7/optee-os-3.19.0-r2/optee-os-stm32mp-3.19.0-stm32mp-r2/lib/libutee/tee_api.c:281
     e5e:	b108      	cbz	r0, e64 <TEE_MaskCancellation+0xe>
/home/lubuntu/Dokument/GitHub/STM32-Computer/Firmware/STM32-Computer-Firmware/CA7/optee-os-3.19.0-r2/optee-os-stm32mp-3.19.0-stm32mp-r2/lib/libutee/tee_api.c:282
     e60:	f000 fe02 	bl	1a68 <TEE_Panic>
/home/lubuntu/Dokument/GitHub/STM32-Computer/Firmware/STM32-Computer-Firmware/CA7/optee-os-3.19.0-r2/optee-os-stm32mp-3.19.0-stm32mp-r2/lib/libutee/tee_api.c:284
     e64:	9801      	ldr	r0, [sp, #4]
     e66:	3800      	subs	r0, #0
     e68:	bf18      	it	ne
     e6a:	2001      	movne	r0, #1
     e6c:	b003      	add	sp, #12
     e6e:	f85d fb04 	ldr.w	pc, [sp], #4

00000e72 <TEE_CheckMemoryAccessRights>:
TEE_CheckMemoryAccessRights():
/home/lubuntu/Dokument/GitHub/STM32-Computer/Firmware/STM32-Computer-Firmware/CA7/optee-os-3.19.0-r2/optee-os-stm32mp-3.19.0-stm32mp-r2/lib/libutee/tee_api.c:293
     e72:	b10a      	cbz	r2, e78 <TEE_CheckMemoryAccessRights+0x6>
/home/lubuntu/Dokument/GitHub/STM32-Computer/Firmware/STM32-Computer-Firmware/CA7/optee-os-3.19.0-r2/optee-os-stm32mp-3.19.0-stm32mp-r2/lib/libutee/tee_api.c:297
     e74:	f008 bf48 	b.w	9d08 <___utee_check_access_rights_from_thumb>
/home/lubuntu/Dokument/GitHub/STM32-Computer/Firmware/STM32-Computer-Firmware/CA7/optee-os-3.19.0-r2/optee-os-stm32mp-3.19.0-stm32mp-r2/lib/libutee/tee_api.c:309
     e78:	4610      	mov	r0, r2
     e7a:	4770      	bx	lr

00000e7c <copy_param>:
copy_param():
/home/lubuntu/Dokument/GitHub/STM32-Computer/Firmware/STM32-Computer-Firmware/CA7/optee-os-3.19.0-r2/optee-os-stm32mp-3.19.0-stm32mp-r2/lib/libutee/tee_api.c:29
     e7c:	e92d 4ff0 	stmdb	sp!, {r4, r5, r6, r7, r8, r9, sl, fp, lr}
/home/lubuntu/Dokument/GitHub/STM32-Computer/Firmware/STM32-Computer-Firmware/CA7/optee-os-3.19.0-r2/optee-os-stm32mp-3.19.0-stm32mp-r2/lib/libutee/tee_api.c:34
     e80:	2500      	movs	r5, #0
/home/lubuntu/Dokument/GitHub/STM32-Computer/Firmware/STM32-Computer-Firmware/CA7/optee-os-3.19.0-r2/optee-os-stm32mp-3.19.0-stm32mp-r2/lib/libutee/tee_api.c:29
     e82:	ed2d 8b02 	vpush	{d8}
/home/lubuntu/Dokument/GitHub/STM32-Computer/Firmware/STM32-Computer-Firmware/CA7/optee-os-3.19.0-r2/optee-os-stm32mp-3.19.0-stm32mp-r2/lib/libutee/tee_api.c:45
     e86:	601d      	str	r5, [r3, #0]
/home/lubuntu/Dokument/GitHub/STM32-Computer/Firmware/STM32-Computer-Firmware/CA7/optee-os-3.19.0-r2/optee-os-stm32mp-3.19.0-stm32mp-r2/lib/libutee/tee_api.c:29
     e88:	b085      	sub	sp, #20
     e8a:	4699      	mov	r9, r3
     e8c:	4604      	mov	r4, r0
/home/lubuntu/Dokument/GitHub/STM32-Computer/Firmware/STM32-Computer-Firmware/CA7/optee-os-3.19.0-r2/optee-os-stm32mp-3.19.0-stm32mp-r2/lib/libutee/tee_api.c:46
     e8e:	9b10      	ldr	r3, [sp, #64]	@ 0x40
/home/lubuntu/Dokument/GitHub/STM32-Computer/Firmware/STM32-Computer-Firmware/CA7/optee-os-3.19.0-r2/optee-os-stm32mp-3.19.0-stm32mp-r2/lib/libutee/tee_api.c:29
     e90:	4688      	mov	r8, r1
/home/lubuntu/Dokument/GitHub/STM32-Computer/Firmware/STM32-Computer-Firmware/CA7/optee-os-3.19.0-r2/optee-os-stm32mp-3.19.0-stm32mp-r2/lib/libutee/tee_api.c:34
     e92:	9503      	str	r5, [sp, #12]
/home/lubuntu/Dokument/GitHub/STM32-Computer/Firmware/STM32-Computer-Firmware/CA7/optee-os-3.19.0-r2/optee-os-stm32mp-3.19.0-stm32mp-r2/lib/libutee/tee_api.c:29
     e94:	4617      	mov	r7, r2
/home/lubuntu/Dokument/GitHub/STM32-Computer/Firmware/STM32-Computer-Firmware/CA7/optee-os-3.19.0-r2/optee-os-stm32mp-3.19.0-stm32mp-r2/lib/libutee/tee_api.c:46
     e96:	601d      	str	r5, [r3, #0]
/home/lubuntu/Dokument/GitHub/STM32-Computer/Firmware/STM32-Computer-Firmware/CA7/optee-os-3.19.0-r2/optee-os-stm32mp-3.19.0-stm32mp-r2/lib/libutee/tee_api.c:47
     e98:	462e      	mov	r6, r5
/home/lubuntu/Dokument/GitHub/STM32-Computer/Firmware/STM32-Computer-Firmware/CA7/optee-os-3.19.0-r2/optee-os-stm32mp-3.19.0-stm32mp-r2/lib/libutee/tee_api.c:48
     e9a:	46ab      	mov	fp, r5
/home/lubuntu/Dokument/GitHub/STM32-Computer/Firmware/STM32-Computer-Firmware/CA7/optee-os-3.19.0-r2/optee-os-stm32mp-3.19.0-stm32mp-r2/lib/libutee/tee_api.c:54
     e9c:	f102 0a04 	add.w	sl, r2, #4
/home/lubuntu/Dokument/GitHub/STM32-Computer/Firmware/STM32-Computer-Firmware/CA7/optee-os-3.19.0-r2/optee-os-stm32mp-3.19.0-stm32mp-r2/lib/libutee/tee_api.c:49
     ea0:	00b2      	lsls	r2, r6, #2
/home/lubuntu/Dokument/GitHub/STM32-Computer/Firmware/STM32-Computer-Firmware/CA7/optee-os-3.19.0-r2/optee-os-stm32mp-3.19.0-stm32mp-r2/lib/libutee/tee_api.c:48
     ea2:	9b11      	ldr	r3, [sp, #68]	@ 0x44
/home/lubuntu/Dokument/GitHub/STM32-Computer/Firmware/STM32-Computer-Firmware/CA7/optee-os-3.19.0-r2/optee-os-stm32mp-3.19.0-stm32mp-r2/lib/libutee/tee_api.c:49
     ea4:	fa28 f202 	lsr.w	r2, r8, r2
/home/lubuntu/Dokument/GitHub/STM32-Computer/Firmware/STM32-Computer-Firmware/CA7/optee-os-3.19.0-r2/optee-os-stm32mp-3.19.0-stm32mp-r2/lib/libutee/tee_api.c:48
     ea8:	f843 b026 	str.w	fp, [r3, r6, lsl #2]
/home/lubuntu/Dokument/GitHub/STM32-Computer/Firmware/STM32-Computer-Firmware/CA7/optee-os-3.19.0-r2/optee-os-stm32mp-3.19.0-stm32mp-r2/lib/libutee/tee_api.c:49
     eac:	f002 020f 	and.w	r2, r2, #15
     eb0:	3a05      	subs	r2, #5
     eb2:	2a02      	cmp	r2, #2
     eb4:	d812      	bhi.n	edc <copy_param+0x60>
/home/lubuntu/Dokument/GitHub/STM32-Computer/Firmware/STM32-Computer-Firmware/CA7/optee-os-3.19.0-r2/optee-os-stm32mp-3.19.0-stm32mp-r2/lib/libutee/tee_api.c:53
     eb6:	f857 1036 	ldr.w	r1, [r7, r6, lsl #3]
/home/lubuntu/Dokument/GitHub/STM32-Computer/Firmware/STM32-Computer-Firmware/CA7/optee-os-3.19.0-r2/optee-os-stm32mp-3.19.0-stm32mp-r2/lib/libutee/tee_api.c:64
     eba:	b179      	cbz	r1, edc <copy_param+0x60>
/home/lubuntu/Dokument/GitHub/STM32-Computer/Firmware/STM32-Computer-Firmware/CA7/optee-os-3.19.0-r2/optee-os-stm32mp-3.19.0-stm32mp-r2/lib/libutee/tee_api.c:54 (discriminator 1)
     ebc:	f85a 2036 	ldr.w	r2, [sl, r6, lsl #3]
/home/lubuntu/Dokument/GitHub/STM32-Computer/Firmware/STM32-Computer-Firmware/CA7/optee-os-3.19.0-r2/optee-os-stm32mp-3.19.0-stm32mp-r2/lib/libutee/tee_api.c:64 (discriminator 1)
     ec0:	b162      	cbz	r2, edc <copy_param+0x60>
/home/lubuntu/Dokument/GitHub/STM32-Computer/Firmware/STM32-Computer-Firmware/CA7/optee-os-3.19.0-r2/optee-os-stm32mp-3.19.0-stm32mp-r2/lib/libutee/tee_api.c:65 (discriminator 2)
     ec2:	9201      	str	r2, [sp, #4]
     ec4:	2001      	movs	r0, #1
     ec6:	f7ff ffd4 	bl	e72 <TEE_CheckMemoryAccessRights>
/home/lubuntu/Dokument/GitHub/STM32-Computer/Firmware/STM32-Computer-Firmware/CA7/optee-os-3.19.0-r2/optee-os-stm32mp-3.19.0-stm32mp-r2/lib/libutee/tee_api.c:64 (discriminator 2)
     eca:	b938      	cbnz	r0, edc <copy_param+0x60>
/home/lubuntu/Dokument/GitHub/STM32-Computer/Firmware/STM32-Computer-Firmware/CA7/optee-os-3.19.0-r2/optee-os-stm32mp-3.19.0-stm32mp-r2/lib/libutee/tee_api.c:67
     ecc:	9a01      	ldr	r2, [sp, #4]
/home/lubuntu/Dokument/GitHub/STM32-Computer/Firmware/STM32-Computer-Firmware/CA7/optee-os-3.19.0-r2/optee-os-stm32mp-3.19.0-stm32mp-r2/lib/libutee/tee_api.c:66
     ece:	a903      	add	r1, sp, #12
     ed0:	2001      	movs	r0, #1
     ed2:	5470      	strb	r0, [r6, r1]
/home/lubuntu/Dokument/GitHub/STM32-Computer/Firmware/STM32-Computer-Firmware/CA7/optee-os-3.19.0-r2/optee-os-stm32mp-3.19.0-stm32mp-r2/lib/libutee/tee_api.c:67
     ed4:	3207      	adds	r2, #7
     ed6:	f022 0207 	bic.w	r2, r2, #7
     eda:	4415      	add	r5, r2
/home/lubuntu/Dokument/GitHub/STM32-Computer/Firmware/STM32-Computer-Firmware/CA7/optee-os-3.19.0-r2/optee-os-stm32mp-3.19.0-stm32mp-r2/lib/libutee/tee_api.c:47 (discriminator 2)
     edc:	3601      	adds	r6, #1
     ede:	2e04      	cmp	r6, #4
     ee0:	d1de      	bne.n	ea0 <copy_param+0x24>
/home/lubuntu/Dokument/GitHub/STM32-Computer/Firmware/STM32-Computer-Firmware/CA7/optee-os-3.19.0-r2/optee-os-stm32mp-3.19.0-stm32mp-r2/lib/libutee/tee_api.c:75
     ee2:	b315      	cbz	r5, f2a <copy_param+0xae>
/home/lubuntu/Dokument/GitHub/STM32-Computer/Firmware/STM32-Computer-Firmware/CA7/optee-os-3.19.0-r2/optee-os-stm32mp-3.19.0-stm32mp-r2/lib/libutee/tee_api.c:76
     ee4:	4631      	mov	r1, r6
     ee6:	4628      	mov	r0, r5
     ee8:	f000 fe34 	bl	1b54 <tee_map_zi>
/home/lubuntu/Dokument/GitHub/STM32-Computer/Firmware/STM32-Computer-Firmware/CA7/optee-os-3.19.0-r2/optee-os-stm32mp-3.19.0-stm32mp-r2/lib/libutee/tee_api.c:77
     eec:	4603      	mov	r3, r0
     eee:	2800      	cmp	r0, #0
     ef0:	d052      	beq.n	f98 <copy_param+0x11c>
/home/lubuntu/Dokument/GitHub/STM32-Computer/Firmware/STM32-Computer-Firmware/CA7/optee-os-3.19.0-r2/optee-os-stm32mp-3.19.0-stm32mp-r2/lib/libutee/tee_api.c:80
     ef2:	9a10      	ldr	r2, [sp, #64]	@ 0x40
/home/lubuntu/Dokument/GitHub/STM32-Computer/Firmware/STM32-Computer-Firmware/CA7/optee-os-3.19.0-r2/optee-os-stm32mp-3.19.0-stm32mp-r2/lib/libutee/tee_api.c:79
     ef4:	f8c9 0000 	str.w	r0, [r9]
/home/lubuntu/Dokument/GitHub/STM32-Computer/Firmware/STM32-Computer-Firmware/CA7/optee-os-3.19.0-r2/optee-os-stm32mp-3.19.0-stm32mp-r2/lib/libutee/tee_api.c:80
     ef8:	6015      	str	r5, [r2, #0]
/home/lubuntu/Dokument/GitHub/STM32-Computer/Firmware/STM32-Computer-Firmware/CA7/optee-os-3.19.0-r2/optee-os-stm32mp-3.19.0-stm32mp-r2/lib/libutee/tee_api.c:109
     efa:	ef80 8010 	vmov.i32	d8, #0	@ 0x00000000
/home/lubuntu/Dokument/GitHub/STM32-Computer/Firmware/STM32-Computer-Firmware/CA7/optee-os-3.19.0-r2/optee-os-stm32mp-3.19.0-stm32mp-r2/lib/libutee/tee_api.c:83
     efe:	2500      	movs	r5, #0
     f00:	463e      	mov	r6, r7
/home/lubuntu/Dokument/GitHub/STM32-Computer/Firmware/STM32-Computer-Firmware/CA7/optee-os-3.19.0-r2/optee-os-stm32mp-3.19.0-stm32mp-r2/lib/libutee/tee_api.c:88
     f02:	46a9      	mov	r9, r5
/home/lubuntu/Dokument/GitHub/STM32-Computer/Firmware/STM32-Computer-Firmware/CA7/optee-os-3.19.0-r2/optee-os-stm32mp-3.19.0-stm32mp-r2/lib/libutee/tee_api.c:89
     f04:	46aa      	mov	sl, r5
/home/lubuntu/Dokument/GitHub/STM32-Computer/Firmware/STM32-Computer-Firmware/CA7/optee-os-3.19.0-r2/optee-os-stm32mp-3.19.0-stm32mp-r2/lib/libutee/tee_api.c:83
     f06:	e9c4 8500 	strd	r8, r5, [r4]
/home/lubuntu/Dokument/GitHub/STM32-Computer/Firmware/STM32-Computer-Firmware/CA7/optee-os-3.19.0-r2/optee-os-stm32mp-3.19.0-stm32mp-r2/lib/libutee/tee_api.c:85
     f0a:	00a9      	lsls	r1, r5, #2
     f0c:	fa28 f101 	lsr.w	r1, r8, r1
     f10:	f001 020f 	and.w	r2, r1, #15
     f14:	2a03      	cmp	r2, #3
     f16:	d021      	beq.n	f5c <copy_param+0xe0>
     f18:	f011 0f0c 	tst.w	r1, #12
     f1c:	d107      	bne.n	f2e <copy_param+0xb2>
     f1e:	2a01      	cmp	r2, #1
     f20:	d01c      	beq.n	f5c <copy_param+0xe0>
/home/lubuntu/Dokument/GitHub/STM32-Computer/Firmware/STM32-Computer-Firmware/CA7/optee-os-3.19.0-r2/optee-os-stm32mp-3.19.0-stm32mp-r2/lib/libutee/tee_api.c:111
     f22:	2200      	movs	r2, #0
/home/lubuntu/Dokument/GitHub/STM32-Computer/Firmware/STM32-Computer-Firmware/CA7/optee-os-3.19.0-r2/optee-os-stm32mp-3.19.0-stm32mp-r2/lib/libutee/tee_api.c:109
     f24:	ed84 8b02 	vstr	d8, [r4, #8]
/home/lubuntu/Dokument/GitHub/STM32-Computer/Firmware/STM32-Computer-Firmware/CA7/optee-os-3.19.0-r2/optee-os-stm32mp-3.19.0-stm32mp-r2/lib/libutee/tee_api.c:111
     f28:	e01d      	b.n	f66 <copy_param+0xea>
/home/lubuntu/Dokument/GitHub/STM32-Computer/Firmware/STM32-Computer-Firmware/CA7/optee-os-3.19.0-r2/optee-os-stm32mp-3.19.0-stm32mp-r2/lib/libutee/tee_api.c:31
     f2a:	462b      	mov	r3, r5
     f2c:	e7e5      	b.n	efa <copy_param+0x7e>
/home/lubuntu/Dokument/GitHub/STM32-Computer/Firmware/STM32-Computer-Firmware/CA7/optee-os-3.19.0-r2/optee-os-stm32mp-3.19.0-stm32mp-r2/lib/libutee/tee_api.c:85
     f2e:	1f51      	subs	r1, r2, #5
     f30:	2902      	cmp	r1, #2
     f32:	d8f6      	bhi.n	f22 <copy_param+0xa6>
/home/lubuntu/Dokument/GitHub/STM32-Computer/Firmware/STM32-Computer-Firmware/CA7/optee-os-3.19.0-r2/optee-os-stm32mp-3.19.0-stm32mp-r2/lib/libutee/tee_api.c:94
     f34:	f8d6 b004 	ldr.w	fp, [r6, #4]
/home/lubuntu/Dokument/GitHub/STM32-Computer/Firmware/STM32-Computer-Firmware/CA7/optee-os-3.19.0-r2/optee-os-stm32mp-3.19.0-stm32mp-r2/lib/libutee/tee_api.c:95
     f38:	a903      	add	r1, sp, #12
     f3a:	5c69      	ldrb	r1, [r5, r1]
     f3c:	b349      	cbz	r1, f92 <copy_param+0x116>
/home/lubuntu/Dokument/GitHub/STM32-Computer/Firmware/STM32-Computer-Firmware/CA7/optee-os-3.19.0-r2/optee-os-stm32mp-3.19.0-stm32mp-r2/lib/libutee/tee_api.c:97
     f3e:	9911      	ldr	r1, [sp, #68]	@ 0x44
/home/lubuntu/Dokument/GitHub/STM32-Computer/Firmware/STM32-Computer-Firmware/CA7/optee-os-3.19.0-r2/optee-os-stm32mp-3.19.0-stm32mp-r2/lib/libutee/tee_api.c:99
     f40:	2a06      	cmp	r2, #6
/home/lubuntu/Dokument/GitHub/STM32-Computer/Firmware/STM32-Computer-Firmware/CA7/optee-os-3.19.0-r2/optee-os-stm32mp-3.19.0-stm32mp-r2/lib/libutee/tee_api.c:97
     f42:	f841 3025 	str.w	r3, [r1, r5, lsl #2]
/home/lubuntu/Dokument/GitHub/STM32-Computer/Firmware/STM32-Computer-Firmware/CA7/optee-os-3.19.0-r2/optee-os-stm32mp-3.19.0-stm32mp-r2/lib/libutee/tee_api.c:99
     f46:	d11c      	bne.n	f82 <copy_param+0x106>
/home/lubuntu/Dokument/GitHub/STM32-Computer/Firmware/STM32-Computer-Firmware/CA7/optee-os-3.19.0-r2/optee-os-stm32mp-3.19.0-stm32mp-r2/lib/libutee/tee_api.c:98
     f48:	f10b 0207 	add.w	r2, fp, #7
     f4c:	4619      	mov	r1, r3
     f4e:	f022 0207 	bic.w	r2, r2, #7
     f52:	4413      	add	r3, r2
/home/lubuntu/Dokument/GitHub/STM32-Computer/Firmware/STM32-Computer-Firmware/CA7/optee-os-3.19.0-r2/optee-os-stm32mp-3.19.0-stm32mp-r2/lib/libutee/tee_api.c:106
     f54:	465a      	mov	r2, fp
/home/lubuntu/Dokument/GitHub/STM32-Computer/Firmware/STM32-Computer-Firmware/CA7/optee-os-3.19.0-r2/optee-os-stm32mp-3.19.0-stm32mp-r2/lib/libutee/tee_api.c:105
     f56:	e9c4 1902 	strd	r1, r9, [r4, #8]
/home/lubuntu/Dokument/GitHub/STM32-Computer/Firmware/STM32-Computer-Firmware/CA7/optee-os-3.19.0-r2/optee-os-stm32mp-3.19.0-stm32mp-r2/lib/libutee/tee_api.c:107
     f5a:	e004      	b.n	f66 <copy_param+0xea>
/home/lubuntu/Dokument/GitHub/STM32-Computer/Firmware/STM32-Computer-Firmware/CA7/optee-os-3.19.0-r2/optee-os-stm32mp-3.19.0-stm32mp-r2/lib/libutee/tee_api.c:88
     f5c:	f857 2035 	ldr.w	r2, [r7, r5, lsl #3]
     f60:	e9c4 2902 	strd	r2, r9, [r4, #8]
/home/lubuntu/Dokument/GitHub/STM32-Computer/Firmware/STM32-Computer-Firmware/CA7/optee-os-3.19.0-r2/optee-os-stm32mp-3.19.0-stm32mp-r2/lib/libutee/tee_api.c:89
     f64:	6872      	ldr	r2, [r6, #4]
/home/lubuntu/Dokument/GitHub/STM32-Computer/Firmware/STM32-Computer-Firmware/CA7/optee-os-3.19.0-r2/optee-os-stm32mp-3.19.0-stm32mp-r2/lib/libutee/tee_api.c:84 (discriminator 2)
     f66:	3501      	adds	r5, #1
     f68:	3608      	adds	r6, #8
     f6a:	2d04      	cmp	r5, #4
/home/lubuntu/Dokument/GitHub/STM32-Computer/Firmware/STM32-Computer-Firmware/CA7/optee-os-3.19.0-r2/optee-os-stm32mp-3.19.0-stm32mp-r2/lib/libutee/tee_api.c:110 (discriminator 2)
     f6c:	e9c4 2a04 	strd	r2, sl, [r4, #16]
/home/lubuntu/Dokument/GitHub/STM32-Computer/Firmware/STM32-Computer-Firmware/CA7/optee-os-3.19.0-r2/optee-os-stm32mp-3.19.0-stm32mp-r2/lib/libutee/tee_api.c:84 (discriminator 2)
     f70:	f104 0410 	add.w	r4, r4, #16
     f74:	d1c9      	bne.n	f0a <copy_param+0x8e>
/home/lubuntu/Dokument/GitHub/STM32-Computer/Firmware/STM32-Computer-Firmware/CA7/optee-os-3.19.0-r2/optee-os-stm32mp-3.19.0-stm32mp-r2/lib/libutee/tee_api.c:115
     f76:	2000      	movs	r0, #0
/home/lubuntu/Dokument/GitHub/STM32-Computer/Firmware/STM32-Computer-Firmware/CA7/optee-os-3.19.0-r2/optee-os-stm32mp-3.19.0-stm32mp-r2/lib/libutee/tee_api.c:116
     f78:	b005      	add	sp, #20
     f7a:	ecbd 8b02 	vpop	{d8}
     f7e:	e8bd 8ff0 	ldmia.w	sp!, {r4, r5, r6, r7, r8, r9, sl, fp, pc}
/home/lubuntu/Dokument/GitHub/STM32-Computer/Firmware/STM32-Computer-Firmware/CA7/optee-os-3.19.0-r2/optee-os-stm32mp-3.19.0-stm32mp-r2/lib/libutee/tee_api.c:101
     f82:	f857 1035 	ldr.w	r1, [r7, r5, lsl #3]
     f86:	4618      	mov	r0, r3
     f88:	465a      	mov	r2, fp
     f8a:	f006 fbfb 	bl	7784 <memcpy>
     f8e:	4603      	mov	r3, r0
     f90:	e7da      	b.n	f48 <copy_param+0xcc>
/home/lubuntu/Dokument/GitHub/STM32-Computer/Firmware/STM32-Computer-Firmware/CA7/optee-os-3.19.0-r2/optee-os-stm32mp-3.19.0-stm32mp-r2/lib/libutee/tee_api.c:103
     f92:	f857 1035 	ldr.w	r1, [r7, r5, lsl #3]
     f96:	e7dd      	b.n	f54 <copy_param+0xd8>
/home/lubuntu/Dokument/GitHub/STM32-Computer/Firmware/STM32-Computer-Firmware/CA7/optee-os-3.19.0-r2/optee-os-stm32mp-3.19.0-stm32mp-r2/lib/libutee/tee_api.c:78
     f98:	4800      	ldr	r0, [pc, #0]	@ (f9c <copy_param+0x120>)
     f9a:	e7ed      	b.n	f78 <copy_param+0xfc>
     f9c:	ffff000c 	.word	0xffff000c

00000fa0 <TEE_OpenTASession>:
TEE_OpenTASession():
/home/lubuntu/Dokument/GitHub/STM32-Computer/Firmware/STM32-Computer-Firmware/CA7/optee-os-3.19.0-r2/optee-os-stm32mp-3.19.0-stm32mp-r2/lib/libutee/tee_api.c:160
     fa0:	efc0 0010 	vmov.i32	d16, #0	@ 0x00000000
/home/lubuntu/Dokument/GitHub/STM32-Computer/Firmware/STM32-Computer-Firmware/CA7/optee-os-3.19.0-r2/optee-os-stm32mp-3.19.0-stm32mp-r2/lib/libutee/tee_api.c:154
     fa4:	e92d 47f0 	stmdb	sp!, {r4, r5, r6, r7, r8, r9, sl, lr}
     fa8:	b09c      	sub	sp, #112	@ 0x70
     faa:	461d      	mov	r5, r3
/home/lubuntu/Dokument/GitHub/STM32-Computer/Firmware/STM32-Computer-Firmware/CA7/optee-os-3.19.0-r2/optee-os-stm32mp-3.19.0-stm32mp-r2/lib/libutee/tee_api.c:157
     fac:	2300      	movs	r3, #0
/home/lubuntu/Dokument/GitHub/STM32-Computer/Firmware/STM32-Computer-Firmware/CA7/optee-os-3.19.0-r2/optee-os-stm32mp-3.19.0-stm32mp-r2/lib/libutee/tee_api.c:154
     fae:	f8dd 9090 	ldr.w	r9, [sp, #144]	@ 0x90
/home/lubuntu/Dokument/GitHub/STM32-Computer/Firmware/STM32-Computer-Firmware/CA7/optee-os-3.19.0-r2/optee-os-stm32mp-3.19.0-stm32mp-r2/lib/libutee/tee_api.c:160
     fb2:	ae06      	add	r6, sp, #24
     fb4:	edcd 0b06 	vstr	d16, [sp, #24]
/home/lubuntu/Dokument/GitHub/STM32-Computer/Firmware/STM32-Computer-Firmware/CA7/optee-os-3.19.0-r2/optee-os-stm32mp-3.19.0-stm32mp-r2/lib/libutee/tee_api.c:157
     fb8:	9303      	str	r3, [sp, #12]
/home/lubuntu/Dokument/GitHub/STM32-Computer/Firmware/STM32-Computer-Firmware/CA7/optee-os-3.19.0-r2/optee-os-stm32mp-3.19.0-stm32mp-r2/lib/libutee/tee_api.c:154
     fba:	4607      	mov	r7, r0
     fbc:	4688      	mov	r8, r1
/home/lubuntu/Dokument/GitHub/STM32-Computer/Firmware/STM32-Computer-Firmware/CA7/optee-os-3.19.0-r2/optee-os-stm32mp-3.19.0-stm32mp-r2/lib/libutee/tee_api.c:162
     fbe:	4614      	mov	r4, r2
/home/lubuntu/Dokument/GitHub/STM32-Computer/Firmware/STM32-Computer-Firmware/CA7/optee-os-3.19.0-r2/optee-os-stm32mp-3.19.0-stm32mp-r2/lib/libutee/tee_api.c:160
     fc0:	edc6 0b02 	vstr	d16, [r6, #8]
/home/lubuntu/Dokument/GitHub/STM32-Computer/Firmware/STM32-Computer-Firmware/CA7/optee-os-3.19.0-r2/optee-os-stm32mp-3.19.0-stm32mp-r2/lib/libutee/tee_api.c:162
     fc4:	b11a      	cbz	r2, fce <TEE_OpenTASession+0x2e>
/home/lubuntu/Dokument/GitHub/STM32-Computer/Firmware/STM32-Computer-Firmware/CA7/optee-os-3.19.0-r2/optee-os-stm32mp-3.19.0-stm32mp-r2/lib/libutee/tee_api.c:163
     fc6:	2120      	movs	r1, #32
     fc8:	4628      	mov	r0, r5
     fca:	f000 fd8f 	bl	1aec <__utee_check_inout_annotation>
/home/lubuntu/Dokument/GitHub/STM32-Computer/Firmware/STM32-Computer-Firmware/CA7/optee-os-3.19.0-r2/optee-os-stm32mp-3.19.0-stm32mp-r2/lib/libutee/tee_api.c:166
     fce:	2104      	movs	r1, #4
     fd0:	4648      	mov	r0, r9
/home/lubuntu/Dokument/GitHub/STM32-Computer/Firmware/STM32-Computer-Firmware/CA7/optee-os-3.19.0-r2/optee-os-stm32mp-3.19.0-stm32mp-r2/lib/libutee/tee_api.c:168
     fd2:	f10d 0a28 	add.w	sl, sp, #40	@ 0x28
/home/lubuntu/Dokument/GitHub/STM32-Computer/Firmware/STM32-Computer-Firmware/CA7/optee-os-3.19.0-r2/optee-os-stm32mp-3.19.0-stm32mp-r2/lib/libutee/tee_api.c:166
     fd6:	f000 fd72 	bl	1abe <__utee_check_out_annotation>
/home/lubuntu/Dokument/GitHub/STM32-Computer/Firmware/STM32-Computer-Firmware/CA7/optee-os-3.19.0-r2/optee-os-stm32mp-3.19.0-stm32mp-r2/lib/libutee/tee_api.c:168
     fda:	9601      	str	r6, [sp, #4]
     fdc:	ab05      	add	r3, sp, #20
     fde:	9300      	str	r3, [sp, #0]
     fe0:	4621      	mov	r1, r4
     fe2:	ab04      	add	r3, sp, #16
     fe4:	462a      	mov	r2, r5
     fe6:	4650      	mov	r0, sl
     fe8:	f7ff ff48 	bl	e7c <copy_param>
/home/lubuntu/Dokument/GitHub/STM32-Computer/Firmware/STM32-Computer-Firmware/CA7/optee-os-3.19.0-r2/optee-os-stm32mp-3.19.0-stm32mp-r2/lib/libutee/tee_api.c:169
     fec:	4604      	mov	r4, r0
     fee:	b9b0      	cbnz	r0, 101e <TEE_OpenTASession+0x7e>
/home/lubuntu/Dokument/GitHub/STM32-Computer/Firmware/STM32-Computer-Firmware/CA7/optee-os-3.19.0-r2/optee-os-stm32mp-3.19.0-stm32mp-r2/lib/libutee/tee_api.c:171
     ff0:	9b25      	ldr	r3, [sp, #148]	@ 0x94
     ff2:	4652      	mov	r2, sl
     ff4:	4641      	mov	r1, r8
     ff6:	4638      	mov	r0, r7
     ff8:	9300      	str	r3, [sp, #0]
     ffa:	ab03      	add	r3, sp, #12
     ffc:	f000 ee6e 	blx	1cdc <_utee_open_ta_session>
    1000:	4604      	mov	r4, r0
/home/lubuntu/Dokument/GitHub/STM32-Computer/Firmware/STM32-Computer-Firmware/CA7/optee-os-3.19.0-r2/optee-os-stm32mp-3.19.0-stm32mp-r2/lib/libutee/tee_api.c:173
    1002:	4652      	mov	r2, sl
    1004:	4628      	mov	r0, r5
    1006:	4631      	mov	r1, r6
    1008:	f7ff fecc 	bl	da4 <update_out_param>
/home/lubuntu/Dokument/GitHub/STM32-Computer/Firmware/STM32-Computer-Firmware/CA7/optee-os-3.19.0-r2/optee-os-stm32mp-3.19.0-stm32mp-r2/lib/libutee/tee_api.c:174
    100c:	9804      	ldr	r0, [sp, #16]
    100e:	b128      	cbz	r0, 101c <TEE_OpenTASession+0x7c>
/home/lubuntu/Dokument/GitHub/STM32-Computer/Firmware/STM32-Computer-Firmware/CA7/optee-os-3.19.0-r2/optee-os-stm32mp-3.19.0-stm32mp-r2/lib/libutee/tee_api.c:175
    1010:	9905      	ldr	r1, [sp, #20]
    1012:	f000 fdba 	bl	1b8a <tee_unmap>
/home/lubuntu/Dokument/GitHub/STM32-Computer/Firmware/STM32-Computer-Firmware/CA7/optee-os-3.19.0-r2/optee-os-stm32mp-3.19.0-stm32mp-r2/lib/libutee/tee_api.c:177
    1016:	b108      	cbz	r0, 101c <TEE_OpenTASession+0x7c>
/home/lubuntu/Dokument/GitHub/STM32-Computer/Firmware/STM32-Computer-Firmware/CA7/optee-os-3.19.0-r2/optee-os-stm32mp-3.19.0-stm32mp-r2/lib/libutee/tee_api.c:178
    1018:	f000 fd26 	bl	1a68 <TEE_Panic>
/home/lubuntu/Dokument/GitHub/STM32-Computer/Firmware/STM32-Computer-Firmware/CA7/optee-os-3.19.0-r2/optee-os-stm32mp-3.19.0-stm32mp-r2/lib/libutee/tee_api.c:187
    101c:	b10c      	cbz	r4, 1022 <TEE_OpenTASession+0x82>
/home/lubuntu/Dokument/GitHub/STM32-Computer/Firmware/STM32-Computer-Firmware/CA7/optee-os-3.19.0-r2/optee-os-stm32mp-3.19.0-stm32mp-r2/lib/libutee/tee_api.c:188
    101e:	2300      	movs	r3, #0
    1020:	9303      	str	r3, [sp, #12]
/home/lubuntu/Dokument/GitHub/STM32-Computer/Firmware/STM32-Computer-Firmware/CA7/optee-os-3.19.0-r2/optee-os-stm32mp-3.19.0-stm32mp-r2/lib/libutee/tee_api.c:190
    1022:	9b03      	ldr	r3, [sp, #12]
/home/lubuntu/Dokument/GitHub/STM32-Computer/Firmware/STM32-Computer-Firmware/CA7/optee-os-3.19.0-r2/optee-os-stm32mp-3.19.0-stm32mp-r2/lib/libutee/tee_api.c:192
    1024:	4620      	mov	r0, r4
/home/lubuntu/Dokument/GitHub/STM32-Computer/Firmware/STM32-Computer-Firmware/CA7/optee-os-3.19.0-r2/optee-os-stm32mp-3.19.0-stm32mp-r2/lib/libutee/tee_api.c:190
    1026:	f8c9 3000 	str.w	r3, [r9]
/home/lubuntu/Dokument/GitHub/STM32-Computer/Firmware/STM32-Computer-Firmware/CA7/optee-os-3.19.0-r2/optee-os-stm32mp-3.19.0-stm32mp-r2/lib/libutee/tee_api.c:192
    102a:	b01c      	add	sp, #112	@ 0x70
    102c:	e8bd 87f0 	ldmia.w	sp!, {r4, r5, r6, r7, r8, r9, sl, pc}

00001030 <TEE_InvokeTACommand>:
TEE_InvokeTACommand():
/home/lubuntu/Dokument/GitHub/STM32-Computer/Firmware/STM32-Computer-Firmware/CA7/optee-os-3.19.0-r2/optee-os-stm32mp-3.19.0-stm32mp-r2/lib/libutee/tee_api.c:215
    1030:	efc0 0010 	vmov.i32	d16, #0	@ 0x00000000
/home/lubuntu/Dokument/GitHub/STM32-Computer/Firmware/STM32-Computer-Firmware/CA7/optee-os-3.19.0-r2/optee-os-stm32mp-3.19.0-stm32mp-r2/lib/libutee/tee_api.c:209
    1034:	e92d 4ff0 	stmdb	sp!, {r4, r5, r6, r7, r8, r9, sl, fp, lr}
    1038:	b09d      	sub	sp, #116	@ 0x74
    103a:	4693      	mov	fp, r2
/home/lubuntu/Dokument/GitHub/STM32-Computer/Firmware/STM32-Computer-Firmware/CA7/optee-os-3.19.0-r2/optee-os-stm32mp-3.19.0-stm32mp-r2/lib/libutee/tee_api.c:211
    103c:	2203      	movs	r2, #3
    103e:	9203      	str	r2, [sp, #12]
/home/lubuntu/Dokument/GitHub/STM32-Computer/Firmware/STM32-Computer-Firmware/CA7/optee-os-3.19.0-r2/optee-os-stm32mp-3.19.0-stm32mp-r2/lib/libutee/tee_api.c:215
    1040:	af06      	add	r7, sp, #24
    1042:	edcd 0b06 	vstr	d16, [sp, #24]
/home/lubuntu/Dokument/GitHub/STM32-Computer/Firmware/STM32-Computer-Firmware/CA7/optee-os-3.19.0-r2/optee-os-stm32mp-3.19.0-stm32mp-r2/lib/libutee/tee_api.c:209
    1046:	4681      	mov	r9, r0
    1048:	468a      	mov	sl, r1
    104a:	e9dd 6526 	ldrd	r6, r5, [sp, #152]	@ 0x98
/home/lubuntu/Dokument/GitHub/STM32-Computer/Firmware/STM32-Computer-Firmware/CA7/optee-os-3.19.0-r2/optee-os-stm32mp-3.19.0-stm32mp-r2/lib/libutee/tee_api.c:217
    104e:	461c      	mov	r4, r3
/home/lubuntu/Dokument/GitHub/STM32-Computer/Firmware/STM32-Computer-Firmware/CA7/optee-os-3.19.0-r2/optee-os-stm32mp-3.19.0-stm32mp-r2/lib/libutee/tee_api.c:215
    1050:	edc7 0b02 	vstr	d16, [r7, #8]
/home/lubuntu/Dokument/GitHub/STM32-Computer/Firmware/STM32-Computer-Firmware/CA7/optee-os-3.19.0-r2/optee-os-stm32mp-3.19.0-stm32mp-r2/lib/libutee/tee_api.c:217
    1054:	b11b      	cbz	r3, 105e <TEE_InvokeTACommand+0x2e>
/home/lubuntu/Dokument/GitHub/STM32-Computer/Firmware/STM32-Computer-Firmware/CA7/optee-os-3.19.0-r2/optee-os-stm32mp-3.19.0-stm32mp-r2/lib/libutee/tee_api.c:218
    1056:	2120      	movs	r1, #32
    1058:	4630      	mov	r0, r6
    105a:	f000 fd47 	bl	1aec <__utee_check_inout_annotation>
/home/lubuntu/Dokument/GitHub/STM32-Computer/Firmware/STM32-Computer-Firmware/CA7/optee-os-3.19.0-r2/optee-os-stm32mp-3.19.0-stm32mp-r2/lib/libutee/tee_api.c:221
    105e:	b11d      	cbz	r5, 1068 <TEE_InvokeTACommand+0x38>
/home/lubuntu/Dokument/GitHub/STM32-Computer/Firmware/STM32-Computer-Firmware/CA7/optee-os-3.19.0-r2/optee-os-stm32mp-3.19.0-stm32mp-r2/lib/libutee/tee_api.c:222
    1060:	2104      	movs	r1, #4
    1062:	4628      	mov	r0, r5
    1064:	f000 fd2b 	bl	1abe <__utee_check_out_annotation>
/home/lubuntu/Dokument/GitHub/STM32-Computer/Firmware/STM32-Computer-Firmware/CA7/optee-os-3.19.0-r2/optee-os-stm32mp-3.19.0-stm32mp-r2/lib/libutee/tee_api.c:225
    1068:	9701      	str	r7, [sp, #4]
    106a:	ab05      	add	r3, sp, #20
    106c:	9300      	str	r3, [sp, #0]
    106e:	f10d 0828 	add.w	r8, sp, #40	@ 0x28
    1072:	4621      	mov	r1, r4
    1074:	ab04      	add	r3, sp, #16
    1076:	4632      	mov	r2, r6
    1078:	4640      	mov	r0, r8
    107a:	f7ff feff 	bl	e7c <copy_param>
/home/lubuntu/Dokument/GitHub/STM32-Computer/Firmware/STM32-Computer-Firmware/CA7/optee-os-3.19.0-r2/optee-os-stm32mp-3.19.0-stm32mp-r2/lib/libutee/tee_api.c:226
    107e:	4604      	mov	r4, r0
    1080:	b140      	cbz	r0, 1094 <TEE_InvokeTACommand+0x64>
/home/lubuntu/Dokument/GitHub/STM32-Computer/Firmware/STM32-Computer-Firmware/CA7/optee-os-3.19.0-r2/optee-os-stm32mp-3.19.0-stm32mp-r2/lib/libutee/tee_api.c:241
    1082:	9b03      	ldr	r3, [sp, #12]
/home/lubuntu/Dokument/GitHub/STM32-Computer/Firmware/STM32-Computer-Firmware/CA7/optee-os-3.19.0-r2/optee-os-stm32mp-3.19.0-stm32mp-r2/lib/libutee/tee_api.c:240
    1084:	b105      	cbz	r5, 1088 <TEE_InvokeTACommand+0x58>
/home/lubuntu/Dokument/GitHub/STM32-Computer/Firmware/STM32-Computer-Firmware/CA7/optee-os-3.19.0-r2/optee-os-stm32mp-3.19.0-stm32mp-r2/lib/libutee/tee_api.c:241
    1086:	602b      	str	r3, [r5, #0]
/home/lubuntu/Dokument/GitHub/STM32-Computer/Firmware/STM32-Computer-Firmware/CA7/optee-os-3.19.0-r2/optee-os-stm32mp-3.19.0-stm32mp-r2/lib/libutee/tee_api.c:243
    1088:	2b04      	cmp	r3, #4
    108a:	d120      	bne.n	10ce <TEE_InvokeTACommand+0x9e>
/home/lubuntu/Dokument/GitHub/STM32-Computer/Firmware/STM32-Computer-Firmware/CA7/optee-os-3.19.0-r2/optee-os-stm32mp-3.19.0-stm32mp-r2/lib/libutee/tee_api.c:252
    108c:	4620      	mov	r0, r4
    108e:	b01d      	add	sp, #116	@ 0x74
    1090:	e8bd 8ff0 	ldmia.w	sp!, {r4, r5, r6, r7, r8, r9, sl, fp, pc}
/home/lubuntu/Dokument/GitHub/STM32-Computer/Firmware/STM32-Computer-Firmware/CA7/optee-os-3.19.0-r2/optee-os-stm32mp-3.19.0-stm32mp-r2/lib/libutee/tee_api.c:228
    1094:	ab03      	add	r3, sp, #12
    1096:	465a      	mov	r2, fp
    1098:	9300      	str	r3, [sp, #0]
    109a:	4651      	mov	r1, sl
    109c:	4643      	mov	r3, r8
    109e:	4648      	mov	r0, r9
    10a0:	f000 ee32 	blx	1d08 <_utee_invoke_ta_command>
    10a4:	4604      	mov	r4, r0
/home/lubuntu/Dokument/GitHub/STM32-Computer/Firmware/STM32-Computer-Firmware/CA7/optee-os-3.19.0-r2/optee-os-stm32mp-3.19.0-stm32mp-r2/lib/libutee/tee_api.c:231
    10a6:	4642      	mov	r2, r8
    10a8:	4630      	mov	r0, r6
    10aa:	4639      	mov	r1, r7
    10ac:	f7ff fe7a 	bl	da4 <update_out_param>
/home/lubuntu/Dokument/GitHub/STM32-Computer/Firmware/STM32-Computer-Firmware/CA7/optee-os-3.19.0-r2/optee-os-stm32mp-3.19.0-stm32mp-r2/lib/libutee/tee_api.c:232
    10b0:	9804      	ldr	r0, [sp, #16]
    10b2:	b128      	cbz	r0, 10c0 <TEE_InvokeTACommand+0x90>
/home/lubuntu/Dokument/GitHub/STM32-Computer/Firmware/STM32-Computer-Firmware/CA7/optee-os-3.19.0-r2/optee-os-stm32mp-3.19.0-stm32mp-r2/lib/libutee/tee_api.c:233
    10b4:	9905      	ldr	r1, [sp, #20]
    10b6:	f000 fd68 	bl	1b8a <tee_unmap>
/home/lubuntu/Dokument/GitHub/STM32-Computer/Firmware/STM32-Computer-Firmware/CA7/optee-os-3.19.0-r2/optee-os-stm32mp-3.19.0-stm32mp-r2/lib/libutee/tee_api.c:235
    10ba:	b108      	cbz	r0, 10c0 <TEE_InvokeTACommand+0x90>
/home/lubuntu/Dokument/GitHub/STM32-Computer/Firmware/STM32-Computer-Firmware/CA7/optee-os-3.19.0-r2/optee-os-stm32mp-3.19.0-stm32mp-r2/lib/libutee/tee_api.c:236
    10bc:	f000 fcd4 	bl	1a68 <TEE_Panic>
/home/lubuntu/Dokument/GitHub/STM32-Computer/Firmware/STM32-Computer-Firmware/CA7/optee-os-3.19.0-r2/optee-os-stm32mp-3.19.0-stm32mp-r2/lib/libutee/tee_api.c:241
    10c0:	9b03      	ldr	r3, [sp, #12]
/home/lubuntu/Dokument/GitHub/STM32-Computer/Firmware/STM32-Computer-Firmware/CA7/optee-os-3.19.0-r2/optee-os-stm32mp-3.19.0-stm32mp-r2/lib/libutee/tee_api.c:240
    10c2:	b105      	cbz	r5, 10c6 <TEE_InvokeTACommand+0x96>
/home/lubuntu/Dokument/GitHub/STM32-Computer/Firmware/STM32-Computer-Firmware/CA7/optee-os-3.19.0-r2/optee-os-stm32mp-3.19.0-stm32mp-r2/lib/libutee/tee_api.c:241
    10c4:	602b      	str	r3, [r5, #0]
/home/lubuntu/Dokument/GitHub/STM32-Computer/Firmware/STM32-Computer-Firmware/CA7/optee-os-3.19.0-r2/optee-os-stm32mp-3.19.0-stm32mp-r2/lib/libutee/tee_api.c:243
    10c6:	2b04      	cmp	r3, #4
    10c8:	d0e0      	beq.n	108c <TEE_InvokeTACommand+0x5c>
/home/lubuntu/Dokument/GitHub/STM32-Computer/Firmware/STM32-Computer-Firmware/CA7/optee-os-3.19.0-r2/optee-os-stm32mp-3.19.0-stm32mp-r2/lib/libutee/tee_api.c:246
    10ca:	2c00      	cmp	r4, #0
    10cc:	d0de      	beq.n	108c <TEE_InvokeTACommand+0x5c>
/home/lubuntu/Dokument/GitHub/STM32-Computer/Firmware/STM32-Computer-Firmware/CA7/optee-os-3.19.0-r2/optee-os-stm32mp-3.19.0-stm32mp-r2/lib/libutee/tee_api.c:246 (discriminator 1)
    10ce:	4b05      	ldr	r3, [pc, #20]	@ (10e4 <TEE_InvokeTACommand+0xb4>)
    10d0:	429c      	cmp	r4, r3
    10d2:	d0db      	beq.n	108c <TEE_InvokeTACommand+0x5c>
/home/lubuntu/Dokument/GitHub/STM32-Computer/Firmware/STM32-Computer-Firmware/CA7/optee-os-3.19.0-r2/optee-os-stm32mp-3.19.0-stm32mp-r2/lib/libutee/tee_api.c:247
    10d4:	4b04      	ldr	r3, [pc, #16]	@ (10e8 <TEE_InvokeTACommand+0xb8>)
    10d6:	429c      	cmp	r4, r3
    10d8:	d0d8      	beq.n	108c <TEE_InvokeTACommand+0x5c>
/home/lubuntu/Dokument/GitHub/STM32-Computer/Firmware/STM32-Computer-Firmware/CA7/optee-os-3.19.0-r2/optee-os-stm32mp-3.19.0-stm32mp-r2/lib/libutee/tee_api.c:249
    10da:	4620      	mov	r0, r4
    10dc:	f000 fcc4 	bl	1a68 <TEE_Panic>
    10e0:	e7d4      	b.n	108c <TEE_InvokeTACommand+0x5c>
    10e2:	bf00      	nop
    10e4:	ffff000c 	.word	0xffff000c
    10e8:	ffff3024 	.word	0xffff3024

000010ec <TEE_SetInstanceData>:
TEE_SetInstanceData():
/home/lubuntu/Dokument/GitHub/STM32-Computer/Firmware/STM32-Computer-Firmware/CA7/optee-os-3.19.0-r2/optee-os-stm32mp-3.19.0-stm32mp-r2/lib/libutee/tee_api.c:313
    10ec:	4b01      	ldr	r3, [pc, #4]	@ (10f4 <TEE_SetInstanceData+0x8>)
    10ee:	447b      	add	r3, pc
    10f0:	6018      	str	r0, [r3, #0]
/home/lubuntu/Dokument/GitHub/STM32-Computer/Firmware/STM32-Computer-Firmware/CA7/optee-os-3.19.0-r2/optee-os-stm32mp-3.19.0-stm32mp-r2/lib/libutee/tee_api.c:314
    10f2:	4770      	bx	lr
    10f4:	0000b296 	.word	0x0000b296

000010f8 <TEE_GetInstanceData>:
TEE_GetInstanceData():
/home/lubuntu/Dokument/GitHub/STM32-Computer/Firmware/STM32-Computer-Firmware/CA7/optee-os-3.19.0-r2/optee-os-stm32mp-3.19.0-stm32mp-r2/lib/libutee/tee_api.c:319
    10f8:	4b01      	ldr	r3, [pc, #4]	@ (1100 <TEE_GetInstanceData+0x8>)
    10fa:	447b      	add	r3, pc
    10fc:	6818      	ldr	r0, [r3, #0]
    10fe:	4770      	bx	lr
    1100:	0000b28a 	.word	0x0000b28a

00001104 <TEE_MemMove>:
TEE_MemMove():
/home/lubuntu/Dokument/GitHub/STM32-Computer/Firmware/STM32-Computer-Firmware/CA7/optee-os-3.19.0-r2/optee-os-stm32mp-3.19.0-stm32mp-r2/lib/libutee/tee_api.c:323
    1104:	f008 bd98 	b.w	9c38 <memmove>

00001108 <TEE_MemCompare>:
TEE_MemCompare():
/home/lubuntu/Dokument/GitHub/STM32-Computer/Firmware/STM32-Computer-Firmware/CA7/optee-os-3.19.0-r2/optee-os-stm32mp-3.19.0-stm32mp-r2/lib/libutee/tee_api.c:328
    1108:	f008 bdd0 	b.w	9cac <consttime_memcmp>

0000110c <TEE_MemFill>:
TEE_MemFill():
/home/lubuntu/Dokument/GitHub/STM32-Computer/Firmware/STM32-Computer-Firmware/CA7/optee-os-3.19.0-r2/optee-os-stm32mp-3.19.0-stm32mp-r2/lib/libutee/tee_api.c:333
    110c:	f008 ba9b 	b.w	9646 <memset>

00001110 <TEE_GetSystemTime>:
TEE_GetSystemTime():
/home/lubuntu/Dokument/GitHub/STM32-Computer/Firmware/STM32-Computer-Firmware/CA7/optee-os-3.19.0-r2/optee-os-stm32mp-3.19.0-stm32mp-r2/lib/libutee/tee_api.c:339
    1110:	4601      	mov	r1, r0
/home/lubuntu/Dokument/GitHub/STM32-Computer/Firmware/STM32-Computer-Firmware/CA7/optee-os-3.19.0-r2/optee-os-stm32mp-3.19.0-stm32mp-r2/lib/libutee/tee_api.c:340
    1112:	2000      	movs	r0, #0
/home/lubuntu/Dokument/GitHub/STM32-Computer/Firmware/STM32-Computer-Firmware/CA7/optee-os-3.19.0-r2/optee-os-stm32mp-3.19.0-stm32mp-r2/lib/libutee/tee_api.c:339
    1114:	b508      	push	{r3, lr}
/home/lubuntu/Dokument/GitHub/STM32-Computer/Firmware/STM32-Computer-Firmware/CA7/optee-os-3.19.0-r2/optee-os-stm32mp-3.19.0-stm32mp-r2/lib/libutee/tee_api.c:340
    1116:	f000 ee36 	blx	1d84 <_utee_get_time>
/home/lubuntu/Dokument/GitHub/STM32-Computer/Firmware/STM32-Computer-Firmware/CA7/optee-os-3.19.0-r2/optee-os-stm32mp-3.19.0-stm32mp-r2/lib/libutee/tee_api.c:342
    111a:	b118      	cbz	r0, 1124 <TEE_GetSystemTime+0x14>
/home/lubuntu/Dokument/GitHub/STM32-Computer/Firmware/STM32-Computer-Firmware/CA7/optee-os-3.19.0-r2/optee-os-stm32mp-3.19.0-stm32mp-r2/lib/libutee/tee_api.c:344
    111c:	e8bd 4008 	ldmia.w	sp!, {r3, lr}
/home/lubuntu/Dokument/GitHub/STM32-Computer/Firmware/STM32-Computer-Firmware/CA7/optee-os-3.19.0-r2/optee-os-stm32mp-3.19.0-stm32mp-r2/lib/libutee/tee_api.c:343
    1120:	f000 bca2 	b.w	1a68 <TEE_Panic>
/home/lubuntu/Dokument/GitHub/STM32-Computer/Firmware/STM32-Computer-Firmware/CA7/optee-os-3.19.0-r2/optee-os-stm32mp-3.19.0-stm32mp-r2/lib/libutee/tee_api.c:344
    1124:	bd08      	pop	{r3, pc}

00001126 <TEE_Wait>:
TEE_Wait():
/home/lubuntu/Dokument/GitHub/STM32-Computer/Firmware/STM32-Computer-Firmware/CA7/optee-os-3.19.0-r2/optee-os-stm32mp-3.19.0-stm32mp-r2/lib/libutee/tee_api.c:347
    1126:	b510      	push	{r4, lr}
/home/lubuntu/Dokument/GitHub/STM32-Computer/Firmware/STM32-Computer-Firmware/CA7/optee-os-3.19.0-r2/optee-os-stm32mp-3.19.0-stm32mp-r2/lib/libutee/tee_api.c:348
    1128:	f000 ee22 	blx	1d70 <_utee_wait>
/home/lubuntu/Dokument/GitHub/STM32-Computer/Firmware/STM32-Computer-Firmware/CA7/optee-os-3.19.0-r2/optee-os-stm32mp-3.19.0-stm32mp-r2/lib/libutee/tee_api.c:350
    112c:	4604      	mov	r4, r0
    112e:	b120      	cbz	r0, 113a <TEE_Wait+0x14>
/home/lubuntu/Dokument/GitHub/STM32-Computer/Firmware/STM32-Computer-Firmware/CA7/optee-os-3.19.0-r2/optee-os-stm32mp-3.19.0-stm32mp-r2/lib/libutee/tee_api.c:350 (discriminator 1)
    1130:	4b03      	ldr	r3, [pc, #12]	@ (1140 <TEE_Wait+0x1a>)
    1132:	4298      	cmp	r0, r3
    1134:	d001      	beq.n	113a <TEE_Wait+0x14>
/home/lubuntu/Dokument/GitHub/STM32-Computer/Firmware/STM32-Computer-Firmware/CA7/optee-os-3.19.0-r2/optee-os-stm32mp-3.19.0-stm32mp-r2/lib/libutee/tee_api.c:351
    1136:	f000 fc97 	bl	1a68 <TEE_Panic>
/home/lubuntu/Dokument/GitHub/STM32-Computer/Firmware/STM32-Computer-Firmware/CA7/optee-os-3.19.0-r2/optee-os-stm32mp-3.19.0-stm32mp-r2/lib/libutee/tee_api.c:354
    113a:	4620      	mov	r0, r4
    113c:	bd10      	pop	{r4, pc}
    113e:	bf00      	nop
    1140:	ffff0002 	.word	0xffff0002

00001144 <TEE_GetTAPersistentTime>:
TEE_GetTAPersistentTime():
/home/lubuntu/Dokument/GitHub/STM32-Computer/Firmware/STM32-Computer-Firmware/CA7/optee-os-3.19.0-r2/optee-os-stm32mp-3.19.0-stm32mp-r2/lib/libutee/tee_api.c:357
    1144:	b538      	push	{r3, r4, r5, lr}
/home/lubuntu/Dokument/GitHub/STM32-Computer/Firmware/STM32-Computer-Firmware/CA7/optee-os-3.19.0-r2/optee-os-stm32mp-3.19.0-stm32mp-r2/lib/libutee/tee_api.c:360
    1146:	4601      	mov	r1, r0
/home/lubuntu/Dokument/GitHub/STM32-Computer/Firmware/STM32-Computer-Firmware/CA7/optee-os-3.19.0-r2/optee-os-stm32mp-3.19.0-stm32mp-r2/lib/libutee/tee_api.c:357
    1148:	4605      	mov	r5, r0
/home/lubuntu/Dokument/GitHub/STM32-Computer/Firmware/STM32-Computer-Firmware/CA7/optee-os-3.19.0-r2/optee-os-stm32mp-3.19.0-stm32mp-r2/lib/libutee/tee_api.c:360
    114a:	2001      	movs	r0, #1
    114c:	f000 ee1a 	blx	1d84 <_utee_get_time>
    1150:	4604      	mov	r4, r0
/home/lubuntu/Dokument/GitHub/STM32-Computer/Firmware/STM32-Computer-Firmware/CA7/optee-os-3.19.0-r2/optee-os-stm32mp-3.19.0-stm32mp-r2/lib/libutee/tee_api.c:362
    1152:	b170      	cbz	r0, 1172 <TEE_GetTAPersistentTime+0x2e>
/home/lubuntu/Dokument/GitHub/STM32-Computer/Firmware/STM32-Computer-Firmware/CA7/optee-os-3.19.0-r2/optee-os-stm32mp-3.19.0-stm32mp-r2/lib/libutee/tee_api.c:362 (discriminator 1)
    1154:	4b08      	ldr	r3, [pc, #32]	@ (1178 <TEE_GetTAPersistentTime+0x34>)
    1156:	4298      	cmp	r0, r3
    1158:	d00b      	beq.n	1172 <TEE_GetTAPersistentTime+0x2e>
/home/lubuntu/Dokument/GitHub/STM32-Computer/Firmware/STM32-Computer-Firmware/CA7/optee-os-3.19.0-r2/optee-os-stm32mp-3.19.0-stm32mp-r2/lib/libutee/tee_api.c:363
    115a:	2300      	movs	r3, #0
    115c:	602b      	str	r3, [r5, #0]
/home/lubuntu/Dokument/GitHub/STM32-Computer/Firmware/STM32-Computer-Firmware/CA7/optee-os-3.19.0-r2/optee-os-stm32mp-3.19.0-stm32mp-r2/lib/libutee/tee_api.c:364
    115e:	606b      	str	r3, [r5, #4]
/home/lubuntu/Dokument/GitHub/STM32-Computer/Firmware/STM32-Computer-Firmware/CA7/optee-os-3.19.0-r2/optee-os-stm32mp-3.19.0-stm32mp-r2/lib/libutee/tee_api.c:367
    1160:	f500 4330 	add.w	r3, r0, #45056	@ 0xb000
    1164:	2b01      	cmp	r3, #1
    1166:	d904      	bls.n	1172 <TEE_GetTAPersistentTime+0x2e>
/home/lubuntu/Dokument/GitHub/STM32-Computer/Firmware/STM32-Computer-Firmware/CA7/optee-os-3.19.0-r2/optee-os-stm32mp-3.19.0-stm32mp-r2/lib/libutee/tee_api.c:370
    1168:	4b04      	ldr	r3, [pc, #16]	@ (117c <TEE_GetTAPersistentTime+0x38>)
    116a:	4298      	cmp	r0, r3
    116c:	d001      	beq.n	1172 <TEE_GetTAPersistentTime+0x2e>
/home/lubuntu/Dokument/GitHub/STM32-Computer/Firmware/STM32-Computer-Firmware/CA7/optee-os-3.19.0-r2/optee-os-stm32mp-3.19.0-stm32mp-r2/lib/libutee/tee_api.c:372
    116e:	f000 fc7b 	bl	1a68 <TEE_Panic>
/home/lubuntu/Dokument/GitHub/STM32-Computer/Firmware/STM32-Computer-Firmware/CA7/optee-os-3.19.0-r2/optee-os-stm32mp-3.19.0-stm32mp-r2/lib/libutee/tee_api.c:375
    1172:	4620      	mov	r0, r4
    1174:	bd38      	pop	{r3, r4, r5, pc}
    1176:	bf00      	nop
    1178:	ffff300f 	.word	0xffff300f
    117c:	ffff000c 	.word	0xffff000c

00001180 <TEE_SetTAPersistentTime>:
TEE_SetTAPersistentTime():
/home/lubuntu/Dokument/GitHub/STM32-Computer/Firmware/STM32-Computer-Firmware/CA7/optee-os-3.19.0-r2/optee-os-stm32mp-3.19.0-stm32mp-r2/lib/libutee/tee_api.c:378
    1180:	b510      	push	{r4, lr}
/home/lubuntu/Dokument/GitHub/STM32-Computer/Firmware/STM32-Computer-Firmware/CA7/optee-os-3.19.0-r2/optee-os-stm32mp-3.19.0-stm32mp-r2/lib/libutee/tee_api.c:381
    1182:	f000 ee0a 	blx	1d98 <_utee_set_ta_time>
/home/lubuntu/Dokument/GitHub/STM32-Computer/Firmware/STM32-Computer-Firmware/CA7/optee-os-3.19.0-r2/optee-os-stm32mp-3.19.0-stm32mp-r2/lib/libutee/tee_api.c:383
    1186:	4604      	mov	r4, r0
    1188:	b138      	cbz	r0, 119a <TEE_SetTAPersistentTime+0x1a>
/home/lubuntu/Dokument/GitHub/STM32-Computer/Firmware/STM32-Computer-Firmware/CA7/optee-os-3.19.0-r2/optee-os-stm32mp-3.19.0-stm32mp-r2/lib/libutee/tee_api.c:383 (discriminator 1)
    118a:	4b05      	ldr	r3, [pc, #20]	@ (11a0 <TEE_SetTAPersistentTime+0x20>)
    118c:	4298      	cmp	r0, r3
    118e:	d004      	beq.n	119a <TEE_SetTAPersistentTime+0x1a>
/home/lubuntu/Dokument/GitHub/STM32-Computer/Firmware/STM32-Computer-Firmware/CA7/optee-os-3.19.0-r2/optee-os-stm32mp-3.19.0-stm32mp-r2/lib/libutee/tee_api.c:384
    1190:	4b04      	ldr	r3, [pc, #16]	@ (11a4 <TEE_SetTAPersistentTime+0x24>)
    1192:	4298      	cmp	r0, r3
    1194:	d001      	beq.n	119a <TEE_SetTAPersistentTime+0x1a>
/home/lubuntu/Dokument/GitHub/STM32-Computer/Firmware/STM32-Computer-Firmware/CA7/optee-os-3.19.0-r2/optee-os-stm32mp-3.19.0-stm32mp-r2/lib/libutee/tee_api.c:386
    1196:	f000 fc67 	bl	1a68 <TEE_Panic>
/home/lubuntu/Dokument/GitHub/STM32-Computer/Firmware/STM32-Computer-Firmware/CA7/optee-os-3.19.0-r2/optee-os-stm32mp-3.19.0-stm32mp-r2/lib/libutee/tee_api.c:389
    119a:	4620      	mov	r0, r4
    119c:	bd10      	pop	{r4, pc}
    119e:	bf00      	nop
    11a0:	ffff000c 	.word	0xffff000c
    11a4:	ffff3041 	.word	0xffff3041

000011a8 <TEE_GetREETime>:
TEE_GetREETime():
/home/lubuntu/Dokument/GitHub/STM32-Computer/Firmware/STM32-Computer-Firmware/CA7/optee-os-3.19.0-r2/optee-os-stm32mp-3.19.0-stm32mp-r2/lib/libutee/tee_api.c:392
    11a8:	4601      	mov	r1, r0
/home/lubuntu/Dokument/GitHub/STM32-Computer/Firmware/STM32-Computer-Firmware/CA7/optee-os-3.19.0-r2/optee-os-stm32mp-3.19.0-stm32mp-r2/lib/libutee/tee_api.c:393
    11aa:	2002      	movs	r0, #2
/home/lubuntu/Dokument/GitHub/STM32-Computer/Firmware/STM32-Computer-Firmware/CA7/optee-os-3.19.0-r2/optee-os-stm32mp-3.19.0-stm32mp-r2/lib/libutee/tee_api.c:392
    11ac:	b508      	push	{r3, lr}
/home/lubuntu/Dokument/GitHub/STM32-Computer/Firmware/STM32-Computer-Firmware/CA7/optee-os-3.19.0-r2/optee-os-stm32mp-3.19.0-stm32mp-r2/lib/libutee/tee_api.c:393
    11ae:	f000 edea 	blx	1d84 <_utee_get_time>
/home/lubuntu/Dokument/GitHub/STM32-Computer/Firmware/STM32-Computer-Firmware/CA7/optee-os-3.19.0-r2/optee-os-stm32mp-3.19.0-stm32mp-r2/lib/libutee/tee_api.c:395
    11b2:	b118      	cbz	r0, 11bc <TEE_GetREETime+0x14>
/home/lubuntu/Dokument/GitHub/STM32-Computer/Firmware/STM32-Computer-Firmware/CA7/optee-os-3.19.0-r2/optee-os-stm32mp-3.19.0-stm32mp-r2/lib/libutee/tee_api.c:397
    11b4:	e8bd 4008 	ldmia.w	sp!, {r3, lr}
/home/lubuntu/Dokument/GitHub/STM32-Computer/Firmware/STM32-Computer-Firmware/CA7/optee-os-3.19.0-r2/optee-os-stm32mp-3.19.0-stm32mp-r2/lib/libutee/tee_api.c:396
    11b8:	f000 bc56 	b.w	1a68 <TEE_Panic>
/home/lubuntu/Dokument/GitHub/STM32-Computer/Firmware/STM32-Computer-Firmware/CA7/optee-os-3.19.0-r2/optee-os-stm32mp-3.19.0-stm32mp-r2/lib/libutee/tee_api.c:397
    11bc:	bd08      	pop	{r3, pc}

000011be <TEE_Malloc>:
TEE_Malloc():
/home/lubuntu/Dokument/GitHub/STM32-Computer/Firmware/STM32-Computer-Firmware/CA7/optee-os-3.19.0-r2/optee-os-stm32mp-3.19.0-stm32mp-r2/lib/libutee/tee_api.c:400
    11be:	460b      	mov	r3, r1
    11c0:	b507      	push	{r0, r1, r2, lr}
/home/lubuntu/Dokument/GitHub/STM32-Computer/Firmware/STM32-Computer-Firmware/CA7/optee-os-3.19.0-r2/optee-os-stm32mp-3.19.0-stm32mp-r2/lib/libutee/tee_api.c:401
    11c2:	4601      	mov	r1, r0
    11c4:	b1f0      	cbz	r0, 1204 <TEE_Malloc+0x46>
/home/lubuntu/Dokument/GitHub/STM32-Computer/Firmware/STM32-Computer-Firmware/CA7/optee-os-3.19.0-r2/optee-os-stm32mp-3.19.0-stm32mp-r2/lib/libutee/tee_api.c:404
    11c6:	b92b      	cbnz	r3, 11d4 <TEE_Malloc+0x16>
/home/lubuntu/Dokument/GitHub/STM32-Computer/Firmware/STM32-Computer-Firmware/CA7/optee-os-3.19.0-r2/optee-os-stm32mp-3.19.0-stm32mp-r2/lib/libutee/tee_api.c:405
    11c8:	2001      	movs	r0, #1
/home/lubuntu/Dokument/GitHub/STM32-Computer/Firmware/STM32-Computer-Firmware/CA7/optee-os-3.19.0-r2/optee-os-stm32mp-3.19.0-stm32mp-r2/lib/libutee/tee_api.c:412
    11ca:	b003      	add	sp, #12
    11cc:	f85d eb04 	ldr.w	lr, [sp], #4
/home/lubuntu/Dokument/GitHub/STM32-Computer/Firmware/STM32-Computer-Firmware/CA7/optee-os-3.19.0-r2/optee-os-stm32mp-3.19.0-stm32mp-r2/lib/libutee/tee_api.c:405
    11d0:	f006 b9ee 	b.w	75b0 <calloc>
/home/lubuntu/Dokument/GitHub/STM32-Computer/Firmware/STM32-Computer-Firmware/CA7/optee-os-3.19.0-r2/optee-os-stm32mp-3.19.0-stm32mp-r2/lib/libutee/tee_api.c:406
    11d4:	f1b3 4f00 	cmp.w	r3, #2147483648	@ 0x80000000
    11d8:	d104      	bne.n	11e4 <TEE_Malloc+0x26>
/home/lubuntu/Dokument/GitHub/STM32-Computer/Firmware/STM32-Computer-Firmware/CA7/optee-os-3.19.0-r2/optee-os-stm32mp-3.19.0-stm32mp-r2/lib/libutee/tee_api.c:412
    11da:	b003      	add	sp, #12
    11dc:	f85d eb04 	ldr.w	lr, [sp], #4
/home/lubuntu/Dokument/GitHub/STM32-Computer/Firmware/STM32-Computer-Firmware/CA7/optee-os-3.19.0-r2/optee-os-stm32mp-3.19.0-stm32mp-r2/lib/libutee/tee_api.c:407
    11e0:	f006 b9dc 	b.w	759c <malloc>
/home/lubuntu/Dokument/GitHub/STM32-Computer/Firmware/STM32-Computer-Firmware/CA7/optee-os-3.19.0-r2/optee-os-stm32mp-3.19.0-stm32mp-r2/lib/libutee/tee_api.c:409
    11e4:	9301      	str	r3, [sp, #4]
    11e6:	f240 1199 	movw	r1, #409	@ 0x199
    11ea:	4b07      	ldr	r3, [pc, #28]	@ (1208 <TEE_Malloc+0x4a>)
    11ec:	4807      	ldr	r0, [pc, #28]	@ (120c <TEE_Malloc+0x4e>)
    11ee:	447b      	add	r3, pc
    11f0:	9300      	str	r3, [sp, #0]
    11f2:	2301      	movs	r3, #1
    11f4:	4478      	add	r0, pc
    11f6:	461a      	mov	r2, r3
    11f8:	f7ff f9b8 	bl	56c <trace_printf>
/home/lubuntu/Dokument/GitHub/STM32-Computer/Firmware/STM32-Computer-Firmware/CA7/optee-os-3.19.0-r2/optee-os-stm32mp-3.19.0-stm32mp-r2/lib/libutee/tee_api.c:411
    11fc:	2000      	movs	r0, #0
/home/lubuntu/Dokument/GitHub/STM32-Computer/Firmware/STM32-Computer-Firmware/CA7/optee-os-3.19.0-r2/optee-os-stm32mp-3.19.0-stm32mp-r2/lib/libutee/tee_api.c:412
    11fe:	b003      	add	sp, #12
    1200:	f85d fb04 	ldr.w	pc, [sp], #4
/home/lubuntu/Dokument/GitHub/STM32-Computer/Firmware/STM32-Computer-Firmware/CA7/optee-os-3.19.0-r2/optee-os-stm32mp-3.19.0-stm32mp-r2/lib/libutee/tee_api.c:402
    1204:	2001      	movs	r0, #1
    1206:	e7fa      	b.n	11fe <TEE_Malloc+0x40>
    1208:	00009086 	.word	0x00009086
    120c:	00009091 	.word	0x00009091

00001210 <TEE_Free>:
TEE_Free():
/home/lubuntu/Dokument/GitHub/STM32-Computer/Firmware/STM32-Computer-Firmware/CA7/optee-os-3.19.0-r2/optee-os-stm32mp-3.19.0-stm32mp-r2/lib/libutee/tee_api.c:429
    1210:	2801      	cmp	r0, #1
    1212:	d001      	beq.n	1218 <TEE_Free+0x8>
/home/lubuntu/Dokument/GitHub/STM32-Computer/Firmware/STM32-Computer-Firmware/CA7/optee-os-3.19.0-r2/optee-os-stm32mp-3.19.0-stm32mp-r2/lib/libutee/tee_api.c:430
    1214:	f006 ba05 	b.w	7622 <free>
/home/lubuntu/Dokument/GitHub/STM32-Computer/Firmware/STM32-Computer-Firmware/CA7/optee-os-3.19.0-r2/optee-os-stm32mp-3.19.0-stm32mp-r2/lib/libutee/tee_api.c:431
    1218:	4770      	bx	lr

0000121a <TEE_Realloc>:
TEE_Realloc():
/home/lubuntu/Dokument/GitHub/STM32-Computer/Firmware/STM32-Computer-Firmware/CA7/optee-os-3.19.0-r2/optee-os-stm32mp-3.19.0-stm32mp-r2/lib/libutee/tee_api.c:415
    121a:	b508      	push	{r3, lr}
/home/lubuntu/Dokument/GitHub/STM32-Computer/Firmware/STM32-Computer-Firmware/CA7/optee-os-3.19.0-r2/optee-os-stm32mp-3.19.0-stm32mp-r2/lib/libutee/tee_api.c:416
    121c:	b149      	cbz	r1, 1232 <TEE_Realloc+0x18>
/home/lubuntu/Dokument/GitHub/STM32-Computer/Firmware/STM32-Computer-Firmware/CA7/optee-os-3.19.0-r2/optee-os-stm32mp-3.19.0-stm32mp-r2/lib/libutee/tee_api.c:421
    121e:	2801      	cmp	r0, #1
    1220:	d103      	bne.n	122a <TEE_Realloc+0x10>
/home/lubuntu/Dokument/GitHub/STM32-Computer/Firmware/STM32-Computer-Firmware/CA7/optee-os-3.19.0-r2/optee-os-stm32mp-3.19.0-stm32mp-r2/lib/libutee/tee_api.c:425
    1222:	e8bd 4008 	ldmia.w	sp!, {r3, lr}
/home/lubuntu/Dokument/GitHub/STM32-Computer/Firmware/STM32-Computer-Firmware/CA7/optee-os-3.19.0-r2/optee-os-stm32mp-3.19.0-stm32mp-r2/lib/libutee/tee_api.c:422
    1226:	f006 b9c3 	b.w	75b0 <calloc>
/home/lubuntu/Dokument/GitHub/STM32-Computer/Firmware/STM32-Computer-Firmware/CA7/optee-os-3.19.0-r2/optee-os-stm32mp-3.19.0-stm32mp-r2/lib/libutee/tee_api.c:425
    122a:	e8bd 4008 	ldmia.w	sp!, {r3, lr}
/home/lubuntu/Dokument/GitHub/STM32-Computer/Firmware/STM32-Computer-Firmware/CA7/optee-os-3.19.0-r2/optee-os-stm32mp-3.19.0-stm32mp-r2/lib/libutee/tee_api.c:424
    122e:	f006 b9cf 	b.w	75d0 <realloc>
/home/lubuntu/Dokument/GitHub/STM32-Computer/Firmware/STM32-Computer-Firmware/CA7/optee-os-3.19.0-r2/optee-os-stm32mp-3.19.0-stm32mp-r2/lib/libutee/tee_api.c:417
    1232:	f7ff ffed 	bl	1210 <TEE_Free>
/home/lubuntu/Dokument/GitHub/STM32-Computer/Firmware/STM32-Computer-Firmware/CA7/optee-os-3.19.0-r2/optee-os-stm32mp-3.19.0-stm32mp-r2/lib/libutee/tee_api.c:425
    1236:	2001      	movs	r0, #1
    1238:	bd08      	pop	{r3, pc}

0000123a <TEE_CacheClean>:
TEE_CacheClean():
/home/lubuntu/Dokument/GitHub/STM32-Computer/Firmware/STM32-Computer-Firmware/CA7/optee-os-3.19.0-r2/optee-os-stm32mp-3.19.0-stm32mp-r2/lib/libutee/tee_api.c:436
    123a:	2200      	movs	r2, #0
    123c:	f008 bd6c 	b.w	9d18 <___utee_cache_operation_from_thumb>

00001240 <TEE_CacheFlush>:
TEE_CacheFlush():
/home/lubuntu/Dokument/GitHub/STM32-Computer/Firmware/STM32-Computer-Firmware/CA7/optee-os-3.19.0-r2/optee-os-stm32mp-3.19.0-stm32mp-r2/lib/libutee/tee_api.c:440
    1240:	2201      	movs	r2, #1
    1242:	f008 bd69 	b.w	9d18 <___utee_cache_operation_from_thumb>

00001246 <TEE_CacheInvalidate>:
TEE_CacheInvalidate():
/home/lubuntu/Dokument/GitHub/STM32-Computer/Firmware/STM32-Computer-Firmware/CA7/optee-os-3.19.0-r2/optee-os-stm32mp-3.19.0-stm32mp-r2/lib/libutee/tee_api.c:445
    1246:	2202      	movs	r2, #2
    1248:	f008 bd66 	b.w	9d18 <___utee_cache_operation_from_thumb>

0000124c <__utee_from_attr>:
__utee_from_attr():
/home/lubuntu/Dokument/GitHub/STM32-Computer/Firmware/STM32-Computer-Firmware/CA7/optee-os-3.19.0-r2/optee-os-stm32mp-3.19.0-stm32mp-r2/lib/libutee/tee_api_objects.c:19
    124c:	2318      	movs	r3, #24
    124e:	fb03 0202 	mla	r2, r3, r2, r0
/home/lubuntu/Dokument/GitHub/STM32-Computer/Firmware/STM32-Computer-Firmware/CA7/optee-os-3.19.0-r2/optee-os-stm32mp-3.19.0-stm32mp-r2/lib/libutee/tee_api_objects.c:23
    1252:	2300      	movs	r3, #0
/home/lubuntu/Dokument/GitHub/STM32-Computer/Firmware/STM32-Computer-Firmware/CA7/optee-os-3.19.0-r2/optee-os-stm32mp-3.19.0-stm32mp-r2/lib/libutee/tee_api_objects.c:16
    1254:	b530      	push	{r4, r5, lr}
/home/lubuntu/Dokument/GitHub/STM32-Computer/Firmware/STM32-Computer-Firmware/CA7/optee-os-3.19.0-r2/optee-os-stm32mp-3.19.0-stm32mp-r2/lib/libutee/tee_api_objects.c:19 (discriminator 1)
    1256:	4290      	cmp	r0, r2
    1258:	d100      	bne.n	125c <__utee_from_attr+0x10>
/home/lubuntu/Dokument/GitHub/STM32-Computer/Firmware/STM32-Computer-Firmware/CA7/optee-os-3.19.0-r2/optee-os-stm32mp-3.19.0-stm32mp-r2/lib/libutee/tee_api_objects.c:29
    125a:	bd30      	pop	{r4, r5, pc}
/home/lubuntu/Dokument/GitHub/STM32-Computer/Firmware/STM32-Computer-Firmware/CA7/optee-os-3.19.0-r2/optee-os-stm32mp-3.19.0-stm32mp-r2/lib/libutee/tee_api_objects.c:20
    125c:	680c      	ldr	r4, [r1, #0]
    125e:	310c      	adds	r1, #12
    1260:	6104      	str	r4, [r0, #16]
/home/lubuntu/Dokument/GitHub/STM32-Computer/Firmware/STM32-Computer-Firmware/CA7/optee-os-3.19.0-r2/optee-os-stm32mp-3.19.0-stm32mp-r2/lib/libutee/tee_api_objects.c:23
    1262:	f851 4c04 	ldr.w	r4, [r1, #-4]
/home/lubuntu/Dokument/GitHub/STM32-Computer/Firmware/STM32-Computer-Firmware/CA7/optee-os-3.19.0-r2/optee-os-stm32mp-3.19.0-stm32mp-r2/lib/libutee/tee_api_objects.c:22
    1266:	f851 5c08 	ldr.w	r5, [r1, #-8]
/home/lubuntu/Dokument/GitHub/STM32-Computer/Firmware/STM32-Computer-Firmware/CA7/optee-os-3.19.0-r2/optee-os-stm32mp-3.19.0-stm32mp-r2/lib/libutee/tee_api_objects.c:23
    126a:	e9c0 4302 	strd	r4, r3, [r0, #8]
/home/lubuntu/Dokument/GitHub/STM32-Computer/Firmware/STM32-Computer-Firmware/CA7/optee-os-3.19.0-r2/optee-os-stm32mp-3.19.0-stm32mp-r2/lib/libutee/tee_api_objects.c:22
    126e:	e9c0 5300 	strd	r5, r3, [r0]
    1272:	3018      	adds	r0, #24
    1274:	e7ef      	b.n	1256 <__utee_from_attr+0xa>

00001276 <TEE_GetObjectInfo>:
TEE_GetObjectInfo():
/home/lubuntu/Dokument/GitHub/STM32-Computer/Firmware/STM32-Computer-Firmware/CA7/optee-os-3.19.0-r2/optee-os-stm32mp-3.19.0-stm32mp-r2/lib/libutee/tee_api_objects.c:39
    1276:	b510      	push	{r4, lr}
    1278:	460c      	mov	r4, r1
/home/lubuntu/Dokument/GitHub/STM32-Computer/Firmware/STM32-Computer-Firmware/CA7/optee-os-3.19.0-r2/optee-os-stm32mp-3.19.0-stm32mp-r2/lib/libutee/tee_api_objects.c:42
    127a:	f000 edfa 	blx	1e70 <_utee_cryp_obj_get_info>
/home/lubuntu/Dokument/GitHub/STM32-Computer/Firmware/STM32-Computer-Firmware/CA7/optee-os-3.19.0-r2/optee-os-stm32mp-3.19.0-stm32mp-r2/lib/libutee/tee_api_objects.c:44
    127e:	b108      	cbz	r0, 1284 <TEE_GetObjectInfo+0xe>
/home/lubuntu/Dokument/GitHub/STM32-Computer/Firmware/STM32-Computer-Firmware/CA7/optee-os-3.19.0-r2/optee-os-stm32mp-3.19.0-stm32mp-r2/lib/libutee/tee_api_objects.c:45
    1280:	f000 fbf2 	bl	1a68 <TEE_Panic>
/home/lubuntu/Dokument/GitHub/STM32-Computer/Firmware/STM32-Computer-Firmware/CA7/optee-os-3.19.0-r2/optee-os-stm32mp-3.19.0-stm32mp-r2/lib/libutee/tee_api_objects.c:47
    1284:	6822      	ldr	r2, [r4, #0]
    1286:	4b05      	ldr	r3, [pc, #20]	@ (129c <TEE_GetObjectInfo+0x26>)
    1288:	429a      	cmp	r2, r3
    128a:	d106      	bne.n	129a <TEE_GetObjectInfo+0x24>
/home/lubuntu/Dokument/GitHub/STM32-Computer/Firmware/STM32-Computer-Firmware/CA7/optee-os-3.19.0-r2/optee-os-stm32mp-3.19.0-stm32mp-r2/lib/libutee/tee_api_objects.c:48
    128c:	2300      	movs	r3, #0
    128e:	6063      	str	r3, [r4, #4]
/home/lubuntu/Dokument/GitHub/STM32-Computer/Firmware/STM32-Computer-Firmware/CA7/optee-os-3.19.0-r2/optee-os-stm32mp-3.19.0-stm32mp-r2/lib/libutee/tee_api_objects.c:49
    1290:	60a3      	str	r3, [r4, #8]
/home/lubuntu/Dokument/GitHub/STM32-Computer/Firmware/STM32-Computer-Firmware/CA7/optee-os-3.19.0-r2/optee-os-stm32mp-3.19.0-stm32mp-r2/lib/libutee/tee_api_objects.c:50
    1292:	60e3      	str	r3, [r4, #12]
/home/lubuntu/Dokument/GitHub/STM32-Computer/Firmware/STM32-Computer-Firmware/CA7/optee-os-3.19.0-r2/optee-os-stm32mp-3.19.0-stm32mp-r2/lib/libutee/tee_api_objects.c:51
    1294:	6123      	str	r3, [r4, #16]
/home/lubuntu/Dokument/GitHub/STM32-Computer/Firmware/STM32-Computer-Firmware/CA7/optee-os-3.19.0-r2/optee-os-stm32mp-3.19.0-stm32mp-r2/lib/libutee/tee_api_objects.c:52
    1296:	6163      	str	r3, [r4, #20]
/home/lubuntu/Dokument/GitHub/STM32-Computer/Firmware/STM32-Computer-Firmware/CA7/optee-os-3.19.0-r2/optee-os-stm32mp-3.19.0-stm32mp-r2/lib/libutee/tee_api_objects.c:53
    1298:	61a3      	str	r3, [r4, #24]
/home/lubuntu/Dokument/GitHub/STM32-Computer/Firmware/STM32-Computer-Firmware/CA7/optee-os-3.19.0-r2/optee-os-stm32mp-3.19.0-stm32mp-r2/lib/libutee/tee_api_objects.c:55
    129a:	bd10      	pop	{r4, pc}
    129c:	a00000be 	.word	0xa00000be

000012a0 <TEE_GetObjectInfo1>:
TEE_GetObjectInfo1():
/home/lubuntu/Dokument/GitHub/STM32-Computer/Firmware/STM32-Computer-Firmware/CA7/optee-os-3.19.0-r2/optee-os-stm32mp-3.19.0-stm32mp-r2/lib/libutee/tee_api_objects.c:58
    12a0:	b510      	push	{r4, lr}
/home/lubuntu/Dokument/GitHub/STM32-Computer/Firmware/STM32-Computer-Firmware/CA7/optee-os-3.19.0-r2/optee-os-stm32mp-3.19.0-stm32mp-r2/lib/libutee/tee_api_objects.c:61
    12a2:	f000 ede6 	blx	1e70 <_utee_cryp_obj_get_info>
/home/lubuntu/Dokument/GitHub/STM32-Computer/Firmware/STM32-Computer-Firmware/CA7/optee-os-3.19.0-r2/optee-os-stm32mp-3.19.0-stm32mp-r2/lib/libutee/tee_api_objects.c:63
    12a6:	4604      	mov	r4, r0
    12a8:	b130      	cbz	r0, 12b8 <TEE_GetObjectInfo1+0x18>
/home/lubuntu/Dokument/GitHub/STM32-Computer/Firmware/STM32-Computer-Firmware/CA7/optee-os-3.19.0-r2/optee-os-stm32mp-3.19.0-stm32mp-r2/lib/libutee/tee_api_objects.c:63 (discriminator 1)
    12aa:	4b04      	ldr	r3, [pc, #16]	@ (12bc <TEE_GetObjectInfo1+0x1c>)
    12ac:	f020 0202 	bic.w	r2, r0, #2
    12b0:	429a      	cmp	r2, r3
    12b2:	d001      	beq.n	12b8 <TEE_GetObjectInfo1+0x18>
/home/lubuntu/Dokument/GitHub/STM32-Computer/Firmware/STM32-Computer-Firmware/CA7/optee-os-3.19.0-r2/optee-os-stm32mp-3.19.0-stm32mp-r2/lib/libutee/tee_api_objects.c:66
    12b4:	f000 fbd8 	bl	1a68 <TEE_Panic>
/home/lubuntu/Dokument/GitHub/STM32-Computer/Firmware/STM32-Computer-Firmware/CA7/optee-os-3.19.0-r2/optee-os-stm32mp-3.19.0-stm32mp-r2/lib/libutee/tee_api_objects.c:69
    12b8:	4620      	mov	r0, r4
    12ba:	bd10      	pop	{r4, pc}
    12bc:	f0100001 	.word	0xf0100001

000012c0 <TEE_RestrictObjectUsage1>:
TEE_RestrictObjectUsage1():
/home/lubuntu/Dokument/GitHub/STM32-Computer/Firmware/STM32-Computer-Firmware/CA7/optee-os-3.19.0-r2/optee-os-stm32mp-3.19.0-stm32mp-r2/lib/libutee/tee_api_objects.c:93
    12c0:	b510      	push	{r4, lr}
/home/lubuntu/Dokument/GitHub/STM32-Computer/Firmware/STM32-Computer-Firmware/CA7/optee-os-3.19.0-r2/optee-os-stm32mp-3.19.0-stm32mp-r2/lib/libutee/tee_api_objects.c:96
    12c2:	f000 ede0 	blx	1e84 <_utee_cryp_obj_restrict_usage>
/home/lubuntu/Dokument/GitHub/STM32-Computer/Firmware/STM32-Computer-Firmware/CA7/optee-os-3.19.0-r2/optee-os-stm32mp-3.19.0-stm32mp-r2/lib/libutee/tee_api_objects.c:99
    12c6:	4604      	mov	r4, r0
    12c8:	b130      	cbz	r0, 12d8 <TEE_RestrictObjectUsage1+0x18>
/home/lubuntu/Dokument/GitHub/STM32-Computer/Firmware/STM32-Computer-Firmware/CA7/optee-os-3.19.0-r2/optee-os-stm32mp-3.19.0-stm32mp-r2/lib/libutee/tee_api_objects.c:99 (discriminator 1)
    12ca:	4b04      	ldr	r3, [pc, #16]	@ (12dc <TEE_RestrictObjectUsage1+0x1c>)
    12cc:	f020 0202 	bic.w	r2, r0, #2
    12d0:	429a      	cmp	r2, r3
    12d2:	d001      	beq.n	12d8 <TEE_RestrictObjectUsage1+0x18>
/home/lubuntu/Dokument/GitHub/STM32-Computer/Firmware/STM32-Computer-Firmware/CA7/optee-os-3.19.0-r2/optee-os-stm32mp-3.19.0-stm32mp-r2/lib/libutee/tee_api_objects.c:102
    12d4:	f000 fbc8 	bl	1a68 <TEE_Panic>
/home/lubuntu/Dokument/GitHub/STM32-Computer/Firmware/STM32-Computer-Firmware/CA7/optee-os-3.19.0-r2/optee-os-stm32mp-3.19.0-stm32mp-r2/lib/libutee/tee_api_objects.c:105
    12d8:	4620      	mov	r0, r4
    12da:	bd10      	pop	{r4, pc}
    12dc:	f0100001 	.word	0xf0100001

000012e0 <TEE_RestrictObjectUsage>:
TEE_RestrictObjectUsage():
/home/lubuntu/Dokument/GitHub/STM32-Computer/Firmware/STM32-Computer-Firmware/CA7/optee-os-3.19.0-r2/optee-os-stm32mp-3.19.0-stm32mp-r2/lib/libutee/tee_api_objects.c:78
    12e0:	b530      	push	{r4, r5, lr}
    12e2:	b089      	sub	sp, #36	@ 0x24
    12e4:	460d      	mov	r5, r1
/home/lubuntu/Dokument/GitHub/STM32-Computer/Firmware/STM32-Computer-Firmware/CA7/optee-os-3.19.0-r2/optee-os-stm32mp-3.19.0-stm32mp-r2/lib/libutee/tee_api_objects.c:82
    12e6:	a901      	add	r1, sp, #4
/home/lubuntu/Dokument/GitHub/STM32-Computer/Firmware/STM32-Computer-Firmware/CA7/optee-os-3.19.0-r2/optee-os-stm32mp-3.19.0-stm32mp-r2/lib/libutee/tee_api_objects.c:78
    12e8:	4604      	mov	r4, r0
/home/lubuntu/Dokument/GitHub/STM32-Computer/Firmware/STM32-Computer-Firmware/CA7/optee-os-3.19.0-r2/optee-os-stm32mp-3.19.0-stm32mp-r2/lib/libutee/tee_api_objects.c:82
    12ea:	f000 edc2 	blx	1e70 <_utee_cryp_obj_get_info>
/home/lubuntu/Dokument/GitHub/STM32-Computer/Firmware/STM32-Computer-Firmware/CA7/optee-os-3.19.0-r2/optee-os-stm32mp-3.19.0-stm32mp-r2/lib/libutee/tee_api_objects.c:83
    12ee:	4b06      	ldr	r3, [pc, #24]	@ (1308 <TEE_RestrictObjectUsage+0x28>)
    12f0:	9a01      	ldr	r2, [sp, #4]
    12f2:	429a      	cmp	r2, r3
    12f4:	d006      	beq.n	1304 <TEE_RestrictObjectUsage+0x24>
/home/lubuntu/Dokument/GitHub/STM32-Computer/Firmware/STM32-Computer-Firmware/CA7/optee-os-3.19.0-r2/optee-os-stm32mp-3.19.0-stm32mp-r2/lib/libutee/tee_api_objects.c:86
    12f6:	4629      	mov	r1, r5
    12f8:	4620      	mov	r0, r4
    12fa:	f7ff ffe1 	bl	12c0 <TEE_RestrictObjectUsage1>
/home/lubuntu/Dokument/GitHub/STM32-Computer/Firmware/STM32-Computer-Firmware/CA7/optee-os-3.19.0-r2/optee-os-stm32mp-3.19.0-stm32mp-r2/lib/libutee/tee_api_objects.c:88
    12fe:	b108      	cbz	r0, 1304 <TEE_RestrictObjectUsage+0x24>
/home/lubuntu/Dokument/GitHub/STM32-Computer/Firmware/STM32-Computer-Firmware/CA7/optee-os-3.19.0-r2/optee-os-stm32mp-3.19.0-stm32mp-r2/lib/libutee/tee_api_objects.c:89
    1300:	f000 fbb2 	bl	1a68 <TEE_Panic>
/home/lubuntu/Dokument/GitHub/STM32-Computer/Firmware/STM32-Computer-Firmware/CA7/optee-os-3.19.0-r2/optee-os-stm32mp-3.19.0-stm32mp-r2/lib/libutee/tee_api_objects.c:90
    1304:	b009      	add	sp, #36	@ 0x24
    1306:	bd30      	pop	{r4, r5, pc}
    1308:	a00000be 	.word	0xa00000be

0000130c <TEE_GetObjectBufferAttribute>:
TEE_GetObjectBufferAttribute():
/home/lubuntu/Dokument/GitHub/STM32-Computer/Firmware/STM32-Computer-Firmware/CA7/optee-os-3.19.0-r2/optee-os-stm32mp-3.19.0-stm32mp-r2/lib/libutee/tee_api_objects.c:110
    130c:	e92d 41f0 	stmdb	sp!, {r4, r5, r6, r7, r8, lr}
    1310:	4606      	mov	r6, r0
    1312:	b08a      	sub	sp, #40	@ 0x28
/home/lubuntu/Dokument/GitHub/STM32-Computer/Firmware/STM32-Computer-Firmware/CA7/optee-os-3.19.0-r2/optee-os-stm32mp-3.19.0-stm32mp-r2/lib/libutee/tee_api_objects.c:115
    1314:	4618      	mov	r0, r3
/home/lubuntu/Dokument/GitHub/STM32-Computer/Firmware/STM32-Computer-Firmware/CA7/optee-os-3.19.0-r2/optee-os-stm32mp-3.19.0-stm32mp-r2/lib/libutee/tee_api_objects.c:110
    1316:	460f      	mov	r7, r1
/home/lubuntu/Dokument/GitHub/STM32-Computer/Firmware/STM32-Computer-Firmware/CA7/optee-os-3.19.0-r2/optee-os-stm32mp-3.19.0-stm32mp-r2/lib/libutee/tee_api_objects.c:115
    1318:	2104      	movs	r1, #4
/home/lubuntu/Dokument/GitHub/STM32-Computer/Firmware/STM32-Computer-Firmware/CA7/optee-os-3.19.0-r2/optee-os-stm32mp-3.19.0-stm32mp-r2/lib/libutee/tee_api_objects.c:110
    131a:	4690      	mov	r8, r2
    131c:	461d      	mov	r5, r3
/home/lubuntu/Dokument/GitHub/STM32-Computer/Firmware/STM32-Computer-Firmware/CA7/optee-os-3.19.0-r2/optee-os-stm32mp-3.19.0-stm32mp-r2/lib/libutee/tee_api_objects.c:115
    131e:	f000 fbe5 	bl	1aec <__utee_check_inout_annotation>
/home/lubuntu/Dokument/GitHub/STM32-Computer/Firmware/STM32-Computer-Firmware/CA7/optee-os-3.19.0-r2/optee-os-stm32mp-3.19.0-stm32mp-r2/lib/libutee/tee_api_objects.c:117
    1322:	a903      	add	r1, sp, #12
    1324:	4630      	mov	r0, r6
    1326:	f000 eda4 	blx	1e70 <_utee_cryp_obj_get_info>
/home/lubuntu/Dokument/GitHub/STM32-Computer/Firmware/STM32-Computer-Firmware/CA7/optee-os-3.19.0-r2/optee-os-stm32mp-3.19.0-stm32mp-r2/lib/libutee/tee_api_objects.c:118
    132a:	4604      	mov	r4, r0
    132c:	b970      	cbnz	r0, 134c <TEE_GetObjectBufferAttribute+0x40>
/home/lubuntu/Dokument/GitHub/STM32-Computer/Firmware/STM32-Computer-Firmware/CA7/optee-os-3.19.0-r2/optee-os-stm32mp-3.19.0-stm32mp-r2/lib/libutee/tee_api_objects.c:122
    132e:	00bb      	lsls	r3, r7, #2
    1330:	d422      	bmi.n	1378 <TEE_GetObjectBufferAttribute+0x6c>
/home/lubuntu/Dokument/GitHub/STM32-Computer/Firmware/STM32-Computer-Firmware/CA7/optee-os-3.19.0-r2/optee-os-stm32mp-3.19.0-stm32mp-r2/lib/libutee/tee_api_objects.c:127
    1332:	682b      	ldr	r3, [r5, #0]
/home/lubuntu/Dokument/GitHub/STM32-Computer/Firmware/STM32-Computer-Firmware/CA7/optee-os-3.19.0-r2/optee-os-stm32mp-3.19.0-stm32mp-r2/lib/libutee/tee_api_objects.c:128
    1334:	4642      	mov	r2, r8
    1336:	4639      	mov	r1, r7
/home/lubuntu/Dokument/GitHub/STM32-Computer/Firmware/STM32-Computer-Firmware/CA7/optee-os-3.19.0-r2/optee-os-stm32mp-3.19.0-stm32mp-r2/lib/libutee/tee_api_objects.c:127
    1338:	e9cd 3000 	strd	r3, r0, [sp]
/home/lubuntu/Dokument/GitHub/STM32-Computer/Firmware/STM32-Computer-Firmware/CA7/optee-os-3.19.0-r2/optee-os-stm32mp-3.19.0-stm32mp-r2/lib/libutee/tee_api_objects.c:128
    133c:	466b      	mov	r3, sp
    133e:	4630      	mov	r0, r6
    1340:	f000 edaa 	blx	1e98 <_utee_cryp_obj_get_attr>
/home/lubuntu/Dokument/GitHub/STM32-Computer/Firmware/STM32-Computer-Firmware/CA7/optee-os-3.19.0-r2/optee-os-stm32mp-3.19.0-stm32mp-r2/lib/libutee/tee_api_objects.c:130
    1344:	9b00      	ldr	r3, [sp, #0]
/home/lubuntu/Dokument/GitHub/STM32-Computer/Firmware/STM32-Computer-Firmware/CA7/optee-os-3.19.0-r2/optee-os-stm32mp-3.19.0-stm32mp-r2/lib/libutee/tee_api_objects.c:133
    1346:	4604      	mov	r4, r0
/home/lubuntu/Dokument/GitHub/STM32-Computer/Firmware/STM32-Computer-Firmware/CA7/optee-os-3.19.0-r2/optee-os-stm32mp-3.19.0-stm32mp-r2/lib/libutee/tee_api_objects.c:130
    1348:	602b      	str	r3, [r5, #0]
/home/lubuntu/Dokument/GitHub/STM32-Computer/Firmware/STM32-Computer-Firmware/CA7/optee-os-3.19.0-r2/optee-os-stm32mp-3.19.0-stm32mp-r2/lib/libutee/tee_api_objects.c:133
    134a:	b188      	cbz	r0, 1370 <TEE_GetObjectBufferAttribute+0x64>
/home/lubuntu/Dokument/GitHub/STM32-Computer/Firmware/STM32-Computer-Firmware/CA7/optee-os-3.19.0-r2/optee-os-stm32mp-3.19.0-stm32mp-r2/lib/libutee/tee_api_objects.c:133 (discriminator 1)
    134c:	4b0b      	ldr	r3, [pc, #44]	@ (137c <TEE_GetObjectBufferAttribute+0x70>)
    134e:	429c      	cmp	r4, r3
    1350:	d00e      	beq.n	1370 <TEE_GetObjectBufferAttribute+0x64>
/home/lubuntu/Dokument/GitHub/STM32-Computer/Firmware/STM32-Computer-Firmware/CA7/optee-os-3.19.0-r2/optee-os-stm32mp-3.19.0-stm32mp-r2/lib/libutee/tee_api_objects.c:134
    1352:	3308      	adds	r3, #8
    1354:	429c      	cmp	r4, r3
    1356:	d00b      	beq.n	1370 <TEE_GetObjectBufferAttribute+0x64>
/home/lubuntu/Dokument/GitHub/STM32-Computer/Firmware/STM32-Computer-Firmware/CA7/optee-os-3.19.0-r2/optee-os-stm32mp-3.19.0-stm32mp-r2/lib/libutee/tee_api_objects.c:135
    1358:	f1a3 637e 	sub.w	r3, r3, #266338304	@ 0xfe00000
    135c:	f1a3 130f 	sub.w	r3, r3, #983055	@ 0xf000f
    1360:	429c      	cmp	r4, r3
    1362:	d005      	beq.n	1370 <TEE_GetObjectBufferAttribute+0x64>
/home/lubuntu/Dokument/GitHub/STM32-Computer/Firmware/STM32-Computer-Firmware/CA7/optee-os-3.19.0-r2/optee-os-stm32mp-3.19.0-stm32mp-r2/lib/libutee/tee_api_objects.c:136
    1364:	3302      	adds	r3, #2
    1366:	429c      	cmp	r4, r3
    1368:	d002      	beq.n	1370 <TEE_GetObjectBufferAttribute+0x64>
/home/lubuntu/Dokument/GitHub/STM32-Computer/Firmware/STM32-Computer-Firmware/CA7/optee-os-3.19.0-r2/optee-os-stm32mp-3.19.0-stm32mp-r2/lib/libutee/tee_api_objects.c:138
    136a:	4620      	mov	r0, r4
